
/home/camey/Desktop/lab2/lab2.axf:     file format elf32-littlearm


Disassembly of section .text:

00000000 <__cs3_interrupt_vector>:
       0:	18 f0 9f e5 18 f0 9f e5 18 f0 9f e5 18 f0 9f e5     ................
      10:	18 f0 9f e5 18 f0 9f e5 18 f0 9f e5 18 f0 9f e5     ................
      20:	40 00 00 00 e8 31 01 00 ec 31 01 00 f0 31 01 00     @....1...1...1..
      30:	f4 31 01 00 e4 31 01 00 f8 31 01 00 fc 31 01 00     .1...1...1...1..

00000040 <__cs3_reset>:
      40:	ea000024 	b	d8 <__cs3_start_asm_sim>

00000044 <__cs3_start_c>:
      44:	e59f8084 	ldr	r8, [pc, #132]	; d0 <__cs3_start_c+0x8c>
      48:	e3580000 	cmp	r8, #0
      4c:	e92d4080 	push	{r7, lr}
      50:	e2488001 	sub	r8, r8, #1
      54:	0a00001c 	beq	cc <__cs3_start_c+0x88>
      58:	e59f7074 	ldr	r7, [pc, #116]	; d4 <__cs3_start_c+0x90>
      5c:	e3a00000 	mov	r0, #0
      60:	e3a01000 	mov	r1, #0
      64:	e2475010 	sub	r5, r7, #16
      68:	e8951020 	ldm	r5, {r5, r12}
      6c:	e5176008 	ldr	r6, [r7, #-8]
      70:	e155000c 	cmp	r5, r12
      74:	008cc006 	addeq	r12, r12, r6
      78:	0a000007 	beq	9c <__cs3_start_c+0x58>
      7c:	e3560000 	cmp	r6, #0
      80:	0a000005 	beq	9c <__cs3_start_c+0x58>
      84:	e1a0e005 	mov	lr, r5
      88:	e8be000c 	ldm	lr!, {r2, r3}
      8c:	e065400e 	rsb	r4, r5, lr
      90:	e1560004 	cmp	r6, r4
      94:	e8ac000c 	stmia	r12!, {r2, r3}
      98:	1afffffa 	bne	88 <__cs3_start_c+0x44>
      9c:	e517e004 	ldr	lr, [r7, #-4]
      a0:	e35e0000 	cmp	lr, #0
      a4:	11a0300c 	movne	r3, r12
      a8:	0a000003 	beq	bc <__cs3_start_c+0x78>
      ac:	e8a30003 	stmia	r3!, {r0, r1}
      b0:	e06c2003 	rsb	r2, r12, r3
      b4:	e15e0002 	cmp	lr, r2
      b8:	1afffffb 	bne	ac <__cs3_start_c+0x68>
      bc:	e2488001 	sub	r8, r8, #1
      c0:	e3780001 	cmn	r8, #1
      c4:	e2877014 	add	r7, r7, #20
      c8:	1affffe5 	bne	64 <__cs3_start_c+0x20>
      cc:	eb004a93 	bl	12b20 <__cs3_premain>
      d0:	00000001 	.word	0x00000001
      d4:	00013820 	.word	0x00013820

000000d8 <__cs3_start_asm_sim>:
      d8:	e28f103c 	add	r1, pc, #60	; 0x3c
      dc:	e3a00016 	mov	r0, #22
      e0:	ef123456 	svc	0x00123456
      e4:	e3500000 	cmp	r0, #0
      e8:	ba000008 	blt	110 <__cs3_region_zero_size_ram>
      ec:	e59f2028 	ldr	r2, [pc, #40]	; 11c <__cs3_heap_start_ptr>
      f0:	e59fd01c 	ldr	sp, [pc, #28]	; 114 <__cs3_region_zero_size_ram+0x4>
      f4:	e5920008 	ldr	r0, [r2, #8]
      f8:	e3500000 	cmp	r0, #0
      fc:	11a0d000 	movne	sp, r0
     100:	e59f1010 	ldr	r1, [pc, #16]	; 118 <__cs3_region_zero_size_ram+0x8>
     104:	e5920004 	ldr	r0, [r2, #4]
     108:	e3500000 	cmp	r0, #0
     10c:	15810000 	strne	r0, [r1]
     110:	eaffffcb 	b	44 <__cs3_start_c>
     114:	3ffffffc 	.word	0x3ffffffc
     118:	000140f4 	.word	0x000140f4

0000011c <__cs3_heap_start_ptr>:
     11c:	00014210 	.word	0x00014210

00000120 <_start>:
     120:	e51fd000 	ldr	sp, [pc, #-0]	; 128 <_start+0x8>
     124:	eaffffc6 	b	44 <__cs3_start_c>
     128:	3ffffffc 	.word	0x3ffffffc

0000012c <deregister_tm_clones>:
     12c:	e92d4008 	push	{r3, lr}
     130:	e59f002c 	ldr	r0, [pc, #44]	; 164 <deregister_tm_clones+0x38>
     134:	e59f302c 	ldr	r3, [pc, #44]	; 168 <deregister_tm_clones+0x3c>
     138:	e0603003 	rsb	r3, r0, r3
     13c:	e3530006 	cmp	r3, #6
     140:	8a000001 	bhi	14c <deregister_tm_clones+0x20>
     144:	e8bd4008 	pop	{r3, lr}
     148:	e12fff1e 	bx	lr
     14c:	e59f3018 	ldr	r3, [pc, #24]	; 16c <deregister_tm_clones+0x40>
     150:	e3530000 	cmp	r3, #0
     154:	0afffffa 	beq	144 <deregister_tm_clones+0x18>
     158:	e1a0e00f 	mov	lr, pc
     15c:	e12fff13 	bx	r3
     160:	eafffff7 	b	144 <deregister_tm_clones+0x18>
     164:	00014100 	.word	0x00014100
     168:	00014103 	.word	0x00014103
     16c:	00000000 	.word	0x00000000

00000170 <register_tm_clones>:
     170:	e92d4008 	push	{r3, lr}
     174:	e59f0034 	ldr	r0, [pc, #52]	; 1b0 <register_tm_clones+0x40>
     178:	e59f3034 	ldr	r3, [pc, #52]	; 1b4 <register_tm_clones+0x44>
     17c:	e0603003 	rsb	r3, r0, r3
     180:	e1a03143 	asr	r3, r3, #2
     184:	e0833fa3 	add	r3, r3, r3, lsr #31
     188:	e1b010c3 	asrs	r1, r3, #1
     18c:	1a000001 	bne	198 <register_tm_clones+0x28>
     190:	e8bd4008 	pop	{r3, lr}
     194:	e12fff1e 	bx	lr
     198:	e59f2018 	ldr	r2, [pc, #24]	; 1b8 <register_tm_clones+0x48>
     19c:	e3520000 	cmp	r2, #0
     1a0:	0afffffa 	beq	190 <register_tm_clones+0x20>
     1a4:	e1a0e00f 	mov	lr, pc
     1a8:	e12fff12 	bx	r2
     1ac:	eafffff7 	b	190 <register_tm_clones+0x20>
     1b0:	00014100 	.word	0x00014100
     1b4:	00014100 	.word	0x00014100
     1b8:	00000000 	.word	0x00000000

000001bc <__do_global_dtors_aux>:
     1bc:	e92d4010 	push	{r4, lr}
     1c0:	e59f402c 	ldr	r4, [pc, #44]	; 1f4 <__do_global_dtors_aux+0x38>
     1c4:	e5d43000 	ldrb	r3, [r4]
     1c8:	e3530000 	cmp	r3, #0
     1cc:	1a000006 	bne	1ec <__do_global_dtors_aux+0x30>
     1d0:	ebffffd5 	bl	12c <deregister_tm_clones>
     1d4:	e59f301c 	ldr	r3, [pc, #28]	; 1f8 <__do_global_dtors_aux+0x3c>
     1d8:	e3530000 	cmp	r3, #0
     1dc:	159f0018 	ldrne	r0, [pc, #24]	; 1fc <__do_global_dtors_aux+0x40>
     1e0:	1320f000 	nopne	{0}
     1e4:	e3a03001 	mov	r3, #1
     1e8:	e5c43000 	strb	r3, [r4]
     1ec:	e8bd4010 	pop	{r4, lr}
     1f0:	e12fff1e 	bx	lr
     1f4:	00014100 	.word	0x00014100
     1f8:	00000000 	.word	0x00000000
     1fc:	00013298 	.word	0x00013298

00000200 <frame_dummy>:
     200:	e92d4008 	push	{r3, lr}
     204:	e59f3034 	ldr	r3, [pc, #52]	; 240 <frame_dummy+0x40>
     208:	e3530000 	cmp	r3, #0
     20c:	159f0030 	ldrne	r0, [pc, #48]	; 244 <frame_dummy+0x44>
     210:	159f1030 	ldrne	r1, [pc, #48]	; 248 <frame_dummy+0x48>
     214:	1320f000 	nopne	{0}
     218:	e59f002c 	ldr	r0, [pc, #44]	; 24c <frame_dummy+0x4c>
     21c:	e5903000 	ldr	r3, [r0]
     220:	e3530000 	cmp	r3, #0
     224:	0a000003 	beq	238 <frame_dummy+0x38>
     228:	e59f3020 	ldr	r3, [pc, #32]	; 250 <frame_dummy+0x50>
     22c:	e3530000 	cmp	r3, #0
     230:	11a0e00f 	movne	lr, pc
     234:	112fff13 	bxne	r3
     238:	e8bd4008 	pop	{r3, lr}
     23c:	eaffffcb 	b	170 <register_tm_clones>
     240:	00000000 	.word	0x00000000
     244:	00013298 	.word	0x00013298
     248:	00014104 	.word	0x00014104
     24c:	00013820 	.word	0x00013820
     250:	00000000 	.word	0x00000000

00000254 <main>:
#include <ctype.h>
#include <string.h>
#include <stdlib.h>
#include <stdint.h>

int main(){
     254:	e92d43f0 	push	{r4, r5, r6, r7, r8, r9, lr}
     258:	e24dd014 	sub	sp, sp, #20
  
	//volatile uint32_t * reg = (uint32_t *) 0xFF200028; // reg base addr
	volatile int * reg = (int *) 0xFF200028; // reg base addr

	printf("Greetings and salutations\n");
     25c:	e30302a8 	movw	r0, #12968	; 0x32a8
     260:	e3400001 	movt	r0, #1
     264:	eb000098 	bl	4cc <puts>
	char buffer[16];
	int i;
	int valid = 1;
	unsigned long long int num;
	while(1){
		printf("Please enter a 32 bit integer (q to quit):");
     268:	e30352c4 	movw	r5, #12996	; 0x32c4
     26c:	e3405001 	movt	r5, #1
		scanf("%s", buffer);
     270:	e30342f0 	movw	r4, #13040	; 0x32f0
     274:	e3404001 	movt	r4, #1
		
		if(buffer[0] == 'q')
			break;	
		for(i = 0; i < strlen(buffer); i++)
		{
			if(!isdigit(buffer[i]))
     278:	e3036828 	movw	r6, #14376	; 0x3828
     27c:	e3406001 	movt	r6, #1
		{	
			num = atoll(buffer);
			if(num <= 4294967295)
				*(reg) = num;
			else
				printf("Number too big\n");
     280:	e30392f4 	movw	r9, #13044	; 0x32f4
     284:	e3409001 	movt	r9, #1
			printf("Invalid character. Try again\n");
		else	// convert to int
		{	
			num = atoll(buffer);
			if(num <= 4294967295)
				*(reg) = num;
     288:	e3a08000 	mov	r8, #0
     28c:	e34f8f20 	movt	r8, #65312	; 0xff20
				valid = 0;
				break;
			}	
		}
		if(valid == 0)
			printf("Invalid character. Try again\n");
     290:	e3037304 	movw	r7, #13060	; 0x3304
     294:	e3407001 	movt	r7, #1
	char buffer[16];
	int i;
	int valid = 1;
	unsigned long long int num;
	while(1){
		printf("Please enter a 32 bit integer (q to quit):");
     298:	e1a00005 	mov	r0, r5
     29c:	eb000055 	bl	3f8 <printf>
		scanf("%s", buffer);
     2a0:	e1a00004 	mov	r0, r4
     2a4:	e1a0100d 	mov	r1, sp
     2a8:	eb00008c 	bl	4e0 <scanf>
		//gets(buffer);
		
		if(buffer[0] == 'q')
     2ac:	e5dd3000 	ldrb	r3, [sp]
     2b0:	e3530071 	cmp	r3, #113	; 0x71
     2b4:	0a00001e 	beq	334 <main+0xe0>
			break;	
		for(i = 0; i < strlen(buffer); i++)
     2b8:	e1a0000d 	mov	r0, sp
     2bc:	eb0000a4 	bl	554 <strlen>
		{
			if(!isdigit(buffer[i]))
     2c0:	e5961000 	ldr	r1, [r6]
     2c4:	e24d3001 	sub	r3, sp, #1
     2c8:	e0830000 	add	r0, r3, r0
     2cc:	ea000004 	b	2e4 <main+0x90>
     2d0:	e5f32001 	ldrb	r2, [r3, #1]!
     2d4:	e0812002 	add	r2, r1, r2
     2d8:	e5d22001 	ldrb	r2, [r2, #1]
     2dc:	e3120004 	tst	r2, #4
     2e0:	0a000005 	beq	2fc <main+0xa8>
		scanf("%s", buffer);
		//gets(buffer);
		
		if(buffer[0] == 'q')
			break;	
		for(i = 0; i < strlen(buffer); i++)
     2e4:	e1530000 	cmp	r3, r0
     2e8:	1afffff8 	bne	2d0 <main+0x7c>
     2ec:	ea000005 	b	308 <main+0xb4>
		{	
			num = atoll(buffer);
			if(num <= 4294967295)
				*(reg) = num;
			else
				printf("Number too big\n");
     2f0:	e1a00009 	mov	r0, r9
     2f4:	eb000074 	bl	4cc <puts>
     2f8:	eaffffe6 	b	298 <main+0x44>
				valid = 0;
				break;
			}	
		}
		if(valid == 0)
			printf("Invalid character. Try again\n");
     2fc:	e1a00007 	mov	r0, r7
     300:	eb000071 	bl	4cc <puts>
     304:	eaffffe3 	b	298 <main+0x44>
		else	// convert to int
		{	
			num = atoll(buffer);
     308:	e1a0000d 	mov	r0, sp
     30c:	eb000013 	bl	360 <atoll>
     310:	e1a02000 	mov	r2, r0
     314:	e1a03001 	mov	r3, r1
			if(num <= 4294967295)
     318:	e3e00000 	mvn	r0, #0
     31c:	e3a01000 	mov	r1, #0
     320:	e1530001 	cmp	r3, r1
     324:	01520000 	cmpeq	r2, r0
				*(reg) = num;
     328:	95882028 	strls	r2, [r8, #40]	; 0x28
		if(valid == 0)
			printf("Invalid character. Try again\n");
		else	// convert to int
		{	
			num = atoll(buffer);
			if(num <= 4294967295)
     32c:	9affffd9 	bls	298 <main+0x44>
     330:	eaffffee 	b	2f0 <main+0x9c>
				printf("Number too big\n");
		}
		valid = 1;
		}
	return 0;
}
     334:	e3a00000 	mov	r0, #0
     338:	e28dd014 	add	sp, sp, #20
     33c:	e8bd83f0 	pop	{r4, r5, r6, r7, r8, r9, pc}

00000340 <atexit>:
     340:	e92d4008 	push	{r3, lr}
     344:	e1a01000 	mov	r1, r0
     348:	e3a00000 	mov	r0, #0
     34c:	e1a03000 	mov	r3, r0
     350:	e1a02000 	mov	r2, r0
     354:	eb000f54 	bl	40ac <__register_exitproc>
     358:	e8bd4008 	pop	{r3, lr}
     35c:	e12fff1e 	bx	lr

00000360 <atoll>:
     360:	e92d4008 	push	{r3, lr}
     364:	e3a01000 	mov	r1, #0
     368:	e3a0200a 	mov	r2, #10
     36c:	eb000090 	bl	5b4 <strtoll>
     370:	e8bd4008 	pop	{r3, lr}
     374:	e12fff1e 	bx	lr

00000378 <_atoll_r>:
     378:	e92d4008 	push	{r3, lr}
     37c:	e3a02000 	mov	r2, #0
     380:	e3a0300a 	mov	r3, #10
     384:	eb000095 	bl	5e0 <_strtoll_r>
     388:	e8bd4008 	pop	{r3, lr}
     38c:	e12fff1e 	bx	lr

00000390 <exit>:
     390:	e92d4008 	push	{r3, lr}
     394:	e3a01000 	mov	r1, #0
     398:	e1a04000 	mov	r4, r0
     39c:	eb000f7e 	bl	419c <__call_exitprocs>
     3a0:	e59f3018 	ldr	r3, [pc, #24]	; 3c0 <exit+0x30>
     3a4:	e5930000 	ldr	r0, [r3]
     3a8:	e590303c 	ldr	r3, [r0, #60]	; 0x3c
     3ac:	e3530000 	cmp	r3, #0
     3b0:	11a0e00f 	movne	lr, pc
     3b4:	112fff13 	bxne	r3
     3b8:	e1a00004 	mov	r0, r4
     3bc:	eb004a08 	bl	12be4 <_exit>
     3c0:	00013428 	.word	0x00013428

000003c4 <_printf_r>:
     3c4:	e92d000e 	push	{r1, r2, r3}
     3c8:	e52de004 	push	{lr}		; (str lr, [sp, #-4]!)
     3cc:	e24dd008 	sub	sp, sp, #8
     3d0:	e28dc010 	add	r12, sp, #16
     3d4:	e1a0300c 	mov	r3, r12
     3d8:	e5901008 	ldr	r1, [r0, #8]
     3dc:	e59d200c 	ldr	r2, [sp, #12]
     3e0:	e58dc004 	str	r12, [sp, #4]
     3e4:	eb000128 	bl	88c <_vfprintf_r>
     3e8:	e28dd008 	add	sp, sp, #8
     3ec:	e49de004 	pop	{lr}		; (ldr lr, [sp], #4)
     3f0:	e28dd00c 	add	sp, sp, #12
     3f4:	e12fff1e 	bx	lr

000003f8 <printf>:
     3f8:	e92d000f 	push	{r0, r1, r2, r3}
     3fc:	e52de004 	push	{lr}		; (str lr, [sp, #-4]!)
     400:	e59f302c 	ldr	r3, [pc, #44]	; 434 <printf+0x3c>
     404:	e24dd00c 	sub	sp, sp, #12
     408:	e5930000 	ldr	r0, [r3]
     40c:	e28dc014 	add	r12, sp, #20
     410:	e5901008 	ldr	r1, [r0, #8]
     414:	e1a0300c 	mov	r3, r12
     418:	e59d2010 	ldr	r2, [sp, #16]
     41c:	e58dc004 	str	r12, [sp, #4]
     420:	eb000119 	bl	88c <_vfprintf_r>
     424:	e28dd00c 	add	sp, sp, #12
     428:	e49de004 	pop	{lr}		; (ldr lr, [sp], #4)
     42c:	e28dd010 	add	sp, sp, #16
     430:	e12fff1e 	bx	lr
     434:	00013830 	.word	0x00013830

00000438 <_puts_r>:
     438:	e92d40f0 	push	{r4, r5, r6, r7, lr}
     43c:	e1a04000 	mov	r4, r0
     440:	e24dd024 	sub	sp, sp, #36	; 0x24
     444:	e1a00001 	mov	r0, r1
     448:	e1a05001 	mov	r5, r1
     44c:	eb000040 	bl	554 <strlen>
     450:	e5943008 	ldr	r3, [r4, #8]
     454:	e1d320bc 	ldrh	r2, [r3, #12]
     458:	e3a01002 	mov	r1, #2
     45c:	e3120a02 	tst	r2, #8192	; 0x2000
     460:	e58d1008 	str	r1, [sp, #8]
     464:	05931064 	ldreq	r1, [r3, #100]	; 0x64
     468:	03822a02 	orreq	r2, r2, #8192	; 0x2000
     46c:	03c11a02 	biceq	r1, r1, #8192	; 0x2000
     470:	e3a0e001 	mov	lr, #1
     474:	e59f604c 	ldr	r6, [pc, #76]	; 4c8 <_puts_r+0x90>
     478:	05831064 	streq	r1, [r3, #100]	; 0x64
     47c:	e2807001 	add	r7, r0, #1
     480:	e28dc010 	add	r12, sp, #16
     484:	e58d0014 	str	r0, [sp, #20]
     488:	e58de01c 	str	lr, [sp, #28]
     48c:	e1a00004 	mov	r0, r4
     490:	01c320bc 	strheq	r2, [r3, #12]
     494:	e1a01003 	mov	r1, r3
     498:	e28d2004 	add	r2, sp, #4
     49c:	e58d5010 	str	r5, [sp, #16]
     4a0:	e58d700c 	str	r7, [sp, #12]
     4a4:	e58d6018 	str	r6, [sp, #24]
     4a8:	e58dc004 	str	r12, [sp, #4]
     4ac:	eb0018df 	bl	6830 <__sfvwrite_r>
     4b0:	e3500000 	cmp	r0, #0
     4b4:	03a0000a 	moveq	r0, #10
     4b8:	13e00000 	mvnne	r0, #0
     4bc:	e28dd024 	add	sp, sp, #36	; 0x24
     4c0:	e8bd40f0 	pop	{r4, r5, r6, r7, lr}
     4c4:	e12fff1e 	bx	lr
     4c8:	00013430 	.word	0x00013430

000004cc <puts>:
     4cc:	e59f3008 	ldr	r3, [pc, #8]	; 4dc <puts+0x10>
     4d0:	e1a01000 	mov	r1, r0
     4d4:	e5930000 	ldr	r0, [r3]
     4d8:	eaffffd6 	b	438 <_puts_r>
     4dc:	00013830 	.word	0x00013830

000004e0 <scanf>:
     4e0:	e92d000f 	push	{r0, r1, r2, r3}
     4e4:	e52de004 	push	{lr}		; (str lr, [sp, #-4]!)
     4e8:	e59f302c 	ldr	r3, [pc, #44]	; 51c <scanf+0x3c>
     4ec:	e24dd00c 	sub	sp, sp, #12
     4f0:	e5930000 	ldr	r0, [r3]
     4f4:	e28dc014 	add	r12, sp, #20
     4f8:	e5901004 	ldr	r1, [r0, #4]
     4fc:	e1a0300c 	mov	r3, r12
     500:	e59d2010 	ldr	r2, [sp, #16]
     504:	e58dc004 	str	r12, [sp, #4]
     508:	eb000e7e 	bl	3f08 <_vfscanf_r>
     50c:	e28dd00c 	add	sp, sp, #12
     510:	e49de004 	pop	{lr}		; (ldr lr, [sp], #4)
     514:	e28dd010 	add	sp, sp, #16
     518:	e12fff1e 	bx	lr
     51c:	00013830 	.word	0x00013830

00000520 <_scanf_r>:
     520:	e92d000e 	push	{r1, r2, r3}
     524:	e52de004 	push	{lr}		; (str lr, [sp, #-4]!)
     528:	e24dd008 	sub	sp, sp, #8
     52c:	e28dc010 	add	r12, sp, #16
     530:	e1a0300c 	mov	r3, r12
     534:	e5901004 	ldr	r1, [r0, #4]
     538:	e59d200c 	ldr	r2, [sp, #12]
     53c:	e58dc004 	str	r12, [sp, #4]
     540:	eb000e70 	bl	3f08 <_vfscanf_r>
     544:	e28dd008 	add	sp, sp, #8
     548:	e49de004 	pop	{lr}		; (ldr lr, [sp], #4)
     54c:	e28dd00c 	add	sp, sp, #12
     550:	e12fff1e 	bx	lr

00000554 <strlen>:
     554:	e3c01003 	bic	r1, r0, #3
     558:	e2100003 	ands	r0, r0, #3
     55c:	e2600000 	rsb	r0, r0, #0
     560:	e4913004 	ldr	r3, [r1], #4
     564:	e280c004 	add	r12, r0, #4
     568:	e1a0c18c 	lsl	r12, r12, #3
     56c:	e3e02000 	mvn	r2, #0
     570:	11833c32 	orrne	r3, r3, r2, lsr r12
     574:	e3a0c001 	mov	r12, #1
     578:	e18cc40c 	orr	r12, r12, r12, lsl #8
     57c:	e18cc80c 	orr	r12, r12, r12, lsl #16
     580:	e043200c 	sub	r2, r3, r12
     584:	e1c22003 	bic	r2, r2, r3
     588:	e012238c 	ands	r2, r2, r12, lsl #7
     58c:	04913004 	ldreq	r3, [r1], #4
     590:	02800004 	addeq	r0, r0, #4
     594:	0afffff9 	beq	580 <strlen+0x2c>
     598:	e31300ff 	tst	r3, #255	; 0xff
     59c:	12800001 	addne	r0, r0, #1
     5a0:	13130cff 	tstne	r3, #65280	; 0xff00
     5a4:	12800001 	addne	r0, r0, #1
     5a8:	131308ff 	tstne	r3, #16711680	; 0xff0000
     5ac:	12800001 	addne	r0, r0, #1
     5b0:	e12fff1e 	bx	lr

000005b4 <strtoll>:
     5b4:	e92d4008 	push	{r3, lr}
     5b8:	e59fc01c 	ldr	r12, [pc, #28]	; 5dc <strtoll+0x28>
     5bc:	e1a0e001 	mov	lr, r1
     5c0:	e1a03002 	mov	r3, r2
     5c4:	e1a01000 	mov	r1, r0
     5c8:	e1a0200e 	mov	r2, lr
     5cc:	e59c0000 	ldr	r0, [r12]
     5d0:	eb000002 	bl	5e0 <_strtoll_r>
     5d4:	e8bd4008 	pop	{r3, lr}
     5d8:	e12fff1e 	bx	lr
     5dc:	00013830 	.word	0x00013830

000005e0 <_strtoll_r>:
     5e0:	e92d4ff0 	push	{r4, r5, r6, r7, r8, r9, r10, r11, lr}
     5e4:	e59fc29c 	ldr	r12, [pc, #668]	; 888 <_strtoll_r+0x2a8>
     5e8:	e24dd024 	sub	sp, sp, #36	; 0x24
     5ec:	e58d2008 	str	r2, [sp, #8]
     5f0:	e58d1018 	str	r1, [sp, #24]
     5f4:	e59c7000 	ldr	r7, [r12]
     5f8:	e58d001c 	str	r0, [sp, #28]
     5fc:	e1a08003 	mov	r8, r3
     600:	e1a02001 	mov	r2, r1
     604:	ea000000 	b	60c <_strtoll_r+0x2c>
     608:	e1a02006 	mov	r2, r6
     60c:	e1a06002 	mov	r6, r2
     610:	e4d6a001 	ldrb	r10, [r6], #1
     614:	e087300a 	add	r3, r7, r10
     618:	e5d33001 	ldrb	r3, [r3, #1]
     61c:	e2133008 	ands	r3, r3, #8
     620:	1afffff8 	bne	608 <_strtoll_r+0x28>
     624:	e35a002d 	cmp	r10, #45	; 0x2d
     628:	0a000074 	beq	800 <_strtoll_r+0x220>
     62c:	e35a002b 	cmp	r10, #43	; 0x2b
     630:	e58d300c 	str	r3, [sp, #12]
     634:	05d2a001 	ldrbeq	r10, [r2, #1]
     638:	02826002 	addeq	r6, r2, #2
     63c:	e3d83010 	bics	r3, r8, #16
     640:	1a000008 	bne	668 <_strtoll_r+0x88>
     644:	e2783001 	rsbs	r3, r8, #1
     648:	33a03000 	movcc	r3, #0
     64c:	e35a0030 	cmp	r10, #48	; 0x30
     650:	0a00007c 	beq	848 <_strtoll_r+0x268>
     654:	e3530000 	cmp	r3, #0
     658:	13a0b00a 	movne	r11, #10
     65c:	13a0c000 	movne	r12, #0
     660:	13a0800a 	movne	r8, #10
     664:	1a000001 	bne	670 <_strtoll_r+0x90>
     668:	e1a0b008 	mov	r11, r8
     66c:	e1a0cfc8 	asr	r12, r8, #31
     670:	e59d200c 	ldr	r2, [sp, #12]
     674:	e3520000 	cmp	r2, #0
     678:	13a04000 	movne	r4, #0
     67c:	13a05102 	movne	r5, #-2147483648	; 0x80000000
     680:	03e04000 	mvneq	r4, #0
     684:	03e05102 	mvneq	r5, #-2147483648	; 0x80000000
     688:	e1a00004 	mov	r0, r4
     68c:	e1a01005 	mov	r1, r5
     690:	e1a0200b 	mov	r2, r11
     694:	e1a0300c 	mov	r3, r12
     698:	e58dc004 	str	r12, [sp, #4]
     69c:	eb00468d 	bl	120d8 <__aeabi_uldivmod>
     6a0:	e59dc004 	ldr	r12, [sp, #4]
     6a4:	e1a09002 	mov	r9, r2
     6a8:	e1a0300c 	mov	r3, r12
     6ac:	e1a0200b 	mov	r2, r11
     6b0:	e1a00004 	mov	r0, r4
     6b4:	e1a01005 	mov	r1, r5
     6b8:	eb004686 	bl	120d8 <__aeabi_uldivmod>
     6bc:	e59dc004 	ldr	r12, [sp, #4]
     6c0:	e1a02008 	mov	r2, r8
     6c4:	e58db010 	str	r11, [sp, #16]
     6c8:	e58dc014 	str	r12, [sp, #20]
     6cc:	e3a03000 	mov	r3, #0
     6d0:	e1a0b009 	mov	r11, r9
     6d4:	e3a04000 	mov	r4, #0
     6d8:	e3a05000 	mov	r5, #0
     6dc:	e28d9010 	add	r9, sp, #16
     6e0:	e8990300 	ldm	r9, {r8, r9}
     6e4:	e1a0c002 	mov	r12, r2
     6e8:	ea000010 	b	730 <_strtoll_r+0x150>
     6ec:	e1550001 	cmp	r5, r1
     6f0:	01540000 	cmpeq	r4, r0
     6f4:	13a03000 	movne	r3, #0
     6f8:	03a03001 	moveq	r3, #1
     6fc:	e15a000b 	cmp	r10, r11
     700:	d3a03000 	movle	r3, #0
     704:	c2033001 	andgt	r3, r3, #1
     708:	e3530000 	cmp	r3, #0
     70c:	1a00001a 	bne	77c <_strtoll_r+0x19c>
     710:	e0030994 	mul	r3, r4, r9
     714:	e0253598 	mla	r5, r8, r5, r3
     718:	e0832894 	umull	r2, r3, r4, r8
     71c:	e0853003 	add	r3, r5, r3
     720:	e092400a 	adds	r4, r2, r10
     724:	e0a35fca 	adc	r5, r3, r10, asr #31
     728:	e3a03001 	mov	r3, #1
     72c:	e4d6a001 	ldrb	r10, [r6], #1
     730:	e087200a 	add	r2, r7, r10
     734:	e5d22001 	ldrb	r2, [r2, #1]
     738:	e3120004 	tst	r2, #4
     73c:	124aa030 	subne	r10, r10, #48	; 0x30
     740:	1a000005 	bne	75c <_strtoll_r+0x17c>
     744:	e2122003 	ands	r2, r2, #3
     748:	0a00000d 	beq	784 <_strtoll_r+0x1a4>
     74c:	e3520001 	cmp	r2, #1
     750:	13a02057 	movne	r2, #87	; 0x57
     754:	03a02037 	moveq	r2, #55	; 0x37
     758:	e062a00a 	rsb	r10, r2, r10
     75c:	e15c000a 	cmp	r12, r10
     760:	da000007 	ble	784 <_strtoll_r+0x1a4>
     764:	e1550001 	cmp	r5, r1
     768:	01540000 	cmpeq	r4, r0
     76c:	93a02000 	movls	r2, #0
     770:	83a02001 	movhi	r2, #1
     774:	e1923fa3 	orrs	r3, r2, r3, lsr #31
     778:	0affffdb 	beq	6ec <_strtoll_r+0x10c>
     77c:	e3e03000 	mvn	r3, #0
     780:	eaffffe9 	b	72c <_strtoll_r+0x14c>
     784:	e3730001 	cmn	r3, #1
     788:	0a000021 	beq	814 <_strtoll_r+0x234>
     78c:	e59d200c 	ldr	r2, [sp, #12]
     790:	e3520000 	cmp	r2, #0
     794:	1a000016 	bne	7f4 <_strtoll_r+0x214>
     798:	e59d2008 	ldr	r2, [sp, #8]
     79c:	e3520000 	cmp	r2, #0
     7a0:	01a00004 	moveq	r0, r4
     7a4:	01a01005 	moveq	r1, r5
     7a8:	0a000006 	beq	7c8 <_strtoll_r+0x1e8>
     7ac:	e3530000 	cmp	r3, #0
     7b0:	0a000007 	beq	7d4 <_strtoll_r+0x1f4>
     7b4:	e1a00004 	mov	r0, r4
     7b8:	e1a01005 	mov	r1, r5
     7bc:	e59d3008 	ldr	r3, [sp, #8]
     7c0:	e2466001 	sub	r6, r6, #1
     7c4:	e5836000 	str	r6, [r3]
     7c8:	e28dd024 	add	sp, sp, #36	; 0x24
     7cc:	e8bd4ff0 	pop	{r4, r5, r6, r7, r8, r9, r10, r11, lr}
     7d0:	e12fff1e 	bx	lr
     7d4:	e59d6018 	ldr	r6, [sp, #24]
     7d8:	e59d3008 	ldr	r3, [sp, #8]
     7dc:	e1a00004 	mov	r0, r4
     7e0:	e1a01005 	mov	r1, r5
     7e4:	e5836000 	str	r6, [r3]
     7e8:	e28dd024 	add	sp, sp, #36	; 0x24
     7ec:	e8bd4ff0 	pop	{r4, r5, r6, r7, r8, r9, r10, r11, lr}
     7f0:	e12fff1e 	bx	lr
     7f4:	e2744000 	rsbs	r4, r4, #0
     7f8:	e2e55000 	rsc	r5, r5, #0
     7fc:	eaffffe5 	b	798 <_strtoll_r+0x1b8>
     800:	e2826002 	add	r6, r2, #2
     804:	e5d2a001 	ldrb	r10, [r2, #1]
     808:	e3a02001 	mov	r2, #1
     80c:	e58d200c 	str	r2, [sp, #12]
     810:	eaffff89 	b	63c <_strtoll_r+0x5c>
     814:	e59d300c 	ldr	r3, [sp, #12]
     818:	e59d2008 	ldr	r2, [sp, #8]
     81c:	e3530000 	cmp	r3, #0
     820:	13a00000 	movne	r0, #0
     824:	13a01102 	movne	r1, #-2147483648	; 0x80000000
     828:	03e00000 	mvneq	r0, #0
     82c:	03e01102 	mvneq	r1, #-2147483648	; 0x80000000
     830:	e3520000 	cmp	r2, #0
     834:	e59d201c 	ldr	r2, [sp, #28]
     838:	e3a03022 	mov	r3, #34	; 0x22
     83c:	e5823000 	str	r3, [r2]
     840:	1affffdd 	bne	7bc <_strtoll_r+0x1dc>
     844:	eaffffdf 	b	7c8 <_strtoll_r+0x1e8>
     848:	e5d62000 	ldrb	r2, [r6]
     84c:	e20220df 	and	r2, r2, #223	; 0xdf
     850:	e3520058 	cmp	r2, #88	; 0x58
     854:	0a000005 	beq	870 <_strtoll_r+0x290>
     858:	e3530000 	cmp	r3, #0
     85c:	13a0b008 	movne	r11, #8
     860:	13a0c000 	movne	r12, #0
     864:	13a08008 	movne	r8, #8
     868:	1affff80 	bne	670 <_strtoll_r+0x90>
     86c:	eaffff7d 	b	668 <_strtoll_r+0x88>
     870:	e5d6a001 	ldrb	r10, [r6, #1]
     874:	e3a0b010 	mov	r11, #16
     878:	e3a0c000 	mov	r12, #0
     87c:	e2866002 	add	r6, r6, #2
     880:	e3a08010 	mov	r8, #16
     884:	eaffff79 	b	670 <_strtoll_r+0x90>
     888:	00013828 	.word	0x00013828

0000088c <_vfprintf_r>:
     88c:	e92d4ff0 	push	{r4, r5, r6, r7, r8, r9, r10, r11, lr}
     890:	e24ddf43 	sub	sp, sp, #268	; 0x10c
     894:	e1a04003 	mov	r4, r3
     898:	e58d1028 	str	r1, [sp, #40]	; 0x28
     89c:	e58d2024 	str	r2, [sp, #36]	; 0x24
     8a0:	e58d0034 	str	r0, [sp, #52]	; 0x34
     8a4:	eb00198a 	bl	6ed4 <_localeconv_r>
     8a8:	e5900000 	ldr	r0, [r0]
     8ac:	e58d0054 	str	r0, [sp, #84]	; 0x54
     8b0:	ebffff27 	bl	554 <strlen>
     8b4:	e59d5034 	ldr	r5, [sp, #52]	; 0x34
     8b8:	e3550000 	cmp	r5, #0
     8bc:	e58d005c 	str	r0, [sp, #92]	; 0x5c
     8c0:	e58d4044 	str	r4, [sp, #68]	; 0x44
     8c4:	0a000002 	beq	8d4 <_vfprintf_r+0x48>
     8c8:	e5953038 	ldr	r3, [r5, #56]	; 0x38
     8cc:	e3530000 	cmp	r3, #0
     8d0:	0a0000e2 	beq	c60 <_vfprintf_r+0x3d4>
     8d4:	e59dc028 	ldr	r12, [sp, #40]	; 0x28
     8d8:	e1dc30bc 	ldrh	r3, [r12, #12]
     8dc:	e3130a02 	tst	r3, #8192	; 0x2000
     8e0:	059c1064 	ldreq	r1, [r12, #100]	; 0x64
     8e4:	e1a02003 	mov	r2, r3
     8e8:	03832a02 	orreq	r2, r3, #8192	; 0x2000
     8ec:	03c13a02 	biceq	r3, r1, #8192	; 0x2000
     8f0:	01cc20bc 	strheq	r2, [r12, #12]
     8f4:	058c3064 	streq	r3, [r12, #100]	; 0x64
     8f8:	e3120008 	tst	r2, #8
     8fc:	0a0000a7 	beq	ba0 <_vfprintf_r+0x314>
     900:	e59d5028 	ldr	r5, [sp, #40]	; 0x28
     904:	e5953010 	ldr	r3, [r5, #16]
     908:	e3530000 	cmp	r3, #0
     90c:	0a0000a3 	beq	ba0 <_vfprintf_r+0x314>
     910:	e202201a 	and	r2, r2, #26
     914:	e352000a 	cmp	r2, #10
     918:	0a0000aa 	beq	bc8 <_vfprintf_r+0x33c>
     91c:	e3a03000 	mov	r3, #0
     920:	e28dc0c8 	add	r12, sp, #200	; 0xc8
     924:	e59f5f5c 	ldr	r5, [pc, #3932]	; 1888 <_vfprintf_r+0xffc>
     928:	e58dc01c 	str	r12, [sp, #28]
     92c:	e58d309c 	str	r3, [sp, #156]	; 0x9c
     930:	e58d3098 	str	r3, [sp, #152]	; 0x98
     934:	e58d303c 	str	r3, [sp, #60]	; 0x3c
     938:	e58dc094 	str	r12, [sp, #148]	; 0x94
     93c:	e58d3058 	str	r3, [sp, #88]	; 0x58
     940:	e58d3060 	str	r3, [sp, #96]	; 0x60
     944:	e58d3068 	str	r3, [sp, #104]	; 0x68
     948:	e58d3064 	str	r3, [sp, #100]	; 0x64
     94c:	e58d3048 	str	r3, [sp, #72]	; 0x48
     950:	e1a0700c 	mov	r7, r12
     954:	e2859010 	add	r9, r5, #16
     958:	e59dc024 	ldr	r12, [sp, #36]	; 0x24
     95c:	e5dc3000 	ldrb	r3, [r12]
     960:	e3530025 	cmp	r3, #37	; 0x25
     964:	13530000 	cmpne	r3, #0
     968:	0a0000bf 	beq	c6c <_vfprintf_r+0x3e0>
     96c:	e28c3001 	add	r3, r12, #1
     970:	e1a04003 	mov	r4, r3
     974:	e5d33000 	ldrb	r3, [r3]
     978:	e3530025 	cmp	r3, #37	; 0x25
     97c:	13530000 	cmpne	r3, #0
     980:	e2843001 	add	r3, r4, #1
     984:	1afffff9 	bne	970 <_vfprintf_r+0xe4>
     988:	e59dc024 	ldr	r12, [sp, #36]	; 0x24
     98c:	e054500c 	subs	r5, r4, r12
     990:	0a00000d 	beq	9cc <_vfprintf_r+0x140>
     994:	e59d3098 	ldr	r3, [sp, #152]	; 0x98
     998:	e59d209c 	ldr	r2, [sp, #156]	; 0x9c
     99c:	e2833001 	add	r3, r3, #1
     9a0:	e3530007 	cmp	r3, #7
     9a4:	e0822005 	add	r2, r2, r5
     9a8:	e587c000 	str	r12, [r7]
     9ac:	e5875004 	str	r5, [r7, #4]
     9b0:	e58d3098 	str	r3, [sp, #152]	; 0x98
     9b4:	e58d209c 	str	r2, [sp, #156]	; 0x9c
     9b8:	d2877008 	addle	r7, r7, #8
     9bc:	ca000091 	bgt	c08 <_vfprintf_r+0x37c>
     9c0:	e59dc048 	ldr	r12, [sp, #72]	; 0x48
     9c4:	e08cc005 	add	r12, r12, r5
     9c8:	e58dc048 	str	r12, [sp, #72]	; 0x48
     9cc:	e5d43000 	ldrb	r3, [r4]
     9d0:	e3530000 	cmp	r3, #0
     9d4:	0a000093 	beq	c28 <_vfprintf_r+0x39c>
     9d8:	e2845001 	add	r5, r4, #1
     9dc:	e3e0c000 	mvn	r12, #0
     9e0:	e3a03000 	mov	r3, #0
     9e4:	e58d5024 	str	r5, [sp, #36]	; 0x24
     9e8:	e5d48001 	ldrb	r8, [r4, #1]
     9ec:	e58dc02c 	str	r12, [sp, #44]	; 0x2c
     9f0:	e1a02003 	mov	r2, r3
     9f4:	e5cd3077 	strb	r3, [sp, #119]	; 0x77
     9f8:	e58d3040 	str	r3, [sp, #64]	; 0x40
     9fc:	e58d3020 	str	r3, [sp, #32]
     a00:	e1a03005 	mov	r3, r5
     a04:	e2833001 	add	r3, r3, #1
     a08:	e2481020 	sub	r1, r8, #32
     a0c:	e3510058 	cmp	r1, #88	; 0x58
     a10:	979ff101 	ldrls	pc, [pc, r1, lsl #2]
     a14:	ea00027f 	b	1418 <_vfprintf_r+0xb8c>
     a18:	00001214 	.word	0x00001214
     a1c:	00001418 	.word	0x00001418
     a20:	00001418 	.word	0x00001418
     a24:	000012f0 	.word	0x000012f0
     a28:	00001418 	.word	0x00001418
     a2c:	00001418 	.word	0x00001418
     a30:	00001418 	.word	0x00001418
     a34:	00001418 	.word	0x00001418
     a38:	00001418 	.word	0x00001418
     a3c:	00001418 	.word	0x00001418
     a40:	000010f4 	.word	0x000010f4
     a44:	00001208 	.word	0x00001208
     a48:	00001418 	.word	0x00001418
     a4c:	00000b8c 	.word	0x00000b8c
     a50:	00000efc 	.word	0x00000efc
     a54:	00001418 	.word	0x00001418
     a58:	000013d4 	.word	0x000013d4
     a5c:	000013e8 	.word	0x000013e8
     a60:	000013e8 	.word	0x000013e8
     a64:	000013e8 	.word	0x000013e8
     a68:	000013e8 	.word	0x000013e8
     a6c:	000013e8 	.word	0x000013e8
     a70:	000013e8 	.word	0x000013e8
     a74:	000013e8 	.word	0x000013e8
     a78:	000013e8 	.word	0x000013e8
     a7c:	000013e8 	.word	0x000013e8
     a80:	00001418 	.word	0x00001418
     a84:	00001418 	.word	0x00001418
     a88:	00001418 	.word	0x00001418
     a8c:	00001418 	.word	0x00001418
     a90:	00001418 	.word	0x00001418
     a94:	00001418 	.word	0x00001418
     a98:	00001418 	.word	0x00001418
     a9c:	00001418 	.word	0x00001418
     aa0:	00001418 	.word	0x00001418
     aa4:	00001418 	.word	0x00001418
     aa8:	00000fa0 	.word	0x00000fa0
     aac:	00000ff8 	.word	0x00000ff8
     ab0:	00001418 	.word	0x00001418
     ab4:	00000ff8 	.word	0x00000ff8
     ab8:	00001418 	.word	0x00001418
     abc:	00001418 	.word	0x00001418
     ac0:	00001418 	.word	0x00001418
     ac4:	00001418 	.word	0x00001418
     ac8:	000010a0 	.word	0x000010a0
     acc:	00001418 	.word	0x00001418
     ad0:	00001418 	.word	0x00001418
     ad4:	000010b4 	.word	0x000010b4
     ad8:	00001418 	.word	0x00001418
     adc:	00001418 	.word	0x00001418
     ae0:	00001418 	.word	0x00001418
     ae4:	00001418 	.word	0x00001418
     ae8:	00001418 	.word	0x00001418
     aec:	00000f50 	.word	0x00000f50
     af0:	00001418 	.word	0x00001418
     af4:	00001418 	.word	0x00001418
     af8:	00001388 	.word	0x00001388
     afc:	00001418 	.word	0x00001418
     b00:	00001418 	.word	0x00001418
     b04:	00001418 	.word	0x00001418
     b08:	00001418 	.word	0x00001418
     b0c:	00001418 	.word	0x00001418
     b10:	00001418 	.word	0x00001418
     b14:	00001418 	.word	0x00001418
     b18:	00001418 	.word	0x00001418
     b1c:	00001418 	.word	0x00001418
     b20:	00001418 	.word	0x00001418
     b24:	00001304 	.word	0x00001304
     b28:	00001348 	.word	0x00001348
     b2c:	00000ff8 	.word	0x00000ff8
     b30:	00000ff8 	.word	0x00000ff8
     b34:	00000ff8 	.word	0x00000ff8
     b38:	0000126c 	.word	0x0000126c
     b3c:	00001348 	.word	0x00001348
     b40:	00001418 	.word	0x00001418
     b44:	00001418 	.word	0x00001418
     b48:	00001280 	.word	0x00001280
     b4c:	00001418 	.word	0x00001418
     b50:	000012b0 	.word	0x000012b0
     b54:	00000ecc 	.word	0x00000ecc
     b58:	00001224 	.word	0x00001224
     b5c:	0000111c 	.word	0x0000111c
     b60:	00001418 	.word	0x00001418
     b64:	00001130 	.word	0x00001130
     b68:	00001418 	.word	0x00001418
     b6c:	00000c74 	.word	0x00000c74
     b70:	00001418 	.word	0x00001418
     b74:	00001418 	.word	0x00001418
     b78:	000011a4 	.word	0x000011a4
     b7c:	e59d5040 	ldr	r5, [sp, #64]	; 0x40
     b80:	e2655000 	rsb	r5, r5, #0
     b84:	e58d5040 	str	r5, [sp, #64]	; 0x40
     b88:	e58d1044 	str	r1, [sp, #68]	; 0x44
     b8c:	e59dc020 	ldr	r12, [sp, #32]
     b90:	e38cc004 	orr	r12, r12, #4
     b94:	e58dc020 	str	r12, [sp, #32]
     b98:	e5d38000 	ldrb	r8, [r3]
     b9c:	eaffff98 	b	a04 <_vfprintf_r+0x178>
     ba0:	e59d0034 	ldr	r0, [sp, #52]	; 0x34
     ba4:	e59d1028 	ldr	r1, [sp, #40]	; 0x28
     ba8:	eb000ce8 	bl	3f50 <__swsetup_r>
     bac:	e3500000 	cmp	r0, #0
     bb0:	1a000010 	bne	bf8 <_vfprintf_r+0x36c>
     bb4:	e59dc028 	ldr	r12, [sp, #40]	; 0x28
     bb8:	e1dc20bc 	ldrh	r2, [r12, #12]
     bbc:	e202201a 	and	r2, r2, #26
     bc0:	e352000a 	cmp	r2, #10
     bc4:	1affff54 	bne	91c <_vfprintf_r+0x90>
     bc8:	e59d5028 	ldr	r5, [sp, #40]	; 0x28
     bcc:	e1d530fe 	ldrsh	r3, [r5, #14]
     bd0:	e3530000 	cmp	r3, #0
     bd4:	baffff50 	blt	91c <_vfprintf_r+0x90>
     bd8:	e59d0034 	ldr	r0, [sp, #52]	; 0x34
     bdc:	e1a01005 	mov	r1, r5
     be0:	e59d2024 	ldr	r2, [sp, #36]	; 0x24
     be4:	e1a03004 	mov	r3, r4
     be8:	eb000711 	bl	2834 <__sbprintf>
     bec:	e28ddf43 	add	sp, sp, #268	; 0x10c
     bf0:	e8bd4ff0 	pop	{r4, r5, r6, r7, r8, r9, r10, r11, lr}
     bf4:	e12fff1e 	bx	lr
     bf8:	e3e00000 	mvn	r0, #0
     bfc:	e28ddf43 	add	sp, sp, #268	; 0x10c
     c00:	e8bd4ff0 	pop	{r4, r5, r6, r7, r8, r9, r10, r11, lr}
     c04:	e12fff1e 	bx	lr
     c08:	e59d0034 	ldr	r0, [sp, #52]	; 0x34
     c0c:	e59d1028 	ldr	r1, [sp, #40]	; 0x28
     c10:	e28d2094 	add	r2, sp, #148	; 0x94
     c14:	eb0032ea 	bl	d7c4 <__sprint_r>
     c18:	e3500000 	cmp	r0, #0
     c1c:	1a000007 	bne	c40 <_vfprintf_r+0x3b4>
     c20:	e28d70c8 	add	r7, sp, #200	; 0xc8
     c24:	eaffff65 	b	9c0 <_vfprintf_r+0x134>
     c28:	e59d309c 	ldr	r3, [sp, #156]	; 0x9c
     c2c:	e3530000 	cmp	r3, #0
     c30:	159d0034 	ldrne	r0, [sp, #52]	; 0x34
     c34:	159d1028 	ldrne	r1, [sp, #40]	; 0x28
     c38:	128d2094 	addne	r2, sp, #148	; 0x94
     c3c:	1b0032e0 	blne	d7c4 <__sprint_r>
     c40:	e59d4028 	ldr	r4, [sp, #40]	; 0x28
     c44:	e1d430bc 	ldrh	r3, [r4, #12]
     c48:	e3130040 	tst	r3, #64	; 0x40
     c4c:	1affffe9 	bne	bf8 <_vfprintf_r+0x36c>
     c50:	e59d0048 	ldr	r0, [sp, #72]	; 0x48
     c54:	e28ddf43 	add	sp, sp, #268	; 0x10c
     c58:	e8bd4ff0 	pop	{r4, r5, r6, r7, r8, r9, r10, r11, lr}
     c5c:	e12fff1e 	bx	lr
     c60:	e1a00005 	mov	r0, r5
     c64:	eb0014c3 	bl	5f78 <__sinit>
     c68:	eaffff19 	b	8d4 <_vfprintf_r+0x48>
     c6c:	e59d4024 	ldr	r4, [sp, #36]	; 0x24
     c70:	eaffff55 	b	9cc <_vfprintf_r+0x140>
     c74:	e59d5020 	ldr	r5, [sp, #32]
     c78:	e3150020 	tst	r5, #32
     c7c:	e58d3024 	str	r3, [sp, #36]	; 0x24
     c80:	0a0000b9 	beq	f6c <_vfprintf_r+0x6e0>
     c84:	e59dc044 	ldr	r12, [sp, #68]	; 0x44
     c88:	e28c3007 	add	r3, r12, #7
     c8c:	e3c33007 	bic	r3, r3, #7
     c90:	e2834008 	add	r4, r3, #8
     c94:	e58d4044 	str	r4, [sp, #68]	; 0x44
     c98:	e8930030 	ldm	r3, {r4, r5}
     c9c:	e3a03001 	mov	r3, #1
     ca0:	e3a0a000 	mov	r10, #0
     ca4:	e5cda077 	strb	r10, [sp, #119]	; 0x77
     ca8:	e59dc02c 	ldr	r12, [sp, #44]	; 0x2c
     cac:	e35c0000 	cmp	r12, #0
     cb0:	a59dc020 	ldrge	r12, [sp, #32]
     cb4:	a3ccc080 	bicge	r12, r12, #128	; 0x80
     cb8:	a58dc020 	strge	r12, [sp, #32]
     cbc:	e1940005 	orrs	r0, r4, r5
     cc0:	e59dc02c 	ldr	r12, [sp, #44]	; 0x2c
     cc4:	03a02000 	moveq	r2, #0
     cc8:	13a02001 	movne	r2, #1
     ccc:	e35c0000 	cmp	r12, #0
     cd0:	13822001 	orrne	r2, r2, #1
     cd4:	e3520000 	cmp	r2, #0
     cd8:	0a0002cb 	beq	180c <_vfprintf_r+0xf80>
     cdc:	e3530001 	cmp	r3, #1
     ce0:	0a0003b1 	beq	1bac <_vfprintf_r+0x1320>
     ce4:	e3530002 	cmp	r3, #2
     ce8:	e28d20c7 	add	r2, sp, #199	; 0xc7
     cec:	1a00005b 	bne	e60 <_vfprintf_r+0x5d4>
     cf0:	e59dc068 	ldr	r12, [sp, #104]	; 0x68
     cf4:	e1a03224 	lsr	r3, r4, #4
     cf8:	e204000f 	and	r0, r4, #15
     cfc:	e1833e05 	orr	r3, r3, r5, lsl #28
     d00:	e1a01225 	lsr	r1, r5, #4
     d04:	e1a04003 	mov	r4, r3
     d08:	e1a05001 	mov	r5, r1
     d0c:	e7dc3000 	ldrb	r3, [r12, r0]
     d10:	e1940005 	orrs	r0, r4, r5
     d14:	e1a06002 	mov	r6, r2
     d18:	e5c23000 	strb	r3, [r2]
     d1c:	e2422001 	sub	r2, r2, #1
     d20:	1afffff3 	bne	cf4 <_vfprintf_r+0x468>
     d24:	e59d301c 	ldr	r3, [sp, #28]
     d28:	e0663003 	rsb	r3, r6, r3
     d2c:	e58d3038 	str	r3, [sp, #56]	; 0x38
     d30:	e59dc038 	ldr	r12, [sp, #56]	; 0x38
     d34:	e59d402c 	ldr	r4, [sp, #44]	; 0x2c
     d38:	e3a05000 	mov	r5, #0
     d3c:	e15c0004 	cmp	r12, r4
     d40:	b1a0c004 	movlt	r12, r4
     d44:	e58dc030 	str	r12, [sp, #48]	; 0x30
     d48:	e58d5050 	str	r5, [sp, #80]	; 0x50
     d4c:	e35a0000 	cmp	r10, #0
     d50:	0a000002 	beq	d60 <_vfprintf_r+0x4d4>
     d54:	e59d4030 	ldr	r4, [sp, #48]	; 0x30
     d58:	e2844001 	add	r4, r4, #1
     d5c:	e58d4030 	str	r4, [sp, #48]	; 0x30
     d60:	e59d5020 	ldr	r5, [sp, #32]
     d64:	e215b002 	ands	r11, r5, #2
     d68:	159dc030 	ldrne	r12, [sp, #48]	; 0x30
     d6c:	e59d3020 	ldr	r3, [sp, #32]
     d70:	128cc002 	addne	r12, r12, #2
     d74:	158dc030 	strne	r12, [sp, #48]	; 0x30
     d78:	e2133084 	ands	r3, r3, #132	; 0x84
     d7c:	e58d304c 	str	r3, [sp, #76]	; 0x4c
     d80:	1a0001ae 	bne	1440 <_vfprintf_r+0xbb4>
     d84:	e59d4040 	ldr	r4, [sp, #64]	; 0x40
     d88:	e59dc030 	ldr	r12, [sp, #48]	; 0x30
     d8c:	e06c5004 	rsb	r5, r12, r4
     d90:	e3550000 	cmp	r5, #0
     d94:	da0001a9 	ble	1440 <_vfprintf_r+0xbb4>
     d98:	e3550010 	cmp	r5, #16
     d9c:	e59d109c 	ldr	r1, [sp, #156]	; 0x9c
     da0:	e59d2098 	ldr	r2, [sp, #152]	; 0x98
     da4:	e59faadc 	ldr	r10, [pc, #2780]	; 1888 <_vfprintf_r+0xffc>
     da8:	da000021 	ble	e34 <_vfprintf_r+0x5a8>
     dac:	e58d606c 	str	r6, [sp, #108]	; 0x6c
     db0:	e1a00007 	mov	r0, r7
     db4:	e3a04010 	mov	r4, #16
     db8:	e1a07005 	mov	r7, r5
     dbc:	e59d6028 	ldr	r6, [sp, #40]	; 0x28
     dc0:	e59d5034 	ldr	r5, [sp, #52]	; 0x34
     dc4:	ea000002 	b	dd4 <_vfprintf_r+0x548>
     dc8:	e2477010 	sub	r7, r7, #16
     dcc:	e3570010 	cmp	r7, #16
     dd0:	da000014 	ble	e28 <_vfprintf_r+0x59c>
     dd4:	e2822001 	add	r2, r2, #1
     dd8:	e59f3aa8 	ldr	r3, [pc, #2728]	; 1888 <_vfprintf_r+0xffc>
     ddc:	e3520007 	cmp	r2, #7
     de0:	e2811010 	add	r1, r1, #16
     de4:	e8800018 	stm	r0, {r3, r4}
     de8:	e58d2098 	str	r2, [sp, #152]	; 0x98
     dec:	e58d109c 	str	r1, [sp, #156]	; 0x9c
     df0:	d2800008 	addle	r0, r0, #8
     df4:	dafffff3 	ble	dc8 <_vfprintf_r+0x53c>
     df8:	e1a00005 	mov	r0, r5
     dfc:	e1a01006 	mov	r1, r6
     e00:	e28d2094 	add	r2, sp, #148	; 0x94
     e04:	eb00326e 	bl	d7c4 <__sprint_r>
     e08:	e3500000 	cmp	r0, #0
     e0c:	1affff8b 	bne	c40 <_vfprintf_r+0x3b4>
     e10:	e2477010 	sub	r7, r7, #16
     e14:	e3570010 	cmp	r7, #16
     e18:	e59d109c 	ldr	r1, [sp, #156]	; 0x9c
     e1c:	e59d2098 	ldr	r2, [sp, #152]	; 0x98
     e20:	e28d00c8 	add	r0, sp, #200	; 0xc8
     e24:	caffffea 	bgt	dd4 <_vfprintf_r+0x548>
     e28:	e59d606c 	ldr	r6, [sp, #108]	; 0x6c
     e2c:	e1a05007 	mov	r5, r7
     e30:	e1a07000 	mov	r7, r0
     e34:	e2822001 	add	r2, r2, #1
     e38:	e0854001 	add	r4, r5, r1
     e3c:	e3520007 	cmp	r2, #7
     e40:	e58d2098 	str	r2, [sp, #152]	; 0x98
     e44:	e58d409c 	str	r4, [sp, #156]	; 0x9c
     e48:	e587a000 	str	r10, [r7]
     e4c:	e5875004 	str	r5, [r7, #4]
     e50:	ca00035f 	bgt	1bd4 <_vfprintf_r+0x1348>
     e54:	e2877008 	add	r7, r7, #8
     e58:	e5dda077 	ldrb	r10, [sp, #119]	; 0x77
     e5c:	ea000178 	b	1444 <_vfprintf_r+0xbb8>
     e60:	e1a031a4 	lsr	r3, r4, #3
     e64:	e1833e85 	orr	r3, r3, r5, lsl #29
     e68:	e1a001a5 	lsr	r0, r5, #3
     e6c:	e2041007 	and	r1, r4, #7
     e70:	e1a05000 	mov	r5, r0
     e74:	e1a04003 	mov	r4, r3
     e78:	e1940005 	orrs	r0, r4, r5
     e7c:	e2813030 	add	r3, r1, #48	; 0x30
     e80:	e1a06002 	mov	r6, r2
     e84:	e5c23000 	strb	r3, [r2]
     e88:	e2422001 	sub	r2, r2, #1
     e8c:	1afffff3 	bne	e60 <_vfprintf_r+0x5d4>
     e90:	e59d4020 	ldr	r4, [sp, #32]
     e94:	e3140001 	tst	r4, #1
     e98:	e1a01006 	mov	r1, r6
     e9c:	0a000348 	beq	1bc4 <_vfprintf_r+0x1338>
     ea0:	e3530030 	cmp	r3, #48	; 0x30
     ea4:	059dc01c 	ldreq	r12, [sp, #28]
     ea8:	159d401c 	ldrne	r4, [sp, #28]
     eac:	11a06002 	movne	r6, r2
     eb0:	0066c00c 	rsbeq	r12, r6, r12
     eb4:	13a03030 	movne	r3, #48	; 0x30
     eb8:	10664004 	rsbne	r4, r6, r4
     ebc:	058dc038 	streq	r12, [sp, #56]	; 0x38
     ec0:	158d4038 	strne	r4, [sp, #56]	; 0x38
     ec4:	15413001 	strbne	r3, [r1, #-1]
     ec8:	eaffff98 	b	d30 <_vfprintf_r+0x4a4>
     ecc:	e59dc020 	ldr	r12, [sp, #32]
     ed0:	e58d3024 	str	r3, [sp, #36]	; 0x24
     ed4:	e21c3020 	ands	r3, r12, #32
     ed8:	0a00007c 	beq	10d0 <_vfprintf_r+0x844>
     edc:	e59d4044 	ldr	r4, [sp, #68]	; 0x44
     ee0:	e2843007 	add	r3, r4, #7
     ee4:	e3c33007 	bic	r3, r3, #7
     ee8:	e2835008 	add	r5, r3, #8
     eec:	e58d5044 	str	r5, [sp, #68]	; 0x44
     ef0:	e8930030 	ldm	r3, {r4, r5}
     ef4:	e3a03000 	mov	r3, #0
     ef8:	eaffff68 	b	ca0 <_vfprintf_r+0x414>
     efc:	e5d38000 	ldrb	r8, [r3]
     f00:	e358002a 	cmp	r8, #42	; 0x2a
     f04:	e2830001 	add	r0, r3, #1
     f08:	0a000629 	beq	27b4 <_vfprintf_r+0x1f28>
     f0c:	e2481030 	sub	r1, r8, #48	; 0x30
     f10:	e3510009 	cmp	r1, #9
     f14:	83a04000 	movhi	r4, #0
     f18:	81a03000 	movhi	r3, r0
     f1c:	858d402c 	strhi	r4, [sp, #44]	; 0x2c
     f20:	8afffeb8 	bhi	a08 <_vfprintf_r+0x17c>
     f24:	e3a03000 	mov	r3, #0
     f28:	e4d08001 	ldrb	r8, [r0], #1
     f2c:	e0833103 	add	r3, r3, r3, lsl #2
     f30:	e0813083 	add	r3, r1, r3, lsl #1
     f34:	e2481030 	sub	r1, r8, #48	; 0x30
     f38:	e3510009 	cmp	r1, #9
     f3c:	9afffff9 	bls	f28 <_vfprintf_r+0x69c>
     f40:	e1833fc3 	orr	r3, r3, r3, asr #31
     f44:	e58d302c 	str	r3, [sp, #44]	; 0x2c
     f48:	e1a03000 	mov	r3, r0
     f4c:	eafffead 	b	a08 <_vfprintf_r+0x17c>
     f50:	e59d4020 	ldr	r4, [sp, #32]
     f54:	e3844010 	orr	r4, r4, #16
     f58:	e58d4020 	str	r4, [sp, #32]
     f5c:	e59d5020 	ldr	r5, [sp, #32]
     f60:	e3150020 	tst	r5, #32
     f64:	e58d3024 	str	r3, [sp, #36]	; 0x24
     f68:	1affff45 	bne	c84 <_vfprintf_r+0x3f8>
     f6c:	e59d5020 	ldr	r5, [sp, #32]
     f70:	e3150010 	tst	r5, #16
     f74:	1a000341 	bne	1c80 <_vfprintf_r+0x13f4>
     f78:	e59d4020 	ldr	r4, [sp, #32]
     f7c:	e3140040 	tst	r4, #64	; 0x40
     f80:	0a00033e 	beq	1c80 <_vfprintf_r+0x13f4>
     f84:	e59d5044 	ldr	r5, [sp, #68]	; 0x44
     f88:	e1d540b0 	ldrh	r4, [r5]
     f8c:	e2855004 	add	r5, r5, #4
     f90:	e58d5044 	str	r5, [sp, #68]	; 0x44
     f94:	e3a03001 	mov	r3, #1
     f98:	e3a05000 	mov	r5, #0
     f9c:	eaffff3f 	b	ca0 <_vfprintf_r+0x414>
     fa0:	e59d5020 	ldr	r5, [sp, #32]
     fa4:	e3855010 	orr	r5, r5, #16
     fa8:	e58d5020 	str	r5, [sp, #32]
     fac:	e59dc020 	ldr	r12, [sp, #32]
     fb0:	e31c0020 	tst	r12, #32
     fb4:	e58d3024 	str	r3, [sp, #36]	; 0x24
     fb8:	e5cd2077 	strb	r2, [sp, #119]	; 0x77
     fbc:	0a0000e6 	beq	135c <_vfprintf_r+0xad0>
     fc0:	e59d4044 	ldr	r4, [sp, #68]	; 0x44
     fc4:	e2841007 	add	r1, r4, #7
     fc8:	e3c11007 	bic	r1, r1, #7
     fcc:	e891000c 	ldm	r1, {r2, r3}
     fd0:	e2811008 	add	r1, r1, #8
     fd4:	e58d1044 	str	r1, [sp, #68]	; 0x44
     fd8:	e1a04002 	mov	r4, r2
     fdc:	e1a05003 	mov	r5, r3
     fe0:	e3520000 	cmp	r2, #0
     fe4:	e2d30000 	sbcs	r0, r3, #0
     fe8:	ba0003e2 	blt	1f78 <_vfprintf_r+0x16ec>
     fec:	e5dda077 	ldrb	r10, [sp, #119]	; 0x77
     ff0:	e3a03001 	mov	r3, #1
     ff4:	eaffff2b 	b	ca8 <_vfprintf_r+0x41c>
     ff8:	e59d4020 	ldr	r4, [sp, #32]
     ffc:	e59d5044 	ldr	r5, [sp, #68]	; 0x44
    1000:	e58d3024 	str	r3, [sp, #36]	; 0x24
    1004:	e3140008 	tst	r4, #8
    1008:	e2853007 	add	r3, r5, #7
    100c:	e5cd2077 	strb	r2, [sp, #119]	; 0x77
    1010:	e3c33007 	bic	r3, r3, #7
    1014:	0a00043d 	beq	2110 <_vfprintf_r+0x1884>
    1018:	e283c008 	add	r12, r3, #8
    101c:	e5934000 	ldr	r4, [r3]
    1020:	e5933004 	ldr	r3, [r3, #4]
    1024:	e58dc044 	str	r12, [sp, #68]	; 0x44
    1028:	e58d4058 	str	r4, [sp, #88]	; 0x58
    102c:	e58d3060 	str	r3, [sp, #96]	; 0x60
    1030:	e59d1060 	ldr	r1, [sp, #96]	; 0x60
    1034:	e59d0058 	ldr	r0, [sp, #88]	; 0x58
    1038:	eb002085 	bl	9254 <__fpclassifyd>
    103c:	e3500001 	cmp	r0, #1
    1040:	e59d1060 	ldr	r1, [sp, #96]	; 0x60
    1044:	e59d0058 	ldr	r0, [sp, #88]	; 0x58
    1048:	1a0003d0 	bne	1f90 <_vfprintf_r+0x1704>
    104c:	e3a03000 	mov	r3, #0
    1050:	e3a02000 	mov	r2, #0
    1054:	eb00436e 	bl	11e14 <__aeabi_dcmplt>
    1058:	e59d4020 	ldr	r4, [sp, #32]
    105c:	e3500000 	cmp	r0, #0
    1060:	13a0a02d 	movne	r10, #45	; 0x2d
    1064:	e59f3820 	ldr	r3, [pc, #2080]	; 188c <_vfprintf_r+0x1000>
    1068:	e3a05003 	mov	r5, #3
    106c:	e3a0c000 	mov	r12, #0
    1070:	05dda077 	ldrbeq	r10, [sp, #119]	; 0x77
    1074:	15cda077 	strbne	r10, [sp, #119]	; 0x77
    1078:	e3c44080 	bic	r4, r4, #128	; 0x80
    107c:	e3580047 	cmp	r8, #71	; 0x47
    1080:	e59f6808 	ldr	r6, [pc, #2056]	; 1890 <_vfprintf_r+0x1004>
    1084:	e58d5030 	str	r5, [sp, #48]	; 0x30
    1088:	e58dc02c 	str	r12, [sp, #44]	; 0x2c
    108c:	e58d4020 	str	r4, [sp, #32]
    1090:	d1a06003 	movle	r6, r3
    1094:	e58d5038 	str	r5, [sp, #56]	; 0x38
    1098:	e58dc050 	str	r12, [sp, #80]	; 0x50
    109c:	eaffff2a 	b	d4c <_vfprintf_r+0x4c0>
    10a0:	e59d4020 	ldr	r4, [sp, #32]
    10a4:	e3844008 	orr	r4, r4, #8
    10a8:	e58d4020 	str	r4, [sp, #32]
    10ac:	e5d38000 	ldrb	r8, [r3]
    10b0:	eafffe53 	b	a04 <_vfprintf_r+0x178>
    10b4:	e59d5020 	ldr	r5, [sp, #32]
    10b8:	e3855010 	orr	r5, r5, #16
    10bc:	e58d5020 	str	r5, [sp, #32]
    10c0:	e59dc020 	ldr	r12, [sp, #32]
    10c4:	e58d3024 	str	r3, [sp, #36]	; 0x24
    10c8:	e21c3020 	ands	r3, r12, #32
    10cc:	1affff82 	bne	edc <_vfprintf_r+0x650>
    10d0:	e59dc020 	ldr	r12, [sp, #32]
    10d4:	e21c2010 	ands	r2, r12, #16
    10d8:	0a00042c 	beq	2190 <_vfprintf_r+0x1904>
    10dc:	e59d5044 	ldr	r5, [sp, #68]	; 0x44
    10e0:	e5954000 	ldr	r4, [r5]
    10e4:	e2855004 	add	r5, r5, #4
    10e8:	e58d5044 	str	r5, [sp, #68]	; 0x44
    10ec:	e3a05000 	mov	r5, #0
    10f0:	eafffeea 	b	ca0 <_vfprintf_r+0x414>
    10f4:	e59dc044 	ldr	r12, [sp, #68]	; 0x44
    10f8:	e59cc000 	ldr	r12, [r12]
    10fc:	e59d4044 	ldr	r4, [sp, #68]	; 0x44
    1100:	e35c0000 	cmp	r12, #0
    1104:	e58dc040 	str	r12, [sp, #64]	; 0x40
    1108:	e2841004 	add	r1, r4, #4
    110c:	bafffe9a 	blt	b7c <_vfprintf_r+0x2f0>
    1110:	e58d1044 	str	r1, [sp, #68]	; 0x44
    1114:	e5d38000 	ldrb	r8, [r3]
    1118:	eafffe39 	b	a04 <_vfprintf_r+0x178>
    111c:	e59d5020 	ldr	r5, [sp, #32]
    1120:	e3855020 	orr	r5, r5, #32
    1124:	e58d5020 	str	r5, [sp, #32]
    1128:	e5d38000 	ldrb	r8, [r3]
    112c:	eafffe34 	b	a04 <_vfprintf_r+0x178>
    1130:	e59d4044 	ldr	r4, [sp, #68]	; 0x44
    1134:	e5946000 	ldr	r6, [r4]
    1138:	e3a05000 	mov	r5, #0
    113c:	e1560005 	cmp	r6, r5
    1140:	e58d3024 	str	r3, [sp, #36]	; 0x24
    1144:	e2844004 	add	r4, r4, #4
    1148:	e5cd5077 	strb	r5, [sp, #119]	; 0x77
    114c:	0a0004c9 	beq	2478 <_vfprintf_r+0x1bec>
    1150:	e59dc02c 	ldr	r12, [sp, #44]	; 0x2c
    1154:	e35c0000 	cmp	r12, #0
    1158:	e1a00006 	mov	r0, r6
    115c:	ba0004a6 	blt	23fc <_vfprintf_r+0x1b70>
    1160:	e1a01005 	mov	r1, r5
    1164:	e1a0200c 	mov	r2, r12
    1168:	eb001a03 	bl	797c <memchr>
    116c:	e3500000 	cmp	r0, #0
    1170:	0a000504 	beq	2588 <_vfprintf_r+0x1cfc>
    1174:	e59dc02c 	ldr	r12, [sp, #44]	; 0x2c
    1178:	e0660000 	rsb	r0, r6, r0
    117c:	e15c0000 	cmp	r12, r0
    1180:	a1a0c000 	movge	r12, r0
    1184:	e58d4044 	str	r4, [sp, #68]	; 0x44
    1188:	e1cc4fcc 	bic	r4, r12, r12, asr #31
    118c:	e58dc038 	str	r12, [sp, #56]	; 0x38
    1190:	e58d502c 	str	r5, [sp, #44]	; 0x2c
    1194:	e58d4030 	str	r4, [sp, #48]	; 0x30
    1198:	e58d5050 	str	r5, [sp, #80]	; 0x50
    119c:	e5dda077 	ldrb	r10, [sp, #119]	; 0x77
    11a0:	eafffee9 	b	d4c <_vfprintf_r+0x4c0>
    11a4:	e59d5020 	ldr	r5, [sp, #32]
    11a8:	e59f46e4 	ldr	r4, [pc, #1764]	; 1894 <_vfprintf_r+0x1008>
    11ac:	e3150020 	tst	r5, #32
    11b0:	e58d3024 	str	r3, [sp, #36]	; 0x24
    11b4:	e5cd2077 	strb	r2, [sp, #119]	; 0x77
    11b8:	e58d4068 	str	r4, [sp, #104]	; 0x68
    11bc:	0a000078 	beq	13a4 <_vfprintf_r+0xb18>
    11c0:	e59dc044 	ldr	r12, [sp, #68]	; 0x44
    11c4:	e28c3007 	add	r3, r12, #7
    11c8:	e3c33007 	bic	r3, r3, #7
    11cc:	e2834008 	add	r4, r3, #8
    11d0:	e58d4044 	str	r4, [sp, #68]	; 0x44
    11d4:	e8930030 	ldm	r3, {r4, r5}
    11d8:	e59dc020 	ldr	r12, [sp, #32]
    11dc:	e31c0001 	tst	r12, #1
    11e0:	0a000235 	beq	1abc <_vfprintf_r+0x1230>
    11e4:	e1940005 	orrs	r0, r4, r5
    11e8:	0a000233 	beq	1abc <_vfprintf_r+0x1230>
    11ec:	e3a03030 	mov	r3, #48	; 0x30
    11f0:	e38cc002 	orr	r12, r12, #2
    11f4:	e5cd3078 	strb	r3, [sp, #120]	; 0x78
    11f8:	e5cd8079 	strb	r8, [sp, #121]	; 0x79
    11fc:	e58dc020 	str	r12, [sp, #32]
    1200:	e3a03002 	mov	r3, #2
    1204:	eafffea5 	b	ca0 <_vfprintf_r+0x414>
    1208:	e5d38000 	ldrb	r8, [r3]
    120c:	e3a0202b 	mov	r2, #43	; 0x2b
    1210:	eafffdfb 	b	a04 <_vfprintf_r+0x178>
    1214:	e3520000 	cmp	r2, #0
    1218:	e5d38000 	ldrb	r8, [r3]
    121c:	03a02020 	moveq	r2, #32
    1220:	eafffdf7 	b	a04 <_vfprintf_r+0x178>
    1224:	e59dc044 	ldr	r12, [sp, #68]	; 0x44
    1228:	e59d5020 	ldr	r5, [sp, #32]
    122c:	e28cc004 	add	r12, r12, #4
    1230:	e58d3024 	str	r3, [sp, #36]	; 0x24
    1234:	e59d3044 	ldr	r3, [sp, #68]	; 0x44
    1238:	e58dc044 	str	r12, [sp, #68]	; 0x44
    123c:	e59fc650 	ldr	r12, [pc, #1616]	; 1894 <_vfprintf_r+0x1008>
    1240:	e3855002 	orr	r5, r5, #2
    1244:	e5934000 	ldr	r4, [r3]
    1248:	e3a08078 	mov	r8, #120	; 0x78
    124c:	e3a03030 	mov	r3, #48	; 0x30
    1250:	e58d5020 	str	r5, [sp, #32]
    1254:	e5cd3078 	strb	r3, [sp, #120]	; 0x78
    1258:	e3a05000 	mov	r5, #0
    125c:	e5cd8079 	strb	r8, [sp, #121]	; 0x79
    1260:	e58dc068 	str	r12, [sp, #104]	; 0x68
    1264:	e3a03002 	mov	r3, #2
    1268:	eafffe8c 	b	ca0 <_vfprintf_r+0x414>
    126c:	e59d5020 	ldr	r5, [sp, #32]
    1270:	e3855040 	orr	r5, r5, #64	; 0x40
    1274:	e58d5020 	str	r5, [sp, #32]
    1278:	e5d38000 	ldrb	r8, [r3]
    127c:	eafffde0 	b	a04 <_vfprintf_r+0x178>
    1280:	e5d38000 	ldrb	r8, [r3]
    1284:	e358006c 	cmp	r8, #108	; 0x6c
    1288:	059dc020 	ldreq	r12, [sp, #32]
    128c:	159d4020 	ldrne	r4, [sp, #32]
    1290:	e1a01003 	mov	r1, r3
    1294:	038cc020 	orreq	r12, r12, #32
    1298:	13844010 	orrne	r4, r4, #16
    129c:	02833001 	addeq	r3, r3, #1
    12a0:	058dc020 	streq	r12, [sp, #32]
    12a4:	05d18001 	ldrbeq	r8, [r1, #1]
    12a8:	158d4020 	strne	r4, [sp, #32]
    12ac:	eafffdd4 	b	a04 <_vfprintf_r+0x178>
    12b0:	e59dc020 	ldr	r12, [sp, #32]
    12b4:	e31c0020 	tst	r12, #32
    12b8:	e58d3024 	str	r3, [sp, #36]	; 0x24
    12bc:	e5cd2077 	strb	r2, [sp, #119]	; 0x77
    12c0:	0a000399 	beq	212c <_vfprintf_r+0x18a0>
    12c4:	e59d4044 	ldr	r4, [sp, #68]	; 0x44
    12c8:	e5941000 	ldr	r1, [r4]
    12cc:	e59d4048 	ldr	r4, [sp, #72]	; 0x48
    12d0:	e1a05fc4 	asr	r5, r4, #31
    12d4:	e1a03005 	mov	r3, r5
    12d8:	e59d5044 	ldr	r5, [sp, #68]	; 0x44
    12dc:	e1a02004 	mov	r2, r4
    12e0:	e2855004 	add	r5, r5, #4
    12e4:	e58d5044 	str	r5, [sp, #68]	; 0x44
    12e8:	e881000c 	stm	r1, {r2, r3}
    12ec:	eafffd99 	b	958 <_vfprintf_r+0xcc>
    12f0:	e59d5020 	ldr	r5, [sp, #32]
    12f4:	e3855001 	orr	r5, r5, #1
    12f8:	e58d5020 	str	r5, [sp, #32]
    12fc:	e5d38000 	ldrb	r8, [r3]
    1300:	eafffdbf 	b	a04 <_vfprintf_r+0x178>
    1304:	e58d3024 	str	r3, [sp, #36]	; 0x24
    1308:	e59d3044 	ldr	r3, [sp, #68]	; 0x44
    130c:	e59d4044 	ldr	r4, [sp, #68]	; 0x44
    1310:	e5932000 	ldr	r2, [r3]
    1314:	e3a0c001 	mov	r12, #1
    1318:	e2844004 	add	r4, r4, #4
    131c:	e3a03000 	mov	r3, #0
    1320:	e58dc030 	str	r12, [sp, #48]	; 0x30
    1324:	e5cd20a0 	strb	r2, [sp, #160]	; 0xa0
    1328:	e58d4044 	str	r4, [sp, #68]	; 0x44
    132c:	e1a0a003 	mov	r10, r3
    1330:	e5cd3077 	strb	r3, [sp, #119]	; 0x77
    1334:	e58da02c 	str	r10, [sp, #44]	; 0x2c
    1338:	e58da050 	str	r10, [sp, #80]	; 0x50
    133c:	e58dc038 	str	r12, [sp, #56]	; 0x38
    1340:	e28d60a0 	add	r6, sp, #160	; 0xa0
    1344:	eafffe85 	b	d60 <_vfprintf_r+0x4d4>
    1348:	e59dc020 	ldr	r12, [sp, #32]
    134c:	e31c0020 	tst	r12, #32
    1350:	e58d3024 	str	r3, [sp, #36]	; 0x24
    1354:	e5cd2077 	strb	r2, [sp, #119]	; 0x77
    1358:	1affff18 	bne	fc0 <_vfprintf_r+0x734>
    135c:	e59d5020 	ldr	r5, [sp, #32]
    1360:	e3150010 	tst	r5, #16
    1364:	0a00037d 	beq	2160 <_vfprintf_r+0x18d4>
    1368:	e59dc044 	ldr	r12, [sp, #68]	; 0x44
    136c:	e59c4000 	ldr	r4, [r12]
    1370:	e28cc004 	add	r12, r12, #4
    1374:	e1a05fc4 	asr	r5, r4, #31
    1378:	e58dc044 	str	r12, [sp, #68]	; 0x44
    137c:	e1a02004 	mov	r2, r4
    1380:	e1a03005 	mov	r3, r5
    1384:	eaffff15 	b	fe0 <_vfprintf_r+0x754>
    1388:	e59d5020 	ldr	r5, [sp, #32]
    138c:	e59f4504 	ldr	r4, [pc, #1284]	; 1898 <_vfprintf_r+0x100c>
    1390:	e3150020 	tst	r5, #32
    1394:	e58d3024 	str	r3, [sp, #36]	; 0x24
    1398:	e5cd2077 	strb	r2, [sp, #119]	; 0x77
    139c:	e58d4068 	str	r4, [sp, #104]	; 0x68
    13a0:	1affff86 	bne	11c0 <_vfprintf_r+0x934>
    13a4:	e59d5020 	ldr	r5, [sp, #32]
    13a8:	e3150010 	tst	r5, #16
    13ac:	1a00023a 	bne	1c9c <_vfprintf_r+0x1410>
    13b0:	e59d4020 	ldr	r4, [sp, #32]
    13b4:	e3140040 	tst	r4, #64	; 0x40
    13b8:	0a000237 	beq	1c9c <_vfprintf_r+0x1410>
    13bc:	e59d5044 	ldr	r5, [sp, #68]	; 0x44
    13c0:	e1d540b0 	ldrh	r4, [r5]
    13c4:	e2855004 	add	r5, r5, #4
    13c8:	e58d5044 	str	r5, [sp, #68]	; 0x44
    13cc:	e3a05000 	mov	r5, #0
    13d0:	eaffff80 	b	11d8 <_vfprintf_r+0x94c>
    13d4:	e59d5020 	ldr	r5, [sp, #32]
    13d8:	e3855080 	orr	r5, r5, #128	; 0x80
    13dc:	e58d5020 	str	r5, [sp, #32]
    13e0:	e5d38000 	ldrb	r8, [r3]
    13e4:	eafffd86 	b	a04 <_vfprintf_r+0x178>
    13e8:	e3a0c000 	mov	r12, #0
    13ec:	e58dc040 	str	r12, [sp, #64]	; 0x40
    13f0:	e2481030 	sub	r1, r8, #48	; 0x30
    13f4:	e1a0000c 	mov	r0, r12
    13f8:	e4d38001 	ldrb	r8, [r3], #1
    13fc:	e0800100 	add	r0, r0, r0, lsl #2
    1400:	e0810080 	add	r0, r1, r0, lsl #1
    1404:	e2481030 	sub	r1, r8, #48	; 0x30
    1408:	e3510009 	cmp	r1, #9
    140c:	9afffff9 	bls	13f8 <_vfprintf_r+0xb6c>
    1410:	e58d0040 	str	r0, [sp, #64]	; 0x40
    1414:	eafffd7b 	b	a08 <_vfprintf_r+0x17c>
    1418:	e3580000 	cmp	r8, #0
    141c:	e58d3024 	str	r3, [sp, #36]	; 0x24
    1420:	e5cd2077 	strb	r2, [sp, #119]	; 0x77
    1424:	0afffdff 	beq	c28 <_vfprintf_r+0x39c>
    1428:	e3a03000 	mov	r3, #0
    142c:	e3a0c001 	mov	r12, #1
    1430:	e1a0a003 	mov	r10, r3
    1434:	e58dc030 	str	r12, [sp, #48]	; 0x30
    1438:	e5cd80a0 	strb	r8, [sp, #160]	; 0xa0
    143c:	eaffffbb 	b	1330 <_vfprintf_r+0xaa4>
    1440:	e59d409c 	ldr	r4, [sp, #156]	; 0x9c
    1444:	e35a0000 	cmp	r10, #0
    1448:	0a00000a 	beq	1478 <_vfprintf_r+0xbec>
    144c:	e59d3098 	ldr	r3, [sp, #152]	; 0x98
    1450:	e2833001 	add	r3, r3, #1
    1454:	e3530007 	cmp	r3, #7
    1458:	e2844001 	add	r4, r4, #1
    145c:	e28d2077 	add	r2, sp, #119	; 0x77
    1460:	e58d3098 	str	r3, [sp, #152]	; 0x98
    1464:	e3a03001 	mov	r3, #1
    1468:	e887000c 	stm	r7, {r2, r3}
    146c:	e58d409c 	str	r4, [sp, #156]	; 0x9c
    1470:	d2877008 	addle	r7, r7, #8
    1474:	ca00017e 	bgt	1a74 <_vfprintf_r+0x11e8>
    1478:	e35b0000 	cmp	r11, #0
    147c:	0a00000a 	beq	14ac <_vfprintf_r+0xc20>
    1480:	e59d3098 	ldr	r3, [sp, #152]	; 0x98
    1484:	e2833001 	add	r3, r3, #1
    1488:	e3530007 	cmp	r3, #7
    148c:	e2844002 	add	r4, r4, #2
    1490:	e28d2078 	add	r2, sp, #120	; 0x78
    1494:	e58d3098 	str	r3, [sp, #152]	; 0x98
    1498:	e3a03002 	mov	r3, #2
    149c:	e887000c 	stm	r7, {r2, r3}
    14a0:	e58d409c 	str	r4, [sp, #156]	; 0x9c
    14a4:	d2877008 	addle	r7, r7, #8
    14a8:	ca00017a 	bgt	1a98 <_vfprintf_r+0x120c>
    14ac:	e59d504c 	ldr	r5, [sp, #76]	; 0x4c
    14b0:	e3550080 	cmp	r5, #128	; 0x80
    14b4:	0a0000e3 	beq	1848 <_vfprintf_r+0xfbc>
    14b8:	e59dc02c 	ldr	r12, [sp, #44]	; 0x2c
    14bc:	e59d3038 	ldr	r3, [sp, #56]	; 0x38
    14c0:	e063a00c 	rsb	r10, r3, r12
    14c4:	e35a0000 	cmp	r10, #0
    14c8:	da000034 	ble	15a0 <_vfprintf_r+0xd14>
    14cc:	e35a0010 	cmp	r10, #16
    14d0:	e59d3098 	ldr	r3, [sp, #152]	; 0x98
    14d4:	e59f53c4 	ldr	r5, [pc, #964]	; 18a0 <_vfprintf_r+0x1014>
    14d8:	da000020 	ble	1560 <_vfprintf_r+0xcd4>
    14dc:	e1a02007 	mov	r2, r7
    14e0:	e1a01004 	mov	r1, r4
    14e4:	e1a07005 	mov	r7, r5
    14e8:	e3a0b010 	mov	r11, #16
    14ec:	e59d4034 	ldr	r4, [sp, #52]	; 0x34
    14f0:	e59d5028 	ldr	r5, [sp, #40]	; 0x28
    14f4:	ea000002 	b	1504 <_vfprintf_r+0xc78>
    14f8:	e24aa010 	sub	r10, r10, #16
    14fc:	e35a0010 	cmp	r10, #16
    1500:	da000013 	ble	1554 <_vfprintf_r+0xcc8>
    1504:	e2833001 	add	r3, r3, #1
    1508:	e3530007 	cmp	r3, #7
    150c:	e2811010 	add	r1, r1, #16
    1510:	e8820a00 	stm	r2, {r9, r11}
    1514:	e58d3098 	str	r3, [sp, #152]	; 0x98
    1518:	e58d109c 	str	r1, [sp, #156]	; 0x9c
    151c:	d2822008 	addle	r2, r2, #8
    1520:	dafffff4 	ble	14f8 <_vfprintf_r+0xc6c>
    1524:	e1a00004 	mov	r0, r4
    1528:	e1a01005 	mov	r1, r5
    152c:	e28d2094 	add	r2, sp, #148	; 0x94
    1530:	eb0030a3 	bl	d7c4 <__sprint_r>
    1534:	e3500000 	cmp	r0, #0
    1538:	1afffdc0 	bne	c40 <_vfprintf_r+0x3b4>
    153c:	e24aa010 	sub	r10, r10, #16
    1540:	e35a0010 	cmp	r10, #16
    1544:	e59d109c 	ldr	r1, [sp, #156]	; 0x9c
    1548:	e59d3098 	ldr	r3, [sp, #152]	; 0x98
    154c:	e28d20c8 	add	r2, sp, #200	; 0xc8
    1550:	caffffeb 	bgt	1504 <_vfprintf_r+0xc78>
    1554:	e1a05007 	mov	r5, r7
    1558:	e1a04001 	mov	r4, r1
    155c:	e1a07002 	mov	r7, r2
    1560:	e2833001 	add	r3, r3, #1
    1564:	e3530007 	cmp	r3, #7
    1568:	e084400a 	add	r4, r4, r10
    156c:	e8870420 	stm	r7, {r5, r10}
    1570:	e58d3098 	str	r3, [sp, #152]	; 0x98
    1574:	e58d409c 	str	r4, [sp, #156]	; 0x9c
    1578:	d2877008 	addle	r7, r7, #8
    157c:	da000007 	ble	15a0 <_vfprintf_r+0xd14>
    1580:	e59d0034 	ldr	r0, [sp, #52]	; 0x34
    1584:	e59d1028 	ldr	r1, [sp, #40]	; 0x28
    1588:	e28d2094 	add	r2, sp, #148	; 0x94
    158c:	eb00308c 	bl	d7c4 <__sprint_r>
    1590:	e3500000 	cmp	r0, #0
    1594:	1afffda9 	bne	c40 <_vfprintf_r+0x3b4>
    1598:	e59d409c 	ldr	r4, [sp, #156]	; 0x9c
    159c:	e28d70c8 	add	r7, sp, #200	; 0xc8
    15a0:	e59d5020 	ldr	r5, [sp, #32]
    15a4:	e3150c01 	tst	r5, #256	; 0x100
    15a8:	1a00004d 	bne	16e4 <_vfprintf_r+0xe58>
    15ac:	e59d3098 	ldr	r3, [sp, #152]	; 0x98
    15b0:	e59dc038 	ldr	r12, [sp, #56]	; 0x38
    15b4:	e2833001 	add	r3, r3, #1
    15b8:	e084400c 	add	r4, r4, r12
    15bc:	e3530007 	cmp	r3, #7
    15c0:	e58d409c 	str	r4, [sp, #156]	; 0x9c
    15c4:	e8871040 	stm	r7, {r6, r12}
    15c8:	e58d3098 	str	r3, [sp, #152]	; 0x98
    15cc:	ca000118 	bgt	1a34 <_vfprintf_r+0x11a8>
    15d0:	e2877008 	add	r7, r7, #8
    15d4:	e59dc020 	ldr	r12, [sp, #32]
    15d8:	e31c0004 	tst	r12, #4
    15dc:	0a000033 	beq	16b0 <_vfprintf_r+0xe24>
    15e0:	e59dc040 	ldr	r12, [sp, #64]	; 0x40
    15e4:	e59d0030 	ldr	r0, [sp, #48]	; 0x30
    15e8:	e060500c 	rsb	r5, r0, r12
    15ec:	e3550000 	cmp	r5, #0
    15f0:	da00002e 	ble	16b0 <_vfprintf_r+0xe24>
    15f4:	e3550010 	cmp	r5, #16
    15f8:	e59d3098 	ldr	r3, [sp, #152]	; 0x98
    15fc:	e59fa284 	ldr	r10, [pc, #644]	; 1888 <_vfprintf_r+0xffc>
    1600:	da00001b 	ble	1674 <_vfprintf_r+0xde8>
    1604:	e3a06010 	mov	r6, #16
    1608:	e59d8034 	ldr	r8, [sp, #52]	; 0x34
    160c:	e59db028 	ldr	r11, [sp, #40]	; 0x28
    1610:	ea000002 	b	1620 <_vfprintf_r+0xd94>
    1614:	e2455010 	sub	r5, r5, #16
    1618:	e3550010 	cmp	r5, #16
    161c:	da000014 	ble	1674 <_vfprintf_r+0xde8>
    1620:	e2833001 	add	r3, r3, #1
    1624:	e59f125c 	ldr	r1, [pc, #604]	; 1888 <_vfprintf_r+0xffc>
    1628:	e3530007 	cmp	r3, #7
    162c:	e2844010 	add	r4, r4, #16
    1630:	e8870042 	stm	r7, {r1, r6}
    1634:	e58d3098 	str	r3, [sp, #152]	; 0x98
    1638:	e58d409c 	str	r4, [sp, #156]	; 0x9c
    163c:	d2877008 	addle	r7, r7, #8
    1640:	dafffff3 	ble	1614 <_vfprintf_r+0xd88>
    1644:	e1a00008 	mov	r0, r8
    1648:	e1a0100b 	mov	r1, r11
    164c:	e28d2094 	add	r2, sp, #148	; 0x94
    1650:	eb00305b 	bl	d7c4 <__sprint_r>
    1654:	e3500000 	cmp	r0, #0
    1658:	1afffd78 	bne	c40 <_vfprintf_r+0x3b4>
    165c:	e2455010 	sub	r5, r5, #16
    1660:	e28d3098 	add	r3, sp, #152	; 0x98
    1664:	e3550010 	cmp	r5, #16
    1668:	e8930018 	ldm	r3, {r3, r4}
    166c:	e28d70c8 	add	r7, sp, #200	; 0xc8
    1670:	caffffea 	bgt	1620 <_vfprintf_r+0xd94>
    1674:	e2833001 	add	r3, r3, #1
    1678:	e0844005 	add	r4, r4, r5
    167c:	e3530007 	cmp	r3, #7
    1680:	e58d3098 	str	r3, [sp, #152]	; 0x98
    1684:	e58d409c 	str	r4, [sp, #156]	; 0x9c
    1688:	e587a000 	str	r10, [r7]
    168c:	e5875004 	str	r5, [r7, #4]
    1690:	da000006 	ble	16b0 <_vfprintf_r+0xe24>
    1694:	e59d0034 	ldr	r0, [sp, #52]	; 0x34
    1698:	e59d1028 	ldr	r1, [sp, #40]	; 0x28
    169c:	e28d2094 	add	r2, sp, #148	; 0x94
    16a0:	eb003047 	bl	d7c4 <__sprint_r>
    16a4:	e3500000 	cmp	r0, #0
    16a8:	1afffd64 	bne	c40 <_vfprintf_r+0x3b4>
    16ac:	e59d409c 	ldr	r4, [sp, #156]	; 0x9c
    16b0:	e59d5048 	ldr	r5, [sp, #72]	; 0x48
    16b4:	e59dc030 	ldr	r12, [sp, #48]	; 0x30
    16b8:	e59d0040 	ldr	r0, [sp, #64]	; 0x40
    16bc:	e15c0000 	cmp	r12, r0
    16c0:	a085500c 	addge	r5, r5, r12
    16c4:	b0855000 	addlt	r5, r5, r0
    16c8:	e3540000 	cmp	r4, #0
    16cc:	e58d5048 	str	r5, [sp, #72]	; 0x48
    16d0:	1a0000e0 	bne	1a58 <_vfprintf_r+0x11cc>
    16d4:	e3a03000 	mov	r3, #0
    16d8:	e58d3098 	str	r3, [sp, #152]	; 0x98
    16dc:	e28d70c8 	add	r7, sp, #200	; 0xc8
    16e0:	eafffc9c 	b	958 <_vfprintf_r+0xcc>
    16e4:	e3580065 	cmp	r8, #101	; 0x65
    16e8:	da00009c 	ble	1960 <_vfprintf_r+0x10d4>
    16ec:	e59d0058 	ldr	r0, [sp, #88]	; 0x58
    16f0:	e59d1060 	ldr	r1, [sp, #96]	; 0x60
    16f4:	e3a02000 	mov	r2, #0
    16f8:	e3a03000 	mov	r3, #0
    16fc:	eb0041be 	bl	11dfc <__aeabi_dcmpeq>
    1700:	e3500000 	cmp	r0, #0
    1704:	0a0000ee 	beq	1ac4 <_vfprintf_r+0x1238>
    1708:	e59d3098 	ldr	r3, [sp, #152]	; 0x98
    170c:	e59f0188 	ldr	r0, [pc, #392]	; 189c <_vfprintf_r+0x1010>
    1710:	e2833001 	add	r3, r3, #1
    1714:	e2844001 	add	r4, r4, #1
    1718:	e3530007 	cmp	r3, #7
    171c:	e3a02001 	mov	r2, #1
    1720:	e5870000 	str	r0, [r7]
    1724:	e5872004 	str	r2, [r7, #4]
    1728:	e58d409c 	str	r4, [sp, #156]	; 0x9c
    172c:	e58d3098 	str	r3, [sp, #152]	; 0x98
    1730:	d2877008 	addle	r7, r7, #8
    1734:	ca0002a2 	bgt	21c4 <_vfprintf_r+0x1938>
    1738:	e59d307c 	ldr	r3, [sp, #124]	; 0x7c
    173c:	e59d503c 	ldr	r5, [sp, #60]	; 0x3c
    1740:	e1530005 	cmp	r3, r5
    1744:	ba000002 	blt	1754 <_vfprintf_r+0xec8>
    1748:	e59dc020 	ldr	r12, [sp, #32]
    174c:	e31c0001 	tst	r12, #1
    1750:	0affff9f 	beq	15d4 <_vfprintf_r+0xd48>
    1754:	e59d3098 	ldr	r3, [sp, #152]	; 0x98
    1758:	e59d505c 	ldr	r5, [sp, #92]	; 0x5c
    175c:	e2833001 	add	r3, r3, #1
    1760:	e59dc054 	ldr	r12, [sp, #84]	; 0x54
    1764:	e0844005 	add	r4, r4, r5
    1768:	e3530007 	cmp	r3, #7
    176c:	e587c000 	str	r12, [r7]
    1770:	e5875004 	str	r5, [r7, #4]
    1774:	e58d409c 	str	r4, [sp, #156]	; 0x9c
    1778:	e58d3098 	str	r3, [sp, #152]	; 0x98
    177c:	d2877008 	addle	r7, r7, #8
    1780:	ca0002f8 	bgt	2368 <_vfprintf_r+0x1adc>
    1784:	e59d503c 	ldr	r5, [sp, #60]	; 0x3c
    1788:	e2456001 	sub	r6, r5, #1
    178c:	e3560000 	cmp	r6, #0
    1790:	daffff8f 	ble	15d4 <_vfprintf_r+0xd48>
    1794:	e3560010 	cmp	r6, #16
    1798:	e59d3098 	ldr	r3, [sp, #152]	; 0x98
    179c:	e59f50fc 	ldr	r5, [pc, #252]	; 18a0 <_vfprintf_r+0x1014>
    17a0:	da000143 	ble	1cb4 <_vfprintf_r+0x1428>
    17a4:	e3a08010 	mov	r8, #16
    17a8:	e59da034 	ldr	r10, [sp, #52]	; 0x34
    17ac:	e59db028 	ldr	r11, [sp, #40]	; 0x28
    17b0:	ea000002 	b	17c0 <_vfprintf_r+0xf34>
    17b4:	e2466010 	sub	r6, r6, #16
    17b8:	e3560010 	cmp	r6, #16
    17bc:	da00013c 	ble	1cb4 <_vfprintf_r+0x1428>
    17c0:	e2833001 	add	r3, r3, #1
    17c4:	e3530007 	cmp	r3, #7
    17c8:	e2844010 	add	r4, r4, #16
    17cc:	e5879000 	str	r9, [r7]
    17d0:	e5878004 	str	r8, [r7, #4]
    17d4:	e58d3098 	str	r3, [sp, #152]	; 0x98
    17d8:	e58d409c 	str	r4, [sp, #156]	; 0x9c
    17dc:	d2877008 	addle	r7, r7, #8
    17e0:	dafffff3 	ble	17b4 <_vfprintf_r+0xf28>
    17e4:	e1a0000a 	mov	r0, r10
    17e8:	e1a0100b 	mov	r1, r11
    17ec:	e28d2094 	add	r2, sp, #148	; 0x94
    17f0:	eb002ff3 	bl	d7c4 <__sprint_r>
    17f4:	e3500000 	cmp	r0, #0
    17f8:	1afffd10 	bne	c40 <_vfprintf_r+0x3b4>
    17fc:	e28d3098 	add	r3, sp, #152	; 0x98
    1800:	e8930018 	ldm	r3, {r3, r4}
    1804:	e28d70c8 	add	r7, sp, #200	; 0xc8
    1808:	eaffffe9 	b	17b4 <_vfprintf_r+0xf28>
    180c:	e3530000 	cmp	r3, #0
    1810:	158d2038 	strne	r2, [sp, #56]	; 0x38
    1814:	128d60c8 	addne	r6, sp, #200	; 0xc8
    1818:	1afffd44 	bne	d30 <_vfprintf_r+0x4a4>
    181c:	e59d4020 	ldr	r4, [sp, #32]
    1820:	e3140001 	tst	r4, #1
    1824:	128d6f42 	addne	r6, sp, #264	; 0x108
    1828:	13a03030 	movne	r3, #48	; 0x30
    182c:	159d501c 	ldrne	r5, [sp, #28]
    1830:	15663041 	strbne	r3, [r6, #-65]!	; 0xffffffbf
    1834:	10665005 	rsbne	r5, r6, r5
    1838:	158d5038 	strne	r5, [sp, #56]	; 0x38
    183c:	058d3038 	streq	r3, [sp, #56]	; 0x38
    1840:	028d60c8 	addeq	r6, sp, #200	; 0xc8
    1844:	eafffd39 	b	d30 <_vfprintf_r+0x4a4>
    1848:	e59dc040 	ldr	r12, [sp, #64]	; 0x40
    184c:	e59d5030 	ldr	r5, [sp, #48]	; 0x30
    1850:	e065a00c 	rsb	r10, r5, r12
    1854:	e35a0000 	cmp	r10, #0
    1858:	daffff16 	ble	14b8 <_vfprintf_r+0xc2c>
    185c:	e35a0010 	cmp	r10, #16
    1860:	e59d3098 	ldr	r3, [sp, #152]	; 0x98
    1864:	e59f5034 	ldr	r5, [pc, #52]	; 18a0 <_vfprintf_r+0x1014>
    1868:	da00002b 	ble	191c <_vfprintf_r+0x1090>
    186c:	e1a02007 	mov	r2, r7
    1870:	e1a01004 	mov	r1, r4
    1874:	e1a07005 	mov	r7, r5
    1878:	e3a0b010 	mov	r11, #16
    187c:	e59d4034 	ldr	r4, [sp, #52]	; 0x34
    1880:	e59d5028 	ldr	r5, [sp, #40]	; 0x28
    1884:	ea00000d 	b	18c0 <_vfprintf_r+0x1034>
    1888:	00013434 	.word	0x00013434
    188c:	00013454 	.word	0x00013454
    1890:	00013458 	.word	0x00013458
    1894:	00013478 	.word	0x00013478
    1898:	00013464 	.word	0x00013464
    189c:	00013494 	.word	0x00013494
    18a0:	00013444 	.word	0x00013444
    18a4:	0001345c 	.word	0x0001345c
    18a8:	00013460 	.word	0x00013460
    18ac:	0001348c 	.word	0x0001348c
    18b0:	66666667 	.word	0x66666667
    18b4:	e24aa010 	sub	r10, r10, #16
    18b8:	e35a0010 	cmp	r10, #16
    18bc:	da000013 	ble	1910 <_vfprintf_r+0x1084>
    18c0:	e2833001 	add	r3, r3, #1
    18c4:	e3530007 	cmp	r3, #7
    18c8:	e2811010 	add	r1, r1, #16
    18cc:	e8820a00 	stm	r2, {r9, r11}
    18d0:	e58d3098 	str	r3, [sp, #152]	; 0x98
    18d4:	e58d109c 	str	r1, [sp, #156]	; 0x9c
    18d8:	d2822008 	addle	r2, r2, #8
    18dc:	dafffff4 	ble	18b4 <_vfprintf_r+0x1028>
    18e0:	e1a00004 	mov	r0, r4
    18e4:	e1a01005 	mov	r1, r5
    18e8:	e28d2094 	add	r2, sp, #148	; 0x94
    18ec:	eb002fb4 	bl	d7c4 <__sprint_r>
    18f0:	e3500000 	cmp	r0, #0
    18f4:	1afffcd1 	bne	c40 <_vfprintf_r+0x3b4>
    18f8:	e24aa010 	sub	r10, r10, #16
    18fc:	e35a0010 	cmp	r10, #16
    1900:	e59d109c 	ldr	r1, [sp, #156]	; 0x9c
    1904:	e59d3098 	ldr	r3, [sp, #152]	; 0x98
    1908:	e28d20c8 	add	r2, sp, #200	; 0xc8
    190c:	caffffeb 	bgt	18c0 <_vfprintf_r+0x1034>
    1910:	e1a05007 	mov	r5, r7
    1914:	e1a04001 	mov	r4, r1
    1918:	e1a07002 	mov	r7, r2
    191c:	e2833001 	add	r3, r3, #1
    1920:	e3530007 	cmp	r3, #7
    1924:	e084400a 	add	r4, r4, r10
    1928:	e8870420 	stm	r7, {r5, r10}
    192c:	e58d3098 	str	r3, [sp, #152]	; 0x98
    1930:	e58d409c 	str	r4, [sp, #156]	; 0x9c
    1934:	d2877008 	addle	r7, r7, #8
    1938:	dafffede 	ble	14b8 <_vfprintf_r+0xc2c>
    193c:	e59d0034 	ldr	r0, [sp, #52]	; 0x34
    1940:	e59d1028 	ldr	r1, [sp, #40]	; 0x28
    1944:	e28d2094 	add	r2, sp, #148	; 0x94
    1948:	eb002f9d 	bl	d7c4 <__sprint_r>
    194c:	e3500000 	cmp	r0, #0
    1950:	1afffcba 	bne	c40 <_vfprintf_r+0x3b4>
    1954:	e59d409c 	ldr	r4, [sp, #156]	; 0x9c
    1958:	e28d70c8 	add	r7, sp, #200	; 0xc8
    195c:	eafffed5 	b	14b8 <_vfprintf_r+0xc2c>
    1960:	e59d503c 	ldr	r5, [sp, #60]	; 0x3c
    1964:	e59d8098 	ldr	r8, [sp, #152]	; 0x98
    1968:	e3550001 	cmp	r5, #1
    196c:	e2888001 	add	r8, r8, #1
    1970:	e2844001 	add	r4, r4, #1
    1974:	da00013a 	ble	1e64 <_vfprintf_r+0x15d8>
    1978:	e3580007 	cmp	r8, #7
    197c:	e3a03001 	mov	r3, #1
    1980:	e58d409c 	str	r4, [sp, #156]	; 0x9c
    1984:	e5876000 	str	r6, [r7]
    1988:	e58d8098 	str	r8, [sp, #152]	; 0x98
    198c:	e5873004 	str	r3, [r7, #4]
    1990:	d2877008 	addle	r7, r7, #8
    1994:	ca000146 	bgt	1eb4 <_vfprintf_r+0x1628>
    1998:	e59d505c 	ldr	r5, [sp, #92]	; 0x5c
    199c:	e2888001 	add	r8, r8, #1
    19a0:	e59dc054 	ldr	r12, [sp, #84]	; 0x54
    19a4:	e3580007 	cmp	r8, #7
    19a8:	e0844005 	add	r4, r4, r5
    19ac:	e587c000 	str	r12, [r7]
    19b0:	e5875004 	str	r5, [r7, #4]
    19b4:	e58d8098 	str	r8, [sp, #152]	; 0x98
    19b8:	e58d409c 	str	r4, [sp, #156]	; 0x9c
    19bc:	d2877008 	addle	r7, r7, #8
    19c0:	ca000145 	bgt	1edc <_vfprintf_r+0x1650>
    19c4:	e59d0058 	ldr	r0, [sp, #88]	; 0x58
    19c8:	e59d1060 	ldr	r1, [sp, #96]	; 0x60
    19cc:	e3a02000 	mov	r2, #0
    19d0:	e3a03000 	mov	r3, #0
    19d4:	eb004108 	bl	11dfc <__aeabi_dcmpeq>
    19d8:	e3500000 	cmp	r0, #0
    19dc:	1a000086 	bne	1bfc <_vfprintf_r+0x1370>
    19e0:	e59d503c 	ldr	r5, [sp, #60]	; 0x3c
    19e4:	e2888001 	add	r8, r8, #1
    19e8:	e2453001 	sub	r3, r5, #1
    19ec:	e2866001 	add	r6, r6, #1
    19f0:	e0844003 	add	r4, r4, r3
    19f4:	e3580007 	cmp	r8, #7
    19f8:	e58d8098 	str	r8, [sp, #152]	; 0x98
    19fc:	e58d409c 	str	r4, [sp, #156]	; 0x9c
    1a00:	e5876000 	str	r6, [r7]
    1a04:	e5873004 	str	r3, [r7, #4]
    1a08:	ca00011f 	bgt	1e8c <_vfprintf_r+0x1600>
    1a0c:	e2877008 	add	r7, r7, #8
    1a10:	e59d5064 	ldr	r5, [sp, #100]	; 0x64
    1a14:	e2888001 	add	r8, r8, #1
    1a18:	e0854004 	add	r4, r5, r4
    1a1c:	e28d3084 	add	r3, sp, #132	; 0x84
    1a20:	e3580007 	cmp	r8, #7
    1a24:	e58d8098 	str	r8, [sp, #152]	; 0x98
    1a28:	e58d409c 	str	r4, [sp, #156]	; 0x9c
    1a2c:	e8870028 	stm	r7, {r3, r5}
    1a30:	dafffee6 	ble	15d0 <_vfprintf_r+0xd44>
    1a34:	e59d0034 	ldr	r0, [sp, #52]	; 0x34
    1a38:	e59d1028 	ldr	r1, [sp, #40]	; 0x28
    1a3c:	e28d2094 	add	r2, sp, #148	; 0x94
    1a40:	eb002f5f 	bl	d7c4 <__sprint_r>
    1a44:	e3500000 	cmp	r0, #0
    1a48:	1afffc7c 	bne	c40 <_vfprintf_r+0x3b4>
    1a4c:	e59d409c 	ldr	r4, [sp, #156]	; 0x9c
    1a50:	e28d70c8 	add	r7, sp, #200	; 0xc8
    1a54:	eafffede 	b	15d4 <_vfprintf_r+0xd48>
    1a58:	e59d0034 	ldr	r0, [sp, #52]	; 0x34
    1a5c:	e59d1028 	ldr	r1, [sp, #40]	; 0x28
    1a60:	e28d2094 	add	r2, sp, #148	; 0x94
    1a64:	eb002f56 	bl	d7c4 <__sprint_r>
    1a68:	e3500000 	cmp	r0, #0
    1a6c:	0affff18 	beq	16d4 <_vfprintf_r+0xe48>
    1a70:	eafffc72 	b	c40 <_vfprintf_r+0x3b4>
    1a74:	e59d0034 	ldr	r0, [sp, #52]	; 0x34
    1a78:	e59d1028 	ldr	r1, [sp, #40]	; 0x28
    1a7c:	e28d2094 	add	r2, sp, #148	; 0x94
    1a80:	eb002f4f 	bl	d7c4 <__sprint_r>
    1a84:	e3500000 	cmp	r0, #0
    1a88:	1afffc6c 	bne	c40 <_vfprintf_r+0x3b4>
    1a8c:	e59d409c 	ldr	r4, [sp, #156]	; 0x9c
    1a90:	e28d70c8 	add	r7, sp, #200	; 0xc8
    1a94:	eafffe77 	b	1478 <_vfprintf_r+0xbec>
    1a98:	e59d0034 	ldr	r0, [sp, #52]	; 0x34
    1a9c:	e59d1028 	ldr	r1, [sp, #40]	; 0x28
    1aa0:	e28d2094 	add	r2, sp, #148	; 0x94
    1aa4:	eb002f46 	bl	d7c4 <__sprint_r>
    1aa8:	e3500000 	cmp	r0, #0
    1aac:	1afffc63 	bne	c40 <_vfprintf_r+0x3b4>
    1ab0:	e59d409c 	ldr	r4, [sp, #156]	; 0x9c
    1ab4:	e28d70c8 	add	r7, sp, #200	; 0xc8
    1ab8:	eafffe7b 	b	14ac <_vfprintf_r+0xc20>
    1abc:	e3a03002 	mov	r3, #2
    1ac0:	eafffc76 	b	ca0 <_vfprintf_r+0x414>
    1ac4:	e59d307c 	ldr	r3, [sp, #124]	; 0x7c
    1ac8:	e3530000 	cmp	r3, #0
    1acc:	da0001c5 	ble	21e8 <_vfprintf_r+0x195c>
    1ad0:	e59dc050 	ldr	r12, [sp, #80]	; 0x50
    1ad4:	e59d503c 	ldr	r5, [sp, #60]	; 0x3c
    1ad8:	e155000c 	cmp	r5, r12
    1adc:	a1a0500c 	movge	r5, r12
    1ae0:	e59dc03c 	ldr	r12, [sp, #60]	; 0x3c
    1ae4:	e3550000 	cmp	r5, #0
    1ae8:	e086b00c 	add	r11, r6, r12
    1aec:	da000009 	ble	1b18 <_vfprintf_r+0x128c>
    1af0:	e59d3098 	ldr	r3, [sp, #152]	; 0x98
    1af4:	e2833001 	add	r3, r3, #1
    1af8:	e0844005 	add	r4, r4, r5
    1afc:	e3530007 	cmp	r3, #7
    1b00:	e5876000 	str	r6, [r7]
    1b04:	e5875004 	str	r5, [r7, #4]
    1b08:	e58d409c 	str	r4, [sp, #156]	; 0x9c
    1b0c:	e58d3098 	str	r3, [sp, #152]	; 0x98
    1b10:	d2877008 	addle	r7, r7, #8
    1b14:	ca000242 	bgt	2424 <_vfprintf_r+0x1b98>
    1b18:	e59dc050 	ldr	r12, [sp, #80]	; 0x50
    1b1c:	e1c55fc5 	bic	r5, r5, r5, asr #31
    1b20:	e065800c 	rsb	r8, r5, r12
    1b24:	e3580000 	cmp	r8, #0
    1b28:	da00007c 	ble	1d20 <_vfprintf_r+0x1494>
    1b2c:	e3580010 	cmp	r8, #16
    1b30:	e59d3098 	ldr	r3, [sp, #152]	; 0x98
    1b34:	e51f529c 	ldr	r5, [pc, #-668]	; 18a0 <_vfprintf_r+0x1014>
    1b38:	da000068 	ble	1ce0 <_vfprintf_r+0x1454>
    1b3c:	e1a02007 	mov	r2, r7
    1b40:	e1a01004 	mov	r1, r4
    1b44:	e1a07005 	mov	r7, r5
    1b48:	e3a0a010 	mov	r10, #16
    1b4c:	e59d4034 	ldr	r4, [sp, #52]	; 0x34
    1b50:	e59d5028 	ldr	r5, [sp, #40]	; 0x28
    1b54:	ea000002 	b	1b64 <_vfprintf_r+0x12d8>
    1b58:	e2488010 	sub	r8, r8, #16
    1b5c:	e3580010 	cmp	r8, #16
    1b60:	da00005b 	ble	1cd4 <_vfprintf_r+0x1448>
    1b64:	e2833001 	add	r3, r3, #1
    1b68:	e3530007 	cmp	r3, #7
    1b6c:	e2811010 	add	r1, r1, #16
    1b70:	e8820600 	stm	r2, {r9, r10}
    1b74:	e58d3098 	str	r3, [sp, #152]	; 0x98
    1b78:	e58d109c 	str	r1, [sp, #156]	; 0x9c
    1b7c:	d2822008 	addle	r2, r2, #8
    1b80:	dafffff4 	ble	1b58 <_vfprintf_r+0x12cc>
    1b84:	e1a00004 	mov	r0, r4
    1b88:	e1a01005 	mov	r1, r5
    1b8c:	e28d2094 	add	r2, sp, #148	; 0x94
    1b90:	eb002f0b 	bl	d7c4 <__sprint_r>
    1b94:	e3500000 	cmp	r0, #0
    1b98:	1afffc28 	bne	c40 <_vfprintf_r+0x3b4>
    1b9c:	e59d109c 	ldr	r1, [sp, #156]	; 0x9c
    1ba0:	e59d3098 	ldr	r3, [sp, #152]	; 0x98
    1ba4:	e28d20c8 	add	r2, sp, #200	; 0xc8
    1ba8:	eaffffea 	b	1b58 <_vfprintf_r+0x12cc>
    1bac:	e3550000 	cmp	r5, #0
    1bb0:	03540009 	cmpeq	r4, #9
    1bb4:	8a0000db 	bhi	1f28 <_vfprintf_r+0x169c>
    1bb8:	e2844030 	add	r4, r4, #48	; 0x30
    1bbc:	e28d6f42 	add	r6, sp, #264	; 0x108
    1bc0:	e5664041 	strb	r4, [r6, #-65]!	; 0xffffffbf
    1bc4:	e59d501c 	ldr	r5, [sp, #28]
    1bc8:	e0665005 	rsb	r5, r6, r5
    1bcc:	e58d5038 	str	r5, [sp, #56]	; 0x38
    1bd0:	eafffc56 	b	d30 <_vfprintf_r+0x4a4>
    1bd4:	e59d0034 	ldr	r0, [sp, #52]	; 0x34
    1bd8:	e59d1028 	ldr	r1, [sp, #40]	; 0x28
    1bdc:	e28d2094 	add	r2, sp, #148	; 0x94
    1be0:	eb002ef7 	bl	d7c4 <__sprint_r>
    1be4:	e3500000 	cmp	r0, #0
    1be8:	1afffc14 	bne	c40 <_vfprintf_r+0x3b4>
    1bec:	e5dda077 	ldrb	r10, [sp, #119]	; 0x77
    1bf0:	e59d409c 	ldr	r4, [sp, #156]	; 0x9c
    1bf4:	e28d70c8 	add	r7, sp, #200	; 0xc8
    1bf8:	eafffe11 	b	1444 <_vfprintf_r+0xbb8>
    1bfc:	e59dc03c 	ldr	r12, [sp, #60]	; 0x3c
    1c00:	e24c6001 	sub	r6, r12, #1
    1c04:	e3560000 	cmp	r6, #0
    1c08:	daffff80 	ble	1a10 <_vfprintf_r+0x1184>
    1c0c:	e3560010 	cmp	r6, #16
    1c10:	e51f5378 	ldr	r5, [pc, #-888]	; 18a0 <_vfprintf_r+0x1014>
    1c14:	da0000bb 	ble	1f08 <_vfprintf_r+0x167c>
    1c18:	e58d502c 	str	r5, [sp, #44]	; 0x2c
    1c1c:	e3a0a010 	mov	r10, #16
    1c20:	e59db034 	ldr	r11, [sp, #52]	; 0x34
    1c24:	e59d5028 	ldr	r5, [sp, #40]	; 0x28
    1c28:	ea000002 	b	1c38 <_vfprintf_r+0x13ac>
    1c2c:	e2466010 	sub	r6, r6, #16
    1c30:	e3560010 	cmp	r6, #16
    1c34:	da0000b2 	ble	1f04 <_vfprintf_r+0x1678>
    1c38:	e2888001 	add	r8, r8, #1
    1c3c:	e3580007 	cmp	r8, #7
    1c40:	e2844010 	add	r4, r4, #16
    1c44:	e8870600 	stm	r7, {r9, r10}
    1c48:	e58d8098 	str	r8, [sp, #152]	; 0x98
    1c4c:	e58d409c 	str	r4, [sp, #156]	; 0x9c
    1c50:	d2877008 	addle	r7, r7, #8
    1c54:	dafffff4 	ble	1c2c <_vfprintf_r+0x13a0>
    1c58:	e1a0000b 	mov	r0, r11
    1c5c:	e1a01005 	mov	r1, r5
    1c60:	e28d2094 	add	r2, sp, #148	; 0x94
    1c64:	eb002ed6 	bl	d7c4 <__sprint_r>
    1c68:	e3500000 	cmp	r0, #0
    1c6c:	1afffbf3 	bne	c40 <_vfprintf_r+0x3b4>
    1c70:	e59d409c 	ldr	r4, [sp, #156]	; 0x9c
    1c74:	e59d8098 	ldr	r8, [sp, #152]	; 0x98
    1c78:	e28d70c8 	add	r7, sp, #200	; 0xc8
    1c7c:	eaffffea 	b	1c2c <_vfprintf_r+0x13a0>
    1c80:	e59dc044 	ldr	r12, [sp, #68]	; 0x44
    1c84:	e59c4000 	ldr	r4, [r12]
    1c88:	e28cc004 	add	r12, r12, #4
    1c8c:	e3a03001 	mov	r3, #1
    1c90:	e58dc044 	str	r12, [sp, #68]	; 0x44
    1c94:	e3a05000 	mov	r5, #0
    1c98:	eafffc00 	b	ca0 <_vfprintf_r+0x414>
    1c9c:	e59dc044 	ldr	r12, [sp, #68]	; 0x44
    1ca0:	e59c4000 	ldr	r4, [r12]
    1ca4:	e28cc004 	add	r12, r12, #4
    1ca8:	e58dc044 	str	r12, [sp, #68]	; 0x44
    1cac:	e3a05000 	mov	r5, #0
    1cb0:	eafffd48 	b	11d8 <_vfprintf_r+0x94c>
    1cb4:	e2833001 	add	r3, r3, #1
    1cb8:	e0844006 	add	r4, r4, r6
    1cbc:	e3530007 	cmp	r3, #7
    1cc0:	e58d3098 	str	r3, [sp, #152]	; 0x98
    1cc4:	e58d409c 	str	r4, [sp, #156]	; 0x9c
    1cc8:	e8870060 	stm	r7, {r5, r6}
    1ccc:	dafffe3f 	ble	15d0 <_vfprintf_r+0xd44>
    1cd0:	eaffff57 	b	1a34 <_vfprintf_r+0x11a8>
    1cd4:	e1a05007 	mov	r5, r7
    1cd8:	e1a04001 	mov	r4, r1
    1cdc:	e1a07002 	mov	r7, r2
    1ce0:	e2833001 	add	r3, r3, #1
    1ce4:	e3530007 	cmp	r3, #7
    1ce8:	e0844008 	add	r4, r4, r8
    1cec:	e8870120 	stm	r7, {r5, r8}
    1cf0:	e58d3098 	str	r3, [sp, #152]	; 0x98
    1cf4:	e58d409c 	str	r4, [sp, #156]	; 0x9c
    1cf8:	d2877008 	addle	r7, r7, #8
    1cfc:	da000007 	ble	1d20 <_vfprintf_r+0x1494>
    1d00:	e59d0034 	ldr	r0, [sp, #52]	; 0x34
    1d04:	e59d1028 	ldr	r1, [sp, #40]	; 0x28
    1d08:	e28d2094 	add	r2, sp, #148	; 0x94
    1d0c:	eb002eac 	bl	d7c4 <__sprint_r>
    1d10:	e3500000 	cmp	r0, #0
    1d14:	1afffbc9 	bne	c40 <_vfprintf_r+0x3b4>
    1d18:	e59d409c 	ldr	r4, [sp, #156]	; 0x9c
    1d1c:	e28d70c8 	add	r7, sp, #200	; 0xc8
    1d20:	e59d307c 	ldr	r3, [sp, #124]	; 0x7c
    1d24:	e59d503c 	ldr	r5, [sp, #60]	; 0x3c
    1d28:	e59dc050 	ldr	r12, [sp, #80]	; 0x50
    1d2c:	e1530005 	cmp	r3, r5
    1d30:	e086600c 	add	r6, r6, r12
    1d34:	ba000035 	blt	1e10 <_vfprintf_r+0x1584>
    1d38:	e59d5020 	ldr	r5, [sp, #32]
    1d3c:	e3150001 	tst	r5, #1
    1d40:	1a000032 	bne	1e10 <_vfprintf_r+0x1584>
    1d44:	e59dc03c 	ldr	r12, [sp, #60]	; 0x3c
    1d48:	e066500b 	rsb	r5, r6, r11
    1d4c:	e063300c 	rsb	r3, r3, r12
    1d50:	e1550003 	cmp	r5, r3
    1d54:	a1a05003 	movge	r5, r3
    1d58:	e3550000 	cmp	r5, #0
    1d5c:	da000009 	ble	1d88 <_vfprintf_r+0x14fc>
    1d60:	e59d2098 	ldr	r2, [sp, #152]	; 0x98
    1d64:	e2822001 	add	r2, r2, #1
    1d68:	e0844005 	add	r4, r4, r5
    1d6c:	e3520007 	cmp	r2, #7
    1d70:	e5876000 	str	r6, [r7]
    1d74:	e5875004 	str	r5, [r7, #4]
    1d78:	e58d409c 	str	r4, [sp, #156]	; 0x9c
    1d7c:	e58d2098 	str	r2, [sp, #152]	; 0x98
    1d80:	d2877008 	addle	r7, r7, #8
    1d84:	ca0001af 	bgt	2448 <_vfprintf_r+0x1bbc>
    1d88:	e1c55fc5 	bic	r5, r5, r5, asr #31
    1d8c:	e0656003 	rsb	r6, r5, r3
    1d90:	e3560000 	cmp	r6, #0
    1d94:	dafffe0e 	ble	15d4 <_vfprintf_r+0xd48>
    1d98:	e3560010 	cmp	r6, #16
    1d9c:	e59d3098 	ldr	r3, [sp, #152]	; 0x98
    1da0:	e51f5508 	ldr	r5, [pc, #-1288]	; 18a0 <_vfprintf_r+0x1014>
    1da4:	daffffc2 	ble	1cb4 <_vfprintf_r+0x1428>
    1da8:	e3a08010 	mov	r8, #16
    1dac:	e59da034 	ldr	r10, [sp, #52]	; 0x34
    1db0:	e59db028 	ldr	r11, [sp, #40]	; 0x28
    1db4:	ea000002 	b	1dc4 <_vfprintf_r+0x1538>
    1db8:	e2466010 	sub	r6, r6, #16
    1dbc:	e3560010 	cmp	r6, #16
    1dc0:	daffffbb 	ble	1cb4 <_vfprintf_r+0x1428>
    1dc4:	e2833001 	add	r3, r3, #1
    1dc8:	e3530007 	cmp	r3, #7
    1dcc:	e2844010 	add	r4, r4, #16
    1dd0:	e5879000 	str	r9, [r7]
    1dd4:	e5878004 	str	r8, [r7, #4]
    1dd8:	e58d3098 	str	r3, [sp, #152]	; 0x98
    1ddc:	e58d409c 	str	r4, [sp, #156]	; 0x9c
    1de0:	d2877008 	addle	r7, r7, #8
    1de4:	dafffff3 	ble	1db8 <_vfprintf_r+0x152c>
    1de8:	e1a0000a 	mov	r0, r10
    1dec:	e1a0100b 	mov	r1, r11
    1df0:	e28d2094 	add	r2, sp, #148	; 0x94
    1df4:	eb002e72 	bl	d7c4 <__sprint_r>
    1df8:	e3500000 	cmp	r0, #0
    1dfc:	1afffb8f 	bne	c40 <_vfprintf_r+0x3b4>
    1e00:	e28d3098 	add	r3, sp, #152	; 0x98
    1e04:	e8930018 	ldm	r3, {r3, r4}
    1e08:	e28d70c8 	add	r7, sp, #200	; 0xc8
    1e0c:	eaffffe9 	b	1db8 <_vfprintf_r+0x152c>
    1e10:	e59d2098 	ldr	r2, [sp, #152]	; 0x98
    1e14:	e59dc05c 	ldr	r12, [sp, #92]	; 0x5c
    1e18:	e2822001 	add	r2, r2, #1
    1e1c:	e59d5054 	ldr	r5, [sp, #84]	; 0x54
    1e20:	e084400c 	add	r4, r4, r12
    1e24:	e3520007 	cmp	r2, #7
    1e28:	e8871020 	stm	r7, {r5, r12}
    1e2c:	e58d409c 	str	r4, [sp, #156]	; 0x9c
    1e30:	e58d2098 	str	r2, [sp, #152]	; 0x98
    1e34:	d2877008 	addle	r7, r7, #8
    1e38:	daffffc1 	ble	1d44 <_vfprintf_r+0x14b8>
    1e3c:	e59d0034 	ldr	r0, [sp, #52]	; 0x34
    1e40:	e59d1028 	ldr	r1, [sp, #40]	; 0x28
    1e44:	e28d2094 	add	r2, sp, #148	; 0x94
    1e48:	eb002e5d 	bl	d7c4 <__sprint_r>
    1e4c:	e3500000 	cmp	r0, #0
    1e50:	1afffb7a 	bne	c40 <_vfprintf_r+0x3b4>
    1e54:	e59d307c 	ldr	r3, [sp, #124]	; 0x7c
    1e58:	e59d409c 	ldr	r4, [sp, #156]	; 0x9c
    1e5c:	e28d70c8 	add	r7, sp, #200	; 0xc8
    1e60:	eaffffb7 	b	1d44 <_vfprintf_r+0x14b8>
    1e64:	e59dc020 	ldr	r12, [sp, #32]
    1e68:	e31c0001 	tst	r12, #1
    1e6c:	1afffec1 	bne	1978 <_vfprintf_r+0x10ec>
    1e70:	e3a03001 	mov	r3, #1
    1e74:	e3580007 	cmp	r8, #7
    1e78:	e58d409c 	str	r4, [sp, #156]	; 0x9c
    1e7c:	e58d8098 	str	r8, [sp, #152]	; 0x98
    1e80:	e5876000 	str	r6, [r7]
    1e84:	e5873004 	str	r3, [r7, #4]
    1e88:	dafffedf 	ble	1a0c <_vfprintf_r+0x1180>
    1e8c:	e59d0034 	ldr	r0, [sp, #52]	; 0x34
    1e90:	e59d1028 	ldr	r1, [sp, #40]	; 0x28
    1e94:	e28d2094 	add	r2, sp, #148	; 0x94
    1e98:	eb002e49 	bl	d7c4 <__sprint_r>
    1e9c:	e3500000 	cmp	r0, #0
    1ea0:	1afffb66 	bne	c40 <_vfprintf_r+0x3b4>
    1ea4:	e59d409c 	ldr	r4, [sp, #156]	; 0x9c
    1ea8:	e59d8098 	ldr	r8, [sp, #152]	; 0x98
    1eac:	e28d70c8 	add	r7, sp, #200	; 0xc8
    1eb0:	eafffed6 	b	1a10 <_vfprintf_r+0x1184>
    1eb4:	e59d0034 	ldr	r0, [sp, #52]	; 0x34
    1eb8:	e59d1028 	ldr	r1, [sp, #40]	; 0x28
    1ebc:	e28d2094 	add	r2, sp, #148	; 0x94
    1ec0:	eb002e3f 	bl	d7c4 <__sprint_r>
    1ec4:	e3500000 	cmp	r0, #0
    1ec8:	1afffb5c 	bne	c40 <_vfprintf_r+0x3b4>
    1ecc:	e59d409c 	ldr	r4, [sp, #156]	; 0x9c
    1ed0:	e59d8098 	ldr	r8, [sp, #152]	; 0x98
    1ed4:	e28d70c8 	add	r7, sp, #200	; 0xc8
    1ed8:	eafffeae 	b	1998 <_vfprintf_r+0x110c>
    1edc:	e59d0034 	ldr	r0, [sp, #52]	; 0x34
    1ee0:	e59d1028 	ldr	r1, [sp, #40]	; 0x28
    1ee4:	e28d2094 	add	r2, sp, #148	; 0x94
    1ee8:	eb002e35 	bl	d7c4 <__sprint_r>
    1eec:	e3500000 	cmp	r0, #0
    1ef0:	1afffb52 	bne	c40 <_vfprintf_r+0x3b4>
    1ef4:	e59d409c 	ldr	r4, [sp, #156]	; 0x9c
    1ef8:	e59d8098 	ldr	r8, [sp, #152]	; 0x98
    1efc:	e28d70c8 	add	r7, sp, #200	; 0xc8
    1f00:	eafffeaf 	b	19c4 <_vfprintf_r+0x1138>
    1f04:	e59d502c 	ldr	r5, [sp, #44]	; 0x2c
    1f08:	e2888001 	add	r8, r8, #1
    1f0c:	e0844006 	add	r4, r4, r6
    1f10:	e3580007 	cmp	r8, #7
    1f14:	e58d8098 	str	r8, [sp, #152]	; 0x98
    1f18:	e58d409c 	str	r4, [sp, #156]	; 0x9c
    1f1c:	e8870060 	stm	r7, {r5, r6}
    1f20:	dafffeb9 	ble	1a0c <_vfprintf_r+0x1180>
    1f24:	eaffffd8 	b	1e8c <_vfprintf_r+0x1600>
    1f28:	e28db0c7 	add	r11, sp, #199	; 0xc7
    1f2c:	e1a00004 	mov	r0, r4
    1f30:	e1a01005 	mov	r1, r5
    1f34:	e3a0200a 	mov	r2, #10
    1f38:	e3a03000 	mov	r3, #0
    1f3c:	eb004065 	bl	120d8 <__aeabi_uldivmod>
    1f40:	e2822030 	add	r2, r2, #48	; 0x30
    1f44:	e5cb2000 	strb	r2, [r11]
    1f48:	e1a00004 	mov	r0, r4
    1f4c:	e1a01005 	mov	r1, r5
    1f50:	e3a0200a 	mov	r2, #10
    1f54:	e3a03000 	mov	r3, #0
    1f58:	eb00405e 	bl	120d8 <__aeabi_uldivmod>
    1f5c:	e1a04000 	mov	r4, r0
    1f60:	e1a05001 	mov	r5, r1
    1f64:	e194c005 	orrs	r12, r4, r5
    1f68:	e1a0600b 	mov	r6, r11
    1f6c:	e24bb001 	sub	r11, r11, #1
    1f70:	1affffed 	bne	1f2c <_vfprintf_r+0x16a0>
    1f74:	eafffb6a 	b	d24 <_vfprintf_r+0x498>
    1f78:	e3a0a02d 	mov	r10, #45	; 0x2d
    1f7c:	e2744000 	rsbs	r4, r4, #0
    1f80:	e2e55000 	rsc	r5, r5, #0
    1f84:	e5cda077 	strb	r10, [sp, #119]	; 0x77
    1f88:	e3a03001 	mov	r3, #1
    1f8c:	eafffb45 	b	ca8 <_vfprintf_r+0x41c>
    1f90:	eb001caf 	bl	9254 <__fpclassifyd>
    1f94:	e3500000 	cmp	r0, #0
    1f98:	0a0000da 	beq	2308 <_vfprintf_r+0x1a7c>
    1f9c:	e59d402c 	ldr	r4, [sp, #44]	; 0x2c
    1fa0:	e3740001 	cmn	r4, #1
    1fa4:	03a0c006 	moveq	r12, #6
    1fa8:	e3c85020 	bic	r5, r8, #32
    1fac:	058dc02c 	streq	r12, [sp, #44]	; 0x2c
    1fb0:	0a000005 	beq	1fcc <_vfprintf_r+0x1740>
    1fb4:	e3550047 	cmp	r5, #71	; 0x47
    1fb8:	1a000003 	bne	1fcc <_vfprintf_r+0x1740>
    1fbc:	e59d402c 	ldr	r4, [sp, #44]	; 0x2c
    1fc0:	e3540000 	cmp	r4, #0
    1fc4:	03a04001 	moveq	r4, #1
    1fc8:	e58d402c 	str	r4, [sp, #44]	; 0x2c
    1fcc:	e59d3060 	ldr	r3, [sp, #96]	; 0x60
    1fd0:	e59d4020 	ldr	r4, [sp, #32]
    1fd4:	e3530000 	cmp	r3, #0
    1fd8:	e3844c01 	orr	r4, r4, #256	; 0x100
    1fdc:	b283a102 	addlt	r10, r3, #-2147483648	; 0x80000000
    1fe0:	b3a0b02d 	movlt	r11, #45	; 0x2d
    1fe4:	a59da060 	ldrge	r10, [sp, #96]	; 0x60
    1fe8:	a3a0b000 	movge	r11, #0
    1fec:	e2553046 	subs	r3, r5, #70	; 0x46
    1ff0:	e58d404c 	str	r4, [sp, #76]	; 0x4c
    1ff4:	e2734000 	rsbs	r4, r3, #0
    1ff8:	e0b44003 	adcs	r4, r4, r3
    1ffc:	e3540000 	cmp	r4, #0
    2000:	1a000142 	bne	2510 <_vfprintf_r+0x1c84>
    2004:	e3550045 	cmp	r5, #69	; 0x45
    2008:	1a00019c 	bne	2680 <_vfprintf_r+0x1df4>
    200c:	e59dc02c 	ldr	r12, [sp, #44]	; 0x2c
    2010:	e3a00002 	mov	r0, #2
    2014:	e28c4001 	add	r4, r12, #1
    2018:	e28d107c 	add	r1, sp, #124	; 0x7c
    201c:	e88d0011 	stm	sp, {r0, r4}
    2020:	e58d1008 	str	r1, [sp, #8]
    2024:	e28d0080 	add	r0, sp, #128	; 0x80
    2028:	e28d108c 	add	r1, sp, #140	; 0x8c
    202c:	e58d000c 	str	r0, [sp, #12]
    2030:	e59d2058 	ldr	r2, [sp, #88]	; 0x58
    2034:	e1a0300a 	mov	r3, r10
    2038:	e58d1010 	str	r1, [sp, #16]
    203c:	e59d0034 	ldr	r0, [sp, #52]	; 0x34
    2040:	eb000932 	bl	4510 <_dtoa_r>
    2044:	e1a06000 	mov	r6, r0
    2048:	e0804004 	add	r4, r0, r4
    204c:	e3a03000 	mov	r3, #0
    2050:	e59d0058 	ldr	r0, [sp, #88]	; 0x58
    2054:	e1a0100a 	mov	r1, r10
    2058:	e3a02000 	mov	r2, #0
    205c:	eb003f66 	bl	11dfc <__aeabi_dcmpeq>
    2060:	e3500000 	cmp	r0, #0
    2064:	11a03004 	movne	r3, r4
    2068:	1a000009 	bne	2094 <_vfprintf_r+0x1808>
    206c:	e59d308c 	ldr	r3, [sp, #140]	; 0x8c
    2070:	e1540003 	cmp	r4, r3
    2074:	9a000006 	bls	2094 <_vfprintf_r+0x1808>
    2078:	e3a01030 	mov	r1, #48	; 0x30
    207c:	e2832001 	add	r2, r3, #1
    2080:	e58d208c 	str	r2, [sp, #140]	; 0x8c
    2084:	e5c31000 	strb	r1, [r3]
    2088:	e59d308c 	ldr	r3, [sp, #140]	; 0x8c
    208c:	e1540003 	cmp	r4, r3
    2090:	8afffff9 	bhi	207c <_vfprintf_r+0x17f0>
    2094:	e0663003 	rsb	r3, r6, r3
    2098:	e3550047 	cmp	r5, #71	; 0x47
    209c:	e58d303c 	str	r3, [sp, #60]	; 0x3c
    20a0:	0a000112 	beq	24f0 <_vfprintf_r+0x1c64>
    20a4:	e3580065 	cmp	r8, #101	; 0x65
    20a8:	da0001d3 	ble	27fc <_vfprintf_r+0x1f70>
    20ac:	e3580066 	cmp	r8, #102	; 0x66
    20b0:	0a000193 	beq	2704 <_vfprintf_r+0x1e78>
    20b4:	e59d507c 	ldr	r5, [sp, #124]	; 0x7c
    20b8:	e58d5050 	str	r5, [sp, #80]	; 0x50
    20bc:	e59d4050 	ldr	r4, [sp, #80]	; 0x50
    20c0:	e59d503c 	ldr	r5, [sp, #60]	; 0x3c
    20c4:	e1540005 	cmp	r4, r5
    20c8:	ba000162 	blt	2658 <_vfprintf_r+0x1dcc>
    20cc:	e59dc020 	ldr	r12, [sp, #32]
    20d0:	e31c0001 	tst	r12, #1
    20d4:	159d3050 	ldrne	r3, [sp, #80]	; 0x50
    20d8:	058d4038 	streq	r4, [sp, #56]	; 0x38
    20dc:	12833001 	addne	r3, r3, #1
    20e0:	158d3038 	strne	r3, [sp, #56]	; 0x38
    20e4:	01c43fc4 	biceq	r3, r4, r4, asr #31
    20e8:	11c33fc3 	bicne	r3, r3, r3, asr #31
    20ec:	e3a08067 	mov	r8, #103	; 0x67
    20f0:	e35b0000 	cmp	r11, #0
    20f4:	1a0000f2 	bne	24c4 <_vfprintf_r+0x1c38>
    20f8:	e59dc04c 	ldr	r12, [sp, #76]	; 0x4c
    20fc:	e58d3030 	str	r3, [sp, #48]	; 0x30
    2100:	e58dc020 	str	r12, [sp, #32]
    2104:	e58db02c 	str	r11, [sp, #44]	; 0x2c
    2108:	e5dda077 	ldrb	r10, [sp, #119]	; 0x77
    210c:	eafffb0e 	b	d4c <_vfprintf_r+0x4c0>
    2110:	e593c000 	ldr	r12, [r3]
    2114:	e5934004 	ldr	r4, [r3, #4]
    2118:	e2833008 	add	r3, r3, #8
    211c:	e58dc058 	str	r12, [sp, #88]	; 0x58
    2120:	e58d4060 	str	r4, [sp, #96]	; 0x60
    2124:	e58d3044 	str	r3, [sp, #68]	; 0x44
    2128:	eafffbc0 	b	1030 <_vfprintf_r+0x7a4>
    212c:	e59dc020 	ldr	r12, [sp, #32]
    2130:	e31c0010 	tst	r12, #16
    2134:	1a00006c 	bne	22ec <_vfprintf_r+0x1a60>
    2138:	e59dc020 	ldr	r12, [sp, #32]
    213c:	e31c0040 	tst	r12, #64	; 0x40
    2140:	0a0000d8 	beq	24a8 <_vfprintf_r+0x1c1c>
    2144:	e59d4044 	ldr	r4, [sp, #68]	; 0x44
    2148:	e59d5048 	ldr	r5, [sp, #72]	; 0x48
    214c:	e5943000 	ldr	r3, [r4]
    2150:	e2844004 	add	r4, r4, #4
    2154:	e58d4044 	str	r4, [sp, #68]	; 0x44
    2158:	e1c350b0 	strh	r5, [r3]
    215c:	eafff9fd 	b	958 <_vfprintf_r+0xcc>
    2160:	e59d4020 	ldr	r4, [sp, #32]
    2164:	e59d5044 	ldr	r5, [sp, #68]	; 0x44
    2168:	e3140040 	tst	r4, #64	; 0x40
    216c:	11d540f0 	ldrshne	r4, [r5]
    2170:	05954000 	ldreq	r4, [r5]
    2174:	e59dc044 	ldr	r12, [sp, #68]	; 0x44
    2178:	e1a05fc4 	asr	r5, r4, #31
    217c:	e28cc004 	add	r12, r12, #4
    2180:	e58dc044 	str	r12, [sp, #68]	; 0x44
    2184:	e1a02004 	mov	r2, r4
    2188:	e1a03005 	mov	r3, r5
    218c:	eafffb93 	b	fe0 <_vfprintf_r+0x754>
    2190:	e59dc020 	ldr	r12, [sp, #32]
    2194:	e21c3040 	ands	r3, r12, #64	; 0x40
    2198:	159d5044 	ldrne	r5, [sp, #68]	; 0x44
    219c:	059dc044 	ldreq	r12, [sp, #68]	; 0x44
    21a0:	11d540b0 	ldrhne	r4, [r5]
    21a4:	059c4000 	ldreq	r4, [r12]
    21a8:	12855004 	addne	r5, r5, #4
    21ac:	028cc004 	addeq	r12, r12, #4
    21b0:	158d5044 	strne	r5, [sp, #68]	; 0x44
    21b4:	11a03002 	movne	r3, r2
    21b8:	058dc044 	streq	r12, [sp, #68]	; 0x44
    21bc:	e3a05000 	mov	r5, #0
    21c0:	eafffab6 	b	ca0 <_vfprintf_r+0x414>
    21c4:	e59d0034 	ldr	r0, [sp, #52]	; 0x34
    21c8:	e59d1028 	ldr	r1, [sp, #40]	; 0x28
    21cc:	e28d2094 	add	r2, sp, #148	; 0x94
    21d0:	eb002d7b 	bl	d7c4 <__sprint_r>
    21d4:	e3500000 	cmp	r0, #0
    21d8:	1afffa98 	bne	c40 <_vfprintf_r+0x3b4>
    21dc:	e59d409c 	ldr	r4, [sp, #156]	; 0x9c
    21e0:	e28d70c8 	add	r7, sp, #200	; 0xc8
    21e4:	eafffd53 	b	1738 <_vfprintf_r+0xeac>
    21e8:	e59d2098 	ldr	r2, [sp, #152]	; 0x98
    21ec:	e51fc958 	ldr	r12, [pc, #-2392]	; 189c <_vfprintf_r+0x1010>
    21f0:	e2822001 	add	r2, r2, #1
    21f4:	e2844001 	add	r4, r4, #1
    21f8:	e3a01001 	mov	r1, #1
    21fc:	e3520007 	cmp	r2, #7
    2200:	e58d409c 	str	r4, [sp, #156]	; 0x9c
    2204:	e587c000 	str	r12, [r7]
    2208:	e58d2098 	str	r2, [sp, #152]	; 0x98
    220c:	e5871004 	str	r1, [r7, #4]
    2210:	ca00004a 	bgt	2340 <_vfprintf_r+0x1ab4>
    2214:	e2877008 	add	r7, r7, #8
    2218:	e1a08003 	mov	r8, r3
    221c:	e3580000 	cmp	r8, #0
    2220:	1a000005 	bne	223c <_vfprintf_r+0x19b0>
    2224:	e59d503c 	ldr	r5, [sp, #60]	; 0x3c
    2228:	e3550000 	cmp	r5, #0
    222c:	1a000002 	bne	223c <_vfprintf_r+0x19b0>
    2230:	e59dc020 	ldr	r12, [sp, #32]
    2234:	e31c0001 	tst	r12, #1
    2238:	0afffce5 	beq	15d4 <_vfprintf_r+0xd48>
    223c:	e59d3098 	ldr	r3, [sp, #152]	; 0x98
    2240:	e59d505c 	ldr	r5, [sp, #92]	; 0x5c
    2244:	e2833001 	add	r3, r3, #1
    2248:	e59dc054 	ldr	r12, [sp, #84]	; 0x54
    224c:	e0844005 	add	r4, r4, r5
    2250:	e3530007 	cmp	r3, #7
    2254:	e587c000 	str	r12, [r7]
    2258:	e5875004 	str	r5, [r7, #4]
    225c:	e58d409c 	str	r4, [sp, #156]	; 0x9c
    2260:	e58d3098 	str	r3, [sp, #152]	; 0x98
    2264:	d2877008 	addle	r7, r7, #8
    2268:	ca0000ef 	bgt	262c <_vfprintf_r+0x1da0>
    226c:	e2688000 	rsb	r8, r8, #0
    2270:	e3580000 	cmp	r8, #0
    2274:	da000056 	ble	23d4 <_vfprintf_r+0x1b48>
    2278:	e3580010 	cmp	r8, #16
    227c:	e51f59e4 	ldr	r5, [pc, #-2532]	; 18a0 <_vfprintf_r+0x1014>
    2280:	da000042 	ble	2390 <_vfprintf_r+0x1b04>
    2284:	e1a02004 	mov	r2, r4
    2288:	e3a0a010 	mov	r10, #16
    228c:	e59db034 	ldr	r11, [sp, #52]	; 0x34
    2290:	e59d4028 	ldr	r4, [sp, #40]	; 0x28
    2294:	ea000002 	b	22a4 <_vfprintf_r+0x1a18>
    2298:	e2488010 	sub	r8, r8, #16
    229c:	e3580010 	cmp	r8, #16
    22a0:	da000039 	ble	238c <_vfprintf_r+0x1b00>
    22a4:	e2833001 	add	r3, r3, #1
    22a8:	e3530007 	cmp	r3, #7
    22ac:	e2822010 	add	r2, r2, #16
    22b0:	e8870600 	stm	r7, {r9, r10}
    22b4:	e58d3098 	str	r3, [sp, #152]	; 0x98
    22b8:	e58d209c 	str	r2, [sp, #156]	; 0x9c
    22bc:	d2877008 	addle	r7, r7, #8
    22c0:	dafffff4 	ble	2298 <_vfprintf_r+0x1a0c>
    22c4:	e1a0000b 	mov	r0, r11
    22c8:	e1a01004 	mov	r1, r4
    22cc:	e28d2094 	add	r2, sp, #148	; 0x94
    22d0:	eb002d3b 	bl	d7c4 <__sprint_r>
    22d4:	e3500000 	cmp	r0, #0
    22d8:	1afffa58 	bne	c40 <_vfprintf_r+0x3b4>
    22dc:	e59d209c 	ldr	r2, [sp, #156]	; 0x9c
    22e0:	e59d3098 	ldr	r3, [sp, #152]	; 0x98
    22e4:	e28d70c8 	add	r7, sp, #200	; 0xc8
    22e8:	eaffffea 	b	2298 <_vfprintf_r+0x1a0c>
    22ec:	e59d4044 	ldr	r4, [sp, #68]	; 0x44
    22f0:	e59d5048 	ldr	r5, [sp, #72]	; 0x48
    22f4:	e5943000 	ldr	r3, [r4]
    22f8:	e2844004 	add	r4, r4, #4
    22fc:	e58d4044 	str	r4, [sp, #68]	; 0x44
    2300:	e5835000 	str	r5, [r3]
    2304:	eafff993 	b	958 <_vfprintf_r+0xcc>
    2308:	e59dc020 	ldr	r12, [sp, #32]
    230c:	e51f3a70 	ldr	r3, [pc, #-2672]	; 18a4 <_vfprintf_r+0x1018>
    2310:	e3a05003 	mov	r5, #3
    2314:	e3ccc080 	bic	r12, r12, #128	; 0x80
    2318:	e3580047 	cmp	r8, #71	; 0x47
    231c:	e51f6a7c 	ldr	r6, [pc, #-2684]	; 18a8 <_vfprintf_r+0x101c>
    2320:	e58d002c 	str	r0, [sp, #44]	; 0x2c
    2324:	e58d5030 	str	r5, [sp, #48]	; 0x30
    2328:	e58dc020 	str	r12, [sp, #32]
    232c:	e58d0050 	str	r0, [sp, #80]	; 0x50
    2330:	d1a06003 	movle	r6, r3
    2334:	e58d5038 	str	r5, [sp, #56]	; 0x38
    2338:	e5dda077 	ldrb	r10, [sp, #119]	; 0x77
    233c:	eafffa82 	b	d4c <_vfprintf_r+0x4c0>
    2340:	e59d0034 	ldr	r0, [sp, #52]	; 0x34
    2344:	e59d1028 	ldr	r1, [sp, #40]	; 0x28
    2348:	e28d2094 	add	r2, sp, #148	; 0x94
    234c:	eb002d1c 	bl	d7c4 <__sprint_r>
    2350:	e3500000 	cmp	r0, #0
    2354:	1afffa39 	bne	c40 <_vfprintf_r+0x3b4>
    2358:	e59d807c 	ldr	r8, [sp, #124]	; 0x7c
    235c:	e59d409c 	ldr	r4, [sp, #156]	; 0x9c
    2360:	e28d70c8 	add	r7, sp, #200	; 0xc8
    2364:	eaffffac 	b	221c <_vfprintf_r+0x1990>
    2368:	e59d0034 	ldr	r0, [sp, #52]	; 0x34
    236c:	e59d1028 	ldr	r1, [sp, #40]	; 0x28
    2370:	e28d2094 	add	r2, sp, #148	; 0x94
    2374:	eb002d12 	bl	d7c4 <__sprint_r>
    2378:	e3500000 	cmp	r0, #0
    237c:	1afffa2f 	bne	c40 <_vfprintf_r+0x3b4>
    2380:	e59d409c 	ldr	r4, [sp, #156]	; 0x9c
    2384:	e28d70c8 	add	r7, sp, #200	; 0xc8
    2388:	eafffcfd 	b	1784 <_vfprintf_r+0xef8>
    238c:	e1a04002 	mov	r4, r2
    2390:	e2833001 	add	r3, r3, #1
    2394:	e3530007 	cmp	r3, #7
    2398:	e0844008 	add	r4, r4, r8
    239c:	e8870120 	stm	r7, {r5, r8}
    23a0:	e58d3098 	str	r3, [sp, #152]	; 0x98
    23a4:	e58d409c 	str	r4, [sp, #156]	; 0x9c
    23a8:	d2877008 	addle	r7, r7, #8
    23ac:	da000008 	ble	23d4 <_vfprintf_r+0x1b48>
    23b0:	e59d0034 	ldr	r0, [sp, #52]	; 0x34
    23b4:	e59d1028 	ldr	r1, [sp, #40]	; 0x28
    23b8:	e28d2094 	add	r2, sp, #148	; 0x94
    23bc:	eb002d00 	bl	d7c4 <__sprint_r>
    23c0:	e3500000 	cmp	r0, #0
    23c4:	1afffa1d 	bne	c40 <_vfprintf_r+0x3b4>
    23c8:	e28d3098 	add	r3, sp, #152	; 0x98
    23cc:	e8930018 	ldm	r3, {r3, r4}
    23d0:	e28d70c8 	add	r7, sp, #200	; 0xc8
    23d4:	e59d503c 	ldr	r5, [sp, #60]	; 0x3c
    23d8:	e2833001 	add	r3, r3, #1
    23dc:	e0854004 	add	r4, r5, r4
    23e0:	e3530007 	cmp	r3, #7
    23e4:	e58d3098 	str	r3, [sp, #152]	; 0x98
    23e8:	e58d409c 	str	r4, [sp, #156]	; 0x9c
    23ec:	e5876000 	str	r6, [r7]
    23f0:	e5875004 	str	r5, [r7, #4]
    23f4:	dafffc75 	ble	15d0 <_vfprintf_r+0xd44>
    23f8:	eafffd8d 	b	1a34 <_vfprintf_r+0x11a8>
    23fc:	e58d502c 	str	r5, [sp, #44]	; 0x2c
    2400:	ebfff853 	bl	554 <strlen>
    2404:	e59dc02c 	ldr	r12, [sp, #44]	; 0x2c
    2408:	e1c05fc0 	bic	r5, r0, r0, asr #31
    240c:	e58d0038 	str	r0, [sp, #56]	; 0x38
    2410:	e58d4044 	str	r4, [sp, #68]	; 0x44
    2414:	e58d5030 	str	r5, [sp, #48]	; 0x30
    2418:	e58dc050 	str	r12, [sp, #80]	; 0x50
    241c:	e5dda077 	ldrb	r10, [sp, #119]	; 0x77
    2420:	eafffa49 	b	d4c <_vfprintf_r+0x4c0>
    2424:	e59d0034 	ldr	r0, [sp, #52]	; 0x34
    2428:	e59d1028 	ldr	r1, [sp, #40]	; 0x28
    242c:	e28d2094 	add	r2, sp, #148	; 0x94
    2430:	eb002ce3 	bl	d7c4 <__sprint_r>
    2434:	e3500000 	cmp	r0, #0
    2438:	1afffa00 	bne	c40 <_vfprintf_r+0x3b4>
    243c:	e59d409c 	ldr	r4, [sp, #156]	; 0x9c
    2440:	e28d70c8 	add	r7, sp, #200	; 0xc8
    2444:	eafffdb3 	b	1b18 <_vfprintf_r+0x128c>
    2448:	e59d0034 	ldr	r0, [sp, #52]	; 0x34
    244c:	e59d1028 	ldr	r1, [sp, #40]	; 0x28
    2450:	e28d2094 	add	r2, sp, #148	; 0x94
    2454:	eb002cda 	bl	d7c4 <__sprint_r>
    2458:	e3500000 	cmp	r0, #0
    245c:	1afff9f7 	bne	c40 <_vfprintf_r+0x3b4>
    2460:	e59d307c 	ldr	r3, [sp, #124]	; 0x7c
    2464:	e59dc03c 	ldr	r12, [sp, #60]	; 0x3c
    2468:	e59d409c 	ldr	r4, [sp, #156]	; 0x9c
    246c:	e063300c 	rsb	r3, r3, r12
    2470:	e28d70c8 	add	r7, sp, #200	; 0xc8
    2474:	eafffe43 	b	1d88 <_vfprintf_r+0x14fc>
    2478:	e59d502c 	ldr	r5, [sp, #44]	; 0x2c
    247c:	e3550006 	cmp	r5, #6
    2480:	23a05006 	movcs	r5, #6
    2484:	e1c5cfc5 	bic	r12, r5, r5, asr #31
    2488:	e1a0a006 	mov	r10, r6
    248c:	e58d602c 	str	r6, [sp, #44]	; 0x2c
    2490:	e58d6050 	str	r6, [sp, #80]	; 0x50
    2494:	e58d5038 	str	r5, [sp, #56]	; 0x38
    2498:	e58d4044 	str	r4, [sp, #68]	; 0x44
    249c:	e58dc030 	str	r12, [sp, #48]	; 0x30
    24a0:	e51f6bfc 	ldr	r6, [pc, #-3068]	; 18ac <_vfprintf_r+0x1020>
    24a4:	eafffa28 	b	d4c <_vfprintf_r+0x4c0>
    24a8:	e59dc044 	ldr	r12, [sp, #68]	; 0x44
    24ac:	e59d4048 	ldr	r4, [sp, #72]	; 0x48
    24b0:	e59c3000 	ldr	r3, [r12]
    24b4:	e28cc004 	add	r12, r12, #4
    24b8:	e58dc044 	str	r12, [sp, #68]	; 0x44
    24bc:	e5834000 	str	r4, [r3]
    24c0:	eafff924 	b	958 <_vfprintf_r+0xcc>
    24c4:	e59d404c 	ldr	r4, [sp, #76]	; 0x4c
    24c8:	e3a0a02d 	mov	r10, #45	; 0x2d
    24cc:	e3a05000 	mov	r5, #0
    24d0:	e58d3030 	str	r3, [sp, #48]	; 0x30
    24d4:	e58d4020 	str	r4, [sp, #32]
    24d8:	e5cda077 	strb	r10, [sp, #119]	; 0x77
    24dc:	e58d502c 	str	r5, [sp, #44]	; 0x2c
    24e0:	eafffa1b 	b	d54 <_vfprintf_r+0x4c8>
    24e4:	e59d308c 	ldr	r3, [sp, #140]	; 0x8c
    24e8:	e0603003 	rsb	r3, r0, r3
    24ec:	e58d303c 	str	r3, [sp, #60]	; 0x3c
    24f0:	e59d307c 	ldr	r3, [sp, #124]	; 0x7c
    24f4:	e3730003 	cmn	r3, #3
    24f8:	ba00002c 	blt	25b0 <_vfprintf_r+0x1d24>
    24fc:	e59d402c 	ldr	r4, [sp, #44]	; 0x2c
    2500:	e1540003 	cmp	r4, r3
    2504:	ba000029 	blt	25b0 <_vfprintf_r+0x1d24>
    2508:	e58d3050 	str	r3, [sp, #80]	; 0x50
    250c:	eafffeea 	b	20bc <_vfprintf_r+0x1830>
    2510:	e3a01003 	mov	r1, #3
    2514:	e28d007c 	add	r0, sp, #124	; 0x7c
    2518:	e59dc02c 	ldr	r12, [sp, #44]	; 0x2c
    251c:	e58d1000 	str	r1, [sp]
    2520:	e58d0008 	str	r0, [sp, #8]
    2524:	e28d1080 	add	r1, sp, #128	; 0x80
    2528:	e28d008c 	add	r0, sp, #140	; 0x8c
    252c:	e58d0010 	str	r0, [sp, #16]
    2530:	e59d2058 	ldr	r2, [sp, #88]	; 0x58
    2534:	e1a0300a 	mov	r3, r10
    2538:	e58dc004 	str	r12, [sp, #4]
    253c:	e58d100c 	str	r1, [sp, #12]
    2540:	e59d0034 	ldr	r0, [sp, #52]	; 0x34
    2544:	eb0007f1 	bl	4510 <_dtoa_r>
    2548:	e3550047 	cmp	r5, #71	; 0x47
    254c:	e1a06000 	mov	r6, r0
    2550:	1a000002 	bne	2560 <_vfprintf_r+0x1cd4>
    2554:	e59dc020 	ldr	r12, [sp, #32]
    2558:	e31c0001 	tst	r12, #1
    255c:	0affffe0 	beq	24e4 <_vfprintf_r+0x1c58>
    2560:	e59dc02c 	ldr	r12, [sp, #44]	; 0x2c
    2564:	e3540000 	cmp	r4, #0
    2568:	e086400c 	add	r4, r6, r12
    256c:	0afffeb6 	beq	204c <_vfprintf_r+0x17c0>
    2570:	e5d63000 	ldrb	r3, [r6]
    2574:	e3530030 	cmp	r3, #48	; 0x30
    2578:	0a00006e 	beq	2738 <_vfprintf_r+0x1eac>
    257c:	e59d307c 	ldr	r3, [sp, #124]	; 0x7c
    2580:	e0844003 	add	r4, r4, r3
    2584:	eafffeb0 	b	204c <_vfprintf_r+0x17c0>
    2588:	e59d502c 	ldr	r5, [sp, #44]	; 0x2c
    258c:	e59dc02c 	ldr	r12, [sp, #44]	; 0x2c
    2590:	e1c55fc5 	bic	r5, r5, r5, asr #31
    2594:	e58d5030 	str	r5, [sp, #48]	; 0x30
    2598:	e58dc038 	str	r12, [sp, #56]	; 0x38
    259c:	e58d002c 	str	r0, [sp, #44]	; 0x2c
    25a0:	e58d4044 	str	r4, [sp, #68]	; 0x44
    25a4:	e58d0050 	str	r0, [sp, #80]	; 0x50
    25a8:	e5dda077 	ldrb	r10, [sp, #119]	; 0x77
    25ac:	eafff9e6 	b	d4c <_vfprintf_r+0x4c0>
    25b0:	e2488002 	sub	r8, r8, #2
    25b4:	e2431001 	sub	r1, r3, #1
    25b8:	e3510000 	cmp	r1, #0
    25bc:	e58d107c 	str	r1, [sp, #124]	; 0x7c
    25c0:	b2611000 	rsblt	r1, r1, #0
    25c4:	b3a0302d 	movlt	r3, #45	; 0x2d
    25c8:	a3a0302b 	movge	r3, #43	; 0x2b
    25cc:	e3510009 	cmp	r1, #9
    25d0:	e5cd8084 	strb	r8, [sp, #132]	; 0x84
    25d4:	e5cd3085 	strb	r3, [sp, #133]	; 0x85
    25d8:	ca00002a 	bgt	2688 <_vfprintf_r+0x1dfc>
    25dc:	e2811030 	add	r1, r1, #48	; 0x30
    25e0:	e3a03030 	mov	r3, #48	; 0x30
    25e4:	e5cd1087 	strb	r1, [sp, #135]	; 0x87
    25e8:	e5cd3086 	strb	r3, [sp, #134]	; 0x86
    25ec:	e28d3088 	add	r3, sp, #136	; 0x88
    25f0:	e59d403c 	ldr	r4, [sp, #60]	; 0x3c
    25f4:	e28d2084 	add	r2, sp, #132	; 0x84
    25f8:	e0622003 	rsb	r2, r2, r3
    25fc:	e0845002 	add	r5, r4, r2
    2600:	e3540001 	cmp	r4, #1
    2604:	e58d2064 	str	r2, [sp, #100]	; 0x64
    2608:	e58d5038 	str	r5, [sp, #56]	; 0x38
    260c:	da000074 	ble	27e4 <_vfprintf_r+0x1f58>
    2610:	e59d3038 	ldr	r3, [sp, #56]	; 0x38
    2614:	e3a04000 	mov	r4, #0
    2618:	e2833001 	add	r3, r3, #1
    261c:	e58d3038 	str	r3, [sp, #56]	; 0x38
    2620:	e58d4050 	str	r4, [sp, #80]	; 0x50
    2624:	e1c33fc3 	bic	r3, r3, r3, asr #31
    2628:	eafffeb0 	b	20f0 <_vfprintf_r+0x1864>
    262c:	e59d0034 	ldr	r0, [sp, #52]	; 0x34
    2630:	e59d1028 	ldr	r1, [sp, #40]	; 0x28
    2634:	e28d2094 	add	r2, sp, #148	; 0x94
    2638:	eb002c61 	bl	d7c4 <__sprint_r>
    263c:	e3500000 	cmp	r0, #0
    2640:	1afff97e 	bne	c40 <_vfprintf_r+0x3b4>
    2644:	e28d3098 	add	r3, sp, #152	; 0x98
    2648:	e59d807c 	ldr	r8, [sp, #124]	; 0x7c
    264c:	e8930018 	ldm	r3, {r3, r4}
    2650:	e28d70c8 	add	r7, sp, #200	; 0xc8
    2654:	eaffff04 	b	226c <_vfprintf_r+0x19e0>
    2658:	e59d4050 	ldr	r4, [sp, #80]	; 0x50
    265c:	e59d503c 	ldr	r5, [sp, #60]	; 0x3c
    2660:	e3540000 	cmp	r4, #0
    2664:	d2643002 	rsble	r3, r4, #2
    2668:	c3a03001 	movgt	r3, #1
    266c:	e0833005 	add	r3, r3, r5
    2670:	e58d3038 	str	r3, [sp, #56]	; 0x38
    2674:	e3a08067 	mov	r8, #103	; 0x67
    2678:	e1c33fc3 	bic	r3, r3, r3, asr #31
    267c:	eafffe9b 	b	20f0 <_vfprintf_r+0x1864>
    2680:	e3a01002 	mov	r1, #2
    2684:	eaffffa2 	b	2514 <_vfprintf_r+0x1c88>
    2688:	e28d2092 	add	r2, sp, #146	; 0x92
    268c:	e51f0de4 	ldr	r0, [pc, #-3556]	; 18b0 <_vfprintf_r+0x1024>
    2690:	e0c05091 	smull	r5, r0, r1, r0
    2694:	e1a03fc1 	asr	r3, r1, #31
    2698:	e0633140 	rsb	r3, r3, r0, asr #2
    269c:	e0830103 	add	r0, r3, r3, lsl #2
    26a0:	e0410080 	sub	r0, r1, r0, lsl #1
    26a4:	e1a01003 	mov	r1, r3
    26a8:	e3510009 	cmp	r1, #9
    26ac:	e1a03002 	mov	r3, r2
    26b0:	e2802030 	add	r2, r0, #48	; 0x30
    26b4:	e5c32000 	strb	r2, [r3]
    26b8:	e2432001 	sub	r2, r3, #1
    26bc:	cafffff2 	bgt	268c <_vfprintf_r+0x1e00>
    26c0:	e2811030 	add	r1, r1, #48	; 0x30
    26c4:	e28dc093 	add	r12, sp, #147	; 0x93
    26c8:	e20110ff 	and	r1, r1, #255	; 0xff
    26cc:	e15c0002 	cmp	r12, r2
    26d0:	e5431001 	strb	r1, [r3, #-1]
    26d4:	9a00004a 	bls	2804 <_vfprintf_r+0x1f78>
    26d8:	e28d0085 	add	r0, sp, #133	; 0x85
    26dc:	e1a02003 	mov	r2, r3
    26e0:	ea000000 	b	26e8 <_vfprintf_r+0x1e5c>
    26e4:	e4d21001 	ldrb	r1, [r2], #1
    26e8:	e152000c 	cmp	r2, r12
    26ec:	e5e01001 	strb	r1, [r0, #1]!
    26f0:	1afffffb 	bne	26e4 <_vfprintf_r+0x1e58>
    26f4:	e28dcf42 	add	r12, sp, #264	; 0x108
    26f8:	e063308c 	rsb	r3, r3, r12, lsl #1
    26fc:	e24330f6 	sub	r3, r3, #246	; 0xf6
    2700:	eaffffba 	b	25f0 <_vfprintf_r+0x1d64>
    2704:	e59dc07c 	ldr	r12, [sp, #124]	; 0x7c
    2708:	e35c0000 	cmp	r12, #0
    270c:	e58dc050 	str	r12, [sp, #80]	; 0x50
    2710:	da00001a 	ble	2780 <_vfprintf_r+0x1ef4>
    2714:	e59d402c 	ldr	r4, [sp, #44]	; 0x2c
    2718:	e3540000 	cmp	r4, #0
    271c:	1a000010 	bne	2764 <_vfprintf_r+0x1ed8>
    2720:	e59d5020 	ldr	r5, [sp, #32]
    2724:	e3150001 	tst	r5, #1
    2728:	1a00000d 	bne	2764 <_vfprintf_r+0x1ed8>
    272c:	e1cc3fcc 	bic	r3, r12, r12, asr #31
    2730:	e58dc038 	str	r12, [sp, #56]	; 0x38
    2734:	eafffe6d 	b	20f0 <_vfprintf_r+0x1864>
    2738:	e59d0058 	ldr	r0, [sp, #88]	; 0x58
    273c:	e1a0100a 	mov	r1, r10
    2740:	e3a02000 	mov	r2, #0
    2744:	e3a03000 	mov	r3, #0
    2748:	eb003dab 	bl	11dfc <__aeabi_dcmpeq>
    274c:	e3500000 	cmp	r0, #0
    2750:	1affff89 	bne	257c <_vfprintf_r+0x1cf0>
    2754:	e59dc02c 	ldr	r12, [sp, #44]	; 0x2c
    2758:	e26c3001 	rsb	r3, r12, #1
    275c:	e58d307c 	str	r3, [sp, #124]	; 0x7c
    2760:	eaffff86 	b	2580 <_vfprintf_r+0x1cf4>
    2764:	e59dc02c 	ldr	r12, [sp, #44]	; 0x2c
    2768:	e59d4050 	ldr	r4, [sp, #80]	; 0x50
    276c:	e28c3001 	add	r3, r12, #1
    2770:	e0843003 	add	r3, r4, r3
    2774:	e58d3038 	str	r3, [sp, #56]	; 0x38
    2778:	e1c33fc3 	bic	r3, r3, r3, asr #31
    277c:	eafffe5b 	b	20f0 <_vfprintf_r+0x1864>
    2780:	e59d502c 	ldr	r5, [sp, #44]	; 0x2c
    2784:	e3550000 	cmp	r5, #0
    2788:	1a000004 	bne	27a0 <_vfprintf_r+0x1f14>
    278c:	e59dc020 	ldr	r12, [sp, #32]
    2790:	e31c0001 	tst	r12, #1
    2794:	03a03001 	moveq	r3, #1
    2798:	058d3038 	streq	r3, [sp, #56]	; 0x38
    279c:	0afffe53 	beq	20f0 <_vfprintf_r+0x1864>
    27a0:	e59d302c 	ldr	r3, [sp, #44]	; 0x2c
    27a4:	e2833002 	add	r3, r3, #2
    27a8:	e58d3038 	str	r3, [sp, #56]	; 0x38
    27ac:	e1c33fc3 	bic	r3, r3, r3, asr #31
    27b0:	eafffe4e 	b	20f0 <_vfprintf_r+0x1864>
    27b4:	e59d5044 	ldr	r5, [sp, #68]	; 0x44
    27b8:	e5955000 	ldr	r5, [r5]
    27bc:	e59dc044 	ldr	r12, [sp, #68]	; 0x44
    27c0:	e3550000 	cmp	r5, #0
    27c4:	e28c1004 	add	r1, r12, #4
    27c8:	b3e04000 	mvnlt	r4, #0
    27cc:	e58d502c 	str	r5, [sp, #44]	; 0x2c
    27d0:	e5d38001 	ldrb	r8, [r3, #1]
    27d4:	e58d1044 	str	r1, [sp, #68]	; 0x44
    27d8:	e1a03000 	mov	r3, r0
    27dc:	b58d402c 	strlt	r4, [sp, #44]	; 0x2c
    27e0:	eafff887 	b	a04 <_vfprintf_r+0x178>
    27e4:	e59dc020 	ldr	r12, [sp, #32]
    27e8:	e21c3001 	ands	r3, r12, #1
    27ec:	1affff87 	bne	2610 <_vfprintf_r+0x1d84>
    27f0:	e58d3050 	str	r3, [sp, #80]	; 0x50
    27f4:	e1c53fc5 	bic	r3, r5, r5, asr #31
    27f8:	eafffe3c 	b	20f0 <_vfprintf_r+0x1864>
    27fc:	e59d307c 	ldr	r3, [sp, #124]	; 0x7c
    2800:	eaffff6b 	b	25b4 <_vfprintf_r+0x1d28>
    2804:	e28d3086 	add	r3, sp, #134	; 0x86
    2808:	eaffff78 	b	25f0 <_vfprintf_r+0x1d64>

0000280c <vfprintf>:
    280c:	e59fc01c 	ldr	r12, [pc, #28]	; 2830 <vfprintf+0x24>
    2810:	e52d4004 	push	{r4}		; (str r4, [sp, #-4]!)
    2814:	e1a04001 	mov	r4, r1
    2818:	e1a03002 	mov	r3, r2
    281c:	e1a01000 	mov	r1, r0
    2820:	e1a02004 	mov	r2, r4
    2824:	e59c0000 	ldr	r0, [r12]
    2828:	e49d4004 	pop	{r4}		; (ldr r4, [sp], #4)
    282c:	eafff816 	b	88c <_vfprintf_r>
    2830:	00013830 	.word	0x00013830

00002834 <__sbprintf>:
    2834:	e92d4ff0 	push	{r4, r5, r6, r7, r8, r9, r10, r11, lr}
    2838:	e24dde46 	sub	sp, sp, #1120	; 0x460
    283c:	e24dd00c 	sub	sp, sp, #12
    2840:	e1d150bc 	ldrh	r5, [r1, #12]
    2844:	e59fc0b0 	ldr	r12, [pc, #176]	; 28fc <__sbprintf+0xc8>
    2848:	e28dbe46 	add	r11, sp, #1120	; 0x460
    284c:	e5916024 	ldr	r6, [r1, #36]	; 0x24
    2850:	e591a064 	ldr	r10, [r1, #100]	; 0x64
    2854:	e1d190be 	ldrh	r9, [r1, #14]
    2858:	e591701c 	ldr	r7, [r1, #28]
    285c:	e3c55002 	bic	r5, r5, #2
    2860:	e28bb008 	add	r11, r11, #8
    2864:	e59f8094 	ldr	r8, [pc, #148]	; 2900 <__sbprintf+0xcc>
    2868:	e28de068 	add	lr, sp, #104	; 0x68
    286c:	e18b50bc 	strh	r5, [r11, r12]
    2870:	e1a04001 	mov	r4, r1
    2874:	e3a0cb01 	mov	r12, #1024	; 0x400
    2878:	e3a05000 	mov	r5, #0
    287c:	e1a0100d 	mov	r1, sp
    2880:	e58d6024 	str	r6, [sp, #36]	; 0x24
    2884:	e58d5018 	str	r5, [sp, #24]
    2888:	e58da064 	str	r10, [sp, #100]	; 0x64
    288c:	e18b90b8 	strh	r9, [r11, r8]
    2890:	e58d701c 	str	r7, [sp, #28]
    2894:	e58de000 	str	lr, [sp]
    2898:	e58de010 	str	lr, [sp, #16]
    289c:	e58dc008 	str	r12, [sp, #8]
    28a0:	e58dc014 	str	r12, [sp, #20]
    28a4:	e1a06000 	mov	r6, r0
    28a8:	ebfff7f7 	bl	88c <_vfprintf_r>
    28ac:	e2505000 	subs	r5, r0, #0
    28b0:	ba000004 	blt	28c8 <__sbprintf+0x94>
    28b4:	e1a00006 	mov	r0, r6
    28b8:	e1a0100d 	mov	r1, sp
    28bc:	eb000d62 	bl	5e4c <_fflush_r>
    28c0:	e3500000 	cmp	r0, #0
    28c4:	13e05000 	mvnne	r5, #0
    28c8:	e28d2e46 	add	r2, sp, #1120	; 0x460
    28cc:	e59f3028 	ldr	r3, [pc, #40]	; 28fc <__sbprintf+0xc8>
    28d0:	e2822008 	add	r2, r2, #8
    28d4:	e19230b3 	ldrh	r3, [r2, r3]
    28d8:	e3130040 	tst	r3, #64	; 0x40
    28dc:	11d430bc 	ldrhne	r3, [r4, #12]
    28e0:	e1a00005 	mov	r0, r5
    28e4:	13833040 	orrne	r3, r3, #64	; 0x40
    28e8:	11c430bc 	strhne	r3, [r4, #12]
    28ec:	e28dde46 	add	sp, sp, #1120	; 0x460
    28f0:	e28dd00c 	add	sp, sp, #12
    28f4:	e8bd4ff0 	pop	{r4, r5, r6, r7, r8, r9, r10, r11, lr}
    28f8:	e12fff1e 	bx	lr
    28fc:	fffffba4 	.word	0xfffffba4
    2900:	fffffba6 	.word	0xfffffba6

00002904 <__svfscanf_r>:
    2904:	e92d4ff0 	push	{r4, r5, r6, r7, r8, r9, r10, r11, lr}
    2908:	e1a05001 	mov	r5, r1
    290c:	e1d110bc 	ldrh	r1, [r1, #12]
    2910:	e24ddfad 	sub	sp, sp, #692	; 0x2b4
    2914:	e3110a02 	tst	r1, #8192	; 0x2000
    2918:	e58d3014 	str	r3, [sp, #20]
    291c:	05953064 	ldreq	r3, [r5, #100]	; 0x64
    2920:	e3a0c000 	mov	r12, #0
    2924:	03811a02 	orreq	r1, r1, #8192	; 0x2000
    2928:	03c33a02 	biceq	r3, r3, #8192	; 0x2000
    292c:	01c510bc 	strheq	r1, [r5, #12]
    2930:	05853064 	streq	r3, [r5, #100]	; 0x64
    2934:	e58dc020 	str	r12, [sp, #32]
    2938:	e58dc028 	str	r12, [sp, #40]	; 0x28
    293c:	e58dc024 	str	r12, [sp, #36]	; 0x24
    2940:	e59f8f8c 	ldr	r8, [pc, #3980]	; 38d4 <__svfscanf_r+0xfd0>
    2944:	e1a0b000 	mov	r11, r0
    2948:	e1a0a00c 	mov	r10, r12
    294c:	e1a07002 	mov	r7, r2
    2950:	e4d70001 	ldrb	r0, [r7], #1
    2954:	e3500000 	cmp	r0, #0
    2958:	e58d0044 	str	r0, [sp, #68]	; 0x44
    295c:	0a0001f1 	beq	3128 <__svfscanf_r+0x824>
    2960:	e5981000 	ldr	r1, [r8]
    2964:	e0813000 	add	r3, r1, r0
    2968:	e5d33001 	ldrb	r3, [r3, #1]
    296c:	e2133008 	ands	r3, r3, #8
    2970:	0a000017 	beq	29d4 <__svfscanf_r+0xd0>
    2974:	e5953004 	ldr	r3, [r5, #4]
    2978:	ea00000c 	b	29b0 <__svfscanf_r+0xac>
    297c:	e5952000 	ldr	r2, [r5]
    2980:	e5981000 	ldr	r1, [r8]
    2984:	e5d23000 	ldrb	r3, [r2]
    2988:	e0813003 	add	r3, r1, r3
    298c:	e5d33001 	ldrb	r3, [r3, #1]
    2990:	e3130008 	tst	r3, #8
    2994:	0a00000c 	beq	29cc <__svfscanf_r+0xc8>
    2998:	e5953004 	ldr	r3, [r5, #4]
    299c:	e2822001 	add	r2, r2, #1
    29a0:	e2433001 	sub	r3, r3, #1
    29a4:	e5852000 	str	r2, [r5]
    29a8:	e5853004 	str	r3, [r5, #4]
    29ac:	e28aa001 	add	r10, r10, #1
    29b0:	e3530000 	cmp	r3, #0
    29b4:	cafffff0 	bgt	297c <__svfscanf_r+0x78>
    29b8:	e1a0000b 	mov	r0, r11
    29bc:	e1a01005 	mov	r1, r5
    29c0:	eb0019ab 	bl	9074 <__srefill_r>
    29c4:	e3500000 	cmp	r0, #0
    29c8:	0affffeb 	beq	297c <__svfscanf_r+0x78>
    29cc:	e1a02007 	mov	r2, r7
    29d0:	eaffffdd 	b	294c <__svfscanf_r+0x48>
    29d4:	e3500025 	cmp	r0, #37	; 0x25
    29d8:	1a0001db 	bne	314c <__svfscanf_r+0x848>
    29dc:	e5d22001 	ldrb	r2, [r2, #1]
    29e0:	e1a09003 	mov	r9, r3
    29e4:	e1a04003 	mov	r4, r3
    29e8:	e2876001 	add	r6, r7, #1
    29ec:	e3520078 	cmp	r2, #120	; 0x78
    29f0:	979ff102 	ldrls	pc, [pc, r2, lsl #2]
    29f4:	ea000078 	b	2bdc <__svfscanf_r+0x2d8>
    29f8:	00003138 	.word	0x00003138
    29fc:	00002bdc 	.word	0x00002bdc
    2a00:	00002bdc 	.word	0x00002bdc
    2a04:	00002bdc 	.word	0x00002bdc
    2a08:	00002bdc 	.word	0x00002bdc
    2a0c:	00002bdc 	.word	0x00002bdc
    2a10:	00002bdc 	.word	0x00002bdc
    2a14:	00002bdc 	.word	0x00002bdc
    2a18:	00002bdc 	.word	0x00002bdc
    2a1c:	00002bdc 	.word	0x00002bdc
    2a20:	00002bdc 	.word	0x00002bdc
    2a24:	00002bdc 	.word	0x00002bdc
    2a28:	00002bdc 	.word	0x00002bdc
    2a2c:	00002bdc 	.word	0x00002bdc
    2a30:	00002bdc 	.word	0x00002bdc
    2a34:	00002bdc 	.word	0x00002bdc
    2a38:	00002bdc 	.word	0x00002bdc
    2a3c:	00002bdc 	.word	0x00002bdc
    2a40:	00002bdc 	.word	0x00002bdc
    2a44:	00002bdc 	.word	0x00002bdc
    2a48:	00002bdc 	.word	0x00002bdc
    2a4c:	00002bdc 	.word	0x00002bdc
    2a50:	00002bdc 	.word	0x00002bdc
    2a54:	00002bdc 	.word	0x00002bdc
    2a58:	00002bdc 	.word	0x00002bdc
    2a5c:	00002bdc 	.word	0x00002bdc
    2a60:	00002bdc 	.word	0x00002bdc
    2a64:	00002bdc 	.word	0x00002bdc
    2a68:	00002bdc 	.word	0x00002bdc
    2a6c:	00002bdc 	.word	0x00002bdc
    2a70:	00002bdc 	.word	0x00002bdc
    2a74:	00002bdc 	.word	0x00002bdc
    2a78:	00002bdc 	.word	0x00002bdc
    2a7c:	00002bdc 	.word	0x00002bdc
    2a80:	00002bdc 	.word	0x00002bdc
    2a84:	00002bdc 	.word	0x00002bdc
    2a88:	00002bdc 	.word	0x00002bdc
    2a8c:	00003148 	.word	0x00003148
    2a90:	00002bdc 	.word	0x00002bdc
    2a94:	00002bdc 	.word	0x00002bdc
    2a98:	00002bdc 	.word	0x00002bdc
    2a9c:	00002bdc 	.word	0x00002bdc
    2aa0:	000037c0 	.word	0x000037c0
    2aa4:	00002bdc 	.word	0x00002bdc
    2aa8:	00002bdc 	.word	0x00002bdc
    2aac:	00002bdc 	.word	0x00002bdc
    2ab0:	00002bdc 	.word	0x00002bdc
    2ab4:	00002bdc 	.word	0x00002bdc
    2ab8:	00003828 	.word	0x00003828
    2abc:	00003828 	.word	0x00003828
    2ac0:	00003828 	.word	0x00003828
    2ac4:	00003828 	.word	0x00003828
    2ac8:	00003828 	.word	0x00003828
    2acc:	00003828 	.word	0x00003828
    2ad0:	00003828 	.word	0x00003828
    2ad4:	00003828 	.word	0x00003828
    2ad8:	00003828 	.word	0x00003828
    2adc:	00003828 	.word	0x00003828
    2ae0:	00002bdc 	.word	0x00002bdc
    2ae4:	00002bdc 	.word	0x00002bdc
    2ae8:	00002bdc 	.word	0x00002bdc
    2aec:	00002bdc 	.word	0x00002bdc
    2af0:	00002bdc 	.word	0x00002bdc
    2af4:	00002bdc 	.word	0x00002bdc
    2af8:	00002bdc 	.word	0x00002bdc
    2afc:	00002bdc 	.word	0x00002bdc
    2b00:	00002bdc 	.word	0x00002bdc
    2b04:	00002bdc 	.word	0x00002bdc
    2b08:	00002bf0 	.word	0x00002bf0
    2b0c:	00003820 	.word	0x00003820
    2b10:	00002bdc 	.word	0x00002bdc
    2b14:	00003820 	.word	0x00003820
    2b18:	00002bdc 	.word	0x00002bdc
    2b1c:	00002bdc 	.word	0x00002bdc
    2b20:	00002bdc 	.word	0x00002bdc
    2b24:	00002bdc 	.word	0x00002bdc
    2b28:	00003810 	.word	0x00003810
    2b2c:	00002bdc 	.word	0x00002bdc
    2b30:	00002bdc 	.word	0x00002bdc
    2b34:	000030d8 	.word	0x000030d8
    2b38:	00002bdc 	.word	0x00002bdc
    2b3c:	00002bdc 	.word	0x00002bdc
    2b40:	00002bdc 	.word	0x00002bdc
    2b44:	00002bdc 	.word	0x00002bdc
    2b48:	00002bdc 	.word	0x00002bdc
    2b4c:	00002bdc 	.word	0x00002bdc
    2b50:	00002bdc 	.word	0x00002bdc
    2b54:	00002bdc 	.word	0x00002bdc
    2b58:	00003808 	.word	0x00003808
    2b5c:	00002bdc 	.word	0x00002bdc
    2b60:	00002bdc 	.word	0x00002bdc
    2b64:	000037ec 	.word	0x000037ec
    2b68:	00002bdc 	.word	0x00002bdc
    2b6c:	00002bdc 	.word	0x00002bdc
    2b70:	00002bdc 	.word	0x00002bdc
    2b74:	00002bdc 	.word	0x00002bdc
    2b78:	00002bdc 	.word	0x00002bdc
    2b7c:	00002bdc 	.word	0x00002bdc
    2b80:	00002bdc 	.word	0x00002bdc
    2b84:	000037e0 	.word	0x000037e0
    2b88:	00002bf4 	.word	0x00002bf4
    2b8c:	00003820 	.word	0x00003820
    2b90:	00003820 	.word	0x00003820
    2b94:	00003820 	.word	0x00003820
    2b98:	000037d0 	.word	0x000037d0
    2b9c:	00003680 	.word	0x00003680
    2ba0:	00002bdc 	.word	0x00002bdc
    2ba4:	00002bdc 	.word	0x00002bdc
    2ba8:	000037a0 	.word	0x000037a0
    2bac:	00002bdc 	.word	0x00002bdc
    2bb0:	00003774 	.word	0x00003774
    2bb4:	000030dc 	.word	0x000030dc
    2bb8:	00003758 	.word	0x00003758
    2bbc:	00002bdc 	.word	0x00002bdc
    2bc0:	00002bdc 	.word	0x00002bdc
    2bc4:	00003750 	.word	0x00003750
    2bc8:	00002bdc 	.word	0x00002bdc
    2bcc:	00003738 	.word	0x00003738
    2bd0:	00002bdc 	.word	0x00002bdc
    2bd4:	00002bdc 	.word	0x00002bdc
    2bd8:	00003808 	.word	0x00003808
    2bdc:	e0812002 	add	r2, r1, r2
    2be0:	e5d22001 	ldrb	r2, [r2, #1]
    2be4:	e2022003 	and	r2, r2, #3
    2be8:	e3520001 	cmp	r2, #1
    2bec:	1a000000 	bne	2bf4 <__svfscanf_r+0x2f0>
    2bf0:	e3899001 	orr	r9, r9, #1
    2bf4:	e59fccdc 	ldr	r12, [pc, #3292]	; 38d8 <__svfscanf_r+0xfd4>
    2bf8:	e58dc020 	str	r12, [sp, #32]
    2bfc:	e3a0c00a 	mov	r12, #10
    2c00:	e58dc028 	str	r12, [sp, #40]	; 0x28
    2c04:	e3a07003 	mov	r7, #3
    2c08:	e5952004 	ldr	r2, [r5, #4]
    2c0c:	e3520000 	cmp	r2, #0
    2c10:	da000139 	ble	30fc <__svfscanf_r+0x7f8>
    2c14:	e3190040 	tst	r9, #64	; 0x40
    2c18:	0a00000c 	beq	2c50 <__svfscanf_r+0x34c>
    2c1c:	e2477001 	sub	r7, r7, #1
    2c20:	e3570003 	cmp	r7, #3
    2c24:	979ff107 	ldrls	pc, [pc, r7, lsl #2]
    2c28:	ea0000a9 	b	2ed4 <__svfscanf_r+0x5d0>
    2c2c:	00002f40 	.word	0x00002f40
    2c30:	00002e24 	.word	0x00002e24
    2c34:	00002c94 	.word	0x00002c94
    2c38:	0000318c 	.word	0x0000318c
    2c3c:	e1a0000b 	mov	r0, r11
    2c40:	e1a01005 	mov	r1, r5
    2c44:	eb00190a 	bl	9074 <__srefill_r>
    2c48:	e3500000 	cmp	r0, #0
    2c4c:	1a00012f 	bne	3110 <__svfscanf_r+0x80c>
    2c50:	e5980000 	ldr	r0, [r8]
    2c54:	e5952000 	ldr	r2, [r5]
    2c58:	ea000001 	b	2c64 <__svfscanf_r+0x360>
    2c5c:	e2822001 	add	r2, r2, #1
    2c60:	e5852000 	str	r2, [r5]
    2c64:	e5d23000 	ldrb	r3, [r2]
    2c68:	e0803003 	add	r3, r0, r3
    2c6c:	e5d33001 	ldrb	r3, [r3, #1]
    2c70:	e3130008 	tst	r3, #8
    2c74:	0affffe8 	beq	2c1c <__svfscanf_r+0x318>
    2c78:	e5953004 	ldr	r3, [r5, #4]
    2c7c:	e2433001 	sub	r3, r3, #1
    2c80:	e3530000 	cmp	r3, #0
    2c84:	e28aa001 	add	r10, r10, #1
    2c88:	e5853004 	str	r3, [r5, #4]
    2c8c:	cafffff2 	bgt	2c5c <__svfscanf_r+0x358>
    2c90:	eaffffe9 	b	2c3c <__svfscanf_r+0x338>
    2c94:	e2442001 	sub	r2, r4, #1
    2c98:	e3520f57 	cmp	r2, #348	; 0x15c
    2c9c:	82442f57 	subhi	r2, r4, #348	; 0x15c
    2ca0:	e28dce15 	add	r12, sp, #336	; 0x150
    2ca4:	82422001 	subhi	r2, r2, #1
    2ca8:	93a02000 	movls	r2, #0
    2cac:	e58dc018 	str	r12, [sp, #24]
    2cb0:	e1a0700c 	mov	r7, r12
    2cb4:	e3a0c000 	mov	r12, #0
    2cb8:	e58dc01c 	str	r12, [sp, #28]
    2cbc:	859f4c18 	ldrhi	r4, [pc, #3096]	; 38dc <__svfscanf_r+0xfd8>
    2cc0:	e1a0c00a 	mov	r12, r10
    2cc4:	e1a0a002 	mov	r10, r2
    2cc8:	e1a02006 	mov	r2, r6
    2ccc:	e59d6028 	ldr	r6, [sp, #40]	; 0x28
    2cd0:	e3899d36 	orr	r9, r9, #3456	; 0xd80
    2cd4:	e5950000 	ldr	r0, [r5]
    2cd8:	e5d01000 	ldrb	r1, [r0]
    2cdc:	e241302b 	sub	r3, r1, #43	; 0x2b
    2ce0:	e353004d 	cmp	r3, #77	; 0x4d
    2ce4:	979ff103 	ldrls	pc, [pc, r3, lsl #2]
    2ce8:	ea0000c2 	b	2ff8 <__svfscanf_r+0x6f4>
    2cec:	000030c8 	.word	0x000030c8
    2cf0:	00002ff8 	.word	0x00002ff8
    2cf4:	000030c8 	.word	0x000030c8
    2cf8:	00002ff8 	.word	0x00002ff8
    2cfc:	00002ff8 	.word	0x00002ff8
    2d00:	00003088 	.word	0x00003088
    2d04:	00003074 	.word	0x00003074
    2d08:	00003074 	.word	0x00003074
    2d0c:	00003074 	.word	0x00003074
    2d10:	00003074 	.word	0x00003074
    2d14:	00003074 	.word	0x00003074
    2d18:	00003074 	.word	0x00003074
    2d1c:	00003074 	.word	0x00003074
    2d20:	0000305c 	.word	0x0000305c
    2d24:	0000305c 	.word	0x0000305c
    2d28:	00002ff8 	.word	0x00002ff8
    2d2c:	00002ff8 	.word	0x00002ff8
    2d30:	00002ff8 	.word	0x00002ff8
    2d34:	00002ff8 	.word	0x00002ff8
    2d38:	00002ff8 	.word	0x00002ff8
    2d3c:	00002ff8 	.word	0x00002ff8
    2d40:	00002ff8 	.word	0x00002ff8
    2d44:	0000304c 	.word	0x0000304c
    2d48:	0000304c 	.word	0x0000304c
    2d4c:	0000304c 	.word	0x0000304c
    2d50:	0000304c 	.word	0x0000304c
    2d54:	0000304c 	.word	0x0000304c
    2d58:	0000304c 	.word	0x0000304c
    2d5c:	00002ff8 	.word	0x00002ff8
    2d60:	00002ff8 	.word	0x00002ff8
    2d64:	00002ff8 	.word	0x00002ff8
    2d68:	00002ff8 	.word	0x00002ff8
    2d6c:	00002ff8 	.word	0x00002ff8
    2d70:	00002ff8 	.word	0x00002ff8
    2d74:	00002ff8 	.word	0x00002ff8
    2d78:	00002ff8 	.word	0x00002ff8
    2d7c:	00002ff8 	.word	0x00002ff8
    2d80:	00002ff8 	.word	0x00002ff8
    2d84:	00002ff8 	.word	0x00002ff8
    2d88:	00002ff8 	.word	0x00002ff8
    2d8c:	00002ff8 	.word	0x00002ff8
    2d90:	00002ff8 	.word	0x00002ff8
    2d94:	00002ff8 	.word	0x00002ff8
    2d98:	00002ff8 	.word	0x00002ff8
    2d9c:	00002ff8 	.word	0x00002ff8
    2da0:	00002fb4 	.word	0x00002fb4
    2da4:	00002ff8 	.word	0x00002ff8
    2da8:	00002ff8 	.word	0x00002ff8
    2dac:	00002ff8 	.word	0x00002ff8
    2db0:	00002ff8 	.word	0x00002ff8
    2db4:	00002ff8 	.word	0x00002ff8
    2db8:	00002ff8 	.word	0x00002ff8
    2dbc:	00002ff8 	.word	0x00002ff8
    2dc0:	00002ff8 	.word	0x00002ff8
    2dc4:	0000304c 	.word	0x0000304c
    2dc8:	0000304c 	.word	0x0000304c
    2dcc:	0000304c 	.word	0x0000304c
    2dd0:	0000304c 	.word	0x0000304c
    2dd4:	0000304c 	.word	0x0000304c
    2dd8:	0000304c 	.word	0x0000304c
    2ddc:	00002ff8 	.word	0x00002ff8
    2de0:	00002ff8 	.word	0x00002ff8
    2de4:	00002ff8 	.word	0x00002ff8
    2de8:	00002ff8 	.word	0x00002ff8
    2dec:	00002ff8 	.word	0x00002ff8
    2df0:	00002ff8 	.word	0x00002ff8
    2df4:	00002ff8 	.word	0x00002ff8
    2df8:	00002ff8 	.word	0x00002ff8
    2dfc:	00002ff8 	.word	0x00002ff8
    2e00:	00002ff8 	.word	0x00002ff8
    2e04:	00002ff8 	.word	0x00002ff8
    2e08:	00002ff8 	.word	0x00002ff8
    2e0c:	00002ff8 	.word	0x00002ff8
    2e10:	00002ff8 	.word	0x00002ff8
    2e14:	00002ff8 	.word	0x00002ff8
    2e18:	00002ff8 	.word	0x00002ff8
    2e1c:	00002ff8 	.word	0x00002ff8
    2e20:	00002fb4 	.word	0x00002fb4
    2e24:	e3540000 	cmp	r4, #0
    2e28:	03e04000 	mvneq	r4, #0
    2e2c:	e2197001 	ands	r7, r9, #1
    2e30:	1a0002e2 	bne	39c0 <__svfscanf_r+0x10bc>
    2e34:	e3190010 	tst	r9, #16
    2e38:	1a0001fe 	bne	3638 <__svfscanf_r+0xd34>
    2e3c:	e59dc014 	ldr	r12, [sp, #20]
    2e40:	e59c7000 	ldr	r7, [r12]
    2e44:	e28c2004 	add	r2, r12, #4
    2e48:	e58d2014 	str	r2, [sp, #20]
    2e4c:	e1a09007 	mov	r9, r7
    2e50:	e5953000 	ldr	r3, [r5]
    2e54:	e5980000 	ldr	r0, [r8]
    2e58:	e5d32000 	ldrb	r2, [r3]
    2e5c:	e0802002 	add	r2, r0, r2
    2e60:	e5d22001 	ldrb	r2, [r2, #1]
    2e64:	e3120008 	tst	r2, #8
    2e68:	e2831001 	add	r1, r3, #1
    2e6c:	1a00000e 	bne	2eac <__svfscanf_r+0x5a8>
    2e70:	e5952004 	ldr	r2, [r5, #4]
    2e74:	e2422001 	sub	r2, r2, #1
    2e78:	e8850006 	stm	r5, {r1, r2}
    2e7c:	e5d33000 	ldrb	r3, [r3]
    2e80:	e2544001 	subs	r4, r4, #1
    2e84:	e4c93001 	strb	r3, [r9], #1
    2e88:	0a000007 	beq	2eac <__svfscanf_r+0x5a8>
    2e8c:	e5953004 	ldr	r3, [r5, #4]
    2e90:	e3530000 	cmp	r3, #0
    2e94:	caffffed 	bgt	2e50 <__svfscanf_r+0x54c>
    2e98:	e1a0000b 	mov	r0, r11
    2e9c:	e1a01005 	mov	r1, r5
    2ea0:	eb001873 	bl	9074 <__srefill_r>
    2ea4:	e3500000 	cmp	r0, #0
    2ea8:	0affffe8 	beq	2e50 <__svfscanf_r+0x54c>
    2eac:	e59dc024 	ldr	r12, [sp, #36]	; 0x24
    2eb0:	e0677009 	rsb	r7, r7, r9
    2eb4:	e3a03000 	mov	r3, #0
    2eb8:	e08aa007 	add	r10, r10, r7
    2ebc:	e28cc001 	add	r12, r12, #1
    2ec0:	e1a07006 	mov	r7, r6
    2ec4:	e58dc024 	str	r12, [sp, #36]	; 0x24
    2ec8:	e5c93000 	strb	r3, [r9]
    2ecc:	e1a02007 	mov	r2, r7
    2ed0:	eafffe9d 	b	294c <__svfscanf_r+0x48>
    2ed4:	e3540000 	cmp	r4, #0
    2ed8:	03a04001 	moveq	r4, #1
    2edc:	e2197001 	ands	r7, r9, #1
    2ee0:	1a000269 	bne	388c <__svfscanf_r+0xf88>
    2ee4:	e3190010 	tst	r9, #16
    2ee8:	1a000007 	bne	2f0c <__svfscanf_r+0x608>
    2eec:	ea000317 	b	3b50 <__svfscanf_r+0x124c>
    2ef0:	e0822003 	add	r2, r2, r3
    2ef4:	e5852000 	str	r2, [r5]
    2ef8:	e0877003 	add	r7, r7, r3
    2efc:	e0634004 	rsb	r4, r3, r4
    2f00:	eb00185b 	bl	9074 <__srefill_r>
    2f04:	e3500000 	cmp	r0, #0
    2f08:	1a000306 	bne	3b28 <__svfscanf_r+0x1224>
    2f0c:	e895000c 	ldm	r5, {r2, r3}
    2f10:	e1530004 	cmp	r3, r4
    2f14:	e1a0000b 	mov	r0, r11
    2f18:	e1a01005 	mov	r1, r5
    2f1c:	bafffff3 	blt	2ef0 <__svfscanf_r+0x5ec>
    2f20:	e0643003 	rsb	r3, r4, r3
    2f24:	e0822004 	add	r2, r2, r4
    2f28:	e885000c 	stm	r5, {r2, r3}
    2f2c:	e0877004 	add	r7, r7, r4
    2f30:	e08aa007 	add	r10, r10, r7
    2f34:	e1a07006 	mov	r7, r6
    2f38:	e1a02007 	mov	r2, r7
    2f3c:	eafffe82 	b	294c <__svfscanf_r+0x48>
    2f40:	e3540000 	cmp	r4, #0
    2f44:	03e04000 	mvneq	r4, #0
    2f48:	e3190010 	tst	r9, #16
    2f4c:	0a0001d1 	beq	3698 <__svfscanf_r+0xd94>
    2f50:	e5953000 	ldr	r3, [r5]
    2f54:	e3a07000 	mov	r7, #0
    2f58:	e5d32000 	ldrb	r2, [r3]
    2f5c:	e28d0e2b 	add	r0, sp, #688	; 0x2b0
    2f60:	e0802002 	add	r2, r0, r2
    2f64:	e5522260 	ldrb	r2, [r2, #-608]	; 0xfffffda0
    2f68:	e3520000 	cmp	r2, #0
    2f6c:	e2833001 	add	r3, r3, #1
    2f70:	0a0002f1 	beq	3b3c <__svfscanf_r+0x1238>
    2f74:	e5952004 	ldr	r2, [r5, #4]
    2f78:	e2877001 	add	r7, r7, #1
    2f7c:	e2422001 	sub	r2, r2, #1
    2f80:	e1540007 	cmp	r4, r7
    2f84:	e5853000 	str	r3, [r5]
    2f88:	e5852004 	str	r2, [r5, #4]
    2f8c:	0affffe7 	beq	2f30 <__svfscanf_r+0x62c>
    2f90:	e3520000 	cmp	r2, #0
    2f94:	caffffef 	bgt	2f58 <__svfscanf_r+0x654>
    2f98:	e1a0000b 	mov	r0, r11
    2f9c:	e1a01005 	mov	r1, r5
    2fa0:	eb001833 	bl	9074 <__srefill_r>
    2fa4:	e3500000 	cmp	r0, #0
    2fa8:	1affffe0 	bne	2f30 <__svfscanf_r+0x62c>
    2fac:	e5953000 	ldr	r3, [r5]
    2fb0:	eaffffe8 	b	2f58 <__svfscanf_r+0x654>
    2fb4:	e2093c06 	and	r3, r9, #1536	; 0x600
    2fb8:	e3530c02 	cmp	r3, #512	; 0x200
    2fbc:	1a00000d 	bne	2ff8 <__svfscanf_r+0x6f4>
    2fc0:	e3c99c02 	bic	r9, r9, #512	; 0x200
    2fc4:	e3899c05 	orr	r9, r9, #1280	; 0x500
    2fc8:	e3a06010 	mov	r6, #16
    2fcc:	e5c71000 	strb	r1, [r7]
    2fd0:	e2877001 	add	r7, r7, #1
    2fd4:	e5953004 	ldr	r3, [r5, #4]
    2fd8:	e2433001 	sub	r3, r3, #1
    2fdc:	e3530000 	cmp	r3, #0
    2fe0:	e5853004 	str	r3, [r5, #4]
    2fe4:	da000296 	ble	3a44 <__svfscanf_r+0x1140>
    2fe8:	e2800001 	add	r0, r0, #1
    2fec:	e5850000 	str	r0, [r5]
    2ff0:	e2544001 	subs	r4, r4, #1
    2ff4:	1affff36 	bne	2cd4 <__svfscanf_r+0x3d0>
    2ff8:	e3190c01 	tst	r9, #256	; 0x100
    2ffc:	e58d6028 	str	r6, [sp, #40]	; 0x28
    3000:	e1a0a00c 	mov	r10, r12
    3004:	e1a06002 	mov	r6, r2
    3008:	0a000005 	beq	3024 <__svfscanf_r+0x720>
    300c:	e59dc018 	ldr	r12, [sp, #24]
    3010:	e157000c 	cmp	r7, r12
    3014:	8a0002e6 	bhi	3bb4 <__svfscanf_r+0x12b0>
    3018:	e59dc018 	ldr	r12, [sp, #24]
    301c:	e157000c 	cmp	r7, r12
    3020:	0a000040 	beq	3128 <__svfscanf_r+0x824>
    3024:	e219c010 	ands	r12, r9, #16
    3028:	0a000204 	beq	3840 <__svfscanf_r+0xf3c>
    302c:	e59dc018 	ldr	r12, [sp, #24]
    3030:	e06c3007 	rsb	r3, r12, r7
    3034:	e59dc01c 	ldr	r12, [sp, #28]
    3038:	e1a07006 	mov	r7, r6
    303c:	e083300c 	add	r3, r3, r12
    3040:	e08aa003 	add	r10, r10, r3
    3044:	e1a02007 	mov	r2, r7
    3048:	eafffe3f 	b	294c <__svfscanf_r+0x48>
    304c:	e356000a 	cmp	r6, #10
    3050:	daffffe8 	ble	2ff8 <__svfscanf_r+0x6f4>
    3054:	e3c99d2e 	bic	r9, r9, #2944	; 0xb80
    3058:	eaffffdb 	b	2fcc <__svfscanf_r+0x6c8>
    305c:	e59f387c 	ldr	r3, [pc, #2172]	; 38e0 <__svfscanf_r+0xfdc>
    3060:	e1a06086 	lsl	r6, r6, #1
    3064:	e19360f6 	ldrsh	r6, [r3, r6]
    3068:	e3560008 	cmp	r6, #8
    306c:	cafffff8 	bgt	3054 <__svfscanf_r+0x750>
    3070:	eaffffe0 	b	2ff8 <__svfscanf_r+0x6f4>
    3074:	e59f3864 	ldr	r3, [pc, #2148]	; 38e0 <__svfscanf_r+0xfdc>
    3078:	e1a06086 	lsl	r6, r6, #1
    307c:	e19360f6 	ldrsh	r6, [r3, r6]
    3080:	e3c99d2e 	bic	r9, r9, #2944	; 0xb80
    3084:	eaffffd0 	b	2fcc <__svfscanf_r+0x6c8>
    3088:	e3190b02 	tst	r9, #2048	; 0x800
    308c:	0affffce 	beq	2fcc <__svfscanf_r+0x6c8>
    3090:	e3560000 	cmp	r6, #0
    3094:	03899c02 	orreq	r9, r9, #512	; 0x200
    3098:	03a06008 	moveq	r6, #8
    309c:	e3190b01 	tst	r9, #1024	; 0x400
    30a0:	13c99d16 	bicne	r9, r9, #1408	; 0x580
    30a4:	1affffc8 	bne	2fcc <__svfscanf_r+0x6c8>
    30a8:	e59d101c 	ldr	r1, [sp, #28]
    30ac:	e35a0000 	cmp	r10, #0
    30b0:	e2811001 	add	r1, r1, #1
    30b4:	e3c99d0e 	bic	r9, r9, #896	; 0x380
    30b8:	124aa001 	subne	r10, r10, #1
    30bc:	12844001 	addne	r4, r4, #1
    30c0:	e58d101c 	str	r1, [sp, #28]
    30c4:	eaffffc2 	b	2fd4 <__svfscanf_r+0x6d0>
    30c8:	e3190080 	tst	r9, #128	; 0x80
    30cc:	0affffc9 	beq	2ff8 <__svfscanf_r+0x6f4>
    30d0:	e3c99080 	bic	r9, r9, #128	; 0x80
    30d4:	eaffffbc 	b	2fcc <__svfscanf_r+0x6c8>
    30d8:	e3899001 	orr	r9, r9, #1
    30dc:	e59fc804 	ldr	r12, [pc, #2052]	; 38e8 <__svfscanf_r+0xfe4>
    30e0:	e5952004 	ldr	r2, [r5, #4]
    30e4:	e58dc020 	str	r12, [sp, #32]
    30e8:	e3520000 	cmp	r2, #0
    30ec:	e3a0c008 	mov	r12, #8
    30f0:	e58dc028 	str	r12, [sp, #40]	; 0x28
    30f4:	e3a07003 	mov	r7, #3
    30f8:	cafffec5 	bgt	2c14 <__svfscanf_r+0x310>
    30fc:	e1a0000b 	mov	r0, r11
    3100:	e1a01005 	mov	r1, r5
    3104:	eb0017da 	bl	9074 <__srefill_r>
    3108:	e3500000 	cmp	r0, #0
    310c:	0afffec0 	beq	2c14 <__svfscanf_r+0x310>
    3110:	e59dc024 	ldr	r12, [sp, #36]	; 0x24
    3114:	e35c0000 	cmp	r12, #0
    3118:	0a000006 	beq	3138 <__svfscanf_r+0x834>
    311c:	e1d530bc 	ldrh	r3, [r5, #12]
    3120:	e3130040 	tst	r3, #64	; 0x40
    3124:	1a000003 	bne	3138 <__svfscanf_r+0x834>
    3128:	e59d0024 	ldr	r0, [sp, #36]	; 0x24
    312c:	e28ddfad 	add	sp, sp, #692	; 0x2b4
    3130:	e8bd4ff0 	pop	{r4, r5, r6, r7, r8, r9, r10, r11, lr}
    3134:	e12fff1e 	bx	lr
    3138:	e3e00000 	mvn	r0, #0
    313c:	e28ddfad 	add	sp, sp, #692	; 0x2b4
    3140:	e8bd4ff0 	pop	{r4, r5, r6, r7, r8, r9, r10, r11, lr}
    3144:	e12fff1e 	bx	lr
    3148:	e1a07006 	mov	r7, r6
    314c:	e5953004 	ldr	r3, [r5, #4]
    3150:	e3530000 	cmp	r3, #0
    3154:	da000290 	ble	3b9c <__svfscanf_r+0x1298>
    3158:	e5953000 	ldr	r3, [r5]
    315c:	e5572001 	ldrb	r2, [r7, #-1]
    3160:	e5d31000 	ldrb	r1, [r3]
    3164:	e1510002 	cmp	r1, r2
    3168:	1affffee 	bne	3128 <__svfscanf_r+0x824>
    316c:	e5952004 	ldr	r2, [r5, #4]
    3170:	e2833001 	add	r3, r3, #1
    3174:	e2422001 	sub	r2, r2, #1
    3178:	e5852004 	str	r2, [r5, #4]
    317c:	e5853000 	str	r3, [r5]
    3180:	e28aa001 	add	r10, r10, #1
    3184:	e1a02007 	mov	r2, r7
    3188:	eafffdef 	b	294c <__svfscanf_r+0x48>
    318c:	e2442001 	sub	r2, r4, #1
    3190:	e3520f57 	cmp	r2, #348	; 0x15c
    3194:	e28dce15 	add	r12, sp, #336	; 0x150
    3198:	93a03000 	movls	r3, #0
    319c:	e58dc018 	str	r12, [sp, #24]
    31a0:	e3a01000 	mov	r1, #0
    31a4:	82422f57 	subhi	r2, r2, #348	; 0x15c
    31a8:	958d3030 	strls	r3, [sp, #48]	; 0x30
    31ac:	e59d3018 	ldr	r3, [sp, #24]
    31b0:	858d2030 	strhi	r2, [sp, #48]	; 0x30
    31b4:	859f4720 	ldrhi	r4, [pc, #1824]	; 38dc <__svfscanf_r+0xfd8>
    31b8:	e58d103c 	str	r1, [sp, #60]	; 0x3c
    31bc:	e58d1038 	str	r1, [sp, #56]	; 0x38
    31c0:	e58d101c 	str	r1, [sp, #28]
    31c4:	e58d1034 	str	r1, [sp, #52]	; 0x34
    31c8:	e3897d1e 	orr	r7, r9, #1920	; 0x780
    31cc:	e58d602c 	str	r6, [sp, #44]	; 0x2c
    31d0:	e1a09003 	mov	r9, r3
    31d4:	e1a0c001 	mov	r12, r1
    31d8:	e1a0300b 	mov	r3, r11
    31dc:	e1a06001 	mov	r6, r1
    31e0:	e1a0b001 	mov	r11, r1
    31e4:	e5950000 	ldr	r0, [r5]
    31e8:	e5d01000 	ldrb	r1, [r0]
    31ec:	e241202b 	sub	r2, r1, #43	; 0x2b
    31f0:	e352004e 	cmp	r2, #78	; 0x4e
    31f4:	979ff102 	ldrls	pc, [pc, r2, lsl #2]
    31f8:	ea00005f 	b	337c <__svfscanf_r+0xa78>
    31fc:	000035d4 	.word	0x000035d4
    3200:	0000337c 	.word	0x0000337c
    3204:	000035d4 	.word	0x000035d4
    3208:	000035c0 	.word	0x000035c0
    320c:	0000337c 	.word	0x0000337c
    3210:	00003598 	.word	0x00003598
    3214:	00003338 	.word	0x00003338
    3218:	00003338 	.word	0x00003338
    321c:	00003338 	.word	0x00003338
    3220:	00003338 	.word	0x00003338
    3224:	00003338 	.word	0x00003338
    3228:	00003338 	.word	0x00003338
    322c:	00003338 	.word	0x00003338
    3230:	00003338 	.word	0x00003338
    3234:	00003338 	.word	0x00003338
    3238:	0000337c 	.word	0x0000337c
    323c:	0000337c 	.word	0x0000337c
    3240:	0000337c 	.word	0x0000337c
    3244:	0000337c 	.word	0x0000337c
    3248:	0000337c 	.word	0x0000337c
    324c:	0000337c 	.word	0x0000337c
    3250:	0000337c 	.word	0x0000337c
    3254:	00003588 	.word	0x00003588
    3258:	0000337c 	.word	0x0000337c
    325c:	0000337c 	.word	0x0000337c
    3260:	0000337c 	.word	0x0000337c
    3264:	000035e4 	.word	0x000035e4
    3268:	00003578 	.word	0x00003578
    326c:	0000337c 	.word	0x0000337c
    3270:	0000337c 	.word	0x0000337c
    3274:	0000353c 	.word	0x0000353c
    3278:	0000337c 	.word	0x0000337c
    327c:	0000337c 	.word	0x0000337c
    3280:	0000337c 	.word	0x0000337c
    3284:	0000337c 	.word	0x0000337c
    3288:	00003508 	.word	0x00003508
    328c:	0000337c 	.word	0x0000337c
    3290:	0000337c 	.word	0x0000337c
    3294:	0000337c 	.word	0x0000337c
    3298:	0000337c 	.word	0x0000337c
    329c:	0000337c 	.word	0x0000337c
    32a0:	000034f8 	.word	0x000034f8
    32a4:	0000337c 	.word	0x0000337c
    32a8:	0000337c 	.word	0x0000337c
    32ac:	0000337c 	.word	0x0000337c
    32b0:	0000337c 	.word	0x0000337c
    32b4:	000034e8 	.word	0x000034e8
    32b8:	0000337c 	.word	0x0000337c
    32bc:	0000337c 	.word	0x0000337c
    32c0:	0000337c 	.word	0x0000337c
    32c4:	0000337c 	.word	0x0000337c
    32c8:	0000337c 	.word	0x0000337c
    32cc:	0000337c 	.word	0x0000337c
    32d0:	0000337c 	.word	0x0000337c
    32d4:	00003588 	.word	0x00003588
    32d8:	0000337c 	.word	0x0000337c
    32dc:	0000337c 	.word	0x0000337c
    32e0:	0000337c 	.word	0x0000337c
    32e4:	000035e4 	.word	0x000035e4
    32e8:	00003578 	.word	0x00003578
    32ec:	0000337c 	.word	0x0000337c
    32f0:	0000337c 	.word	0x0000337c
    32f4:	0000353c 	.word	0x0000353c
    32f8:	0000337c 	.word	0x0000337c
    32fc:	0000337c 	.word	0x0000337c
    3300:	0000337c 	.word	0x0000337c
    3304:	0000337c 	.word	0x0000337c
    3308:	00003508 	.word	0x00003508
    330c:	0000337c 	.word	0x0000337c
    3310:	0000337c 	.word	0x0000337c
    3314:	0000337c 	.word	0x0000337c
    3318:	0000337c 	.word	0x0000337c
    331c:	0000337c 	.word	0x0000337c
    3320:	000034f8 	.word	0x000034f8
    3324:	0000337c 	.word	0x0000337c
    3328:	0000337c 	.word	0x0000337c
    332c:	0000337c 	.word	0x0000337c
    3330:	0000337c 	.word	0x0000337c
    3334:	000034e8 	.word	0x000034e8
    3338:	e08c200b 	add	r2, r12, r11
    333c:	e3520000 	cmp	r2, #0
    3340:	1a00000d 	bne	337c <__svfscanf_r+0xa78>
    3344:	e3c77d06 	bic	r7, r7, #384	; 0x180
    3348:	e5c91000 	strb	r1, [r9]
    334c:	e2899001 	add	r9, r9, #1
    3350:	e5952004 	ldr	r2, [r5, #4]
    3354:	e2422001 	sub	r2, r2, #1
    3358:	e3520000 	cmp	r2, #0
    335c:	e2444001 	sub	r4, r4, #1
    3360:	e28aa001 	add	r10, r10, #1
    3364:	e5852004 	str	r2, [r5, #4]
    3368:	da000054 	ble	34c0 <__svfscanf_r+0xbbc>
    336c:	e2800001 	add	r0, r0, #1
    3370:	e5850000 	str	r0, [r5]
    3374:	e3540000 	cmp	r4, #0
    3378:	1affff99 	bne	31e4 <__svfscanf_r+0x8e0>
    337c:	e58d601c 	str	r6, [sp, #28]
    3380:	e59d001c 	ldr	r0, [sp, #28]
    3384:	e59d602c 	ldr	r6, [sp, #44]	; 0x2c
    3388:	e3500000 	cmp	r0, #0
    338c:	e1a0100b 	mov	r1, r11
    3390:	13c77c01 	bicne	r7, r7, #256	; 0x100
    3394:	e1a0b003 	mov	r11, r3
    3398:	e1a03009 	mov	r3, r9
    339c:	e24cc001 	sub	r12, r12, #1
    33a0:	e35c0001 	cmp	r12, #1
    33a4:	9a000289 	bls	3dd0 <__svfscanf_r+0x14cc>
    33a8:	e2412001 	sub	r2, r1, #1
    33ac:	e3520006 	cmp	r2, #6
    33b0:	8a000017 	bhi	3414 <__svfscanf_r+0xb10>
    33b4:	e3510002 	cmp	r1, #2
    33b8:	9a00028f 	bls	3dfc <__svfscanf_r+0x14f8>
    33bc:	e3510003 	cmp	r1, #3
    33c0:	0a000013 	beq	3414 <__svfscanf_r+0xb10>
    33c4:	e2419004 	sub	r9, r1, #4
    33c8:	e20990ff 	and	r9, r9, #255	; 0xff
    33cc:	e2434001 	sub	r4, r3, #1
    33d0:	e58d902c 	str	r9, [sp, #44]	; 0x2c
    33d4:	e0694004 	rsb	r4, r9, r4
    33d8:	e58d6030 	str	r6, [sp, #48]	; 0x30
    33dc:	e1a09003 	mov	r9, r3
    33e0:	e1a06003 	mov	r6, r3
    33e4:	e5761001 	ldrb	r1, [r6, #-1]!
    33e8:	e1a0000b 	mov	r0, r11
    33ec:	e1a02005 	mov	r2, r5
    33f0:	eb002863 	bl	d584 <_ungetc_r>
    33f4:	e1560004 	cmp	r6, r4
    33f8:	1afffff9 	bne	33e4 <__svfscanf_r+0xae0>
    33fc:	e59dc02c 	ldr	r12, [sp, #44]	; 0x2c
    3400:	e24aa001 	sub	r10, r10, #1
    3404:	e1e0200c 	mvn	r2, r12
    3408:	e59d6030 	ldr	r6, [sp, #48]	; 0x30
    340c:	e06ca00a 	rsb	r10, r12, r10
    3410:	e0893002 	add	r3, r9, r2
    3414:	e3170c01 	tst	r7, #256	; 0x100
    3418:	0a00000c 	beq	3450 <__svfscanf_r+0xb4c>
    341c:	e3170b01 	tst	r7, #1024	; 0x400
    3420:	1a000280 	bne	3e28 <__svfscanf_r+0x1524>
    3424:	e5531001 	ldrb	r1, [r3, #-1]
    3428:	e20120df 	and	r2, r1, #223	; 0xdf
    342c:	e3520045 	cmp	r2, #69	; 0x45
    3430:	1a0001e5 	bne	3bcc <__svfscanf_r+0x12c8>
    3434:	e2433001 	sub	r3, r3, #1
    3438:	e24aa001 	sub	r10, r10, #1
    343c:	e1a0000b 	mov	r0, r11
    3440:	e1a02005 	mov	r2, r5
    3444:	e58d3008 	str	r3, [sp, #8]
    3448:	eb00284d 	bl	d584 <_ungetc_r>
    344c:	e59d3008 	ldr	r3, [sp, #8]
    3450:	e2172010 	ands	r2, r7, #16
    3454:	1a000177 	bne	3a38 <__svfscanf_r+0x1134>
    3458:	e2071c06 	and	r1, r7, #1536	; 0x600
    345c:	e3510b01 	cmp	r1, #1024	; 0x400
    3460:	e5c32000 	strb	r2, [r3]
    3464:	0a0001e1 	beq	3bf0 <__svfscanf_r+0x12ec>
    3468:	e59dc038 	ldr	r12, [sp, #56]	; 0x38
    346c:	e35c0000 	cmp	r12, #0
    3470:	1a00019b 	bne	3ae4 <__svfscanf_r+0x11e0>
    3474:	e3a02000 	mov	r2, #0
    3478:	e59d1018 	ldr	r1, [sp, #24]
    347c:	e1a0000b 	mov	r0, r11
    3480:	eb0018d0 	bl	97c8 <_strtod_r>
    3484:	e3170001 	tst	r7, #1
    3488:	e1a02000 	mov	r2, r0
    348c:	e1a03001 	mov	r3, r1
    3490:	e59dc014 	ldr	r12, [sp, #20]
    3494:	0a000178 	beq	3a7c <__svfscanf_r+0x1178>
    3498:	e59c1000 	ldr	r1, [r12]
    349c:	e28cc004 	add	r12, r12, #4
    34a0:	e58dc014 	str	r12, [sp, #20]
    34a4:	e881000c 	stm	r1, {r2, r3}
    34a8:	e59dc024 	ldr	r12, [sp, #36]	; 0x24
    34ac:	e1a07006 	mov	r7, r6
    34b0:	e28cc001 	add	r12, r12, #1
    34b4:	e58dc024 	str	r12, [sp, #36]	; 0x24
    34b8:	e1a02007 	mov	r2, r7
    34bc:	eafffd22 	b	294c <__svfscanf_r+0x48>
    34c0:	e1a00003 	mov	r0, r3
    34c4:	e1a01005 	mov	r1, r5
    34c8:	e58d3008 	str	r3, [sp, #8]
    34cc:	e58dc00c 	str	r12, [sp, #12]
    34d0:	eb0016e7 	bl	9074 <__srefill_r>
    34d4:	e28d3008 	add	r3, sp, #8
    34d8:	e3500000 	cmp	r0, #0
    34dc:	e8931008 	ldm	r3, {r3, r12}
    34e0:	0affffa3 	beq	3374 <__svfscanf_r+0xa70>
    34e4:	eaffffa4 	b	337c <__svfscanf_r+0xa78>
    34e8:	e35b0007 	cmp	r11, #7
    34ec:	1affffa2 	bne	337c <__svfscanf_r+0xa78>
    34f0:	e3a0b008 	mov	r11, #8
    34f4:	eaffff93 	b	3348 <__svfscanf_r+0xa44>
    34f8:	e35b0006 	cmp	r11, #6
    34fc:	1affff9e 	bne	337c <__svfscanf_r+0xa78>
    3500:	e3a0b007 	mov	r11, #7
    3504:	eaffff8f 	b	3348 <__svfscanf_r+0xa44>
    3508:	e3560000 	cmp	r6, #0
    350c:	035c0000 	cmpeq	r12, #0
    3510:	1a000155 	bne	3a6c <__svfscanf_r+0x1168>
    3514:	e2072c07 	and	r2, r7, #1792	; 0x700
    3518:	e3520c07 	cmp	r2, #1792	; 0x700
    351c:	03c77d1e 	biceq	r7, r7, #1920	; 0x780
    3520:	03a0c001 	moveq	r12, #1
    3524:	03a06000 	moveq	r6, #0
    3528:	0affff86 	beq	3348 <__svfscanf_r+0xa44>
    352c:	e35b0001 	cmp	r11, #1
    3530:	135b0004 	cmpne	r11, #4
    3534:	0a00000c 	beq	356c <__svfscanf_r+0xc68>
    3538:	eaffff8f 	b	337c <__svfscanf_r+0xa78>
    353c:	e35b0000 	cmp	r11, #0
    3540:	03560000 	cmpeq	r6, #0
    3544:	1a000005 	bne	3560 <__svfscanf_r+0xc5c>
    3548:	e2072c07 	and	r2, r7, #1792	; 0x700
    354c:	e3520c07 	cmp	r2, #1792	; 0x700
    3550:	03c77d1e 	biceq	r7, r7, #1920	; 0x780
    3554:	03a0b001 	moveq	r11, #1
    3558:	03a06000 	moveq	r6, #0
    355c:	0affff79 	beq	3348 <__svfscanf_r+0xa44>
    3560:	e35b0003 	cmp	r11, #3
    3564:	135b0005 	cmpne	r11, #5
    3568:	1affff83 	bne	337c <__svfscanf_r+0xa78>
    356c:	e28bb001 	add	r11, r11, #1
    3570:	e20bb0ff 	and	r11, r11, #255	; 0xff
    3574:	eaffff73 	b	3348 <__svfscanf_r+0xa44>
    3578:	e35b0002 	cmp	r11, #2
    357c:	1affff7e 	bne	337c <__svfscanf_r+0xa78>
    3580:	e3a0b003 	mov	r11, #3
    3584:	eaffff6f 	b	3348 <__svfscanf_r+0xa44>
    3588:	e35c0001 	cmp	r12, #1
    358c:	1affff7a 	bne	337c <__svfscanf_r+0xa78>
    3590:	e3a0c002 	mov	r12, #2
    3594:	eaffff6b 	b	3348 <__svfscanf_r+0xa44>
    3598:	e3170c01 	tst	r7, #256	; 0x100
    359c:	0affff65 	beq	3338 <__svfscanf_r+0xa34>
    35a0:	e59d2030 	ldr	r2, [sp, #48]	; 0x30
    35a4:	e3520000 	cmp	r2, #0
    35a8:	e3c77080 	bic	r7, r7, #128	; 0x80
    35ac:	e2866001 	add	r6, r6, #1
    35b0:	12422001 	subne	r2, r2, #1
    35b4:	158d2030 	strne	r2, [sp, #48]	; 0x30
    35b8:	12844001 	addne	r4, r4, #1
    35bc:	eaffff63 	b	3350 <__svfscanf_r+0xa4c>
    35c0:	e3170c02 	tst	r7, #512	; 0x200
    35c4:	0affff6c 	beq	337c <__svfscanf_r+0xa78>
    35c8:	e3c77d0a 	bic	r7, r7, #640	; 0x280
    35cc:	e58d6034 	str	r6, [sp, #52]	; 0x34
    35d0:	eaffff5c 	b	3348 <__svfscanf_r+0xa44>
    35d4:	e3170080 	tst	r7, #128	; 0x80
    35d8:	0affff67 	beq	337c <__svfscanf_r+0xa78>
    35dc:	e3c77080 	bic	r7, r7, #128	; 0x80
    35e0:	eaffff58 	b	3348 <__svfscanf_r+0xa44>
    35e4:	e2072c05 	and	r2, r7, #1280	; 0x500
    35e8:	e3520b01 	cmp	r2, #1024	; 0x400
    35ec:	0a000003 	beq	3600 <__svfscanf_r+0xcfc>
    35f0:	e3170b01 	tst	r7, #1024	; 0x400
    35f4:	0affff60 	beq	337c <__svfscanf_r+0xa78>
    35f8:	e3560000 	cmp	r6, #0
    35fc:	0a000214 	beq	3e54 <__svfscanf_r+0x1550>
    3600:	e3170c02 	tst	r7, #512	; 0x200
    3604:	059d2034 	ldreq	r2, [sp, #52]	; 0x34
    3608:	e3c77d1e 	bic	r7, r7, #1920	; 0x780
    360c:	00626006 	rsbeq	r6, r2, r6
    3610:	058d6038 	streq	r6, [sp, #56]	; 0x38
    3614:	058d903c 	streq	r9, [sp, #60]	; 0x3c
    3618:	e3877d06 	orr	r7, r7, #384	; 0x180
    361c:	e3a06000 	mov	r6, #0
    3620:	eaffff48 	b	3348 <__svfscanf_r+0xa44>
    3624:	e1a0000b 	mov	r0, r11
    3628:	e1a01005 	mov	r1, r5
    362c:	eb001690 	bl	9074 <__srefill_r>
    3630:	e3500000 	cmp	r0, #0
    3634:	1afffe3d 	bne	2f30 <__svfscanf_r+0x62c>
    3638:	e5981000 	ldr	r1, [r8]
    363c:	e5953000 	ldr	r3, [r5]
    3640:	e5d32000 	ldrb	r2, [r3]
    3644:	e0812002 	add	r2, r1, r2
    3648:	e5d22001 	ldrb	r2, [r2, #1]
    364c:	e3120008 	tst	r2, #8
    3650:	e2833001 	add	r3, r3, #1
    3654:	1afffe35 	bne	2f30 <__svfscanf_r+0x62c>
    3658:	e5952004 	ldr	r2, [r5, #4]
    365c:	e2877001 	add	r7, r7, #1
    3660:	e2422001 	sub	r2, r2, #1
    3664:	e1540007 	cmp	r4, r7
    3668:	e5853000 	str	r3, [r5]
    366c:	e5852004 	str	r2, [r5, #4]
    3670:	0afffe2e 	beq	2f30 <__svfscanf_r+0x62c>
    3674:	e3520000 	cmp	r2, #0
    3678:	cafffff0 	bgt	3640 <__svfscanf_r+0xd3c>
    367c:	eaffffe8 	b	3624 <__svfscanf_r+0xd20>
    3680:	e59fc250 	ldr	r12, [pc, #592]	; 38d8 <__svfscanf_r+0xfd4>
    3684:	e58dc020 	str	r12, [sp, #32]
    3688:	e3a0c000 	mov	r12, #0
    368c:	e58dc028 	str	r12, [sp, #40]	; 0x28
    3690:	e3a07003 	mov	r7, #3
    3694:	eafffd5b 	b	2c08 <__svfscanf_r+0x304>
    3698:	e59dc014 	ldr	r12, [sp, #20]
    369c:	e59c7000 	ldr	r7, [r12]
    36a0:	e28c2004 	add	r2, r12, #4
    36a4:	e58d2014 	str	r2, [sp, #20]
    36a8:	e1a09007 	mov	r9, r7
    36ac:	e5953000 	ldr	r3, [r5]
    36b0:	e5d32000 	ldrb	r2, [r3]
    36b4:	e28dce2b 	add	r12, sp, #688	; 0x2b0
    36b8:	e08c2002 	add	r2, r12, r2
    36bc:	e5522260 	ldrb	r2, [r2, #-608]	; 0xfffffda0
    36c0:	e3520000 	cmp	r2, #0
    36c4:	e2831001 	add	r1, r3, #1
    36c8:	0a000010 	beq	3710 <__svfscanf_r+0xe0c>
    36cc:	e5952004 	ldr	r2, [r5, #4]
    36d0:	e2422001 	sub	r2, r2, #1
    36d4:	e8850006 	stm	r5, {r1, r2}
    36d8:	e5d33000 	ldrb	r3, [r3]
    36dc:	e2544001 	subs	r4, r4, #1
    36e0:	e4c93001 	strb	r3, [r9], #1
    36e4:	0a000009 	beq	3710 <__svfscanf_r+0xe0c>
    36e8:	e5953004 	ldr	r3, [r5, #4]
    36ec:	e3530000 	cmp	r3, #0
    36f0:	caffffed 	bgt	36ac <__svfscanf_r+0xda8>
    36f4:	e1a0000b 	mov	r0, r11
    36f8:	e1a01005 	mov	r1, r5
    36fc:	eb00165c 	bl	9074 <__srefill_r>
    3700:	e3500000 	cmp	r0, #0
    3704:	0affffe8 	beq	36ac <__svfscanf_r+0xda8>
    3708:	e1570009 	cmp	r7, r9
    370c:	0afffe7f 	beq	3110 <__svfscanf_r+0x80c>
    3710:	e0597007 	subs	r7, r9, r7
    3714:	0afffe83 	beq	3128 <__svfscanf_r+0x824>
    3718:	e59dc024 	ldr	r12, [sp, #36]	; 0x24
    371c:	e3a02000 	mov	r2, #0
    3720:	e28cc001 	add	r12, r12, #1
    3724:	e08aa007 	add	r10, r10, r7
    3728:	e5c92000 	strb	r2, [r9]
    372c:	e58dc024 	str	r12, [sp, #36]	; 0x24
    3730:	e1a07006 	mov	r7, r6
    3734:	eafffdff 	b	2f38 <__svfscanf_r+0x634>
    3738:	e59fc1a8 	ldr	r12, [pc, #424]	; 38e8 <__svfscanf_r+0xfe4>
    373c:	e58dc020 	str	r12, [sp, #32]
    3740:	e3a0c00a 	mov	r12, #10
    3744:	e58dc028 	str	r12, [sp, #40]	; 0x28
    3748:	e3a07003 	mov	r7, #3
    374c:	eafffd2d 	b	2c08 <__svfscanf_r+0x304>
    3750:	e3a07002 	mov	r7, #2
    3754:	eafffd2b 	b	2c08 <__svfscanf_r+0x304>
    3758:	e3899e22 	orr	r9, r9, #544	; 0x220
    375c:	e59fc184 	ldr	r12, [pc, #388]	; 38e8 <__svfscanf_r+0xfe4>
    3760:	e58dc020 	str	r12, [sp, #32]
    3764:	e3a0c010 	mov	r12, #16
    3768:	e58dc028 	str	r12, [sp, #40]	; 0x28
    376c:	e3a07003 	mov	r7, #3
    3770:	eafffd24 	b	2c08 <__svfscanf_r+0x304>
    3774:	e3190010 	tst	r9, #16
    3778:	1a0000ae 	bne	3a38 <__svfscanf_r+0x1134>
    377c:	e3190004 	tst	r9, #4
    3780:	0a000121 	beq	3c0c <__svfscanf_r+0x1308>
    3784:	e59dc014 	ldr	r12, [sp, #20]
    3788:	e59c3000 	ldr	r3, [r12]
    378c:	e28cc004 	add	r12, r12, #4
    3790:	e1a07006 	mov	r7, r6
    3794:	e1c3a0b0 	strh	r10, [r3]
    3798:	e58dc014 	str	r12, [sp, #20]
    379c:	eafffc8a 	b	29cc <__svfscanf_r+0xc8>
    37a0:	e5d72001 	ldrb	r2, [r7, #1]
    37a4:	e352006c 	cmp	r2, #108	; 0x6c
    37a8:	05d72002 	ldrbeq	r2, [r7, #2]
    37ac:	03899002 	orreq	r9, r9, #2
    37b0:	02877002 	addeq	r7, r7, #2
    37b4:	13899001 	orrne	r9, r9, #1
    37b8:	11a07006 	movne	r7, r6
    37bc:	eafffc89 	b	29e8 <__svfscanf_r+0xe4>
    37c0:	e5d72001 	ldrb	r2, [r7, #1]
    37c4:	e3899010 	orr	r9, r9, #16
    37c8:	e1a07006 	mov	r7, r6
    37cc:	eafffc85 	b	29e8 <__svfscanf_r+0xe4>
    37d0:	e5d72001 	ldrb	r2, [r7, #1]
    37d4:	e3899004 	orr	r9, r9, #4
    37d8:	e1a07006 	mov	r7, r6
    37dc:	eafffc81 	b	29e8 <__svfscanf_r+0xe4>
    37e0:	e3899040 	orr	r9, r9, #64	; 0x40
    37e4:	e3a07000 	mov	r7, #0
    37e8:	eafffd06 	b	2c08 <__svfscanf_r+0x304>
    37ec:	e1a01006 	mov	r1, r6
    37f0:	e28d0050 	add	r0, sp, #80	; 0x50
    37f4:	eb0016c2 	bl	9304 <__sccl>
    37f8:	e3899040 	orr	r9, r9, #64	; 0x40
    37fc:	e1a06000 	mov	r6, r0
    3800:	e3a07001 	mov	r7, #1
    3804:	eafffcff 	b	2c08 <__svfscanf_r+0x304>
    3808:	e3899c02 	orr	r9, r9, #512	; 0x200
    380c:	eaffffd2 	b	375c <__svfscanf_r+0xe58>
    3810:	e5d72001 	ldrb	r2, [r7, #1]
    3814:	e3899002 	orr	r9, r9, #2
    3818:	e1a07006 	mov	r7, r6
    381c:	eafffc71 	b	29e8 <__svfscanf_r+0xe4>
    3820:	e3a07004 	mov	r7, #4
    3824:	eafffcf7 	b	2c08 <__svfscanf_r+0x304>
    3828:	e0844104 	add	r4, r4, r4, lsl #2
    382c:	e0822084 	add	r2, r2, r4, lsl #1
    3830:	e2424030 	sub	r4, r2, #48	; 0x30
    3834:	e5d72001 	ldrb	r2, [r7, #1]
    3838:	e1a07006 	mov	r7, r6
    383c:	eafffc69 	b	29e8 <__svfscanf_r+0xe4>
    3840:	e1a0200c 	mov	r2, r12
    3844:	e5c7c000 	strb	r12, [r7]
    3848:	e1a0000b 	mov	r0, r11
    384c:	e59d1018 	ldr	r1, [sp, #24]
    3850:	e59d3028 	ldr	r3, [sp, #40]	; 0x28
    3854:	e59dc020 	ldr	r12, [sp, #32]
    3858:	e1a0e00f 	mov	lr, pc
    385c:	e12fff1c 	bx	r12
    3860:	e3190020 	tst	r9, #32
    3864:	0a000096 	beq	3ac4 <__svfscanf_r+0x11c0>
    3868:	e59dc014 	ldr	r12, [sp, #20]
    386c:	e59c3000 	ldr	r3, [r12]
    3870:	e28cc004 	add	r12, r12, #4
    3874:	e58dc014 	str	r12, [sp, #20]
    3878:	e5830000 	str	r0, [r3]
    387c:	e59dc024 	ldr	r12, [sp, #36]	; 0x24
    3880:	e28cc001 	add	r12, r12, #1
    3884:	e58dc024 	str	r12, [sp, #36]	; 0x24
    3888:	eafffde7 	b	302c <__svfscanf_r+0x728>
    388c:	e28dc048 	add	r12, sp, #72	; 0x48
    3890:	e1a0000c 	mov	r0, r12
    3894:	e3a01000 	mov	r1, #0
    3898:	e3a02008 	mov	r2, #8
    389c:	e58dc01c 	str	r12, [sp, #28]
    38a0:	eb001103 	bl	7cb4 <memset>
    38a4:	e2199010 	ands	r9, r9, #16
    38a8:	059dc014 	ldreq	r12, [sp, #20]
    38ac:	e58d902c 	str	r9, [sp, #44]	; 0x2c
    38b0:	059c7000 	ldreq	r7, [r12]
    38b4:	028cc004 	addeq	r12, r12, #4
    38b8:	e58d6030 	str	r6, [sp, #48]	; 0x30
    38bc:	058dc014 	streq	r12, [sp, #20]
    38c0:	13a07000 	movne	r7, #0
    38c4:	e3a09000 	mov	r9, #0
    38c8:	e59d602c 	ldr	r6, [sp, #44]	; 0x2c
    38cc:	e58db018 	str	r11, [sp, #24]
    38d0:	ea000012 	b	3920 <__svfscanf_r+0x101c>
    38d4:	00013828 	.word	0x00013828
    38d8:	0000af34 	.word	0x0000af34
    38dc:	0000015d 	.word	0x0000015d
    38e0:	00013498 	.word	0x00013498
    38e4:	000134bc 	.word	0x000134bc
    38e8:	0000b12c 	.word	0x0000b12c
    38ec:	e3560000 	cmp	r6, #0
    38f0:	05876000 	streq	r6, [r7]
    38f4:	e5952004 	ldr	r2, [r5, #4]
    38f8:	e3560000 	cmp	r6, #0
    38fc:	02877004 	addeq	r7, r7, #4
    3900:	01a09006 	moveq	r9, r6
    3904:	13a09000 	movne	r9, #0
    3908:	e3520000 	cmp	r2, #0
    390c:	e08aa00b 	add	r10, r10, r11
    3910:	e2444001 	sub	r4, r4, #1
    3914:	da00001f 	ble	3998 <__svfscanf_r+0x1094>
    3918:	e3540000 	cmp	r4, #0
    391c:	0a0000ce 	beq	3c5c <__svfscanf_r+0x1358>
    3920:	eb000d62 	bl	6eb0 <__locale_mb_cur_max>
    3924:	e1500009 	cmp	r0, r9
    3928:	0afffdf8 	beq	3110 <__svfscanf_r+0x80c>
    392c:	e5951000 	ldr	r1, [r5]
    3930:	e4d12001 	ldrb	r2, [r1], #1
    3934:	e5950004 	ldr	r0, [r5, #4]
    3938:	e5851000 	str	r1, [r5]
    393c:	e59dc01c 	ldr	r12, [sp, #28]
    3940:	e28d1e2b 	add	r1, sp, #688	; 0x2b0
    3944:	e081e009 	add	lr, r1, r9
    3948:	e2400001 	sub	r0, r0, #1
    394c:	e289b001 	add	r11, r9, #1
    3950:	e58dc000 	str	r12, [sp]
    3954:	e1a0300b 	mov	r3, r11
    3958:	e5850004 	str	r0, [r5, #4]
    395c:	e54e2160 	strb	r2, [lr, #-352]	; 0xfffffea0
    3960:	e59d0018 	ldr	r0, [sp, #24]
    3964:	e1a01007 	mov	r1, r7
    3968:	e28d2e15 	add	r2, sp, #336	; 0x150
    396c:	eb000f8c 	bl	77a4 <_mbrtowc_r>
    3970:	e3700001 	cmn	r0, #1
    3974:	0afffde5 	beq	3110 <__svfscanf_r+0x80c>
    3978:	e3500000 	cmp	r0, #0
    397c:	0affffda 	beq	38ec <__svfscanf_r+0xfe8>
    3980:	e3700002 	cmn	r0, #2
    3984:	01a0900b 	moveq	r9, r11
    3988:	1affffd9 	bne	38f4 <__svfscanf_r+0xff0>
    398c:	e5952004 	ldr	r2, [r5, #4]
    3990:	e3520000 	cmp	r2, #0
    3994:	caffffdf 	bgt	3918 <__svfscanf_r+0x1014>
    3998:	e59d0018 	ldr	r0, [sp, #24]
    399c:	e1a01005 	mov	r1, r5
    39a0:	eb0015b3 	bl	9074 <__srefill_r>
    39a4:	e3500000 	cmp	r0, #0
    39a8:	0affffda 	beq	3918 <__svfscanf_r+0x1014>
    39ac:	e3590000 	cmp	r9, #0
    39b0:	e59d6030 	ldr	r6, [sp, #48]	; 0x30
    39b4:	e59db018 	ldr	r11, [sp, #24]
    39b8:	0a0000a9 	beq	3c64 <__svfscanf_r+0x1360>
    39bc:	eafffdd3 	b	3110 <__svfscanf_r+0x80c>
    39c0:	e28dc048 	add	r12, sp, #72	; 0x48
    39c4:	e1a0000c 	mov	r0, r12
    39c8:	e3a01000 	mov	r1, #0
    39cc:	e3a02008 	mov	r2, #8
    39d0:	e58dc01c 	str	r12, [sp, #28]
    39d4:	eb0010b6 	bl	7cb4 <memset>
    39d8:	e2199010 	ands	r9, r9, #16
    39dc:	059dc014 	ldreq	r12, [sp, #20]
    39e0:	e58d9018 	str	r9, [sp, #24]
    39e4:	059c9000 	ldreq	r9, [r12]
    39e8:	028cc004 	addeq	r12, r12, #4
    39ec:	058dc014 	streq	r12, [sp, #20]
    39f0:	128d9044 	addne	r9, sp, #68	; 0x44
    39f4:	e3a03000 	mov	r3, #0
    39f8:	e5952000 	ldr	r2, [r5]
    39fc:	e5981000 	ldr	r1, [r8]
    3a00:	e5d22000 	ldrb	r2, [r2]
    3a04:	e0812002 	add	r2, r1, r2
    3a08:	e5d22001 	ldrb	r2, [r2, #1]
    3a0c:	e3120008 	tst	r2, #8
    3a10:	1a000001 	bne	3a1c <__svfscanf_r+0x1118>
    3a14:	e3540000 	cmp	r4, #0
    3a18:	1a0000a7 	bne	3cbc <__svfscanf_r+0x13b8>
    3a1c:	e59dc018 	ldr	r12, [sp, #24]
    3a20:	e35c0000 	cmp	r12, #0
    3a24:	1a000003 	bne	3a38 <__svfscanf_r+0x1134>
    3a28:	e589c000 	str	r12, [r9]
    3a2c:	e59dc024 	ldr	r12, [sp, #36]	; 0x24
    3a30:	e28cc001 	add	r12, r12, #1
    3a34:	e58dc024 	str	r12, [sp, #36]	; 0x24
    3a38:	e1a07006 	mov	r7, r6
    3a3c:	e1a02007 	mov	r2, r7
    3a40:	eafffbc1 	b	294c <__svfscanf_r+0x48>
    3a44:	e1a0000b 	mov	r0, r11
    3a48:	e1a01005 	mov	r1, r5
    3a4c:	e58d2010 	str	r2, [sp, #16]
    3a50:	e58dc00c 	str	r12, [sp, #12]
    3a54:	eb001586 	bl	9074 <__srefill_r>
    3a58:	e3500000 	cmp	r0, #0
    3a5c:	e59d2010 	ldr	r2, [sp, #16]
    3a60:	e59dc00c 	ldr	r12, [sp, #12]
    3a64:	0afffd61 	beq	2ff0 <__svfscanf_r+0x6ec>
    3a68:	eafffd62 	b	2ff8 <__svfscanf_r+0x6f4>
    3a6c:	e35c0002 	cmp	r12, #2
    3a70:	1afffead 	bne	352c <__svfscanf_r+0xc28>
    3a74:	e3a0c003 	mov	r12, #3
    3a78:	eafffe32 	b	3348 <__svfscanf_r+0xa44>
    3a7c:	e3170002 	tst	r7, #2
    3a80:	1afffe84 	bne	3498 <__svfscanf_r+0xb94>
    3a84:	e59c4000 	ldr	r4, [r12]
    3a88:	e58d0010 	str	r0, [sp, #16]
    3a8c:	e58d1008 	str	r1, [sp, #8]
    3a90:	eb0015ef 	bl	9254 <__fpclassifyd>
    3a94:	e59dc014 	ldr	r12, [sp, #20]
    3a98:	e3500000 	cmp	r0, #0
    3a9c:	e28c7004 	add	r7, r12, #4
    3aa0:	e59d2010 	ldr	r2, [sp, #16]
    3aa4:	e59d3008 	ldr	r3, [sp, #8]
    3aa8:	0a0000ad 	beq	3d64 <__svfscanf_r+0x1460>
    3aac:	e1a00002 	mov	r0, r2
    3ab0:	e1a01003 	mov	r1, r3
    3ab4:	eb00391a 	bl	11f24 <__aeabi_d2f>
    3ab8:	e58d7014 	str	r7, [sp, #20]
    3abc:	e5840000 	str	r0, [r4]
    3ac0:	eafffe78 	b	34a8 <__svfscanf_r+0xba4>
    3ac4:	e3190004 	tst	r9, #4
    3ac8:	0a000069 	beq	3c74 <__svfscanf_r+0x1370>
    3acc:	e59dc014 	ldr	r12, [sp, #20]
    3ad0:	e59c3000 	ldr	r3, [r12]
    3ad4:	e28cc004 	add	r12, r12, #4
    3ad8:	e58dc014 	str	r12, [sp, #20]
    3adc:	e1c300b0 	strh	r0, [r3]
    3ae0:	eaffff65 	b	387c <__svfscanf_r+0xf78>
    3ae4:	e59dc03c 	ldr	r12, [sp, #60]	; 0x3c
    3ae8:	e3a0300a 	mov	r3, #10
    3aec:	e28c1001 	add	r1, r12, #1
    3af0:	e1a0000b 	mov	r0, r11
    3af4:	eb001d0e 	bl	af34 <_strtol_r>
    3af8:	e59dc038 	ldr	r12, [sp, #56]	; 0x38
    3afc:	e59d303c 	ldr	r3, [sp, #60]	; 0x3c
    3b00:	e06c2000 	rsb	r2, r12, r0
    3b04:	e28d1e2a 	add	r1, sp, #672	; 0x2a0
    3b08:	e2811003 	add	r1, r1, #3
    3b0c:	e1530001 	cmp	r3, r1
    3b10:	228d3e2a 	addcs	r3, sp, #672	; 0x2a0
    3b14:	22833002 	addcs	r3, r3, #2
    3b18:	e1a00003 	mov	r0, r3
    3b1c:	e51f1240 	ldr	r1, [pc, #-576]	; 38e4 <__svfscanf_r+0xfe0>
    3b20:	eb001649 	bl	944c <sprintf>
    3b24:	eafffe52 	b	3474 <__svfscanf_r+0xb70>
    3b28:	e3570000 	cmp	r7, #0
    3b2c:	0afffd77 	beq	3110 <__svfscanf_r+0x80c>
    3b30:	e08aa007 	add	r10, r10, r7
    3b34:	e1a07006 	mov	r7, r6
    3b38:	eafffcfe 	b	2f38 <__svfscanf_r+0x634>
    3b3c:	e3570000 	cmp	r7, #0
    3b40:	0afffd78 	beq	3128 <__svfscanf_r+0x824>
    3b44:	e08aa007 	add	r10, r10, r7
    3b48:	e1a07006 	mov	r7, r6
    3b4c:	eafffcf9 	b	2f38 <__svfscanf_r+0x634>
    3b50:	e59dc014 	ldr	r12, [sp, #20]
    3b54:	e1a03004 	mov	r3, r4
    3b58:	e59c1000 	ldr	r1, [r12]
    3b5c:	e1a0000b 	mov	r0, r11
    3b60:	e58d5000 	str	r5, [sp]
    3b64:	e3a02001 	mov	r2, #1
    3b68:	eb0009c2 	bl	6278 <_fread_r>
    3b6c:	e59dc014 	ldr	r12, [sp, #20]
    3b70:	e3500000 	cmp	r0, #0
    3b74:	e28c3004 	add	r3, r12, #4
    3b78:	0afffd64 	beq	3110 <__svfscanf_r+0x80c>
    3b7c:	e59dc024 	ldr	r12, [sp, #36]	; 0x24
    3b80:	e1a07006 	mov	r7, r6
    3b84:	e28cc001 	add	r12, r12, #1
    3b88:	e080a00a 	add	r10, r0, r10
    3b8c:	e58dc024 	str	r12, [sp, #36]	; 0x24
    3b90:	e58d3014 	str	r3, [sp, #20]
    3b94:	e1a02007 	mov	r2, r7
    3b98:	eafffb6b 	b	294c <__svfscanf_r+0x48>
    3b9c:	e1a0000b 	mov	r0, r11
    3ba0:	e1a01005 	mov	r1, r5
    3ba4:	eb001532 	bl	9074 <__srefill_r>
    3ba8:	e3500000 	cmp	r0, #0
    3bac:	0afffd69 	beq	3158 <__svfscanf_r+0x854>
    3bb0:	eafffd56 	b	3110 <__svfscanf_r+0x80c>
    3bb4:	e5571001 	ldrb	r1, [r7, #-1]
    3bb8:	e1a0000b 	mov	r0, r11
    3bbc:	e1a02005 	mov	r2, r5
    3bc0:	eb00266f 	bl	d584 <_ungetc_r>
    3bc4:	e2477001 	sub	r7, r7, #1
    3bc8:	eafffd12 	b	3018 <__svfscanf_r+0x714>
    3bcc:	e1a0000b 	mov	r0, r11
    3bd0:	e1a02005 	mov	r2, r5
    3bd4:	e58d3008 	str	r3, [sp, #8]
    3bd8:	eb002669 	bl	d584 <_ungetc_r>
    3bdc:	e59d3008 	ldr	r3, [sp, #8]
    3be0:	e24aa002 	sub	r10, r10, #2
    3be4:	e5531002 	ldrb	r1, [r3, #-2]
    3be8:	e2433002 	sub	r3, r3, #2
    3bec:	eafffe12 	b	343c <__svfscanf_r+0xb38>
    3bf0:	e59dc01c 	ldr	r12, [sp, #28]
    3bf4:	e59d0034 	ldr	r0, [sp, #52]	; 0x34
    3bf8:	e060200c 	rsb	r2, r0, r12
    3bfc:	e3520000 	cmp	r2, #0
    3c00:	e2622000 	rsb	r2, r2, #0
    3c04:	1affffbe 	bne	3b04 <__svfscanf_r+0x1200>
    3c08:	eafffe19 	b	3474 <__svfscanf_r+0xb70>
    3c0c:	e3190001 	tst	r9, #1
    3c10:	1a00000a 	bne	3c40 <__svfscanf_r+0x133c>
    3c14:	e3190002 	tst	r9, #2
    3c18:	0a000008 	beq	3c40 <__svfscanf_r+0x133c>
    3c1c:	e59dc014 	ldr	r12, [sp, #20]
    3c20:	e59c1000 	ldr	r1, [r12]
    3c24:	e1a0200a 	mov	r2, r10
    3c28:	e1a03fca 	asr	r3, r10, #31
    3c2c:	e28cc004 	add	r12, r12, #4
    3c30:	e1a07006 	mov	r7, r6
    3c34:	e58dc014 	str	r12, [sp, #20]
    3c38:	e881000c 	stm	r1, {r2, r3}
    3c3c:	eafffb62 	b	29cc <__svfscanf_r+0xc8>
    3c40:	e59dc014 	ldr	r12, [sp, #20]
    3c44:	e59c3000 	ldr	r3, [r12]
    3c48:	e28cc004 	add	r12, r12, #4
    3c4c:	e583a000 	str	r10, [r3]
    3c50:	e1a07006 	mov	r7, r6
    3c54:	e58dc014 	str	r12, [sp, #20]
    3c58:	eafffb5b 	b	29cc <__svfscanf_r+0xc8>
    3c5c:	e59d6030 	ldr	r6, [sp, #48]	; 0x30
    3c60:	e59db018 	ldr	r11, [sp, #24]
    3c64:	e59dc02c 	ldr	r12, [sp, #44]	; 0x2c
    3c68:	e35c0000 	cmp	r12, #0
    3c6c:	0affff6e 	beq	3a2c <__svfscanf_r+0x1128>
    3c70:	eaffff70 	b	3a38 <__svfscanf_r+0x1134>
    3c74:	e2192001 	ands	r2, r9, #1
    3c78:	1afffefa 	bne	3868 <__svfscanf_r+0xf64>
    3c7c:	e3190002 	tst	r9, #2
    3c80:	0a00004c 	beq	3db8 <__svfscanf_r+0x14b4>
    3c84:	e51f03a4 	ldr	r0, [pc, #-932]	; 38e8 <__svfscanf_r+0xfe4>
    3c88:	e59dc020 	ldr	r12, [sp, #32]
    3c8c:	e15c0000 	cmp	r12, r0
    3c90:	e59d1018 	ldr	r1, [sp, #24]
    3c94:	e1a0000b 	mov	r0, r11
    3c98:	e59d3028 	ldr	r3, [sp, #40]	; 0x28
    3c9c:	0a00007a 	beq	3e8c <__svfscanf_r+0x1588>
    3ca0:	ebfff24e 	bl	5e0 <_strtoll_r>
    3ca4:	e59dc014 	ldr	r12, [sp, #20]
    3ca8:	e59c3000 	ldr	r3, [r12]
    3cac:	e28cc004 	add	r12, r12, #4
    3cb0:	e58dc014 	str	r12, [sp, #20]
    3cb4:	e8830003 	stm	r3, {r0, r1}
    3cb8:	eafffeef 	b	387c <__svfscanf_r+0xf78>
    3cbc:	e58d3008 	str	r3, [sp, #8]
    3cc0:	eb000c7a 	bl	6eb0 <__locale_mb_cur_max>
    3cc4:	e59d3008 	ldr	r3, [sp, #8]
    3cc8:	e1500003 	cmp	r0, r3
    3ccc:	0afffd0f 	beq	3110 <__svfscanf_r+0x80c>
    3cd0:	e5951000 	ldr	r1, [r5]
    3cd4:	e4d12001 	ldrb	r2, [r1], #1
    3cd8:	e5950004 	ldr	r0, [r5, #4]
    3cdc:	e59dc01c 	ldr	r12, [sp, #28]
    3ce0:	e5851000 	str	r1, [r5]
    3ce4:	e28d1e2b 	add	r1, sp, #688	; 0x2b0
    3ce8:	e58dc000 	str	r12, [sp]
    3cec:	e2400001 	sub	r0, r0, #1
    3cf0:	e081c003 	add	r12, r1, r3
    3cf4:	e2837001 	add	r7, r3, #1
    3cf8:	e5850004 	str	r0, [r5, #4]
    3cfc:	e54c2160 	strb	r2, [r12, #-352]	; 0xfffffea0
    3d00:	e1a03007 	mov	r3, r7
    3d04:	e1a0000b 	mov	r0, r11
    3d08:	e1a01009 	mov	r1, r9
    3d0c:	e28d2e15 	add	r2, sp, #336	; 0x150
    3d10:	eb000ea3 	bl	77a4 <_mbrtowc_r>
    3d14:	e3700001 	cmn	r0, #1
    3d18:	0afffcfc 	beq	3110 <__svfscanf_r+0x80c>
    3d1c:	e3500000 	cmp	r0, #0
    3d20:	05890000 	streq	r0, [r9]
    3d24:	1a000012 	bne	3d74 <__svfscanf_r+0x1470>
    3d28:	eb000c38 	bl	6e10 <iswspace>
    3d2c:	e3500000 	cmp	r0, #0
    3d30:	0a000016 	beq	3d90 <__svfscanf_r+0x148c>
    3d34:	e3570000 	cmp	r7, #0
    3d38:	0affff37 	beq	3a1c <__svfscanf_r+0x1118>
    3d3c:	e28d2e15 	add	r2, sp, #336	; 0x150
    3d40:	e0824007 	add	r4, r2, r7
    3d44:	e2477001 	sub	r7, r7, #1
    3d48:	e1a0000b 	mov	r0, r11
    3d4c:	e5741001 	ldrb	r1, [r4, #-1]!
    3d50:	e1a02005 	mov	r2, r5
    3d54:	eb00260a 	bl	d584 <_ungetc_r>
    3d58:	e3570000 	cmp	r7, #0
    3d5c:	1afffff8 	bne	3d44 <__svfscanf_r+0x1440>
    3d60:	eaffff2d 	b	3a1c <__svfscanf_r+0x1118>
    3d64:	eb00159b 	bl	93d8 <nanf>
    3d68:	e58d7014 	str	r7, [sp, #20]
    3d6c:	e5840000 	str	r0, [r4]
    3d70:	eafffdcc 	b	34a8 <__svfscanf_r+0xba4>
    3d74:	e3700002 	cmn	r0, #2
    3d78:	1a00000c 	bne	3db0 <__svfscanf_r+0x14ac>
    3d7c:	e5953004 	ldr	r3, [r5, #4]
    3d80:	e3530000 	cmp	r3, #0
    3d84:	da000038 	ble	3e6c <__svfscanf_r+0x1568>
    3d88:	e1a03007 	mov	r3, r7
    3d8c:	eaffff19 	b	39f8 <__svfscanf_r+0x10f4>
    3d90:	e59dc018 	ldr	r12, [sp, #24]
    3d94:	e35c0000 	cmp	r12, #0
    3d98:	e08aa007 	add	r10, r10, r7
    3d9c:	e2444001 	sub	r4, r4, #1
    3da0:	02899004 	addeq	r9, r9, #4
    3da4:	01a0700c 	moveq	r7, r12
    3da8:	11a07000 	movne	r7, r0
    3dac:	eafffff2 	b	3d7c <__svfscanf_r+0x1478>
    3db0:	e5990000 	ldr	r0, [r9]
    3db4:	eaffffdb 	b	3d28 <__svfscanf_r+0x1424>
    3db8:	e59dc014 	ldr	r12, [sp, #20]
    3dbc:	e59c3000 	ldr	r3, [r12]
    3dc0:	e28cc004 	add	r12, r12, #4
    3dc4:	e5830000 	str	r0, [r3]
    3dc8:	e58dc014 	str	r12, [sp, #20]
    3dcc:	eafffeaa 	b	387c <__svfscanf_r+0xf78>
    3dd0:	e59d9018 	ldr	r9, [sp, #24]
    3dd4:	e1530009 	cmp	r3, r9
    3dd8:	9afffcd2 	bls	3128 <__svfscanf_r+0x824>
    3ddc:	e1a04003 	mov	r4, r3
    3de0:	e5741001 	ldrb	r1, [r4, #-1]!
    3de4:	e1a0000b 	mov	r0, r11
    3de8:	e1a02005 	mov	r2, r5
    3dec:	eb0025e4 	bl	d584 <_ungetc_r>
    3df0:	e1540009 	cmp	r4, r9
    3df4:	1afffff9 	bne	3de0 <__svfscanf_r+0x14dc>
    3df8:	eafffcca 	b	3128 <__svfscanf_r+0x824>
    3dfc:	e59d9018 	ldr	r9, [sp, #24]
    3e00:	e1530009 	cmp	r3, r9
    3e04:	81a04003 	movhi	r4, r3
    3e08:	9afffcc6 	bls	3128 <__svfscanf_r+0x824>
    3e0c:	e5741001 	ldrb	r1, [r4, #-1]!
    3e10:	e1a0000b 	mov	r0, r11
    3e14:	e1a02005 	mov	r2, r5
    3e18:	eb0025d9 	bl	d584 <_ungetc_r>
    3e1c:	e1540009 	cmp	r4, r9
    3e20:	1afffff9 	bne	3e0c <__svfscanf_r+0x1508>
    3e24:	eafffcbf 	b	3128 <__svfscanf_r+0x824>
    3e28:	e59d9018 	ldr	r9, [sp, #24]
    3e2c:	e1530009 	cmp	r3, r9
    3e30:	9afffcbc 	bls	3128 <__svfscanf_r+0x824>
    3e34:	e1a04003 	mov	r4, r3
    3e38:	e5741001 	ldrb	r1, [r4, #-1]!
    3e3c:	e1a0000b 	mov	r0, r11
    3e40:	e1a02005 	mov	r2, r5
    3e44:	eb0025ce 	bl	d584 <_ungetc_r>
    3e48:	e1540009 	cmp	r4, r9
    3e4c:	1afffff9 	bne	3e38 <__svfscanf_r+0x1534>
    3e50:	eafffcb4 	b	3128 <__svfscanf_r+0x824>
    3e54:	e58d601c 	str	r6, [sp, #28]
    3e58:	e1a0100b 	mov	r1, r11
    3e5c:	e59d602c 	ldr	r6, [sp, #44]	; 0x2c
    3e60:	e1a0b003 	mov	r11, r3
    3e64:	e1a03009 	mov	r3, r9
    3e68:	eafffd4b 	b	339c <__svfscanf_r+0xa98>
    3e6c:	e1a0000b 	mov	r0, r11
    3e70:	e1a01005 	mov	r1, r5
    3e74:	eb00147e 	bl	9074 <__srefill_r>
    3e78:	e3500000 	cmp	r0, #0
    3e7c:	0affffc1 	beq	3d88 <__svfscanf_r+0x1484>
    3e80:	e3570000 	cmp	r7, #0
    3e84:	1afffca1 	bne	3110 <__svfscanf_r+0x80c>
    3e88:	eafffee3 	b	3a1c <__svfscanf_r+0x1118>
    3e8c:	eb001d29 	bl	b338 <_strtoull_r>
    3e90:	eaffff83 	b	3ca4 <__svfscanf_r+0x13a0>

00003e94 <vfscanf>:
    3e94:	e59f3040 	ldr	r3, [pc, #64]	; 3edc <vfscanf+0x48>
    3e98:	e92d41f0 	push	{r4, r5, r6, r7, r8, lr}
    3e9c:	e5934000 	ldr	r4, [r3]
    3ea0:	e3540000 	cmp	r4, #0
    3ea4:	e1a07000 	mov	r7, r0
    3ea8:	e1a06001 	mov	r6, r1
    3eac:	e1a05002 	mov	r5, r2
    3eb0:	0a000003 	beq	3ec4 <vfscanf+0x30>
    3eb4:	e5943038 	ldr	r3, [r4, #56]	; 0x38
    3eb8:	e3530000 	cmp	r3, #0
    3ebc:	01a00004 	moveq	r0, r4
    3ec0:	0b00082c 	bleq	5f78 <__sinit>
    3ec4:	e1a00004 	mov	r0, r4
    3ec8:	e1a01007 	mov	r1, r7
    3ecc:	e1a02006 	mov	r2, r6
    3ed0:	e1a03005 	mov	r3, r5
    3ed4:	e8bd41f0 	pop	{r4, r5, r6, r7, r8, lr}
    3ed8:	eafffa89 	b	2904 <__svfscanf_r>
    3edc:	00013830 	.word	0x00013830

00003ee0 <__svfscanf>:
    3ee0:	e59fc01c 	ldr	r12, [pc, #28]	; 3f04 <__svfscanf+0x24>
    3ee4:	e52d4004 	push	{r4}		; (str r4, [sp, #-4]!)
    3ee8:	e1a04001 	mov	r4, r1
    3eec:	e1a03002 	mov	r3, r2
    3ef0:	e1a01000 	mov	r1, r0
    3ef4:	e1a02004 	mov	r2, r4
    3ef8:	e59c0000 	ldr	r0, [r12]
    3efc:	e49d4004 	pop	{r4}		; (ldr r4, [sp], #4)
    3f00:	eafffa7f 	b	2904 <__svfscanf_r>
    3f04:	00013830 	.word	0x00013830

00003f08 <_vfscanf_r>:
    3f08:	e92d4010 	push	{r4, lr}
    3f0c:	e2504000 	subs	r4, r0, #0
    3f10:	e24dd010 	sub	sp, sp, #16
    3f14:	0a000009 	beq	3f40 <_vfscanf_r+0x38>
    3f18:	e594c038 	ldr	r12, [r4, #56]	; 0x38
    3f1c:	e35c0000 	cmp	r12, #0
    3f20:	1a000006 	bne	3f40 <_vfscanf_r+0x38>
    3f24:	e58d100c 	str	r1, [sp, #12]
    3f28:	e58d2008 	str	r2, [sp, #8]
    3f2c:	e58d3004 	str	r3, [sp, #4]
    3f30:	eb000810 	bl	5f78 <__sinit>
    3f34:	e59d3004 	ldr	r3, [sp, #4]
    3f38:	e59d2008 	ldr	r2, [sp, #8]
    3f3c:	e59d100c 	ldr	r1, [sp, #12]
    3f40:	e1a00004 	mov	r0, r4
    3f44:	e28dd010 	add	sp, sp, #16
    3f48:	e8bd4010 	pop	{r4, lr}
    3f4c:	eafffa6c 	b	2904 <__svfscanf_r>

00003f50 <__swsetup_r>:
    3f50:	e92d4038 	push	{r3, r4, r5, lr}
    3f54:	e59f314c 	ldr	r3, [pc, #332]	; 40a8 <__swsetup_r+0x158>
    3f58:	e5933000 	ldr	r3, [r3]
    3f5c:	e3530000 	cmp	r3, #0
    3f60:	e1a05000 	mov	r5, r0
    3f64:	e1a04001 	mov	r4, r1
    3f68:	0a000002 	beq	3f78 <__swsetup_r+0x28>
    3f6c:	e5932038 	ldr	r2, [r3, #56]	; 0x38
    3f70:	e3520000 	cmp	r2, #0
    3f74:	0a000032 	beq	4044 <__swsetup_r+0xf4>
    3f78:	e1d4c0bc 	ldrh	r12, [r4, #12]
    3f7c:	e31c0008 	tst	r12, #8
    3f80:	e1a0300c 	mov	r3, r12
    3f84:	0a00000c 	beq	3fbc <__swsetup_r+0x6c>
    3f88:	e5942010 	ldr	r2, [r4, #16]
    3f8c:	e3520000 	cmp	r2, #0
    3f90:	0a000012 	beq	3fe0 <__swsetup_r+0x90>
    3f94:	e2131001 	ands	r1, r3, #1
    3f98:	1a000019 	bne	4004 <__swsetup_r+0xb4>
    3f9c:	e3130002 	tst	r3, #2
    3fa0:	05941014 	ldreq	r1, [r4, #20]
    3fa4:	e3520000 	cmp	r2, #0
    3fa8:	e5841008 	str	r1, [r4, #8]
    3fac:	13a00000 	movne	r0, #0
    3fb0:	0a00001b 	beq	4024 <__swsetup_r+0xd4>
    3fb4:	e8bd4038 	pop	{r3, r4, r5, lr}
    3fb8:	e12fff1e 	bx	lr
    3fbc:	e31c0010 	tst	r12, #16
    3fc0:	0a000032 	beq	4090 <__swsetup_r+0x140>
    3fc4:	e31c0004 	tst	r12, #4
    3fc8:	1a000020 	bne	4050 <__swsetup_r+0x100>
    3fcc:	e5942010 	ldr	r2, [r4, #16]
    3fd0:	e38c3008 	orr	r3, r12, #8
    3fd4:	e3520000 	cmp	r2, #0
    3fd8:	e1c430bc 	strh	r3, [r4, #12]
    3fdc:	1affffec 	bne	3f94 <__swsetup_r+0x44>
    3fe0:	e2031d0a 	and	r1, r3, #640	; 0x280
    3fe4:	e3510c02 	cmp	r1, #512	; 0x200
    3fe8:	0affffe9 	beq	3f94 <__swsetup_r+0x44>
    3fec:	e1a00005 	mov	r0, r5
    3ff0:	e1a01004 	mov	r1, r4
    3ff4:	eb000bc2 	bl	6f04 <__smakebuf_r>
    3ff8:	e1d430bc 	ldrh	r3, [r4, #12]
    3ffc:	e5942010 	ldr	r2, [r4, #16]
    4000:	eaffffe3 	b	3f94 <__swsetup_r+0x44>
    4004:	e5941014 	ldr	r1, [r4, #20]
    4008:	e3a03000 	mov	r3, #0
    400c:	e2611000 	rsb	r1, r1, #0
    4010:	e3520000 	cmp	r2, #0
    4014:	e5841018 	str	r1, [r4, #24]
    4018:	e5843008 	str	r3, [r4, #8]
    401c:	13a00000 	movne	r0, #0
    4020:	1affffe3 	bne	3fb4 <__swsetup_r+0x64>
    4024:	e1d430bc 	ldrh	r3, [r4, #12]
    4028:	e3130080 	tst	r3, #128	; 0x80
    402c:	13833040 	orrne	r3, r3, #64	; 0x40
    4030:	11c430bc 	strhne	r3, [r4, #12]
    4034:	13e00000 	mvnne	r0, #0
    4038:	01a00002 	moveq	r0, r2
    403c:	e8bd4038 	pop	{r3, r4, r5, lr}
    4040:	e12fff1e 	bx	lr
    4044:	e1a00003 	mov	r0, r3
    4048:	eb0007ca 	bl	5f78 <__sinit>
    404c:	eaffffc9 	b	3f78 <__swsetup_r+0x28>
    4050:	e5941030 	ldr	r1, [r4, #48]	; 0x30
    4054:	e3510000 	cmp	r1, #0
    4058:	0a000007 	beq	407c <__swsetup_r+0x12c>
    405c:	e2843040 	add	r3, r4, #64	; 0x40
    4060:	e1510003 	cmp	r1, r3
    4064:	0a000002 	beq	4074 <__swsetup_r+0x124>
    4068:	e1a00005 	mov	r0, r5
    406c:	eb000954 	bl	65c4 <_free_r>
    4070:	e1d4c0bc 	ldrh	r12, [r4, #12]
    4074:	e3a03000 	mov	r3, #0
    4078:	e5843030 	str	r3, [r4, #48]	; 0x30
    407c:	e5942010 	ldr	r2, [r4, #16]
    4080:	e3a03000 	mov	r3, #0
    4084:	e3ccc024 	bic	r12, r12, #36	; 0x24
    4088:	e884000c 	stm	r4, {r2, r3}
    408c:	eaffffcf 	b	3fd0 <__swsetup_r+0x80>
    4090:	e38cc040 	orr	r12, r12, #64	; 0x40
    4094:	e3a03009 	mov	r3, #9
    4098:	e5853000 	str	r3, [r5]
    409c:	e3e00000 	mvn	r0, #0
    40a0:	e1c4c0bc 	strh	r12, [r4, #12]
    40a4:	eaffffc2 	b	3fb4 <__swsetup_r+0x64>
    40a8:	00013830 	.word	0x00013830

000040ac <__register_exitproc>:
    40ac:	e59fc0e0 	ldr	r12, [pc, #224]	; 4194 <__register_exitproc+0xe8>
    40b0:	e92d4070 	push	{r4, r5, r6, lr}
    40b4:	e59c5000 	ldr	r5, [r12]
    40b8:	e595c148 	ldr	r12, [r5, #328]	; 0x148
    40bc:	e35c0000 	cmp	r12, #0
    40c0:	0285cf53 	addeq	r12, r5, #332	; 0x14c
    40c4:	e59c4004 	ldr	r4, [r12, #4]
    40c8:	0585c148 	streq	r12, [r5, #328]	; 0x148
    40cc:	e354001f 	cmp	r4, #31
    40d0:	e24dd010 	sub	sp, sp, #16
    40d4:	e1a06000 	mov	r6, r0
    40d8:	da000016 	ble	4138 <__register_exitproc+0x8c>
    40dc:	e59f00b4 	ldr	r0, [pc, #180]	; 4198 <__register_exitproc+0xec>
    40e0:	e3500000 	cmp	r0, #0
    40e4:	1a000003 	bne	40f8 <__register_exitproc+0x4c>
    40e8:	e3e00000 	mvn	r0, #0
    40ec:	e28dd010 	add	sp, sp, #16
    40f0:	e8bd4070 	pop	{r4, r5, r6, lr}
    40f4:	e12fff1e 	bx	lr
    40f8:	e3a00e19 	mov	r0, #400	; 0x190
    40fc:	e58d100c 	str	r1, [sp, #12]
    4100:	e58d2008 	str	r2, [sp, #8]
    4104:	e58d3004 	str	r3, [sp, #4]
    4108:	e320f000 	nop	{0}
    410c:	e250c000 	subs	r12, r0, #0
    4110:	e59d100c 	ldr	r1, [sp, #12]
    4114:	e59d2008 	ldr	r2, [sp, #8]
    4118:	e59d3004 	ldr	r3, [sp, #4]
    411c:	0afffff1 	beq	40e8 <__register_exitproc+0x3c>
    4120:	e5950148 	ldr	r0, [r5, #328]	; 0x148
    4124:	e3a04000 	mov	r4, #0
    4128:	e88c0011 	stm	r12, {r0, r4}
    412c:	e585c148 	str	r12, [r5, #328]	; 0x148
    4130:	e58c4188 	str	r4, [r12, #392]	; 0x188
    4134:	e58c418c 	str	r4, [r12, #396]	; 0x18c
    4138:	e3560000 	cmp	r6, #0
    413c:	1a000007 	bne	4160 <__register_exitproc+0xb4>
    4140:	e2843001 	add	r3, r4, #1
    4144:	e3a00000 	mov	r0, #0
    4148:	e2844002 	add	r4, r4, #2
    414c:	e58c3004 	str	r3, [r12, #4]
    4150:	e78c1104 	str	r1, [r12, r4, lsl #2]
    4154:	e28dd010 	add	sp, sp, #16
    4158:	e8bd4070 	pop	{r4, r5, r6, lr}
    415c:	e12fff1e 	bx	lr
    4160:	e3a05001 	mov	r5, #1
    4164:	e1a05415 	lsl	r5, r5, r4
    4168:	e08c0104 	add	r0, r12, r4, lsl #2
    416c:	e5802088 	str	r2, [r0, #136]	; 0x88
    4170:	e59c2188 	ldr	r2, [r12, #392]	; 0x188
    4174:	e1822005 	orr	r2, r2, r5
    4178:	e58c2188 	str	r2, [r12, #392]	; 0x188
    417c:	e5803108 	str	r3, [r0, #264]	; 0x108
    4180:	e3560002 	cmp	r6, #2
    4184:	059c318c 	ldreq	r3, [r12, #396]	; 0x18c
    4188:	01835005 	orreq	r5, r3, r5
    418c:	058c518c 	streq	r5, [r12, #396]	; 0x18c
    4190:	eaffffea 	b	4140 <__register_exitproc+0x94>
    4194:	00013428 	.word	0x00013428
    4198:	00000000 	.word	0x00000000

0000419c <__call_exitprocs>:
    419c:	e92d4ff0 	push	{r4, r5, r6, r7, r8, r9, r10, r11, lr}
    41a0:	e59f315c 	ldr	r3, [pc, #348]	; 4304 <__call_exitprocs+0x168>
    41a4:	e5933000 	ldr	r3, [r3]
    41a8:	e24dd014 	sub	sp, sp, #20
    41ac:	e2832f52 	add	r2, r3, #328	; 0x148
    41b0:	e58d3004 	str	r3, [sp, #4]
    41b4:	e58d0008 	str	r0, [sp, #8]
    41b8:	e58d200c 	str	r2, [sp, #12]
    41bc:	e1a07001 	mov	r7, r1
    41c0:	e3a09001 	mov	r9, #1
    41c4:	e59d3004 	ldr	r3, [sp, #4]
    41c8:	e5938148 	ldr	r8, [r3, #328]	; 0x148
    41cc:	e3580000 	cmp	r8, #0
    41d0:	0a000038 	beq	42b8 <__call_exitprocs+0x11c>
    41d4:	e59db00c 	ldr	r11, [sp, #12]
    41d8:	e5986004 	ldr	r6, [r8, #4]
    41dc:	e2564001 	subs	r4, r6, #1
    41e0:	50885106 	addpl	r5, r8, r6, lsl #2
    41e4:	52866002 	addpl	r6, r6, #2
    41e8:	52855f42 	addpl	r5, r5, #264	; 0x108
    41ec:	50886106 	addpl	r6, r8, r6, lsl #2
    41f0:	5a000008 	bpl	4218 <__call_exitprocs+0x7c>
    41f4:	ea00002c 	b	42ac <__call_exitprocs+0x110>
    41f8:	e5153004 	ldr	r3, [r5, #-4]
    41fc:	e1530007 	cmp	r3, r7
    4200:	0a000006 	beq	4220 <__call_exitprocs+0x84>
    4204:	e2444001 	sub	r4, r4, #1
    4208:	e3740001 	cmn	r4, #1
    420c:	e2455004 	sub	r5, r5, #4
    4210:	e2466004 	sub	r6, r6, #4
    4214:	0a000024 	beq	42ac <__call_exitprocs+0x110>
    4218:	e3570000 	cmp	r7, #0
    421c:	1afffff5 	bne	41f8 <__call_exitprocs+0x5c>
    4220:	e5983004 	ldr	r3, [r8, #4]
    4224:	e2433001 	sub	r3, r3, #1
    4228:	e1530004 	cmp	r3, r4
    422c:	e5163004 	ldr	r3, [r6, #-4]
    4230:	13a02000 	movne	r2, #0
    4234:	05884004 	streq	r4, [r8, #4]
    4238:	15062004 	strne	r2, [r6, #-4]
    423c:	e3530000 	cmp	r3, #0
    4240:	0affffef 	beq	4204 <__call_exitprocs+0x68>
    4244:	e1a02419 	lsl	r2, r9, r4
    4248:	e5981188 	ldr	r1, [r8, #392]	; 0x188
    424c:	e1120001 	tst	r2, r1
    4250:	e598a004 	ldr	r10, [r8, #4]
    4254:	0a00000d 	beq	4290 <__call_exitprocs+0xf4>
    4258:	e598118c 	ldr	r1, [r8, #396]	; 0x18c
    425c:	e1120001 	tst	r2, r1
    4260:	1a00000d 	bne	429c <__call_exitprocs+0x100>
    4264:	e59d0008 	ldr	r0, [sp, #8]
    4268:	e5151084 	ldr	r1, [r5, #-132]	; 0xffffff7c
    426c:	e1a0e00f 	mov	lr, pc
    4270:	e12fff13 	bx	r3
    4274:	e5983004 	ldr	r3, [r8, #4]
    4278:	e153000a 	cmp	r3, r10
    427c:	1affffd0 	bne	41c4 <__call_exitprocs+0x28>
    4280:	e59b3000 	ldr	r3, [r11]
    4284:	e1530008 	cmp	r3, r8
    4288:	0affffdd 	beq	4204 <__call_exitprocs+0x68>
    428c:	eaffffcc 	b	41c4 <__call_exitprocs+0x28>
    4290:	e1a0e00f 	mov	lr, pc
    4294:	e12fff13 	bx	r3
    4298:	eafffff5 	b	4274 <__call_exitprocs+0xd8>
    429c:	e5150084 	ldr	r0, [r5, #-132]	; 0xffffff7c
    42a0:	e1a0e00f 	mov	lr, pc
    42a4:	e12fff13 	bx	r3
    42a8:	eafffff1 	b	4274 <__call_exitprocs+0xd8>
    42ac:	e59f2054 	ldr	r2, [pc, #84]	; 4308 <__call_exitprocs+0x16c>
    42b0:	e3520000 	cmp	r2, #0
    42b4:	1a000002 	bne	42c4 <__call_exitprocs+0x128>
    42b8:	e28dd014 	add	sp, sp, #20
    42bc:	e8bd4ff0 	pop	{r4, r5, r6, r7, r8, r9, r10, r11, lr}
    42c0:	e12fff1e 	bx	lr
    42c4:	e5983004 	ldr	r3, [r8, #4]
    42c8:	e3530000 	cmp	r3, #0
    42cc:	e5983000 	ldr	r3, [r8]
    42d0:	1a000008 	bne	42f8 <__call_exitprocs+0x15c>
    42d4:	e3530000 	cmp	r3, #0
    42d8:	0a000006 	beq	42f8 <__call_exitprocs+0x15c>
    42dc:	e1a00008 	mov	r0, r8
    42e0:	e58b3000 	str	r3, [r11]
    42e4:	e320f000 	nop	{0}
    42e8:	e59b8000 	ldr	r8, [r11]
    42ec:	e3580000 	cmp	r8, #0
    42f0:	1affffb8 	bne	41d8 <__call_exitprocs+0x3c>
    42f4:	eaffffef 	b	42b8 <__call_exitprocs+0x11c>
    42f8:	e1a0b008 	mov	r11, r8
    42fc:	e1a08003 	mov	r8, r3
    4300:	eafffff9 	b	42ec <__call_exitprocs+0x150>
    4304:	00013428 	.word	0x00013428
    4308:	00000000 	.word	0x00000000

0000430c <register_fini>:
    430c:	e92d4008 	push	{r3, lr}
    4310:	e59f3010 	ldr	r3, [pc, #16]	; 4328 <register_fini+0x1c>
    4314:	e3530000 	cmp	r3, #0
    4318:	159f000c 	ldrne	r0, [pc, #12]	; 432c <register_fini+0x20>
    431c:	1bfff007 	blne	340 <atexit>
    4320:	e8bd4008 	pop	{r3, lr}
    4324:	e12fff1e 	bx	lr
    4328:	000137f0 	.word	0x000137f0
    432c:	00006230 	.word	0x00006230

00004330 <quorem>:
    4330:	e92d4ff0 	push	{r4, r5, r6, r7, r8, r9, r10, r11, lr}
    4334:	e5903010 	ldr	r3, [r0, #16]
    4338:	e5915010 	ldr	r5, [r1, #16]
    433c:	e1550003 	cmp	r5, r3
    4340:	e1a09000 	mov	r9, r0
    4344:	e24dd00c 	sub	sp, sp, #12
    4348:	e1a0a001 	mov	r10, r1
    434c:	c3a00000 	movgt	r0, #0
    4350:	ca00006b 	bgt	4504 <quorem+0x1d4>
    4354:	e2455001 	sub	r5, r5, #1
    4358:	e2814014 	add	r4, r1, #20
    435c:	e7941105 	ldr	r1, [r4, r5, lsl #2]
    4360:	e2898014 	add	r8, r9, #20
    4364:	e2811001 	add	r1, r1, #1
    4368:	e7980105 	ldr	r0, [r8, r5, lsl #2]
    436c:	eb0033fb 	bl	11360 <__aeabi_uidiv>
    4370:	e1a02105 	lsl	r2, r5, #2
    4374:	e0883002 	add	r3, r8, r2
    4378:	e2507000 	subs	r7, r0, #0
    437c:	e58d2000 	str	r2, [sp]
    4380:	e0846002 	add	r6, r4, r2
    4384:	e58d3004 	str	r3, [sp, #4]
    4388:	0a000030 	beq	4450 <quorem+0x120>
    438c:	e3a0c000 	mov	r12, #0
    4390:	e1a0000c 	mov	r0, r12
    4394:	e1a02004 	mov	r2, r4
    4398:	e1a03008 	mov	r3, r8
    439c:	e492e004 	ldr	lr, [r2], #4
    43a0:	e1a0b80e 	lsl	r11, lr, #16
    43a4:	e1a0182e 	lsr	r1, lr, #16
    43a8:	e1a0b82b 	lsr	r11, r11, #16
    43ac:	e02bcb97 	mla	r11, r7, r11, r12
    43b0:	e0010197 	mul	r1, r7, r1
    43b4:	e593e000 	ldr	lr, [r3]
    43b8:	e081182b 	add	r1, r1, r11, lsr #16
    43bc:	e1a0b80b 	lsl	r11, r11, #16
    43c0:	e040082b 	sub	r0, r0, r11, lsr #16
    43c4:	e1a0c80e 	lsl	r12, lr, #16
    43c8:	e1a0b801 	lsl	r11, r1, #16
    43cc:	e080c82c 	add	r12, r0, r12, lsr #16
    43d0:	e1a0082b 	lsr	r0, r11, #16
    43d4:	e060082e 	rsb	r0, r0, lr, lsr #16
    43d8:	e1a0b80c 	lsl	r11, r12, #16
    43dc:	e080084c 	add	r0, r0, r12, asr #16
    43e0:	e1a0c82b 	lsr	r12, r11, #16
    43e4:	e18cc800 	orr	r12, r12, r0, lsl #16
    43e8:	e1560002 	cmp	r6, r2
    43ec:	e483c004 	str	r12, [r3], #4
    43f0:	e1a00840 	asr	r0, r0, #16
    43f4:	e1a0c821 	lsr	r12, r1, #16
    43f8:	2affffe7 	bcs	439c <quorem+0x6c>
    43fc:	e59d2000 	ldr	r2, [sp]
    4400:	e7983002 	ldr	r3, [r8, r2]
    4404:	e3530000 	cmp	r3, #0
    4408:	1a000010 	bne	4450 <quorem+0x120>
    440c:	e59d2004 	ldr	r2, [sp, #4]
    4410:	e2423004 	sub	r3, r2, #4
    4414:	e1580003 	cmp	r8, r3
    4418:	2a00000b 	bcs	444c <quorem+0x11c>
    441c:	e5123004 	ldr	r3, [r2, #-4]
    4420:	e3530000 	cmp	r3, #0
    4424:	1a000008 	bne	444c <quorem+0x11c>
    4428:	e2423008 	sub	r3, r2, #8
    442c:	ea000003 	b	4440 <quorem+0x110>
    4430:	e5932000 	ldr	r2, [r3]
    4434:	e3520000 	cmp	r2, #0
    4438:	e2433004 	sub	r3, r3, #4
    443c:	1a000002 	bne	444c <quorem+0x11c>
    4440:	e1580003 	cmp	r8, r3
    4444:	e2455001 	sub	r5, r5, #1
    4448:	3afffff8 	bcc	4430 <quorem+0x100>
    444c:	e5895010 	str	r5, [r9, #16]
    4450:	e1a0100a 	mov	r1, r10
    4454:	e1a00009 	mov	r0, r9
    4458:	eb001032 	bl	8528 <__mcmp>
    445c:	e3500000 	cmp	r0, #0
    4460:	ba000026 	blt	4500 <quorem+0x1d0>
    4464:	e2877001 	add	r7, r7, #1
    4468:	e1a03008 	mov	r3, r8
    446c:	e3a02000 	mov	r2, #0
    4470:	e494c004 	ldr	r12, [r4], #4
    4474:	e5930000 	ldr	r0, [r3]
    4478:	e1a0180c 	lsl	r1, r12, #16
    447c:	e0422821 	sub	r2, r2, r1, lsr #16
    4480:	e1a01800 	lsl	r1, r0, #16
    4484:	e0821821 	add	r1, r2, r1, lsr #16
    4488:	e1a0c82c 	lsr	r12, r12, #16
    448c:	e06c2820 	rsb	r2, r12, r0, lsr #16
    4490:	e1a0a801 	lsl	r10, r1, #16
    4494:	e0822841 	add	r2, r2, r1, asr #16
    4498:	e1a0182a 	lsr	r1, r10, #16
    449c:	e1811802 	orr	r1, r1, r2, lsl #16
    44a0:	e1560004 	cmp	r6, r4
    44a4:	e4831004 	str	r1, [r3], #4
    44a8:	e1a02842 	asr	r2, r2, #16
    44ac:	2affffef 	bcs	4470 <quorem+0x140>
    44b0:	e7983105 	ldr	r3, [r8, r5, lsl #2]
    44b4:	e3530000 	cmp	r3, #0
    44b8:	e0883105 	add	r3, r8, r5, lsl #2
    44bc:	1a00000f 	bne	4500 <quorem+0x1d0>
    44c0:	e2432004 	sub	r2, r3, #4
    44c4:	e1580002 	cmp	r8, r2
    44c8:	2a00000b 	bcs	44fc <quorem+0x1cc>
    44cc:	e5132004 	ldr	r2, [r3, #-4]
    44d0:	e3520000 	cmp	r2, #0
    44d4:	1a000008 	bne	44fc <quorem+0x1cc>
    44d8:	e2433008 	sub	r3, r3, #8
    44dc:	ea000003 	b	44f0 <quorem+0x1c0>
    44e0:	e5932000 	ldr	r2, [r3]
    44e4:	e3520000 	cmp	r2, #0
    44e8:	e2433004 	sub	r3, r3, #4
    44ec:	1a000002 	bne	44fc <quorem+0x1cc>
    44f0:	e1580003 	cmp	r8, r3
    44f4:	e2455001 	sub	r5, r5, #1
    44f8:	3afffff8 	bcc	44e0 <quorem+0x1b0>
    44fc:	e5895010 	str	r5, [r9, #16]
    4500:	e1a00007 	mov	r0, r7
    4504:	e28dd00c 	add	sp, sp, #12
    4508:	e8bd4ff0 	pop	{r4, r5, r6, r7, r8, r9, r10, r11, lr}
    450c:	e12fff1e 	bx	lr

00004510 <_dtoa_r>:
    4510:	e92d4ff0 	push	{r4, r5, r6, r7, r8, r9, r10, r11, lr}
    4514:	e5901040 	ldr	r1, [r0, #64]	; 0x40
    4518:	e24dd074 	sub	sp, sp, #116	; 0x74
    451c:	e3510000 	cmp	r1, #0
    4520:	e1a04000 	mov	r4, r0
    4524:	e1a0a002 	mov	r10, r2
    4528:	e1a0b003 	mov	r11, r3
    452c:	e59d50a4 	ldr	r5, [sp, #164]	; 0xa4
    4530:	0a000007 	beq	4554 <_dtoa_r+0x44>
    4534:	e5903044 	ldr	r3, [r0, #68]	; 0x44
    4538:	e3a02001 	mov	r2, #1
    453c:	e1a02312 	lsl	r2, r2, r3
    4540:	e5813004 	str	r3, [r1, #4]
    4544:	e5812008 	str	r2, [r1, #8]
    4548:	eb000e3b 	bl	7e3c <_Bfree>
    454c:	e3a03000 	mov	r3, #0
    4550:	e5843040 	str	r3, [r4, #64]	; 0x40
    4554:	e35b0000 	cmp	r11, #0
    4558:	b3a03001 	movlt	r3, #1
    455c:	a3a03000 	movge	r3, #0
    4560:	b5853000 	strlt	r3, [r5]
    4564:	a5853000 	strge	r3, [r5]
    4568:	e59f3508 	ldr	r3, [pc, #1288]	; 4a78 <_dtoa_r+0x568>
    456c:	b3cb9102 	biclt	r9, r11, #-2147483648	; 0x80000000
    4570:	a1a0900b 	movge	r9, r11
    4574:	e1a02003 	mov	r2, r3
    4578:	e0093003 	and	r3, r9, r3
    457c:	b1a0b009 	movlt	r11, r9
    4580:	e1530002 	cmp	r3, r2
    4584:	0a000013 	beq	45d8 <_dtoa_r+0xc8>
    4588:	e1a0000a 	mov	r0, r10
    458c:	e1a0100b 	mov	r1, r11
    4590:	e3a02000 	mov	r2, #0
    4594:	e3a03000 	mov	r3, #0
    4598:	eb003617 	bl	11dfc <__aeabi_dcmpeq>
    459c:	e2508000 	subs	r8, r0, #0
    45a0:	0a00001e 	beq	4620 <_dtoa_r+0x110>
    45a4:	e59dc0a8 	ldr	r12, [sp, #168]	; 0xa8
    45a8:	e35c0000 	cmp	r12, #0
    45ac:	e59dc0a0 	ldr	r12, [sp, #160]	; 0xa0
    45b0:	e3a03001 	mov	r3, #1
    45b4:	e58c3000 	str	r3, [r12]
    45b8:	0a00009c 	beq	4830 <_dtoa_r+0x320>
    45bc:	e59f04b8 	ldr	r0, [pc, #1208]	; 4a7c <_dtoa_r+0x56c>
    45c0:	e59dc0a8 	ldr	r12, [sp, #168]	; 0xa8
    45c4:	e58c0000 	str	r0, [r12]
    45c8:	e2400001 	sub	r0, r0, #1
    45cc:	e28dd074 	add	sp, sp, #116	; 0x74
    45d0:	e8bd4ff0 	pop	{r4, r5, r6, r7, r8, r9, r10, r11, lr}
    45d4:	e12fff1e 	bx	lr
    45d8:	e59f34a0 	ldr	r3, [pc, #1184]	; 4a80 <_dtoa_r+0x570>
    45dc:	e59dc0a0 	ldr	r12, [sp, #160]	; 0xa0
    45e0:	e35a0000 	cmp	r10, #0
    45e4:	e58c3000 	str	r3, [r12]
    45e8:	0a00007e 	beq	47e8 <_dtoa_r+0x2d8>
    45ec:	e59f0490 	ldr	r0, [pc, #1168]	; 4a84 <_dtoa_r+0x574>
    45f0:	e59dc0a8 	ldr	r12, [sp, #168]	; 0xa8
    45f4:	e35c0000 	cmp	r12, #0
    45f8:	0afffff3 	beq	45cc <_dtoa_r+0xbc>
    45fc:	e5d03003 	ldrb	r3, [r0, #3]
    4600:	e59dc0a8 	ldr	r12, [sp, #168]	; 0xa8
    4604:	e3530000 	cmp	r3, #0
    4608:	12803008 	addne	r3, r0, #8
    460c:	02803003 	addeq	r3, r0, #3
    4610:	e58c3000 	str	r3, [r12]
    4614:	e28dd074 	add	sp, sp, #116	; 0x74
    4618:	e8bd4ff0 	pop	{r4, r5, r6, r7, r8, r9, r10, r11, lr}
    461c:	e12fff1e 	bx	lr
    4620:	e28d206c 	add	r2, sp, #108	; 0x6c
    4624:	e28d3068 	add	r3, sp, #104	; 0x68
    4628:	e88d000c 	stm	sp, {r2, r3}
    462c:	e1a00004 	mov	r0, r4
    4630:	e1a0200a 	mov	r2, r10
    4634:	e1a0300b 	mov	r3, r11
    4638:	eb001071 	bl	8804 <__d2b>
    463c:	e1b05a29 	lsrs	r5, r9, #20
    4640:	e58d0030 	str	r0, [sp, #48]	; 0x30
    4644:	1a00006f 	bne	4808 <_dtoa_r+0x2f8>
    4648:	e59d8068 	ldr	r8, [sp, #104]	; 0x68
    464c:	e59d506c 	ldr	r5, [sp, #108]	; 0x6c
    4650:	e3e03e41 	mvn	r3, #1040	; 0x410
    4654:	e0885005 	add	r5, r8, r5
    4658:	e1550003 	cmp	r5, r3
    465c:	a2850e41 	addge	r0, r5, #1040	; 0x410
    4660:	a2800002 	addge	r0, r0, #2
    4664:	a1a0003a 	lsrge	r0, r10, r0
    4668:	b59f0418 	ldrlt	r0, [pc, #1048]	; 4a88 <_dtoa_r+0x578>
    466c:	a283301f 	addge	r3, r3, #31
    4670:	a0653003 	rsbge	r3, r5, r3
    4674:	b0650000 	rsblt	r0, r5, r0
    4678:	a1800319 	orrge	r0, r0, r9, lsl r3
    467c:	b1a0001a 	lsllt	r0, r10, r0
    4680:	eb003443 	bl	11794 <__aeabi_ui2d>
    4684:	e3a0c001 	mov	r12, #1
    4688:	e58dc05c 	str	r12, [sp, #92]	; 0x5c
    468c:	e2455001 	sub	r5, r5, #1
    4690:	e241161f 	sub	r1, r1, #32505856	; 0x1f00000
    4694:	e3a02000 	mov	r2, #0
    4698:	e59f33ec 	ldr	r3, [pc, #1004]	; 4a8c <_dtoa_r+0x57c>
    469c:	eb003377 	bl	11480 <__aeabi_dsub>
    46a0:	e28f3fee 	add	r3, pc, #952	; 0x3b8
    46a4:	e893000c 	ldm	r3, {r2, r3}
    46a8:	eb003479 	bl	11894 <__aeabi_dmul>
    46ac:	e28f3fed 	add	r3, pc, #948	; 0x3b4
    46b0:	e893000c 	ldm	r3, {r2, r3}
    46b4:	eb003372 	bl	11484 <__adddf3>
    46b8:	e1a06000 	mov	r6, r0
    46bc:	e1a00005 	mov	r0, r5
    46c0:	e1a07001 	mov	r7, r1
    46c4:	eb00343b 	bl	117b8 <__aeabi_i2d>
    46c8:	e28f3e3a 	add	r3, pc, #928	; 0x3a0
    46cc:	e893000c 	ldm	r3, {r2, r3}
    46d0:	eb00346f 	bl	11894 <__aeabi_dmul>
    46d4:	e1a02000 	mov	r2, r0
    46d8:	e1a03001 	mov	r3, r1
    46dc:	e1a00006 	mov	r0, r6
    46e0:	e1a01007 	mov	r1, r7
    46e4:	eb003366 	bl	11484 <__adddf3>
    46e8:	e1a06000 	mov	r6, r0
    46ec:	e1a07001 	mov	r7, r1
    46f0:	eb0035df 	bl	11e74 <__aeabi_d2iz>
    46f4:	e1a01007 	mov	r1, r7
    46f8:	e58d0018 	str	r0, [sp, #24]
    46fc:	e3a02000 	mov	r2, #0
    4700:	e1a00006 	mov	r0, r6
    4704:	e3a03000 	mov	r3, #0
    4708:	eb0035c1 	bl	11e14 <__aeabi_dcmplt>
    470c:	e3500000 	cmp	r0, #0
    4710:	1a00019a 	bne	4d80 <_dtoa_r+0x870>
    4714:	e59dc018 	ldr	r12, [sp, #24]
    4718:	e35c0016 	cmp	r12, #22
    471c:	83a0c001 	movhi	r12, #1
    4720:	858dc044 	strhi	r12, [sp, #68]	; 0x44
    4724:	8a00000c 	bhi	475c <_dtoa_r+0x24c>
    4728:	e59f3370 	ldr	r3, [pc, #880]	; 4aa0 <_dtoa_r+0x590>
    472c:	e083318c 	add	r3, r3, r12, lsl #3
    4730:	e8930003 	ldm	r3, {r0, r1}
    4734:	e1a0200a 	mov	r2, r10
    4738:	e1a0300b 	mov	r3, r11
    473c:	eb0035c6 	bl	11e5c <__aeabi_dcmpgt>
    4740:	e3500000 	cmp	r0, #0
    4744:	159dc018 	ldrne	r12, [sp, #24]
    4748:	124cc001 	subne	r12, r12, #1
    474c:	158dc018 	strne	r12, [sp, #24]
    4750:	13a0c000 	movne	r12, #0
    4754:	158dc044 	strne	r12, [sp, #68]	; 0x44
    4758:	058d0044 	streq	r0, [sp, #68]	; 0x44
    475c:	e0655008 	rsb	r5, r5, r8
    4760:	e2555001 	subs	r5, r5, #1
    4764:	4265c000 	rsbmi	r12, r5, #0
    4768:	458dc02c 	strmi	r12, [sp, #44]	; 0x2c
    476c:	53a0c000 	movpl	r12, #0
    4770:	43a0c000 	movmi	r12, #0
    4774:	558dc02c 	strpl	r12, [sp, #44]	; 0x2c
    4778:	e58d5024 	str	r5, [sp, #36]	; 0x24
    477c:	458dc024 	strmi	r12, [sp, #36]	; 0x24
    4780:	e59dc018 	ldr	r12, [sp, #24]
    4784:	e35c0000 	cmp	r12, #0
    4788:	ba000186 	blt	4da8 <_dtoa_r+0x898>
    478c:	e59d1024 	ldr	r1, [sp, #36]	; 0x24
    4790:	e58dc040 	str	r12, [sp, #64]	; 0x40
    4794:	e081100c 	add	r1, r1, r12
    4798:	e3a0c000 	mov	r12, #0
    479c:	e58d1024 	str	r1, [sp, #36]	; 0x24
    47a0:	e58dc034 	str	r12, [sp, #52]	; 0x34
    47a4:	e59dc098 	ldr	r12, [sp, #152]	; 0x98
    47a8:	e35c0009 	cmp	r12, #9
    47ac:	8a000021 	bhi	4838 <_dtoa_r+0x328>
    47b0:	e35c0005 	cmp	r12, #5
    47b4:	c24cc004 	subgt	r12, r12, #4
    47b8:	c58dc098 	strgt	r12, [sp, #152]	; 0x98
    47bc:	e59dc098 	ldr	r12, [sp, #152]	; 0x98
    47c0:	e24c3002 	sub	r3, r12, #2
    47c4:	c3a05000 	movgt	r5, #0
    47c8:	d3a05001 	movle	r5, #1
    47cc:	e3530003 	cmp	r3, #3
    47d0:	979ff103 	ldrls	pc, [pc, r3, lsl #2]
    47d4:	ea000019 	b	4840 <_dtoa_r+0x330>
    47d8:	00004e50 	.word	0x00004e50
    47dc:	000051a8 	.word	0x000051a8
    47e0:	000051e4 	.word	0x000051e4
    47e4:	0000583c 	.word	0x0000583c
    47e8:	e3c904ff 	bic	r0, r9, #-16777216	; 0xff000000
    47ec:	e3c0060f 	bic	r0, r0, #15728640	; 0xf00000
    47f0:	e59f2298 	ldr	r2, [pc, #664]	; 4a90 <_dtoa_r+0x580>
    47f4:	e59f3288 	ldr	r3, [pc, #648]	; 4a84 <_dtoa_r+0x574>
    47f8:	e3500000 	cmp	r0, #0
    47fc:	01a00002 	moveq	r0, r2
    4800:	11a00003 	movne	r0, r3
    4804:	eaffff79 	b	45f0 <_dtoa_r+0xe0>
    4808:	e3cb34ff 	bic	r3, r11, #-16777216	; 0xff000000
    480c:	e3c3360f 	bic	r3, r3, #15728640	; 0xf00000
    4810:	e2455fff 	sub	r5, r5, #1020	; 0x3fc
    4814:	e38335ff 	orr	r3, r3, #1069547520	; 0x3fc00000
    4818:	e58d805c 	str	r8, [sp, #92]	; 0x5c
    481c:	e1a0000a 	mov	r0, r10
    4820:	e2455003 	sub	r5, r5, #3
    4824:	e3831603 	orr	r1, r3, #3145728	; 0x300000
    4828:	e59d8068 	ldr	r8, [sp, #104]	; 0x68
    482c:	eaffff98 	b	4694 <_dtoa_r+0x184>
    4830:	e59f025c 	ldr	r0, [pc, #604]	; 4a94 <_dtoa_r+0x584>
    4834:	eaffff64 	b	45cc <_dtoa_r+0xbc>
    4838:	e3a0c000 	mov	r12, #0
    483c:	e58dc098 	str	r12, [sp, #152]	; 0x98
    4840:	e3a05000 	mov	r5, #0
    4844:	e5845044 	str	r5, [r4, #68]	; 0x44
    4848:	e1a01005 	mov	r1, r5
    484c:	e1a00004 	mov	r0, r4
    4850:	eb000d56 	bl	7db0 <_Balloc>
    4854:	e3e0c000 	mvn	r12, #0
    4858:	e58dc03c 	str	r12, [sp, #60]	; 0x3c
    485c:	e58dc028 	str	r12, [sp, #40]	; 0x28
    4860:	e3a0c001 	mov	r12, #1
    4864:	e58d0020 	str	r0, [sp, #32]
    4868:	e58d509c 	str	r5, [sp, #156]	; 0x9c
    486c:	e5840040 	str	r0, [r4, #64]	; 0x40
    4870:	e58dc038 	str	r12, [sp, #56]	; 0x38
    4874:	e59d306c 	ldr	r3, [sp, #108]	; 0x6c
    4878:	e3530000 	cmp	r3, #0
    487c:	ba00009b 	blt	4af0 <_dtoa_r+0x5e0>
    4880:	e59dc018 	ldr	r12, [sp, #24]
    4884:	e35c000e 	cmp	r12, #14
    4888:	ca000098 	bgt	4af0 <_dtoa_r+0x5e0>
    488c:	e59d109c 	ldr	r1, [sp, #156]	; 0x9c
    4890:	e59dc028 	ldr	r12, [sp, #40]	; 0x28
    4894:	e1a02fa1 	lsr	r2, r1, #31
    4898:	e35c0000 	cmp	r12, #0
    489c:	c3a02000 	movgt	r2, #0
    48a0:	d2022001 	andle	r2, r2, #1
    48a4:	e59f31f4 	ldr	r3, [pc, #500]	; 4aa0 <_dtoa_r+0x590>
    48a8:	e59dc018 	ldr	r12, [sp, #24]
    48ac:	e083318c 	add	r3, r3, r12, lsl #3
    48b0:	e3520000 	cmp	r2, #0
    48b4:	e8930006 	ldm	r3, {r1, r2}
    48b8:	e58d1010 	str	r1, [sp, #16]
    48bc:	e58d2014 	str	r2, [sp, #20]
    48c0:	1a000341 	bne	55cc <_dtoa_r+0x10bc>
    48c4:	e28d3010 	add	r3, sp, #16
    48c8:	e893000c 	ldm	r3, {r2, r3}
    48cc:	e1a0000a 	mov	r0, r10
    48d0:	e1a0100b 	mov	r1, r11
    48d4:	eb003492 	bl	11b24 <__aeabi_ddiv>
    48d8:	eb003565 	bl	11e74 <__aeabi_d2iz>
    48dc:	e1a08000 	mov	r8, r0
    48e0:	eb0033b4 	bl	117b8 <__aeabi_i2d>
    48e4:	e28d3010 	add	r3, sp, #16
    48e8:	e893000c 	ldm	r3, {r2, r3}
    48ec:	eb0033e8 	bl	11894 <__aeabi_dmul>
    48f0:	e1a03001 	mov	r3, r1
    48f4:	e1a02000 	mov	r2, r0
    48f8:	e1a0100b 	mov	r1, r11
    48fc:	e1a0000a 	mov	r0, r10
    4900:	eb0032de 	bl	11480 <__aeabi_dsub>
    4904:	e59dc028 	ldr	r12, [sp, #40]	; 0x28
    4908:	e35c0001 	cmp	r12, #1
    490c:	e59dc020 	ldr	r12, [sp, #32]
    4910:	e28cc001 	add	r12, r12, #1
    4914:	e58dc058 	str	r12, [sp, #88]	; 0x58
    4918:	e59dc020 	ldr	r12, [sp, #32]
    491c:	e2883030 	add	r3, r8, #48	; 0x30
    4920:	e1a06000 	mov	r6, r0
    4924:	e1a07001 	mov	r7, r1
    4928:	e5cc3000 	strb	r3, [r12]
    492c:	e59d5058 	ldr	r5, [sp, #88]	; 0x58
    4930:	0a000035 	beq	4a0c <_dtoa_r+0x4fc>
    4934:	e3a02000 	mov	r2, #0
    4938:	e59f3168 	ldr	r3, [pc, #360]	; 4aa8 <_dtoa_r+0x598>
    493c:	eb0033d4 	bl	11894 <__aeabi_dmul>
    4940:	e3a02000 	mov	r2, #0
    4944:	e3a03000 	mov	r3, #0
    4948:	e1a06000 	mov	r6, r0
    494c:	e1a07001 	mov	r7, r1
    4950:	eb003529 	bl	11dfc <__aeabi_dcmpeq>
    4954:	e3500000 	cmp	r0, #0
    4958:	1a00049a 	bne	5bc8 <_dtoa_r+0x16b8>
    495c:	e59dc020 	ldr	r12, [sp, #32]
    4960:	e59d1028 	ldr	r1, [sp, #40]	; 0x28
    4964:	e58d401c 	str	r4, [sp, #28]
    4968:	e08c9001 	add	r9, r12, r1
    496c:	e28ca002 	add	r10, r12, #2
    4970:	e28d5010 	add	r5, sp, #16
    4974:	e8950030 	ldm	r5, {r4, r5}
    4978:	ea000008 	b	49a0 <_dtoa_r+0x490>
    497c:	eb0033c4 	bl	11894 <__aeabi_dmul>
    4980:	e3a02000 	mov	r2, #0
    4984:	e3a03000 	mov	r3, #0
    4988:	e1a06000 	mov	r6, r0
    498c:	e1a07001 	mov	r7, r1
    4990:	eb003519 	bl	11dfc <__aeabi_dcmpeq>
    4994:	e3500000 	cmp	r0, #0
    4998:	e28aa001 	add	r10, r10, #1
    499c:	1a000410 	bne	59e4 <_dtoa_r+0x14d4>
    49a0:	e1a02004 	mov	r2, r4
    49a4:	e1a03005 	mov	r3, r5
    49a8:	e1a00006 	mov	r0, r6
    49ac:	e1a01007 	mov	r1, r7
    49b0:	eb00345b 	bl	11b24 <__aeabi_ddiv>
    49b4:	eb00352e 	bl	11e74 <__aeabi_d2iz>
    49b8:	e1a08000 	mov	r8, r0
    49bc:	eb00337d 	bl	117b8 <__aeabi_i2d>
    49c0:	e1a02004 	mov	r2, r4
    49c4:	e1a03005 	mov	r3, r5
    49c8:	eb0033b1 	bl	11894 <__aeabi_dmul>
    49cc:	e1a02000 	mov	r2, r0
    49d0:	e1a03001 	mov	r3, r1
    49d4:	e1a00006 	mov	r0, r6
    49d8:	e1a01007 	mov	r1, r7
    49dc:	eb0032a7 	bl	11480 <__aeabi_dsub>
    49e0:	e288c030 	add	r12, r8, #48	; 0x30
    49e4:	e15a0009 	cmp	r10, r9
    49e8:	e1a06000 	mov	r6, r0
    49ec:	e1a07001 	mov	r7, r1
    49f0:	e3a02000 	mov	r2, #0
    49f4:	e59f30ac 	ldr	r3, [pc, #172]	; 4aa8 <_dtoa_r+0x598>
    49f8:	e54ac001 	strb	r12, [r10, #-1]
    49fc:	e1a0b00a 	mov	r11, r10
    4a00:	1affffdd 	bne	497c <_dtoa_r+0x46c>
    4a04:	e59d401c 	ldr	r4, [sp, #28]
    4a08:	e1a0500a 	mov	r5, r10
    4a0c:	e1a02006 	mov	r2, r6
    4a10:	e1a03007 	mov	r3, r7
    4a14:	e1a00006 	mov	r0, r6
    4a18:	e1a01007 	mov	r1, r7
    4a1c:	eb003298 	bl	11484 <__adddf3>
    4a20:	e1a06000 	mov	r6, r0
    4a24:	e1a07001 	mov	r7, r1
    4a28:	e1a02006 	mov	r2, r6
    4a2c:	e28d1010 	add	r1, sp, #16
    4a30:	e8910003 	ldm	r1, {r0, r1}
    4a34:	e1a03007 	mov	r3, r7
    4a38:	eb0034f5 	bl	11e14 <__aeabi_dcmplt>
    4a3c:	e3500000 	cmp	r0, #0
    4a40:	0a000429 	beq	5aec <_dtoa_r+0x15dc>
    4a44:	e59dc018 	ldr	r12, [sp, #24]
    4a48:	e58dc060 	str	r12, [sp, #96]	; 0x60
    4a4c:	e59d9020 	ldr	r9, [sp, #32]
    4a50:	e5558001 	ldrb	r8, [r5, #-1]
    4a54:	e59d1058 	ldr	r1, [sp, #88]	; 0x58
    4a58:	ea000019 	b	4ac4 <_dtoa_r+0x5b4>
    4a5c:	e1a00000 	nop			; (mov r0, r0)
    4a60:	636f4361 	.word	0x636f4361
    4a64:	3fd287a7 	.word	0x3fd287a7
    4a68:	8b60c8b3 	.word	0x8b60c8b3
    4a6c:	3fc68a28 	.word	0x3fc68a28
    4a70:	509f79fb 	.word	0x509f79fb
    4a74:	3fd34413 	.word	0x3fd34413
    4a78:	7ff00000 	.word	0x7ff00000
    4a7c:	00013495 	.word	0x00013495
    4a80:	0000270f 	.word	0x0000270f
    4a84:	000134d0 	.word	0x000134d0
    4a88:	fffffbee 	.word	0xfffffbee
    4a8c:	3ff80000 	.word	0x3ff80000
    4a90:	000134c4 	.word	0x000134c4
    4a94:	00013494 	.word	0x00013494
    4a98:	3ff00000 	.word	0x3ff00000
    4a9c:	000135e0 	.word	0x000135e0
    4aa0:	000134f0 	.word	0x000134f0
    4aa4:	40140000 	.word	0x40140000
    4aa8:	40240000 	.word	0x40240000
    4aac:	401c0000 	.word	0x401c0000
    4ab0:	3fe00000 	.word	0x3fe00000
    4ab4:	e1550001 	cmp	r5, r1
    4ab8:	0a000392 	beq	5908 <_dtoa_r+0x13f8>
    4abc:	e5558002 	ldrb	r8, [r5, #-2]
    4ac0:	e1a05003 	mov	r5, r3
    4ac4:	e3580039 	cmp	r8, #57	; 0x39
    4ac8:	e1a02005 	mov	r2, r5
    4acc:	e2453001 	sub	r3, r5, #1
    4ad0:	0afffff7 	beq	4ab4 <_dtoa_r+0x5a4>
    4ad4:	e59dc060 	ldr	r12, [sp, #96]	; 0x60
    4ad8:	e2882001 	add	r2, r8, #1
    4adc:	e58d5020 	str	r5, [sp, #32]
    4ae0:	e58dc018 	str	r12, [sp, #24]
    4ae4:	e20220ff 	and	r2, r2, #255	; 0xff
    4ae8:	e5c32000 	strb	r2, [r3]
    4aec:	ea00008e 	b	4d2c <_dtoa_r+0x81c>
    4af0:	e59dc038 	ldr	r12, [sp, #56]	; 0x38
    4af4:	e35c0000 	cmp	r12, #0
    4af8:	1a0000b3 	bne	4dcc <_dtoa_r+0x8bc>
    4afc:	e59d6034 	ldr	r6, [sp, #52]	; 0x34
    4b00:	e59d502c 	ldr	r5, [sp, #44]	; 0x2c
    4b04:	e59d8038 	ldr	r8, [sp, #56]	; 0x38
    4b08:	e59dc024 	ldr	r12, [sp, #36]	; 0x24
    4b0c:	e35c0000 	cmp	r12, #0
    4b10:	c3550000 	cmpgt	r5, #0
    4b14:	da000009 	ble	4b40 <_dtoa_r+0x630>
    4b18:	e1a0300c 	mov	r3, r12
    4b1c:	e59dc02c 	ldr	r12, [sp, #44]	; 0x2c
    4b20:	e1530005 	cmp	r3, r5
    4b24:	a1a03005 	movge	r3, r5
    4b28:	e063c00c 	rsb	r12, r3, r12
    4b2c:	e58dc02c 	str	r12, [sp, #44]	; 0x2c
    4b30:	e59dc024 	ldr	r12, [sp, #36]	; 0x24
    4b34:	e063c00c 	rsb	r12, r3, r12
    4b38:	e58dc024 	str	r12, [sp, #36]	; 0x24
    4b3c:	e0635005 	rsb	r5, r3, r5
    4b40:	e59dc034 	ldr	r12, [sp, #52]	; 0x34
    4b44:	e35c0000 	cmp	r12, #0
    4b48:	da000015 	ble	4ba4 <_dtoa_r+0x694>
    4b4c:	e59dc038 	ldr	r12, [sp, #56]	; 0x38
    4b50:	e35c0000 	cmp	r12, #0
    4b54:	0a000347 	beq	5878 <_dtoa_r+0x1368>
    4b58:	e3560000 	cmp	r6, #0
    4b5c:	da00000d 	ble	4b98 <_dtoa_r+0x688>
    4b60:	e1a01008 	mov	r1, r8
    4b64:	e1a02006 	mov	r2, r6
    4b68:	e1a00004 	mov	r0, r4
    4b6c:	eb000de9 	bl	8318 <__pow5mult>
    4b70:	e1a08000 	mov	r8, r0
    4b74:	e1a01008 	mov	r1, r8
    4b78:	e59d2030 	ldr	r2, [sp, #48]	; 0x30
    4b7c:	e1a00004 	mov	r0, r4
    4b80:	eb000d6a 	bl	8130 <__multiply>
    4b84:	e59d1030 	ldr	r1, [sp, #48]	; 0x30
    4b88:	e1a07000 	mov	r7, r0
    4b8c:	e1a00004 	mov	r0, r4
    4b90:	eb000ca9 	bl	7e3c <_Bfree>
    4b94:	e58d7030 	str	r7, [sp, #48]	; 0x30
    4b98:	e59dc034 	ldr	r12, [sp, #52]	; 0x34
    4b9c:	e05c2006 	subs	r2, r12, r6
    4ba0:	1a000378 	bne	5988 <_dtoa_r+0x1478>
    4ba4:	e1a00004 	mov	r0, r4
    4ba8:	e3a01001 	mov	r1, #1
    4bac:	eb000d56 	bl	810c <__i2b>
    4bb0:	e59dc040 	ldr	r12, [sp, #64]	; 0x40
    4bb4:	e35c0000 	cmp	r12, #0
    4bb8:	e1a06000 	mov	r6, r0
    4bbc:	da000004 	ble	4bd4 <_dtoa_r+0x6c4>
    4bc0:	e1a01000 	mov	r1, r0
    4bc4:	e1a0200c 	mov	r2, r12
    4bc8:	e1a00004 	mov	r0, r4
    4bcc:	eb000dd1 	bl	8318 <__pow5mult>
    4bd0:	e1a06000 	mov	r6, r0
    4bd4:	e59dc098 	ldr	r12, [sp, #152]	; 0x98
    4bd8:	e35c0001 	cmp	r12, #1
    4bdc:	da00028a 	ble	560c <_dtoa_r+0x10fc>
    4be0:	e3a07000 	mov	r7, #0
    4be4:	e59dc040 	ldr	r12, [sp, #64]	; 0x40
    4be8:	e35c0000 	cmp	r12, #0
    4bec:	03a00001 	moveq	r0, #1
    4bf0:	1a000251 	bne	553c <_dtoa_r+0x102c>
    4bf4:	e59dc024 	ldr	r12, [sp, #36]	; 0x24
    4bf8:	e080300c 	add	r3, r0, r12
    4bfc:	e213301f 	ands	r3, r3, #31
    4c00:	0a0001a0 	beq	5288 <_dtoa_r+0xd78>
    4c04:	e2632020 	rsb	r2, r3, #32
    4c08:	e3520004 	cmp	r2, #4
    4c0c:	da0003f9 	ble	5bf8 <_dtoa_r+0x16e8>
    4c10:	e263301c 	rsb	r3, r3, #28
    4c14:	e59dc02c 	ldr	r12, [sp, #44]	; 0x2c
    4c18:	e08cc003 	add	r12, r12, r3
    4c1c:	e58dc02c 	str	r12, [sp, #44]	; 0x2c
    4c20:	e59dc024 	ldr	r12, [sp, #36]	; 0x24
    4c24:	e08cc003 	add	r12, r12, r3
    4c28:	e58dc024 	str	r12, [sp, #36]	; 0x24
    4c2c:	e0855003 	add	r5, r5, r3
    4c30:	e59dc02c 	ldr	r12, [sp, #44]	; 0x2c
    4c34:	e35c0000 	cmp	r12, #0
    4c38:	da000004 	ble	4c50 <_dtoa_r+0x740>
    4c3c:	e59d1030 	ldr	r1, [sp, #48]	; 0x30
    4c40:	e1a0200c 	mov	r2, r12
    4c44:	e1a00004 	mov	r0, r4
    4c48:	eb000df3 	bl	841c <__lshift>
    4c4c:	e58d0030 	str	r0, [sp, #48]	; 0x30
    4c50:	e59dc024 	ldr	r12, [sp, #36]	; 0x24
    4c54:	e35c0000 	cmp	r12, #0
    4c58:	da000004 	ble	4c70 <_dtoa_r+0x760>
    4c5c:	e1a01006 	mov	r1, r6
    4c60:	e1a0200c 	mov	r2, r12
    4c64:	e1a00004 	mov	r0, r4
    4c68:	eb000deb 	bl	841c <__lshift>
    4c6c:	e1a06000 	mov	r6, r0
    4c70:	e59dc044 	ldr	r12, [sp, #68]	; 0x44
    4c74:	e35c0000 	cmp	r12, #0
    4c78:	1a000235 	bne	5554 <_dtoa_r+0x1044>
    4c7c:	e59dc098 	ldr	r12, [sp, #152]	; 0x98
    4c80:	e59d1028 	ldr	r1, [sp, #40]	; 0x28
    4c84:	e35c0002 	cmp	r12, #2
    4c88:	d3a03000 	movle	r3, #0
    4c8c:	c3a03001 	movgt	r3, #1
    4c90:	e3510000 	cmp	r1, #0
    4c94:	c3a03000 	movgt	r3, #0
    4c98:	e3530000 	cmp	r3, #0
    4c9c:	0a00017b 	beq	5290 <_dtoa_r+0xd80>
    4ca0:	e59dc028 	ldr	r12, [sp, #40]	; 0x28
    4ca4:	e35c0000 	cmp	r12, #0
    4ca8:	1a000170 	bne	5270 <_dtoa_r+0xd60>
    4cac:	e1a01006 	mov	r1, r6
    4cb0:	e1a0300c 	mov	r3, r12
    4cb4:	e3a02005 	mov	r2, #5
    4cb8:	e1a00004 	mov	r0, r4
    4cbc:	eb000c65 	bl	7e58 <__multadd>
    4cc0:	e1a06000 	mov	r6, r0
    4cc4:	e1a01006 	mov	r1, r6
    4cc8:	e59d0030 	ldr	r0, [sp, #48]	; 0x30
    4ccc:	eb000e15 	bl	8528 <__mcmp>
    4cd0:	e3500000 	cmp	r0, #0
    4cd4:	da000165 	ble	5270 <_dtoa_r+0xd60>
    4cd8:	e59dc018 	ldr	r12, [sp, #24]
    4cdc:	e28cc001 	add	r12, r12, #1
    4ce0:	e58dc018 	str	r12, [sp, #24]
    4ce4:	e59dc020 	ldr	r12, [sp, #32]
    4ce8:	e3a03031 	mov	r3, #49	; 0x31
    4cec:	e5cc3000 	strb	r3, [r12]
    4cf0:	e1a0900c 	mov	r9, r12
    4cf4:	e28cc001 	add	r12, r12, #1
    4cf8:	e58dc020 	str	r12, [sp, #32]
    4cfc:	e3a05000 	mov	r5, #0
    4d00:	e1a01006 	mov	r1, r6
    4d04:	e1a00004 	mov	r0, r4
    4d08:	eb000c4b 	bl	7e3c <_Bfree>
    4d0c:	e3580000 	cmp	r8, #0
    4d10:	0a000005 	beq	4d2c <_dtoa_r+0x81c>
    4d14:	e1550008 	cmp	r5, r8
    4d18:	13550000 	cmpne	r5, #0
    4d1c:	1a000198 	bne	5384 <_dtoa_r+0xe74>
    4d20:	e1a01008 	mov	r1, r8
    4d24:	e1a00004 	mov	r0, r4
    4d28:	eb000c43 	bl	7e3c <_Bfree>
    4d2c:	e1a00004 	mov	r0, r4
    4d30:	e59d1030 	ldr	r1, [sp, #48]	; 0x30
    4d34:	eb000c40 	bl	7e3c <_Bfree>
    4d38:	e59dc018 	ldr	r12, [sp, #24]
    4d3c:	e28c3001 	add	r3, r12, #1
    4d40:	e59dc0a8 	ldr	r12, [sp, #168]	; 0xa8
    4d44:	e35c0000 	cmp	r12, #0
    4d48:	e59dc020 	ldr	r12, [sp, #32]
    4d4c:	e3a02000 	mov	r2, #0
    4d50:	e5cc2000 	strb	r2, [r12]
    4d54:	e59dc0a0 	ldr	r12, [sp, #160]	; 0xa0
    4d58:	01a00009 	moveq	r0, r9
    4d5c:	e58c3000 	str	r3, [r12]
    4d60:	0afffe19 	beq	45cc <_dtoa_r+0xbc>
    4d64:	e59dc020 	ldr	r12, [sp, #32]
    4d68:	e59d10a8 	ldr	r1, [sp, #168]	; 0xa8
    4d6c:	e1a00009 	mov	r0, r9
    4d70:	e581c000 	str	r12, [r1]
    4d74:	e28dd074 	add	sp, sp, #116	; 0x74
    4d78:	e8bd4ff0 	pop	{r4, r5, r6, r7, r8, r9, r10, r11, lr}
    4d7c:	e12fff1e 	bx	lr
    4d80:	e59d0018 	ldr	r0, [sp, #24]
    4d84:	eb00328b 	bl	117b8 <__aeabi_i2d>
    4d88:	e1a02006 	mov	r2, r6
    4d8c:	e1a03007 	mov	r3, r7
    4d90:	eb003419 	bl	11dfc <__aeabi_dcmpeq>
    4d94:	e3500000 	cmp	r0, #0
    4d98:	059dc018 	ldreq	r12, [sp, #24]
    4d9c:	024cc001 	subeq	r12, r12, #1
    4da0:	058dc018 	streq	r12, [sp, #24]
    4da4:	eafffe5a 	b	4714 <_dtoa_r+0x204>
    4da8:	e59dc02c 	ldr	r12, [sp, #44]	; 0x2c
    4dac:	e59d1018 	ldr	r1, [sp, #24]
    4db0:	e061c00c 	rsb	r12, r1, r12
    4db4:	e58dc02c 	str	r12, [sp, #44]	; 0x2c
    4db8:	e261c000 	rsb	r12, r1, #0
    4dbc:	e58dc034 	str	r12, [sp, #52]	; 0x34
    4dc0:	e3a0c000 	mov	r12, #0
    4dc4:	e58dc040 	str	r12, [sp, #64]	; 0x40
    4dc8:	eafffe75 	b	47a4 <_dtoa_r+0x294>
    4dcc:	e59dc098 	ldr	r12, [sp, #152]	; 0x98
    4dd0:	e35c0001 	cmp	r12, #1
    4dd4:	da0002f8 	ble	59bc <_dtoa_r+0x14ac>
    4dd8:	e59dc028 	ldr	r12, [sp, #40]	; 0x28
    4ddc:	e24c6001 	sub	r6, r12, #1
    4de0:	e59dc034 	ldr	r12, [sp, #52]	; 0x34
    4de4:	e15c0006 	cmp	r12, r6
    4de8:	b59dc034 	ldrlt	r12, [sp, #52]	; 0x34
    4dec:	b06c3006 	rsblt	r3, r12, r6
    4df0:	b59dc040 	ldrlt	r12, [sp, #64]	; 0x40
    4df4:	b08cc003 	addlt	r12, r12, r3
    4df8:	a066600c 	rsbge	r6, r6, r12
    4dfc:	b58dc040 	strlt	r12, [sp, #64]	; 0x40
    4e00:	e59dc028 	ldr	r12, [sp, #40]	; 0x28
    4e04:	b58d6034 	strlt	r6, [sp, #52]	; 0x34
    4e08:	b3a06000 	movlt	r6, #0
    4e0c:	e35c0000 	cmp	r12, #0
    4e10:	b59d102c 	ldrlt	r1, [sp, #44]	; 0x2c
    4e14:	a28d3028 	addge	r3, sp, #40	; 0x28
    4e18:	a8930028 	ldmge	r3, {r3, r5}
    4e1c:	b06c5001 	rsblt	r5, r12, r1
    4e20:	b3a03000 	movlt	r3, #0
    4e24:	e59dc02c 	ldr	r12, [sp, #44]	; 0x2c
    4e28:	e08cc003 	add	r12, r12, r3
    4e2c:	e58dc02c 	str	r12, [sp, #44]	; 0x2c
    4e30:	e59dc024 	ldr	r12, [sp, #36]	; 0x24
    4e34:	e1a00004 	mov	r0, r4
    4e38:	e08cc003 	add	r12, r12, r3
    4e3c:	e3a01001 	mov	r1, #1
    4e40:	e58dc024 	str	r12, [sp, #36]	; 0x24
    4e44:	eb000cb0 	bl	810c <__i2b>
    4e48:	e1a08000 	mov	r8, r0
    4e4c:	eaffff2d 	b	4b08 <_dtoa_r+0x5f8>
    4e50:	e3a0c000 	mov	r12, #0
    4e54:	e58dc038 	str	r12, [sp, #56]	; 0x38
    4e58:	e59d109c 	ldr	r1, [sp, #156]	; 0x9c
    4e5c:	e3510000 	cmp	r1, #0
    4e60:	da000278 	ble	5848 <_dtoa_r+0x1338>
    4e64:	e58d103c 	str	r1, [sp, #60]	; 0x3c
    4e68:	e58d1028 	str	r1, [sp, #40]	; 0x28
    4e6c:	e351000e 	cmp	r1, #14
    4e70:	83a05000 	movhi	r5, #0
    4e74:	92055001 	andls	r5, r5, #1
    4e78:	e1a0c001 	mov	r12, r1
    4e7c:	e3a01000 	mov	r1, #0
    4e80:	e35c0017 	cmp	r12, #23
    4e84:	e5841044 	str	r1, [r4, #68]	; 0x44
    4e88:	9a000008 	bls	4eb0 <_dtoa_r+0x9a0>
    4e8c:	e3a02001 	mov	r2, #1
    4e90:	e3a03004 	mov	r3, #4
    4e94:	e1a03083 	lsl	r3, r3, #1
    4e98:	e2830014 	add	r0, r3, #20
    4e9c:	e150000c 	cmp	r0, r12
    4ea0:	e1a01002 	mov	r1, r2
    4ea4:	e2822001 	add	r2, r2, #1
    4ea8:	9afffff9 	bls	4e94 <_dtoa_r+0x984>
    4eac:	e5841044 	str	r1, [r4, #68]	; 0x44
    4eb0:	e1a00004 	mov	r0, r4
    4eb4:	eb000bbd 	bl	7db0 <_Balloc>
    4eb8:	e3550000 	cmp	r5, #0
    4ebc:	e58d0020 	str	r0, [sp, #32]
    4ec0:	e5840040 	str	r0, [r4, #64]	; 0x40
    4ec4:	0afffe6a 	beq	4874 <_dtoa_r+0x364>
    4ec8:	e59dc018 	ldr	r12, [sp, #24]
    4ecc:	e35c0000 	cmp	r12, #0
    4ed0:	e58da050 	str	r10, [sp, #80]	; 0x50
    4ed4:	e58db054 	str	r11, [sp, #84]	; 0x54
    4ed8:	da000131 	ble	53a4 <_dtoa_r+0xe94>
    4edc:	e51f2444 	ldr	r2, [pc, #-1092]	; 4aa0 <_dtoa_r+0x590>
    4ee0:	e20c300f 	and	r3, r12, #15
    4ee4:	e1a0524c 	asr	r5, r12, #4
    4ee8:	e0823183 	add	r3, r2, r3, lsl #3
    4eec:	e3150010 	tst	r5, #16
    4ef0:	e89300c0 	ldm	r3, {r6, r7}
    4ef4:	0a00011e 	beq	5374 <_dtoa_r+0xe64>
    4ef8:	e51f3464 	ldr	r3, [pc, #-1124]	; 4a9c <_dtoa_r+0x58c>
    4efc:	e1a0000a 	mov	r0, r10
    4f00:	e1a0100b 	mov	r1, r11
    4f04:	e2833020 	add	r3, r3, #32
    4f08:	e893000c 	ldm	r3, {r2, r3}
    4f0c:	eb003304 	bl	11b24 <__aeabi_ddiv>
    4f10:	e205500f 	and	r5, r5, #15
    4f14:	e1a0a000 	mov	r10, r0
    4f18:	e1a0b001 	mov	r11, r1
    4f1c:	e3a08003 	mov	r8, #3
    4f20:	e3550000 	cmp	r5, #0
    4f24:	0a00000b 	beq	4f58 <_dtoa_r+0xa48>
    4f28:	e51f9494 	ldr	r9, [pc, #-1172]	; 4a9c <_dtoa_r+0x58c>
    4f2c:	e1a00006 	mov	r0, r6
    4f30:	e1a01007 	mov	r1, r7
    4f34:	e3150001 	tst	r5, #1
    4f38:	1899000c 	ldmne	r9, {r2, r3}
    4f3c:	12888001 	addne	r8, r8, #1
    4f40:	1b003253 	blne	11894 <__aeabi_dmul>
    4f44:	e1b050c5 	asrs	r5, r5, #1
    4f48:	e2899008 	add	r9, r9, #8
    4f4c:	1afffff8 	bne	4f34 <_dtoa_r+0xa24>
    4f50:	e1a06000 	mov	r6, r0
    4f54:	e1a07001 	mov	r7, r1
    4f58:	e1a02006 	mov	r2, r6
    4f5c:	e1a03007 	mov	r3, r7
    4f60:	e1a0000a 	mov	r0, r10
    4f64:	e1a0100b 	mov	r1, r11
    4f68:	eb0032ed 	bl	11b24 <__aeabi_ddiv>
    4f6c:	e1a06000 	mov	r6, r0
    4f70:	e1a07001 	mov	r7, r1
    4f74:	e59dc044 	ldr	r12, [sp, #68]	; 0x44
    4f78:	e35c0000 	cmp	r12, #0
    4f7c:	0a000006 	beq	4f9c <_dtoa_r+0xa8c>
    4f80:	e1a00006 	mov	r0, r6
    4f84:	e1a01007 	mov	r1, r7
    4f88:	e3a02000 	mov	r2, #0
    4f8c:	e51f34fc 	ldr	r3, [pc, #-1276]	; 4a98 <_dtoa_r+0x588>
    4f90:	eb00339f 	bl	11e14 <__aeabi_dcmplt>
    4f94:	e3500000 	cmp	r0, #0
    4f98:	1a00023c 	bne	5890 <_dtoa_r+0x1380>
    4f9c:	e1a00008 	mov	r0, r8
    4fa0:	eb003204 	bl	117b8 <__aeabi_i2d>
    4fa4:	e1a02006 	mov	r2, r6
    4fa8:	e1a03007 	mov	r3, r7
    4fac:	eb003238 	bl	11894 <__aeabi_dmul>
    4fb0:	e3a02000 	mov	r2, #0
    4fb4:	e51f3510 	ldr	r3, [pc, #-1296]	; 4aac <_dtoa_r+0x59c>
    4fb8:	eb003131 	bl	11484 <__adddf3>
    4fbc:	e59dc028 	ldr	r12, [sp, #40]	; 0x28
    4fc0:	e35c0000 	cmp	r12, #0
    4fc4:	e1a08000 	mov	r8, r0
    4fc8:	e241950d 	sub	r9, r1, #54525952	; 0x3400000
    4fcc:	0a000093 	beq	5220 <_dtoa_r+0xd10>
    4fd0:	e59dc018 	ldr	r12, [sp, #24]
    4fd4:	e58dc060 	str	r12, [sp, #96]	; 0x60
    4fd8:	e59dc028 	ldr	r12, [sp, #40]	; 0x28
    4fdc:	e59d1038 	ldr	r1, [sp, #56]	; 0x38
    4fe0:	e3510000 	cmp	r1, #0
    4fe4:	0a00010c 	beq	541c <_dtoa_r+0xf0c>
    4fe8:	e51f3550 	ldr	r3, [pc, #-1360]	; 4aa0 <_dtoa_r+0x590>
    4fec:	e083318c 	add	r3, r3, r12, lsl #3
    4ff0:	e913000c 	ldmdb	r3, {r2, r3}
    4ff4:	e3a00000 	mov	r0, #0
    4ff8:	e51f1550 	ldr	r1, [pc, #-1360]	; 4ab0 <_dtoa_r+0x5a0>
    4ffc:	e58dc00c 	str	r12, [sp, #12]
    5000:	eb0032c7 	bl	11b24 <__aeabi_ddiv>
    5004:	e1a02008 	mov	r2, r8
    5008:	e1a03009 	mov	r3, r9
    500c:	eb00311b 	bl	11480 <__aeabi_dsub>
    5010:	e1a0a000 	mov	r10, r0
    5014:	e1a0b001 	mov	r11, r1
    5018:	e1a00006 	mov	r0, r6
    501c:	e1a01007 	mov	r1, r7
    5020:	eb003393 	bl	11e74 <__aeabi_d2iz>
    5024:	e1a05000 	mov	r5, r0
    5028:	eb0031e2 	bl	117b8 <__aeabi_i2d>
    502c:	e1a02000 	mov	r2, r0
    5030:	e1a03001 	mov	r3, r1
    5034:	e1a00006 	mov	r0, r6
    5038:	e1a01007 	mov	r1, r7
    503c:	eb00310f 	bl	11480 <__aeabi_dsub>
    5040:	e2855030 	add	r5, r5, #48	; 0x30
    5044:	e59d2020 	ldr	r2, [sp, #32]
    5048:	e1a06000 	mov	r6, r0
    504c:	e1a07001 	mov	r7, r1
    5050:	e20580ff 	and	r8, r5, #255	; 0xff
    5054:	e5c28000 	strb	r8, [r2]
    5058:	e1a03007 	mov	r3, r7
    505c:	e1a0000a 	mov	r0, r10
    5060:	e1a0100b 	mov	r1, r11
    5064:	e1a02006 	mov	r2, r6
    5068:	eb00337b 	bl	11e5c <__aeabi_dcmpgt>
    506c:	e59d3020 	ldr	r3, [sp, #32]
    5070:	e3500000 	cmp	r0, #0
    5074:	e2833001 	add	r3, r3, #1
    5078:	e58d3058 	str	r3, [sp, #88]	; 0x58
    507c:	e1a05003 	mov	r5, r3
    5080:	1a0002d6 	bne	5be0 <_dtoa_r+0x16d0>
    5084:	e1a02006 	mov	r2, r6
    5088:	e1a03007 	mov	r3, r7
    508c:	e3a00000 	mov	r0, #0
    5090:	e51f1600 	ldr	r1, [pc, #-1536]	; 4a98 <_dtoa_r+0x588>
    5094:	eb0030f9 	bl	11480 <__aeabi_dsub>
    5098:	e1a02000 	mov	r2, r0
    509c:	e1a03001 	mov	r3, r1
    50a0:	e1a0000a 	mov	r0, r10
    50a4:	e1a0100b 	mov	r1, r11
    50a8:	eb00336b 	bl	11e5c <__aeabi_dcmpgt>
    50ac:	e3500000 	cmp	r0, #0
    50b0:	e59dc00c 	ldr	r12, [sp, #12]
    50b4:	1a000251 	bne	5a00 <_dtoa_r+0x14f0>
    50b8:	e35c0001 	cmp	r12, #1
    50bc:	da0000b5 	ble	5398 <_dtoa_r+0xe88>
    50c0:	e59d1020 	ldr	r1, [sp, #32]
    50c4:	e081900c 	add	r9, r1, r12
    50c8:	e58d9048 	str	r9, [sp, #72]	; 0x48
    50cc:	e58d4064 	str	r4, [sp, #100]	; 0x64
    50d0:	e1a09005 	mov	r9, r5
    50d4:	ea000008 	b	50fc <_dtoa_r+0xbec>
    50d8:	eb0030e8 	bl	11480 <__aeabi_dsub>
    50dc:	e1a0200a 	mov	r2, r10
    50e0:	e1a0300b 	mov	r3, r11
    50e4:	eb00334a 	bl	11e14 <__aeabi_dcmplt>
    50e8:	e3500000 	cmp	r0, #0
    50ec:	1a000241 	bne	59f8 <_dtoa_r+0x14e8>
    50f0:	e59dc048 	ldr	r12, [sp, #72]	; 0x48
    50f4:	e159000c 	cmp	r9, r12
    50f8:	0a0000a5 	beq	5394 <_dtoa_r+0xe84>
    50fc:	e1a0000a 	mov	r0, r10
    5100:	e1a0100b 	mov	r1, r11
    5104:	e3a02000 	mov	r2, #0
    5108:	e51f3668 	ldr	r3, [pc, #-1640]	; 4aa8 <_dtoa_r+0x598>
    510c:	eb0031e0 	bl	11894 <__aeabi_dmul>
    5110:	e3a02000 	mov	r2, #0
    5114:	e51f3674 	ldr	r3, [pc, #-1652]	; 4aa8 <_dtoa_r+0x598>
    5118:	e1a0a000 	mov	r10, r0
    511c:	e1a0b001 	mov	r11, r1
    5120:	e1a00006 	mov	r0, r6
    5124:	e1a01007 	mov	r1, r7
    5128:	eb0031d9 	bl	11894 <__aeabi_dmul>
    512c:	e1a05001 	mov	r5, r1
    5130:	e1a04000 	mov	r4, r0
    5134:	eb00334e 	bl	11e74 <__aeabi_d2iz>
    5138:	e1a08000 	mov	r8, r0
    513c:	eb00319d 	bl	117b8 <__aeabi_i2d>
    5140:	e1a02000 	mov	r2, r0
    5144:	e1a03001 	mov	r3, r1
    5148:	e1a00004 	mov	r0, r4
    514c:	e1a01005 	mov	r1, r5
    5150:	eb0030ca 	bl	11480 <__aeabi_dsub>
    5154:	e2888030 	add	r8, r8, #48	; 0x30
    5158:	e20880ff 	and	r8, r8, #255	; 0xff
    515c:	e1a0200a 	mov	r2, r10
    5160:	e1a0300b 	mov	r3, r11
    5164:	e4c98001 	strb	r8, [r9], #1
    5168:	e1a07001 	mov	r7, r1
    516c:	e1a06000 	mov	r6, r0
    5170:	eb003327 	bl	11e14 <__aeabi_dcmplt>
    5174:	e3500000 	cmp	r0, #0
    5178:	e1a02006 	mov	r2, r6
    517c:	e1a03007 	mov	r3, r7
    5180:	e3a00000 	mov	r0, #0
    5184:	e51f16f4 	ldr	r1, [pc, #-1780]	; 4a98 <_dtoa_r+0x588>
    5188:	0affffd2 	beq	50d8 <_dtoa_r+0xbc8>
    518c:	e59dc060 	ldr	r12, [sp, #96]	; 0x60
    5190:	e1a05009 	mov	r5, r9
    5194:	e59d4064 	ldr	r4, [sp, #100]	; 0x64
    5198:	e59d9020 	ldr	r9, [sp, #32]
    519c:	e58dc018 	str	r12, [sp, #24]
    51a0:	e58d5020 	str	r5, [sp, #32]
    51a4:	eafffee0 	b	4d2c <_dtoa_r+0x81c>
    51a8:	e3a0c000 	mov	r12, #0
    51ac:	e58dc038 	str	r12, [sp, #56]	; 0x38
    51b0:	e59d109c 	ldr	r1, [sp, #156]	; 0x9c
    51b4:	e59dc018 	ldr	r12, [sp, #24]
    51b8:	e081c00c 	add	r12, r1, r12
    51bc:	e58dc03c 	str	r12, [sp, #60]	; 0x3c
    51c0:	e28cc001 	add	r12, r12, #1
    51c4:	e35c0000 	cmp	r12, #0
    51c8:	e58dc028 	str	r12, [sp, #40]	; 0x28
    51cc:	da0001a5 	ble	5868 <_dtoa_r+0x1358>
    51d0:	e59dc028 	ldr	r12, [sp, #40]	; 0x28
    51d4:	e35c000e 	cmp	r12, #14
    51d8:	83a05000 	movhi	r5, #0
    51dc:	92055001 	andls	r5, r5, #1
    51e0:	eaffff25 	b	4e7c <_dtoa_r+0x96c>
    51e4:	e3a0c001 	mov	r12, #1
    51e8:	e58dc038 	str	r12, [sp, #56]	; 0x38
    51ec:	eaffff19 	b	4e58 <_dtoa_r+0x948>
    51f0:	e1a00008 	mov	r0, r8
    51f4:	eb00316f 	bl	117b8 <__aeabi_i2d>
    51f8:	e1a02000 	mov	r2, r0
    51fc:	e1a03001 	mov	r3, r1
    5200:	e1a00006 	mov	r0, r6
    5204:	e1a01007 	mov	r1, r7
    5208:	eb0031a1 	bl	11894 <__aeabi_dmul>
    520c:	e3a02000 	mov	r2, #0
    5210:	e51f376c 	ldr	r3, [pc, #-1900]	; 4aac <_dtoa_r+0x59c>
    5214:	eb00309a 	bl	11484 <__adddf3>
    5218:	e1a08000 	mov	r8, r0
    521c:	e241950d 	sub	r9, r1, #54525952	; 0x3400000
    5220:	e1a00006 	mov	r0, r6
    5224:	e3a02000 	mov	r2, #0
    5228:	e51f378c 	ldr	r3, [pc, #-1932]	; 4aa4 <_dtoa_r+0x594>
    522c:	e1a01007 	mov	r1, r7
    5230:	eb003092 	bl	11480 <__aeabi_dsub>
    5234:	e1a02008 	mov	r2, r8
    5238:	e1a03009 	mov	r3, r9
    523c:	e1a0a000 	mov	r10, r0
    5240:	e1a0b001 	mov	r11, r1
    5244:	eb003304 	bl	11e5c <__aeabi_dcmpgt>
    5248:	e2506000 	subs	r6, r0, #0
    524c:	1a00006f 	bne	5410 <_dtoa_r+0xf00>
    5250:	e1a02008 	mov	r2, r8
    5254:	e2893102 	add	r3, r9, #-2147483648	; 0x80000000
    5258:	e1a0000a 	mov	r0, r10
    525c:	e1a0100b 	mov	r1, r11
    5260:	eb0032eb 	bl	11e14 <__aeabi_dcmplt>
    5264:	e3500000 	cmp	r0, #0
    5268:	0a00004a 	beq	5398 <_dtoa_r+0xe88>
    526c:	e1a08006 	mov	r8, r6
    5270:	e59dc09c 	ldr	r12, [sp, #156]	; 0x9c
    5274:	e1e0c00c 	mvn	r12, r12
    5278:	e58dc018 	str	r12, [sp, #24]
    527c:	e59d9020 	ldr	r9, [sp, #32]
    5280:	e3a05000 	mov	r5, #0
    5284:	eafffe9d 	b	4d00 <_dtoa_r+0x7f0>
    5288:	e3a0301c 	mov	r3, #28
    528c:	eafffe60 	b	4c14 <_dtoa_r+0x704>
    5290:	e59dc038 	ldr	r12, [sp, #56]	; 0x38
    5294:	e35c0000 	cmp	r12, #0
    5298:	1a0000ff 	bne	569c <_dtoa_r+0x118c>
    529c:	e3a05000 	mov	r5, #0
    52a0:	e59da028 	ldr	r10, [sp, #40]	; 0x28
    52a4:	e59d9030 	ldr	r9, [sp, #48]	; 0x30
    52a8:	e59db020 	ldr	r11, [sp, #32]
    52ac:	ea000005 	b	52c8 <_dtoa_r+0xdb8>
    52b0:	e1a01009 	mov	r1, r9
    52b4:	e1a00004 	mov	r0, r4
    52b8:	e3a0200a 	mov	r2, #10
    52bc:	e3a03000 	mov	r3, #0
    52c0:	eb000ae4 	bl	7e58 <__multadd>
    52c4:	e1a09000 	mov	r9, r0
    52c8:	e1a00009 	mov	r0, r9
    52cc:	e1a01006 	mov	r1, r6
    52d0:	ebfffc16 	bl	4330 <quorem>
    52d4:	e2800030 	add	r0, r0, #48	; 0x30
    52d8:	e7cb0005 	strb	r0, [r11, r5]
    52dc:	e2855001 	add	r5, r5, #1
    52e0:	e155000a 	cmp	r5, r10
    52e4:	bafffff1 	blt	52b0 <_dtoa_r+0xda0>
    52e8:	e59db020 	ldr	r11, [sp, #32]
    52ec:	e59dc028 	ldr	r12, [sp, #40]	; 0x28
    52f0:	e58d9030 	str	r9, [sp, #48]	; 0x30
    52f4:	e1a07000 	mov	r7, r0
    52f8:	e35c0001 	cmp	r12, #1
    52fc:	a08bb00c 	addge	r11, r11, r12
    5300:	b28bb001 	addlt	r11, r11, #1
    5304:	e3a05000 	mov	r5, #0
    5308:	e59d1030 	ldr	r1, [sp, #48]	; 0x30
    530c:	e3a02001 	mov	r2, #1
    5310:	e1a00004 	mov	r0, r4
    5314:	eb000c40 	bl	841c <__lshift>
    5318:	e1a01006 	mov	r1, r6
    531c:	e58d0030 	str	r0, [sp, #48]	; 0x30
    5320:	eb000c80 	bl	8528 <__mcmp>
    5324:	e3500000 	cmp	r0, #0
    5328:	da0001d2 	ble	5a78 <_dtoa_r+0x1568>
    532c:	e59dc020 	ldr	r12, [sp, #32]
    5330:	e28cc001 	add	r12, r12, #1
    5334:	e55b3001 	ldrb	r3, [r11, #-1]
    5338:	e58dc058 	str	r12, [sp, #88]	; 0x58
    533c:	e59d1058 	ldr	r1, [sp, #88]	; 0x58
    5340:	ea000003 	b	5354 <_dtoa_r+0xe44>
    5344:	e15b0001 	cmp	r11, r1
    5348:	0a000193 	beq	599c <_dtoa_r+0x148c>
    534c:	e55b3002 	ldrb	r3, [r11, #-2]
    5350:	e1a0b002 	mov	r11, r2
    5354:	e3530039 	cmp	r3, #57	; 0x39
    5358:	e24b2001 	sub	r2, r11, #1
    535c:	0afffff8 	beq	5344 <_dtoa_r+0xe34>
    5360:	e2833001 	add	r3, r3, #1
    5364:	e59d9020 	ldr	r9, [sp, #32]
    5368:	e5c23000 	strb	r3, [r2]
    536c:	e58db020 	str	r11, [sp, #32]
    5370:	eafffe62 	b	4d00 <_dtoa_r+0x7f0>
    5374:	e28db050 	add	r11, sp, #80	; 0x50
    5378:	e89b0c00 	ldm	r11, {r10, r11}
    537c:	e3a08002 	mov	r8, #2
    5380:	eafffee6 	b	4f20 <_dtoa_r+0xa10>
    5384:	e1a01005 	mov	r1, r5
    5388:	e1a00004 	mov	r0, r4
    538c:	eb000aaa 	bl	7e3c <_Bfree>
    5390:	eafffe62 	b	4d20 <_dtoa_r+0x810>
    5394:	e59d4064 	ldr	r4, [sp, #100]	; 0x64
    5398:	e28db050 	add	r11, sp, #80	; 0x50
    539c:	e89b0c00 	ldm	r11, {r10, r11}
    53a0:	eafffd33 	b	4874 <_dtoa_r+0x364>
    53a4:	e59dc018 	ldr	r12, [sp, #24]
    53a8:	e26c5000 	rsb	r5, r12, #0
    53ac:	e3550000 	cmp	r5, #0
    53b0:	0a00015c 	beq	5928 <_dtoa_r+0x1418>
    53b4:	e51f391c 	ldr	r3, [pc, #-2332]	; 4aa0 <_dtoa_r+0x590>
    53b8:	e205200f 	and	r2, r5, #15
    53bc:	e0833182 	add	r3, r3, r2, lsl #3
    53c0:	e893000c 	ldm	r3, {r2, r3}
    53c4:	e28d1050 	add	r1, sp, #80	; 0x50
    53c8:	e8910003 	ldm	r1, {r0, r1}
    53cc:	eb003130 	bl	11894 <__aeabi_dmul>
    53d0:	e1b05245 	asrs	r5, r5, #4
    53d4:	e1a06000 	mov	r6, r0
    53d8:	e1a07001 	mov	r7, r1
    53dc:	0a0001fd 	beq	5bd8 <_dtoa_r+0x16c8>
    53e0:	e51f994c 	ldr	r9, [pc, #-2380]	; 4a9c <_dtoa_r+0x58c>
    53e4:	e3a08002 	mov	r8, #2
    53e8:	e3150001 	tst	r5, #1
    53ec:	1899000c 	ldmne	r9, {r2, r3}
    53f0:	12888001 	addne	r8, r8, #1
    53f4:	1b003126 	blne	11894 <__aeabi_dmul>
    53f8:	e1b050c5 	asrs	r5, r5, #1
    53fc:	e2899008 	add	r9, r9, #8
    5400:	1afffff8 	bne	53e8 <_dtoa_r+0xed8>
    5404:	e1a06000 	mov	r6, r0
    5408:	e1a07001 	mov	r7, r1
    540c:	eafffed8 	b	4f74 <_dtoa_r+0xa64>
    5410:	e3a06000 	mov	r6, #0
    5414:	e1a08006 	mov	r8, r6
    5418:	eafffe2e 	b	4cd8 <_dtoa_r+0x7c8>
    541c:	e51f1984 	ldr	r1, [pc, #-2436]	; 4aa0 <_dtoa_r+0x590>
    5420:	e24ca001 	sub	r10, r12, #1
    5424:	e081118a 	add	r1, r1, r10, lsl #3
    5428:	e1a02008 	mov	r2, r8
    542c:	e1a03009 	mov	r3, r9
    5430:	e8910003 	ldm	r1, {r0, r1}
    5434:	e58dc00c 	str	r12, [sp, #12]
    5438:	eb003115 	bl	11894 <__aeabi_dmul>
    543c:	e58d0048 	str	r0, [sp, #72]	; 0x48
    5440:	e58d104c 	str	r1, [sp, #76]	; 0x4c
    5444:	e1a01007 	mov	r1, r7
    5448:	e1a00006 	mov	r0, r6
    544c:	eb003288 	bl	11e74 <__aeabi_d2iz>
    5450:	e1a05000 	mov	r5, r0
    5454:	eb0030d7 	bl	117b8 <__aeabi_i2d>
    5458:	e1a02000 	mov	r2, r0
    545c:	e1a03001 	mov	r3, r1
    5460:	e1a00006 	mov	r0, r6
    5464:	e1a01007 	mov	r1, r7
    5468:	eb003004 	bl	11480 <__aeabi_dsub>
    546c:	e59dc00c 	ldr	r12, [sp, #12]
    5470:	e1a07001 	mov	r7, r1
    5474:	e59d1020 	ldr	r1, [sp, #32]
    5478:	e59d2020 	ldr	r2, [sp, #32]
    547c:	e2855030 	add	r5, r5, #48	; 0x30
    5480:	e2811001 	add	r1, r1, #1
    5484:	e35c0001 	cmp	r12, #1
    5488:	e5c25000 	strb	r5, [r2]
    548c:	e1a06000 	mov	r6, r0
    5490:	e58d1058 	str	r1, [sp, #88]	; 0x58
    5494:	e1a05001 	mov	r5, r1
    5498:	0a00001a 	beq	5508 <_dtoa_r+0xff8>
    549c:	e59d3020 	ldr	r3, [sp, #32]
    54a0:	e2439001 	sub	r9, r3, #1
    54a4:	e089900c 	add	r9, r9, r12
    54a8:	e1a05003 	mov	r5, r3
    54ac:	e1a00006 	mov	r0, r6
    54b0:	e1a01007 	mov	r1, r7
    54b4:	e3a02000 	mov	r2, #0
    54b8:	e51f3a18 	ldr	r3, [pc, #-2584]	; 4aa8 <_dtoa_r+0x598>
    54bc:	eb0030f4 	bl	11894 <__aeabi_dmul>
    54c0:	e1a07001 	mov	r7, r1
    54c4:	e1a06000 	mov	r6, r0
    54c8:	eb003269 	bl	11e74 <__aeabi_d2iz>
    54cc:	e1a08000 	mov	r8, r0
    54d0:	eb0030b8 	bl	117b8 <__aeabi_i2d>
    54d4:	e2888030 	add	r8, r8, #48	; 0x30
    54d8:	e1a02000 	mov	r2, r0
    54dc:	e1a03001 	mov	r3, r1
    54e0:	e1a00006 	mov	r0, r6
    54e4:	e1a01007 	mov	r1, r7
    54e8:	eb002fe4 	bl	11480 <__aeabi_dsub>
    54ec:	e5e58001 	strb	r8, [r5, #1]!
    54f0:	e1550009 	cmp	r5, r9
    54f4:	1affffee 	bne	54b4 <_dtoa_r+0xfa4>
    54f8:	e59dc058 	ldr	r12, [sp, #88]	; 0x58
    54fc:	e1a06000 	mov	r6, r0
    5500:	e1a07001 	mov	r7, r1
    5504:	e08c500a 	add	r5, r12, r10
    5508:	e3a02000 	mov	r2, #0
    550c:	e51f3a64 	ldr	r3, [pc, #-2660]	; 4ab0 <_dtoa_r+0x5a0>
    5510:	e28d1048 	add	r1, sp, #72	; 0x48
    5514:	e8910003 	ldm	r1, {r0, r1}
    5518:	eb002fd9 	bl	11484 <__adddf3>
    551c:	e1a02006 	mov	r2, r6
    5520:	e1a03007 	mov	r3, r7
    5524:	eb00323a 	bl	11e14 <__aeabi_dcmplt>
    5528:	e3500000 	cmp	r0, #0
    552c:	0a000101 	beq	5938 <_dtoa_r+0x1428>
    5530:	e59d9020 	ldr	r9, [sp, #32]
    5534:	e5558001 	ldrb	r8, [r5, #-1]
    5538:	eafffd45 	b	4a54 <_dtoa_r+0x544>
    553c:	e5963010 	ldr	r3, [r6, #16]
    5540:	e0863103 	add	r3, r6, r3, lsl #2
    5544:	e5930010 	ldr	r0, [r3, #16]
    5548:	eb000ab3 	bl	801c <__hi0bits>
    554c:	e2600020 	rsb	r0, r0, #32
    5550:	eafffda7 	b	4bf4 <_dtoa_r+0x6e4>
    5554:	e59d0030 	ldr	r0, [sp, #48]	; 0x30
    5558:	e1a01006 	mov	r1, r6
    555c:	eb000bf1 	bl	8528 <__mcmp>
    5560:	e3500000 	cmp	r0, #0
    5564:	aafffdc4 	bge	4c7c <_dtoa_r+0x76c>
    5568:	e59d1030 	ldr	r1, [sp, #48]	; 0x30
    556c:	e1a00004 	mov	r0, r4
    5570:	e3a0200a 	mov	r2, #10
    5574:	e3a03000 	mov	r3, #0
    5578:	eb000a36 	bl	7e58 <__multadd>
    557c:	e59dc038 	ldr	r12, [sp, #56]	; 0x38
    5580:	e35c0000 	cmp	r12, #0
    5584:	e59dc018 	ldr	r12, [sp, #24]
    5588:	e24cc001 	sub	r12, r12, #1
    558c:	e58d0030 	str	r0, [sp, #48]	; 0x30
    5590:	e58dc018 	str	r12, [sp, #24]
    5594:	1a000030 	bne	565c <_dtoa_r+0x114c>
    5598:	e59dc03c 	ldr	r12, [sp, #60]	; 0x3c
    559c:	e59d1098 	ldr	r1, [sp, #152]	; 0x98
    55a0:	e35c0000 	cmp	r12, #0
    55a4:	c3a03000 	movgt	r3, #0
    55a8:	d3a03001 	movle	r3, #1
    55ac:	e3510002 	cmp	r1, #2
    55b0:	d3a03000 	movle	r3, #0
    55b4:	e3530000 	cmp	r3, #0
    55b8:	058dc028 	streq	r12, [sp, #40]	; 0x28
    55bc:	0affff36 	beq	529c <_dtoa_r+0xd8c>
    55c0:	e59dc03c 	ldr	r12, [sp, #60]	; 0x3c
    55c4:	e58dc028 	str	r12, [sp, #40]	; 0x28
    55c8:	eafffdb4 	b	4ca0 <_dtoa_r+0x790>
    55cc:	e59dc028 	ldr	r12, [sp, #40]	; 0x28
    55d0:	e35c0000 	cmp	r12, #0
    55d4:	1a000132 	bne	5aa4 <_dtoa_r+0x1594>
    55d8:	e3a02000 	mov	r2, #0
    55dc:	e51f3b40 	ldr	r3, [pc, #-2880]	; 4aa4 <_dtoa_r+0x594>
    55e0:	e28d1010 	add	r1, sp, #16
    55e4:	e8910003 	ldm	r1, {r0, r1}
    55e8:	eb0030a9 	bl	11894 <__aeabi_dmul>
    55ec:	e1a0200a 	mov	r2, r10
    55f0:	e1a0300b 	mov	r3, r11
    55f4:	eb003212 	bl	11e44 <__aeabi_dcmpge>
    55f8:	e59d6028 	ldr	r6, [sp, #40]	; 0x28
    55fc:	e3500000 	cmp	r0, #0
    5600:	e1a08006 	mov	r8, r6
    5604:	1affff19 	bne	5270 <_dtoa_r+0xd60>
    5608:	eafffdb2 	b	4cd8 <_dtoa_r+0x7c8>
    560c:	e35a0000 	cmp	r10, #0
    5610:	1afffd72 	bne	4be0 <_dtoa_r+0x6d0>
    5614:	e3cb34ff 	bic	r3, r11, #-16777216	; 0xff000000
    5618:	e3c3360f 	bic	r3, r3, #15728640	; 0xf00000
    561c:	e3530000 	cmp	r3, #0
    5620:	11a0700a 	movne	r7, r10
    5624:	1afffd6e 	bne	4be4 <_dtoa_r+0x6d4>
    5628:	e3cb7102 	bic	r7, r11, #-2147483648	; 0x80000000
    562c:	e1a07a27 	lsr	r7, r7, #20
    5630:	e1a07a07 	lsl	r7, r7, #20
    5634:	e3570000 	cmp	r7, #0
    5638:	0afffd69 	beq	4be4 <_dtoa_r+0x6d4>
    563c:	e59dc02c 	ldr	r12, [sp, #44]	; 0x2c
    5640:	e28cc001 	add	r12, r12, #1
    5644:	e58dc02c 	str	r12, [sp, #44]	; 0x2c
    5648:	e59dc024 	ldr	r12, [sp, #36]	; 0x24
    564c:	e28cc001 	add	r12, r12, #1
    5650:	e58dc024 	str	r12, [sp, #36]	; 0x24
    5654:	e3a07001 	mov	r7, #1
    5658:	eafffd61 	b	4be4 <_dtoa_r+0x6d4>
    565c:	e3a03000 	mov	r3, #0
    5660:	e1a01008 	mov	r1, r8
    5664:	e1a00004 	mov	r0, r4
    5668:	e3a0200a 	mov	r2, #10
    566c:	eb0009f9 	bl	7e58 <__multadd>
    5670:	e59dc03c 	ldr	r12, [sp, #60]	; 0x3c
    5674:	e59d1098 	ldr	r1, [sp, #152]	; 0x98
    5678:	e35c0000 	cmp	r12, #0
    567c:	c3a03000 	movgt	r3, #0
    5680:	d3a03001 	movle	r3, #1
    5684:	e3510002 	cmp	r1, #2
    5688:	d3a03000 	movle	r3, #0
    568c:	e3530000 	cmp	r3, #0
    5690:	e1a08000 	mov	r8, r0
    5694:	058dc028 	streq	r12, [sp, #40]	; 0x28
    5698:	1affffc8 	bne	55c0 <_dtoa_r+0x10b0>
    569c:	e3550000 	cmp	r5, #0
    56a0:	da000004 	ble	56b8 <_dtoa_r+0x11a8>
    56a4:	e1a01008 	mov	r1, r8
    56a8:	e1a02005 	mov	r2, r5
    56ac:	e1a00004 	mov	r0, r4
    56b0:	eb000b59 	bl	841c <__lshift>
    56b4:	e1a08000 	mov	r8, r0
    56b8:	e3570000 	cmp	r7, #0
    56bc:	01a0c008 	moveq	r12, r8
    56c0:	1a0000f9 	bne	5aac <_dtoa_r+0x159c>
    56c4:	e59d1020 	ldr	r1, [sp, #32]
    56c8:	e59d3028 	ldr	r3, [sp, #40]	; 0x28
    56cc:	e59d2020 	ldr	r2, [sp, #32]
    56d0:	e2811001 	add	r1, r1, #1
    56d4:	e58d1058 	str	r1, [sp, #88]	; 0x58
    56d8:	e0822003 	add	r2, r2, r3
    56dc:	e20a1001 	and	r1, r10, #1
    56e0:	e1a07006 	mov	r7, r6
    56e4:	e58d202c 	str	r2, [sp, #44]	; 0x2c
    56e8:	e58d1028 	str	r1, [sp, #40]	; 0x28
    56ec:	e59d5058 	ldr	r5, [sp, #88]	; 0x58
    56f0:	e1a0900c 	mov	r9, r12
    56f4:	e59d6030 	ldr	r6, [sp, #48]	; 0x30
    56f8:	ea000008 	b	5720 <_dtoa_r+0x1210>
    56fc:	eb0009d5 	bl	7e58 <__multadd>
    5700:	e1a01009 	mov	r1, r9
    5704:	e1a08000 	mov	r8, r0
    5708:	e3a0200a 	mov	r2, #10
    570c:	e1a00004 	mov	r0, r4
    5710:	e3a03000 	mov	r3, #0
    5714:	eb0009cf 	bl	7e58 <__multadd>
    5718:	e1a09000 	mov	r9, r0
    571c:	e2855001 	add	r5, r5, #1
    5720:	e1a01007 	mov	r1, r7
    5724:	e1a00006 	mov	r0, r6
    5728:	ebfffb00 	bl	4330 <quorem>
    572c:	e1a01008 	mov	r1, r8
    5730:	e1a0a000 	mov	r10, r0
    5734:	e1a00006 	mov	r0, r6
    5738:	eb000b7a 	bl	8528 <__mcmp>
    573c:	e1a02009 	mov	r2, r9
    5740:	e1a0b000 	mov	r11, r0
    5744:	e1a01007 	mov	r1, r7
    5748:	e1a00004 	mov	r0, r4
    574c:	eb000b8d 	bl	8588 <__mdiff>
    5750:	e590200c 	ldr	r2, [r0, #12]
    5754:	e245c001 	sub	r12, r5, #1
    5758:	e3520000 	cmp	r2, #0
    575c:	e28a2030 	add	r2, r10, #48	; 0x30
    5760:	e1a03000 	mov	r3, r0
    5764:	e58d201c 	str	r2, [sp, #28]
    5768:	e58dc024 	str	r12, [sp, #36]	; 0x24
    576c:	1a000030 	bne	5834 <_dtoa_r+0x1324>
    5770:	e1a01003 	mov	r1, r3
    5774:	e1a00006 	mov	r0, r6
    5778:	e58d300c 	str	r3, [sp, #12]
    577c:	eb000b69 	bl	8528 <__mcmp>
    5780:	e59d300c 	ldr	r3, [sp, #12]
    5784:	e1a02000 	mov	r2, r0
    5788:	e1a01003 	mov	r1, r3
    578c:	e1a00004 	mov	r0, r4
    5790:	e58d200c 	str	r2, [sp, #12]
    5794:	eb0009a8 	bl	7e3c <_Bfree>
    5798:	e59d200c 	ldr	r2, [sp, #12]
    579c:	e59dc098 	ldr	r12, [sp, #152]	; 0x98
    57a0:	e192c00c 	orrs	r12, r2, r12
    57a4:	1a000002 	bne	57b4 <_dtoa_r+0x12a4>
    57a8:	e59dc028 	ldr	r12, [sp, #40]	; 0x28
    57ac:	e35c0000 	cmp	r12, #0
    57b0:	0a0000f7 	beq	5b94 <_dtoa_r+0x1684>
    57b4:	e35b0000 	cmp	r11, #0
    57b8:	ba000092 	blt	5a08 <_dtoa_r+0x14f8>
    57bc:	e59dc098 	ldr	r12, [sp, #152]	; 0x98
    57c0:	e19bc00c 	orrs	r12, r11, r12
    57c4:	1a000002 	bne	57d4 <_dtoa_r+0x12c4>
    57c8:	e59dc028 	ldr	r12, [sp, #40]	; 0x28
    57cc:	e35c0000 	cmp	r12, #0
    57d0:	0a00008c 	beq	5a08 <_dtoa_r+0x14f8>
    57d4:	e3520000 	cmp	r2, #0
    57d8:	ca0000d1 	bgt	5b24 <_dtoa_r+0x1614>
    57dc:	e59dc02c 	ldr	r12, [sp, #44]	; 0x2c
    57e0:	e59d201c 	ldr	r2, [sp, #28]
    57e4:	e155000c 	cmp	r5, r12
    57e8:	e5452001 	strb	r2, [r5, #-1]
    57ec:	e1a0b005 	mov	r11, r5
    57f0:	0a0000da 	beq	5b60 <_dtoa_r+0x1650>
    57f4:	e1a01006 	mov	r1, r6
    57f8:	e3a0200a 	mov	r2, #10
    57fc:	e3a03000 	mov	r3, #0
    5800:	e1a00004 	mov	r0, r4
    5804:	eb000993 	bl	7e58 <__multadd>
    5808:	e1580009 	cmp	r8, r9
    580c:	e1a06000 	mov	r6, r0
    5810:	e1a01008 	mov	r1, r8
    5814:	e1a00004 	mov	r0, r4
    5818:	e3a0200a 	mov	r2, #10
    581c:	e3a03000 	mov	r3, #0
    5820:	1affffb5 	bne	56fc <_dtoa_r+0x11ec>
    5824:	eb00098b 	bl	7e58 <__multadd>
    5828:	e1a08000 	mov	r8, r0
    582c:	e1a09000 	mov	r9, r0
    5830:	eaffffb9 	b	571c <_dtoa_r+0x120c>
    5834:	e3a02001 	mov	r2, #1
    5838:	eaffffd2 	b	5788 <_dtoa_r+0x1278>
    583c:	e3a0c001 	mov	r12, #1
    5840:	e58dc038 	str	r12, [sp, #56]	; 0x38
    5844:	eafffe59 	b	51b0 <_dtoa_r+0xca0>
    5848:	e3a03001 	mov	r3, #1
    584c:	e58d309c 	str	r3, [sp, #156]	; 0x9c
    5850:	e58d303c 	str	r3, [sp, #60]	; 0x3c
    5854:	e58d3028 	str	r3, [sp, #40]	; 0x28
    5858:	e3a01000 	mov	r1, #0
    585c:	e0035005 	and	r5, r3, r5
    5860:	e5841044 	str	r1, [r4, #68]	; 0x44
    5864:	eafffd91 	b	4eb0 <_dtoa_r+0x9a0>
    5868:	e35c000e 	cmp	r12, #14
    586c:	83a03000 	movhi	r3, #0
    5870:	93a03001 	movls	r3, #1
    5874:	eafffff7 	b	5858 <_dtoa_r+0x1348>
    5878:	e28d1030 	add	r1, sp, #48	; 0x30
    587c:	e8910006 	ldm	r1, {r1, r2}
    5880:	e1a00004 	mov	r0, r4
    5884:	eb000aa3 	bl	8318 <__pow5mult>
    5888:	e58d0030 	str	r0, [sp, #48]	; 0x30
    588c:	eafffcc4 	b	4ba4 <_dtoa_r+0x694>
    5890:	e59dc028 	ldr	r12, [sp, #40]	; 0x28
    5894:	e35c0000 	cmp	r12, #0
    5898:	0afffe54 	beq	51f0 <_dtoa_r+0xce0>
    589c:	e59dc03c 	ldr	r12, [sp, #60]	; 0x3c
    58a0:	e35c0000 	cmp	r12, #0
    58a4:	dafffebb 	ble	5398 <_dtoa_r+0xe88>
    58a8:	e3a02000 	mov	r2, #0
    58ac:	e51f3e0c 	ldr	r3, [pc, #-3596]	; 4aa8 <_dtoa_r+0x598>
    58b0:	e1a00006 	mov	r0, r6
    58b4:	e1a01007 	mov	r1, r7
    58b8:	eb002ff5 	bl	11894 <__aeabi_dmul>
    58bc:	e1a06000 	mov	r6, r0
    58c0:	e2880001 	add	r0, r8, #1
    58c4:	e1a07001 	mov	r7, r1
    58c8:	eb002fba 	bl	117b8 <__aeabi_i2d>
    58cc:	e1a02000 	mov	r2, r0
    58d0:	e1a03001 	mov	r3, r1
    58d4:	e1a00006 	mov	r0, r6
    58d8:	e1a01007 	mov	r1, r7
    58dc:	eb002fec 	bl	11894 <__aeabi_dmul>
    58e0:	e3a02000 	mov	r2, #0
    58e4:	e51f3e40 	ldr	r3, [pc, #-3648]	; 4aac <_dtoa_r+0x59c>
    58e8:	eb002ee5 	bl	11484 <__adddf3>
    58ec:	e59dc018 	ldr	r12, [sp, #24]
    58f0:	e24cc001 	sub	r12, r12, #1
    58f4:	e58dc060 	str	r12, [sp, #96]	; 0x60
    58f8:	e1a08000 	mov	r8, r0
    58fc:	e241950d 	sub	r9, r1, #54525952	; 0x3400000
    5900:	e59dc03c 	ldr	r12, [sp, #60]	; 0x3c
    5904:	eafffdb4 	b	4fdc <_dtoa_r+0xacc>
    5908:	e59dc060 	ldr	r12, [sp, #96]	; 0x60
    590c:	e58d2020 	str	r2, [sp, #32]
    5910:	e28cc001 	add	r12, r12, #1
    5914:	e3a02030 	mov	r2, #48	; 0x30
    5918:	e5c32000 	strb	r2, [r3]
    591c:	e58dc018 	str	r12, [sp, #24]
    5920:	e3a02031 	mov	r2, #49	; 0x31
    5924:	eafffc6f 	b	4ae8 <_dtoa_r+0x5d8>
    5928:	e28d7050 	add	r7, sp, #80	; 0x50
    592c:	e89700c0 	ldm	r7, {r6, r7}
    5930:	e3a08002 	mov	r8, #2
    5934:	eafffd8e 	b	4f74 <_dtoa_r+0xa64>
    5938:	e28d3048 	add	r3, sp, #72	; 0x48
    593c:	e893000c 	ldm	r3, {r2, r3}
    5940:	e3a00000 	mov	r0, #0
    5944:	e51f1e9c 	ldr	r1, [pc, #-3740]	; 4ab0 <_dtoa_r+0x5a0>
    5948:	eb002ecc 	bl	11480 <__aeabi_dsub>
    594c:	e1a02006 	mov	r2, r6
    5950:	e1a03007 	mov	r3, r7
    5954:	eb003140 	bl	11e5c <__aeabi_dcmpgt>
    5958:	e3500000 	cmp	r0, #0
    595c:	0afffe8d 	beq	5398 <_dtoa_r+0xe88>
    5960:	e5552001 	ldrb	r2, [r5, #-1]
    5964:	e3520030 	cmp	r2, #48	; 0x30
    5968:	e1a03005 	mov	r3, r5
    596c:	e2455001 	sub	r5, r5, #1
    5970:	0afffffa 	beq	5960 <_dtoa_r+0x1450>
    5974:	e59dc060 	ldr	r12, [sp, #96]	; 0x60
    5978:	e59d9020 	ldr	r9, [sp, #32]
    597c:	e58dc018 	str	r12, [sp, #24]
    5980:	e58d3020 	str	r3, [sp, #32]
    5984:	eafffce8 	b	4d2c <_dtoa_r+0x81c>
    5988:	e59d1030 	ldr	r1, [sp, #48]	; 0x30
    598c:	e1a00004 	mov	r0, r4
    5990:	eb000a60 	bl	8318 <__pow5mult>
    5994:	e58d0030 	str	r0, [sp, #48]	; 0x30
    5998:	eafffc81 	b	4ba4 <_dtoa_r+0x694>
    599c:	e59dc018 	ldr	r12, [sp, #24]
    59a0:	e3a03031 	mov	r3, #49	; 0x31
    59a4:	e28cc001 	add	r12, r12, #1
    59a8:	e59d9020 	ldr	r9, [sp, #32]
    59ac:	e58dc018 	str	r12, [sp, #24]
    59b0:	e58db020 	str	r11, [sp, #32]
    59b4:	e5c23000 	strb	r3, [r2]
    59b8:	eafffcd0 	b	4d00 <_dtoa_r+0x7f0>
    59bc:	e59dc05c 	ldr	r12, [sp, #92]	; 0x5c
    59c0:	e35c0000 	cmp	r12, #0
    59c4:	059d3068 	ldreq	r3, [sp, #104]	; 0x68
    59c8:	12833e43 	addne	r3, r3, #1072	; 0x430
    59cc:	12833003 	addne	r3, r3, #3
    59d0:	159d6034 	ldrne	r6, [sp, #52]	; 0x34
    59d4:	059d6034 	ldreq	r6, [sp, #52]	; 0x34
    59d8:	02633036 	rsbeq	r3, r3, #54	; 0x36
    59dc:	e59d502c 	ldr	r5, [sp, #44]	; 0x2c
    59e0:	eafffd0f 	b	4e24 <_dtoa_r+0x914>
    59e4:	e59d401c 	ldr	r4, [sp, #28]
    59e8:	e1a0500b 	mov	r5, r11
    59ec:	e59d9020 	ldr	r9, [sp, #32]
    59f0:	e58d5020 	str	r5, [sp, #32]
    59f4:	eafffccc 	b	4d2c <_dtoa_r+0x81c>
    59f8:	e59d4064 	ldr	r4, [sp, #100]	; 0x64
    59fc:	e1a05009 	mov	r5, r9
    5a00:	e59d9020 	ldr	r9, [sp, #32]
    5a04:	eafffc12 	b	4a54 <_dtoa_r+0x544>
    5a08:	e3520000 	cmp	r2, #0
    5a0c:	e58d6030 	str	r6, [sp, #48]	; 0x30
    5a10:	e1a0c009 	mov	r12, r9
    5a14:	e1a06007 	mov	r6, r7
    5a18:	e59d701c 	ldr	r7, [sp, #28]
    5a1c:	da00000d 	ble	5a58 <_dtoa_r+0x1548>
    5a20:	e59d1030 	ldr	r1, [sp, #48]	; 0x30
    5a24:	e3a02001 	mov	r2, #1
    5a28:	e1a00004 	mov	r0, r4
    5a2c:	e58d900c 	str	r9, [sp, #12]
    5a30:	eb000a79 	bl	841c <__lshift>
    5a34:	e1a01006 	mov	r1, r6
    5a38:	e58d0030 	str	r0, [sp, #48]	; 0x30
    5a3c:	eb000ab9 	bl	8528 <__mcmp>
    5a40:	e3500000 	cmp	r0, #0
    5a44:	e59dc00c 	ldr	r12, [sp, #12]
    5a48:	da00005a 	ble	5bb8 <_dtoa_r+0x16a8>
    5a4c:	e3570039 	cmp	r7, #57	; 0x39
    5a50:	0a000048 	beq	5b78 <_dtoa_r+0x1668>
    5a54:	e28a7031 	add	r7, r10, #49	; 0x31
    5a58:	e59d3024 	ldr	r3, [sp, #36]	; 0x24
    5a5c:	e2831001 	add	r1, r3, #1
    5a60:	e59d9020 	ldr	r9, [sp, #32]
    5a64:	e1a05008 	mov	r5, r8
    5a68:	e5c37000 	strb	r7, [r3]
    5a6c:	e1a0800c 	mov	r8, r12
    5a70:	e58d1020 	str	r1, [sp, #32]
    5a74:	eafffca1 	b	4d00 <_dtoa_r+0x7f0>
    5a78:	1a000001 	bne	5a84 <_dtoa_r+0x1574>
    5a7c:	e3170001 	tst	r7, #1
    5a80:	1afffe29 	bne	532c <_dtoa_r+0xe1c>
    5a84:	e55b2001 	ldrb	r2, [r11, #-1]
    5a88:	e3520030 	cmp	r2, #48	; 0x30
    5a8c:	e1a0300b 	mov	r3, r11
    5a90:	e24bb001 	sub	r11, r11, #1
    5a94:	0afffffa 	beq	5a84 <_dtoa_r+0x1574>
    5a98:	e59d9020 	ldr	r9, [sp, #32]
    5a9c:	e58d3020 	str	r3, [sp, #32]
    5aa0:	eafffc96 	b	4d00 <_dtoa_r+0x7f0>
    5aa4:	e3a06000 	mov	r6, #0
    5aa8:	eafffdef 	b	526c <_dtoa_r+0xd5c>
    5aac:	e5981004 	ldr	r1, [r8, #4]
    5ab0:	e1a00004 	mov	r0, r4
    5ab4:	eb0008bd 	bl	7db0 <_Balloc>
    5ab8:	e5982010 	ldr	r2, [r8, #16]
    5abc:	e2822002 	add	r2, r2, #2
    5ac0:	e1a05000 	mov	r5, r0
    5ac4:	e1a02102 	lsl	r2, r2, #2
    5ac8:	e288100c 	add	r1, r8, #12
    5acc:	e280000c 	add	r0, r0, #12
    5ad0:	eb0007ee 	bl	7a90 <memcpy>
    5ad4:	e1a00004 	mov	r0, r4
    5ad8:	e1a01005 	mov	r1, r5
    5adc:	e3a02001 	mov	r2, #1
    5ae0:	eb000a4d 	bl	841c <__lshift>
    5ae4:	e1a0c000 	mov	r12, r0
    5ae8:	eafffef5 	b	56c4 <_dtoa_r+0x11b4>
    5aec:	e28d1010 	add	r1, sp, #16
    5af0:	e8910003 	ldm	r1, {r0, r1}
    5af4:	e1a02006 	mov	r2, r6
    5af8:	e1a03007 	mov	r3, r7
    5afc:	eb0030be 	bl	11dfc <__aeabi_dcmpeq>
    5b00:	e3500000 	cmp	r0, #0
    5b04:	0affffb8 	beq	59ec <_dtoa_r+0x14dc>
    5b08:	e3180001 	tst	r8, #1
    5b0c:	e59d9020 	ldr	r9, [sp, #32]
    5b10:	0affffb6 	beq	59f0 <_dtoa_r+0x14e0>
    5b14:	e59dc018 	ldr	r12, [sp, #24]
    5b18:	e58dc060 	str	r12, [sp, #96]	; 0x60
    5b1c:	e5558001 	ldrb	r8, [r5, #-1]
    5b20:	eafffbcb 	b	4a54 <_dtoa_r+0x544>
    5b24:	e58d6030 	str	r6, [sp, #48]	; 0x30
    5b28:	e1a06007 	mov	r6, r7
    5b2c:	e59d701c 	ldr	r7, [sp, #28]
    5b30:	e3570039 	cmp	r7, #57	; 0x39
    5b34:	e1a0c009 	mov	r12, r9
    5b38:	0a00000e 	beq	5b78 <_dtoa_r+0x1668>
    5b3c:	e59d3024 	ldr	r3, [sp, #36]	; 0x24
    5b40:	e2877001 	add	r7, r7, #1
    5b44:	e2831001 	add	r1, r3, #1
    5b48:	e59d9020 	ldr	r9, [sp, #32]
    5b4c:	e1a05008 	mov	r5, r8
    5b50:	e5c37000 	strb	r7, [r3]
    5b54:	e58d1020 	str	r1, [sp, #32]
    5b58:	e1a0800c 	mov	r8, r12
    5b5c:	eafffc67 	b	4d00 <_dtoa_r+0x7f0>
    5b60:	e58d6030 	str	r6, [sp, #48]	; 0x30
    5b64:	e1a05008 	mov	r5, r8
    5b68:	e1a06007 	mov	r6, r7
    5b6c:	e1a08009 	mov	r8, r9
    5b70:	e59d701c 	ldr	r7, [sp, #28]
    5b74:	eafffde3 	b	5308 <_dtoa_r+0xdf8>
    5b78:	e59d2024 	ldr	r2, [sp, #36]	; 0x24
    5b7c:	e3a03039 	mov	r3, #57	; 0x39
    5b80:	e1a05008 	mov	r5, r8
    5b84:	e5c23000 	strb	r3, [r2]
    5b88:	e1a0800c 	mov	r8, r12
    5b8c:	e282b001 	add	r11, r2, #1
    5b90:	eafffde9 	b	533c <_dtoa_r+0xe2c>
    5b94:	e58d6030 	str	r6, [sp, #48]	; 0x30
    5b98:	e1a06007 	mov	r6, r7
    5b9c:	e59d701c 	ldr	r7, [sp, #28]
    5ba0:	e3570039 	cmp	r7, #57	; 0x39
    5ba4:	e1a0c009 	mov	r12, r9
    5ba8:	0afffff2 	beq	5b78 <_dtoa_r+0x1668>
    5bac:	e35b0000 	cmp	r11, #0
    5bb0:	caffffa7 	bgt	5a54 <_dtoa_r+0x1544>
    5bb4:	eaffffa7 	b	5a58 <_dtoa_r+0x1548>
    5bb8:	1affffa6 	bne	5a58 <_dtoa_r+0x1548>
    5bbc:	e3170001 	tst	r7, #1
    5bc0:	0affffa4 	beq	5a58 <_dtoa_r+0x1548>
    5bc4:	eaffffa0 	b	5a4c <_dtoa_r+0x153c>
    5bc8:	e59dc058 	ldr	r12, [sp, #88]	; 0x58
    5bcc:	e59d9020 	ldr	r9, [sp, #32]
    5bd0:	e58dc020 	str	r12, [sp, #32]
    5bd4:	eafffc54 	b	4d2c <_dtoa_r+0x81c>
    5bd8:	e3a08002 	mov	r8, #2
    5bdc:	eafffce4 	b	4f74 <_dtoa_r+0xa64>
    5be0:	e59dc060 	ldr	r12, [sp, #96]	; 0x60
    5be4:	e58dc018 	str	r12, [sp, #24]
    5be8:	e59dc058 	ldr	r12, [sp, #88]	; 0x58
    5bec:	e59d9020 	ldr	r9, [sp, #32]
    5bf0:	e58dc020 	str	r12, [sp, #32]
    5bf4:	eafffc4c 	b	4d2c <_dtoa_r+0x81c>
    5bf8:	1263303c 	rsbne	r3, r3, #60	; 0x3c
    5bfc:	0afffc0b 	beq	4c30 <_dtoa_r+0x720>
    5c00:	eafffc03 	b	4c14 <_dtoa_r+0x704>
    5c04:	e1a00000 	nop			; (mov r0, r0)

00005c08 <__sflush_r>:
    5c08:	e92d40f8 	push	{r3, r4, r5, r6, r7, lr}
    5c0c:	e1d130bc 	ldrh	r3, [r1, #12]
    5c10:	e3130008 	tst	r3, #8
    5c14:	e1a05001 	mov	r5, r1
    5c18:	e1a07000 	mov	r7, r0
    5c1c:	1a000030 	bne	5ce4 <__sflush_r+0xdc>
    5c20:	e5912004 	ldr	r2, [r1, #4]
    5c24:	e3833b02 	orr	r3, r3, #2048	; 0x800
    5c28:	e3520000 	cmp	r2, #0
    5c2c:	e1c130bc 	strh	r3, [r1, #12]
    5c30:	da00004b 	ble	5d64 <__sflush_r+0x15c>
    5c34:	e595c028 	ldr	r12, [r5, #40]	; 0x28
    5c38:	e35c0000 	cmp	r12, #0
    5c3c:	0a00004b 	beq	5d70 <__sflush_r+0x168>
    5c40:	e3a01000 	mov	r1, #0
    5c44:	e2136a01 	ands	r6, r3, #4096	; 0x1000
    5c48:	e5974000 	ldr	r4, [r7]
    5c4c:	e5871000 	str	r1, [r7]
    5c50:	0a000049 	beq	5d7c <__sflush_r+0x174>
    5c54:	e5952050 	ldr	r2, [r5, #80]	; 0x50
    5c58:	e3130004 	tst	r3, #4
    5c5c:	0a000005 	beq	5c78 <__sflush_r+0x70>
    5c60:	e5951030 	ldr	r1, [r5, #48]	; 0x30
    5c64:	e5953004 	ldr	r3, [r5, #4]
    5c68:	e3510000 	cmp	r1, #0
    5c6c:	e0632002 	rsb	r2, r3, r2
    5c70:	1595303c 	ldrne	r3, [r5, #60]	; 0x3c
    5c74:	10632002 	rsbne	r2, r3, r2
    5c78:	e1a00007 	mov	r0, r7
    5c7c:	e595101c 	ldr	r1, [r5, #28]
    5c80:	e3a03000 	mov	r3, #0
    5c84:	e1a0e00f 	mov	lr, pc
    5c88:	e12fff1c 	bx	r12
    5c8c:	e3700001 	cmn	r0, #1
    5c90:	0a000045 	beq	5dac <__sflush_r+0x1a4>
    5c94:	e1d530bc 	ldrh	r3, [r5, #12]
    5c98:	e5951010 	ldr	r1, [r5, #16]
    5c9c:	e3c33b02 	bic	r3, r3, #2048	; 0x800
    5ca0:	e3a02000 	mov	r2, #0
    5ca4:	e3130a01 	tst	r3, #4096	; 0x1000
    5ca8:	e1c530bc 	strh	r3, [r5, #12]
    5cac:	e8850006 	stm	r5, {r1, r2}
    5cb0:	1a000048 	bne	5dd8 <__sflush_r+0x1d0>
    5cb4:	e5951030 	ldr	r1, [r5, #48]	; 0x30
    5cb8:	e3510000 	cmp	r1, #0
    5cbc:	e5874000 	str	r4, [r7]
    5cc0:	0a00002a 	beq	5d70 <__sflush_r+0x168>
    5cc4:	e2853040 	add	r3, r5, #64	; 0x40
    5cc8:	e1510003 	cmp	r1, r3
    5ccc:	11a00007 	movne	r0, r7
    5cd0:	1b00023b 	blne	65c4 <_free_r>
    5cd4:	e3a00000 	mov	r0, #0
    5cd8:	e5850030 	str	r0, [r5, #48]	; 0x30
    5cdc:	e8bd40f8 	pop	{r3, r4, r5, r6, r7, lr}
    5ce0:	e12fff1e 	bx	lr
    5ce4:	e5916010 	ldr	r6, [r1, #16]
    5ce8:	e3560000 	cmp	r6, #0
    5cec:	0a00001f 	beq	5d70 <__sflush_r+0x168>
    5cf0:	e5914000 	ldr	r4, [r1]
    5cf4:	e3130003 	tst	r3, #3
    5cf8:	05913014 	ldreq	r3, [r1, #20]
    5cfc:	e0664004 	rsb	r4, r6, r4
    5d00:	13a03000 	movne	r3, #0
    5d04:	e3540000 	cmp	r4, #0
    5d08:	e5816000 	str	r6, [r1]
    5d0c:	e5813008 	str	r3, [r1, #8]
    5d10:	ca000003 	bgt	5d24 <__sflush_r+0x11c>
    5d14:	ea000015 	b	5d70 <__sflush_r+0x168>
    5d18:	e3540000 	cmp	r4, #0
    5d1c:	e0866000 	add	r6, r6, r0
    5d20:	da000012 	ble	5d70 <__sflush_r+0x168>
    5d24:	e1a03004 	mov	r3, r4
    5d28:	e1a00007 	mov	r0, r7
    5d2c:	e595101c 	ldr	r1, [r5, #28]
    5d30:	e1a02006 	mov	r2, r6
    5d34:	e595c024 	ldr	r12, [r5, #36]	; 0x24
    5d38:	e1a0e00f 	mov	lr, pc
    5d3c:	e12fff1c 	bx	r12
    5d40:	e3500000 	cmp	r0, #0
    5d44:	e0604004 	rsb	r4, r0, r4
    5d48:	cafffff2 	bgt	5d18 <__sflush_r+0x110>
    5d4c:	e1d530bc 	ldrh	r3, [r5, #12]
    5d50:	e3833040 	orr	r3, r3, #64	; 0x40
    5d54:	e1c530bc 	strh	r3, [r5, #12]
    5d58:	e3e00000 	mvn	r0, #0
    5d5c:	e8bd40f8 	pop	{r3, r4, r5, r6, r7, lr}
    5d60:	e12fff1e 	bx	lr
    5d64:	e591203c 	ldr	r2, [r1, #60]	; 0x3c
    5d68:	e3520000 	cmp	r2, #0
    5d6c:	caffffb0 	bgt	5c34 <__sflush_r+0x2c>
    5d70:	e3a00000 	mov	r0, #0
    5d74:	e8bd40f8 	pop	{r3, r4, r5, r6, r7, lr}
    5d78:	e12fff1e 	bx	lr
    5d7c:	e1a02006 	mov	r2, r6
    5d80:	e1a00007 	mov	r0, r7
    5d84:	e595101c 	ldr	r1, [r5, #28]
    5d88:	e3a03001 	mov	r3, #1
    5d8c:	e1a0e00f 	mov	lr, pc
    5d90:	e12fff1c 	bx	r12
    5d94:	e3700001 	cmn	r0, #1
    5d98:	e1a02000 	mov	r2, r0
    5d9c:	0a00001a 	beq	5e0c <__sflush_r+0x204>
    5da0:	e1d530bc 	ldrh	r3, [r5, #12]
    5da4:	e595c028 	ldr	r12, [r5, #40]	; 0x28
    5da8:	eaffffaa 	b	5c58 <__sflush_r+0x50>
    5dac:	e5973000 	ldr	r3, [r7]
    5db0:	e3530000 	cmp	r3, #0
    5db4:	1a000009 	bne	5de0 <__sflush_r+0x1d8>
    5db8:	e1d520bc 	ldrh	r2, [r5, #12]
    5dbc:	e5951010 	ldr	r1, [r5, #16]
    5dc0:	e3c22b02 	bic	r2, r2, #2048	; 0x800
    5dc4:	e3120a01 	tst	r2, #4096	; 0x1000
    5dc8:	e5853004 	str	r3, [r5, #4]
    5dcc:	e1c520bc 	strh	r2, [r5, #12]
    5dd0:	e5851000 	str	r1, [r5]
    5dd4:	0affffb6 	beq	5cb4 <__sflush_r+0xac>
    5dd8:	e5850050 	str	r0, [r5, #80]	; 0x50
    5ddc:	eaffffb4 	b	5cb4 <__sflush_r+0xac>
    5de0:	e353001d 	cmp	r3, #29
    5de4:	0a000001 	beq	5df0 <__sflush_r+0x1e8>
    5de8:	e3530016 	cmp	r3, #22
    5dec:	1a000012 	bne	5e3c <__sflush_r+0x234>
    5df0:	e1d510bc 	ldrh	r1, [r5, #12]
    5df4:	e5952010 	ldr	r2, [r5, #16]
    5df8:	e3c11b02 	bic	r1, r1, #2048	; 0x800
    5dfc:	e3a03000 	mov	r3, #0
    5e00:	e1c510bc 	strh	r1, [r5, #12]
    5e04:	e885000c 	stm	r5, {r2, r3}
    5e08:	eaffffa9 	b	5cb4 <__sflush_r+0xac>
    5e0c:	e5973000 	ldr	r3, [r7]
    5e10:	e3530000 	cmp	r3, #0
    5e14:	0affffe1 	beq	5da0 <__sflush_r+0x198>
    5e18:	e353001d 	cmp	r3, #29
    5e1c:	13530016 	cmpne	r3, #22
    5e20:	11d530bc 	ldrhne	r3, [r5, #12]
    5e24:	13833040 	orrne	r3, r3, #64	; 0x40
    5e28:	05874000 	streq	r4, [r7]
    5e2c:	01a00006 	moveq	r0, r6
    5e30:	11a00002 	movne	r0, r2
    5e34:	11c530bc 	strhne	r3, [r5, #12]
    5e38:	eaffffc7 	b	5d5c <__sflush_r+0x154>
    5e3c:	e1d530bc 	ldrh	r3, [r5, #12]
    5e40:	e3833040 	orr	r3, r3, #64	; 0x40
    5e44:	e1c530bc 	strh	r3, [r5, #12]
    5e48:	eaffffc3 	b	5d5c <__sflush_r+0x154>

00005e4c <_fflush_r>:
    5e4c:	e92d4010 	push	{r4, lr}
    5e50:	e2504000 	subs	r4, r0, #0
    5e54:	e24dd008 	sub	sp, sp, #8
    5e58:	0a000002 	beq	5e68 <_fflush_r+0x1c>
    5e5c:	e5943038 	ldr	r3, [r4, #56]	; 0x38
    5e60:	e3530000 	cmp	r3, #0
    5e64:	0a000009 	beq	5e90 <_fflush_r+0x44>
    5e68:	e1d100fc 	ldrsh	r0, [r1, #12]
    5e6c:	e3500000 	cmp	r0, #0
    5e70:	1a000002 	bne	5e80 <_fflush_r+0x34>
    5e74:	e28dd008 	add	sp, sp, #8
    5e78:	e8bd4010 	pop	{r4, lr}
    5e7c:	e12fff1e 	bx	lr
    5e80:	e1a00004 	mov	r0, r4
    5e84:	e28dd008 	add	sp, sp, #8
    5e88:	e8bd4010 	pop	{r4, lr}
    5e8c:	eaffff5d 	b	5c08 <__sflush_r>
    5e90:	e58d1004 	str	r1, [sp, #4]
    5e94:	eb000037 	bl	5f78 <__sinit>
    5e98:	e59d1004 	ldr	r1, [sp, #4]
    5e9c:	eafffff1 	b	5e68 <_fflush_r+0x1c>

00005ea0 <fflush>:
    5ea0:	e2501000 	subs	r1, r0, #0
    5ea4:	e92d4008 	push	{r3, lr}
    5ea8:	159f3020 	ldrne	r3, [pc, #32]	; 5ed0 <fflush+0x30>
    5eac:	15930000 	ldrne	r0, [r3]
    5eb0:	18bd4008 	popne	{r3, lr}
    5eb4:	1affffe4 	bne	5e4c <_fflush_r>
    5eb8:	e59f3014 	ldr	r3, [pc, #20]	; 5ed4 <fflush+0x34>
    5ebc:	e59f1014 	ldr	r1, [pc, #20]	; 5ed8 <fflush+0x38>
    5ec0:	e5930000 	ldr	r0, [r3]
    5ec4:	eb0003ae 	bl	6d84 <_fwalk_reent>
    5ec8:	e8bd4008 	pop	{r3, lr}
    5ecc:	e12fff1e 	bx	lr
    5ed0:	00013830 	.word	0x00013830
    5ed4:	00013428 	.word	0x00013428
    5ed8:	00005e4c 	.word	0x00005e4c

00005edc <__fp_lock>:
    5edc:	e3a00000 	mov	r0, #0
    5ee0:	e12fff1e 	bx	lr

00005ee4 <__fp_unlock>:
    5ee4:	e3a00000 	mov	r0, #0
    5ee8:	e12fff1e 	bx	lr

00005eec <_cleanup_r>:
    5eec:	e92d4008 	push	{r3, lr}
    5ef0:	e59f1008 	ldr	r1, [pc, #8]	; 5f00 <_cleanup_r+0x14>
    5ef4:	eb000381 	bl	6d00 <_fwalk>
    5ef8:	e8bd4008 	pop	{r3, lr}
    5efc:	e12fff1e 	bx	lr
    5f00:	0000ed34 	.word	0x0000ed34

00005f04 <__sfmoreglue>:
    5f04:	e2413001 	sub	r3, r1, #1
    5f08:	e92d4070 	push	{r4, r5, r6, lr}
    5f0c:	e0835083 	add	r5, r3, r3, lsl #1
    5f10:	e0833105 	add	r3, r3, r5, lsl #2
    5f14:	e1a05183 	lsl	r5, r3, #3
    5f18:	e1a06001 	mov	r6, r1
    5f1c:	e2851074 	add	r1, r5, #116	; 0x74
    5f20:	eb000454 	bl	7078 <_malloc_r>
    5f24:	e2504000 	subs	r4, r0, #0
    5f28:	0a000006 	beq	5f48 <__sfmoreglue+0x44>
    5f2c:	e3a01000 	mov	r1, #0
    5f30:	e284000c 	add	r0, r4, #12
    5f34:	e5846004 	str	r6, [r4, #4]
    5f38:	e2852068 	add	r2, r5, #104	; 0x68
    5f3c:	e5841000 	str	r1, [r4]
    5f40:	e5840008 	str	r0, [r4, #8]
    5f44:	eb00075a 	bl	7cb4 <memset>
    5f48:	e1a00004 	mov	r0, r4
    5f4c:	e8bd4070 	pop	{r4, r5, r6, lr}
    5f50:	e12fff1e 	bx	lr

00005f54 <_cleanup>:
    5f54:	e92d4008 	push	{r3, lr}
    5f58:	e59f3010 	ldr	r3, [pc, #16]	; 5f70 <_cleanup+0x1c>
    5f5c:	e59f1010 	ldr	r1, [pc, #16]	; 5f74 <_cleanup+0x20>
    5f60:	e5930000 	ldr	r0, [r3]
    5f64:	eb000365 	bl	6d00 <_fwalk>
    5f68:	e8bd4008 	pop	{r3, lr}
    5f6c:	e12fff1e 	bx	lr
    5f70:	00013428 	.word	0x00013428
    5f74:	0000ed34 	.word	0x0000ed34

00005f78 <__sinit>:
    5f78:	e92d4ff0 	push	{r4, r5, r6, r7, r8, r9, r10, r11, lr}
    5f7c:	e5904038 	ldr	r4, [r0, #56]	; 0x38
    5f80:	e3540000 	cmp	r4, #0
    5f84:	e24dd00c 	sub	sp, sp, #12
    5f88:	e1a07000 	mov	r7, r0
    5f8c:	1a00004b 	bne	60c0 <__sinit+0x148>
    5f90:	e5975004 	ldr	r5, [r7, #4]
    5f94:	e59f0130 	ldr	r0, [pc, #304]	; 60cc <__sinit+0x154>
    5f98:	e3a03004 	mov	r3, #4
    5f9c:	e3a01003 	mov	r1, #3
    5fa0:	e2872fbb 	add	r2, r7, #748	; 0x2ec
    5fa4:	e587003c 	str	r0, [r7, #60]	; 0x3c
    5fa8:	e58712e4 	str	r1, [r7, #740]	; 0x2e4
    5fac:	e58722e8 	str	r2, [r7, #744]	; 0x2e8
    5fb0:	e58742e0 	str	r4, [r7, #736]	; 0x2e0
    5fb4:	e285005c 	add	r0, r5, #92	; 0x5c
    5fb8:	e1c530bc 	strh	r3, [r5, #12]
    5fbc:	e5854000 	str	r4, [r5]
    5fc0:	e5854004 	str	r4, [r5, #4]
    5fc4:	e5854008 	str	r4, [r5, #8]
    5fc8:	e5854064 	str	r4, [r5, #100]	; 0x64
    5fcc:	e1c540be 	strh	r4, [r5, #14]
    5fd0:	e5854010 	str	r4, [r5, #16]
    5fd4:	e5854014 	str	r4, [r5, #20]
    5fd8:	e5854018 	str	r4, [r5, #24]
    5fdc:	e1a01004 	mov	r1, r4
    5fe0:	e3a02008 	mov	r2, #8
    5fe4:	eb000732 	bl	7cb4 <memset>
    5fe8:	e59fb0e0 	ldr	r11, [pc, #224]	; 60d0 <__sinit+0x158>
    5fec:	e5976008 	ldr	r6, [r7, #8]
    5ff0:	e59fa0dc 	ldr	r10, [pc, #220]	; 60d4 <__sinit+0x15c>
    5ff4:	e59f90dc 	ldr	r9, [pc, #220]	; 60d8 <__sinit+0x160>
    5ff8:	e59f80dc 	ldr	r8, [pc, #220]	; 60dc <__sinit+0x164>
    5ffc:	e3a03001 	mov	r3, #1
    6000:	e3a02009 	mov	r2, #9
    6004:	e585501c 	str	r5, [r5, #28]
    6008:	e585b020 	str	r11, [r5, #32]
    600c:	e585a024 	str	r10, [r5, #36]	; 0x24
    6010:	e5859028 	str	r9, [r5, #40]	; 0x28
    6014:	e585802c 	str	r8, [r5, #44]	; 0x2c
    6018:	e1a01004 	mov	r1, r4
    601c:	e1c630be 	strh	r3, [r6, #14]
    6020:	e1c620bc 	strh	r2, [r6, #12]
    6024:	e5864000 	str	r4, [r6]
    6028:	e5864004 	str	r4, [r6, #4]
    602c:	e5864008 	str	r4, [r6, #8]
    6030:	e5864064 	str	r4, [r6, #100]	; 0x64
    6034:	e5864010 	str	r4, [r6, #16]
    6038:	e5864014 	str	r4, [r6, #20]
    603c:	e5864018 	str	r4, [r6, #24]
    6040:	e3a02008 	mov	r2, #8
    6044:	e286005c 	add	r0, r6, #92	; 0x5c
    6048:	e58d3004 	str	r3, [sp, #4]
    604c:	eb000718 	bl	7cb4 <memset>
    6050:	e597500c 	ldr	r5, [r7, #12]
    6054:	e3a00012 	mov	r0, #18
    6058:	e3a02002 	mov	r2, #2
    605c:	e586601c 	str	r6, [r6, #28]
    6060:	e586b020 	str	r11, [r6, #32]
    6064:	e586a024 	str	r10, [r6, #36]	; 0x24
    6068:	e5869028 	str	r9, [r6, #40]	; 0x28
    606c:	e586802c 	str	r8, [r6, #44]	; 0x2c
    6070:	e1a01004 	mov	r1, r4
    6074:	e1c500bc 	strh	r0, [r5, #12]
    6078:	e1c520be 	strh	r2, [r5, #14]
    607c:	e5854000 	str	r4, [r5]
    6080:	e5854004 	str	r4, [r5, #4]
    6084:	e5854008 	str	r4, [r5, #8]
    6088:	e5854064 	str	r4, [r5, #100]	; 0x64
    608c:	e5854010 	str	r4, [r5, #16]
    6090:	e5854014 	str	r4, [r5, #20]
    6094:	e5854018 	str	r4, [r5, #24]
    6098:	e285005c 	add	r0, r5, #92	; 0x5c
    609c:	e3a02008 	mov	r2, #8
    60a0:	eb000703 	bl	7cb4 <memset>
    60a4:	e59d3004 	ldr	r3, [sp, #4]
    60a8:	e585501c 	str	r5, [r5, #28]
    60ac:	e585b020 	str	r11, [r5, #32]
    60b0:	e585a024 	str	r10, [r5, #36]	; 0x24
    60b4:	e5859028 	str	r9, [r5, #40]	; 0x28
    60b8:	e585802c 	str	r8, [r5, #44]	; 0x2c
    60bc:	e5873038 	str	r3, [r7, #56]	; 0x38
    60c0:	e28dd00c 	add	sp, sp, #12
    60c4:	e8bd4ff0 	pop	{r4, r5, r6, r7, r8, r9, r10, r11, lr}
    60c8:	e12fff1e 	bx	lr
    60cc:	00005eec 	.word	0x00005eec
    60d0:	000094c0 	.word	0x000094c0
    60d4:	000094fc 	.word	0x000094fc
    60d8:	00009554 	.word	0x00009554
    60dc:	00009584 	.word	0x00009584

000060e0 <__sfp>:
    60e0:	e59f30ec 	ldr	r3, [pc, #236]	; 61d4 <__sfp+0xf4>
    60e4:	e92d4070 	push	{r4, r5, r6, lr}
    60e8:	e5935000 	ldr	r5, [r3]
    60ec:	e5953038 	ldr	r3, [r5, #56]	; 0x38
    60f0:	e3530000 	cmp	r3, #0
    60f4:	e1a06000 	mov	r6, r0
    60f8:	0a00002f 	beq	61bc <__sfp+0xdc>
    60fc:	e2855e2e 	add	r5, r5, #736	; 0x2e0
    6100:	e5953004 	ldr	r3, [r5, #4]
    6104:	e2533001 	subs	r3, r3, #1
    6108:	e5954008 	ldr	r4, [r5, #8]
    610c:	5a000004 	bpl	6124 <__sfp+0x44>
    6110:	ea00001d 	b	618c <__sfp+0xac>
    6114:	e2433001 	sub	r3, r3, #1
    6118:	e3730001 	cmn	r3, #1
    611c:	e2844068 	add	r4, r4, #104	; 0x68
    6120:	0a000019 	beq	618c <__sfp+0xac>
    6124:	e1d420fc 	ldrsh	r2, [r4, #12]
    6128:	e3520000 	cmp	r2, #0
    612c:	1afffff8 	bne	6114 <__sfp+0x34>
    6130:	e3a05000 	mov	r5, #0
    6134:	e3e02000 	mvn	r2, #0
    6138:	e3a03001 	mov	r3, #1
    613c:	e1c420be 	strh	r2, [r4, #14]
    6140:	e1c430bc 	strh	r3, [r4, #12]
    6144:	e5845064 	str	r5, [r4, #100]	; 0x64
    6148:	e5845000 	str	r5, [r4]
    614c:	e5845008 	str	r5, [r4, #8]
    6150:	e5845004 	str	r5, [r4, #4]
    6154:	e5845010 	str	r5, [r4, #16]
    6158:	e5845014 	str	r5, [r4, #20]
    615c:	e5845018 	str	r5, [r4, #24]
    6160:	e1a01005 	mov	r1, r5
    6164:	e284005c 	add	r0, r4, #92	; 0x5c
    6168:	e3a02008 	mov	r2, #8
    616c:	eb0006d0 	bl	7cb4 <memset>
    6170:	e5845030 	str	r5, [r4, #48]	; 0x30
    6174:	e5845034 	str	r5, [r4, #52]	; 0x34
    6178:	e5845044 	str	r5, [r4, #68]	; 0x44
    617c:	e5845048 	str	r5, [r4, #72]	; 0x48
    6180:	e1a00004 	mov	r0, r4
    6184:	e8bd4070 	pop	{r4, r5, r6, lr}
    6188:	e12fff1e 	bx	lr
    618c:	e5953000 	ldr	r3, [r5]
    6190:	e3530000 	cmp	r3, #0
    6194:	11a05003 	movne	r5, r3
    6198:	1affffd8 	bne	6100 <__sfp+0x20>
    619c:	e1a00006 	mov	r0, r6
    61a0:	e3a01004 	mov	r1, #4
    61a4:	ebffff56 	bl	5f04 <__sfmoreglue>
    61a8:	e3500000 	cmp	r0, #0
    61ac:	e5850000 	str	r0, [r5]
    61b0:	0a000004 	beq	61c8 <__sfp+0xe8>
    61b4:	e1a05000 	mov	r5, r0
    61b8:	eaffffd0 	b	6100 <__sfp+0x20>
    61bc:	e1a00005 	mov	r0, r5
    61c0:	ebffff6c 	bl	5f78 <__sinit>
    61c4:	eaffffcc 	b	60fc <__sfp+0x1c>
    61c8:	e3a0300c 	mov	r3, #12
    61cc:	e5863000 	str	r3, [r6]
    61d0:	eaffffeb 	b	6184 <__sfp+0xa4>
    61d4:	00013428 	.word	0x00013428

000061d8 <__sfp_lock_acquire>:
    61d8:	e12fff1e 	bx	lr

000061dc <__sfp_lock_release>:
    61dc:	e12fff1e 	bx	lr

000061e0 <__sinit_lock_acquire>:
    61e0:	e12fff1e 	bx	lr

000061e4 <__sinit_lock_release>:
    61e4:	e12fff1e 	bx	lr

000061e8 <__fp_lock_all>:
    61e8:	e92d4008 	push	{r3, lr}
    61ec:	e59f3010 	ldr	r3, [pc, #16]	; 6204 <__fp_lock_all+0x1c>
    61f0:	e59f1010 	ldr	r1, [pc, #16]	; 6208 <__fp_lock_all+0x20>
    61f4:	e5930000 	ldr	r0, [r3]
    61f8:	eb0002c0 	bl	6d00 <_fwalk>
    61fc:	e8bd4008 	pop	{r3, lr}
    6200:	e12fff1e 	bx	lr
    6204:	00013830 	.word	0x00013830
    6208:	00005edc 	.word	0x00005edc

0000620c <__fp_unlock_all>:
    620c:	e92d4008 	push	{r3, lr}
    6210:	e59f3010 	ldr	r3, [pc, #16]	; 6228 <__fp_unlock_all+0x1c>
    6214:	e59f1010 	ldr	r1, [pc, #16]	; 622c <__fp_unlock_all+0x20>
    6218:	e5930000 	ldr	r0, [r3]
    621c:	eb0002b7 	bl	6d00 <_fwalk>
    6220:	e8bd4008 	pop	{r3, lr}
    6224:	e12fff1e 	bx	lr
    6228:	00013830 	.word	0x00013830
    622c:	00005ee4 	.word	0x00005ee4

00006230 <__libc_fini_array>:
    6230:	e92d4038 	push	{r3, r4, r5, lr}
    6234:	e59f5034 	ldr	r5, [pc, #52]	; 6270 <__libc_fini_array+0x40>
    6238:	e59f4034 	ldr	r4, [pc, #52]	; 6274 <__libc_fini_array+0x44>
    623c:	e0654004 	rsb	r4, r5, r4
    6240:	e1b04144 	asrs	r4, r4, #2
    6244:	10855104 	addne	r5, r5, r4, lsl #2
    6248:	0a000005 	beq	6264 <__libc_fini_array+0x34>
    624c:	e2444001 	sub	r4, r4, #1
    6250:	e5353004 	ldr	r3, [r5, #-4]!
    6254:	e1a0e00f 	mov	lr, pc
    6258:	e12fff13 	bx	r3
    625c:	e3540000 	cmp	r4, #0
    6260:	1afffff9 	bne	624c <__libc_fini_array+0x1c>
    6264:	eb003561 	bl	137f0 <__libc_fini>
    6268:	e8bd4038 	pop	{r3, r4, r5, lr}
    626c:	e12fff1e 	bx	lr
    6270:	00013808 	.word	0x00013808
    6274:	0001380c 	.word	0x0001380c

00006278 <_fread_r>:
    6278:	e92d4ff0 	push	{r4, r5, r6, r7, r8, r9, r10, r11, lr}
    627c:	e1a07002 	mov	r7, r2
    6280:	e0170793 	muls	r7, r3, r7
    6284:	e24dd00c 	sub	sp, sp, #12
    6288:	e1a04000 	mov	r4, r0
    628c:	e58d2000 	str	r2, [sp]
    6290:	e1a05003 	mov	r5, r3
    6294:	e1a09001 	mov	r9, r1
    6298:	e59db030 	ldr	r11, [sp, #48]	; 0x30
    629c:	01a00007 	moveq	r0, r7
    62a0:	0a00004a 	beq	63d0 <_fread_r+0x158>
    62a4:	e3540000 	cmp	r4, #0
    62a8:	0a000002 	beq	62b8 <_fread_r+0x40>
    62ac:	e5942038 	ldr	r2, [r4, #56]	; 0x38
    62b0:	e3520000 	cmp	r2, #0
    62b4:	0a00006a 	beq	6464 <_fread_r+0x1ec>
    62b8:	e1db20bc 	ldrh	r2, [r11, #12]
    62bc:	e3120a02 	tst	r2, #8192	; 0x2000
    62c0:	059b0064 	ldreq	r0, [r11, #100]	; 0x64
    62c4:	e59b8004 	ldr	r8, [r11, #4]
    62c8:	e1a01002 	mov	r1, r2
    62cc:	03821a02 	orreq	r1, r2, #8192	; 0x2000
    62d0:	03c02a02 	biceq	r2, r0, #8192	; 0x2000
    62d4:	01cb10bc 	strheq	r1, [r11, #12]
    62d8:	058b2064 	streq	r2, [r11, #100]	; 0x64
    62dc:	e3580000 	cmp	r8, #0
    62e0:	b3a0a000 	movlt	r10, #0
    62e4:	a1a0a008 	movge	r10, r8
    62e8:	b58ba004 	strlt	r10, [r11, #4]
    62ec:	b1a0800a 	movlt	r8, r10
    62f0:	e3110002 	tst	r1, #2
    62f4:	01a0a007 	moveq	r10, r7
    62f8:	0a000043 	beq	640c <_fread_r+0x194>
    62fc:	e15a0007 	cmp	r10, r7
    6300:	21a0a007 	movcs	r10, r7
    6304:	e1a0200a 	mov	r2, r10
    6308:	e1a00009 	mov	r0, r9
    630c:	e59b1000 	ldr	r1, [r11]
    6310:	eb0005de 	bl	7a90 <memcpy>
    6314:	e59b8000 	ldr	r8, [r11]
    6318:	e59b2004 	ldr	r2, [r11, #4]
    631c:	e59b1030 	ldr	r1, [r11, #48]	; 0x30
    6320:	e088800a 	add	r8, r8, r10
    6324:	e06a2002 	rsb	r2, r10, r2
    6328:	e3510000 	cmp	r1, #0
    632c:	e089600a 	add	r6, r9, r10
    6330:	e58b8000 	str	r8, [r11]
    6334:	e58b2004 	str	r2, [r11, #4]
    6338:	e06a9007 	rsb	r9, r10, r7
    633c:	0a00004a 	beq	646c <_fread_r+0x1f4>
    6340:	e3590000 	cmp	r9, #0
    6344:	0a00004a 	beq	6474 <_fread_r+0x1fc>
    6348:	e28b0040 	add	r0, r11, #64	; 0x40
    634c:	e1510000 	cmp	r1, r0
    6350:	0a000002 	beq	6360 <_fread_r+0xe8>
    6354:	e1a00004 	mov	r0, r4
    6358:	eb000099 	bl	65c4 <_free_r>
    635c:	e59b8000 	ldr	r8, [r11]
    6360:	e3a01000 	mov	r1, #0
    6364:	e58b1030 	str	r1, [r11, #48]	; 0x30
    6368:	e59b3010 	ldr	r3, [r11, #16]
    636c:	e59ba014 	ldr	r10, [r11, #20]
    6370:	e58d3004 	str	r3, [sp, #4]
    6374:	ea000001 	b	6380 <_fread_r+0x108>
    6378:	e3590000 	cmp	r9, #0
    637c:	0a00003c 	beq	6474 <_fread_r+0x1fc>
    6380:	e58b6010 	str	r6, [r11, #16]
    6384:	e58b9014 	str	r9, [r11, #20]
    6388:	e58b6000 	str	r6, [r11]
    638c:	e1a0100b 	mov	r1, r11
    6390:	e1a00004 	mov	r0, r4
    6394:	eb000b36 	bl	9074 <__srefill_r>
    6398:	e59d3004 	ldr	r3, [sp, #4]
    639c:	e59b1004 	ldr	r1, [r11, #4]
    63a0:	e58b3010 	str	r3, [r11, #16]
    63a4:	e3500000 	cmp	r0, #0
    63a8:	e3a03000 	mov	r3, #0
    63ac:	e58ba014 	str	r10, [r11, #20]
    63b0:	e58b8000 	str	r8, [r11]
    63b4:	e0619009 	rsb	r9, r1, r9
    63b8:	e0866001 	add	r6, r6, r1
    63bc:	e58b3004 	str	r3, [r11, #4]
    63c0:	0affffec 	beq	6378 <_fread_r+0x100>
    63c4:	e0690007 	rsb	r0, r9, r7
    63c8:	e59d1000 	ldr	r1, [sp]
    63cc:	eb002be3 	bl	11360 <__aeabi_uidiv>
    63d0:	e28dd00c 	add	sp, sp, #12
    63d4:	e8bd4ff0 	pop	{r4, r5, r6, r7, r8, r9, r10, r11, lr}
    63d8:	e12fff1e 	bx	lr
    63dc:	eb0005ab 	bl	7a90 <memcpy>
    63e0:	e59b2000 	ldr	r2, [r11]
    63e4:	e0822008 	add	r2, r2, r8
    63e8:	e58b2000 	str	r2, [r11]
    63ec:	e1a00004 	mov	r0, r4
    63f0:	e1a0100b 	mov	r1, r11
    63f4:	eb000b1e 	bl	9074 <__srefill_r>
    63f8:	e3500000 	cmp	r0, #0
    63fc:	e0899008 	add	r9, r9, r8
    6400:	e068a00a 	rsb	r10, r8, r10
    6404:	1a000010 	bne	644c <_fread_r+0x1d4>
    6408:	e59b8004 	ldr	r8, [r11, #4]
    640c:	e15a0008 	cmp	r10, r8
    6410:	e1a02008 	mov	r2, r8
    6414:	e1a00009 	mov	r0, r9
    6418:	e59b1000 	ldr	r1, [r11]
    641c:	8affffee 	bhi	63dc <_fread_r+0x164>
    6420:	e1a0200a 	mov	r2, r10
    6424:	eb000599 	bl	7a90 <memcpy>
    6428:	e89b0006 	ldm	r11, {r1, r2}
    642c:	e1a00005 	mov	r0, r5
    6430:	e06a2002 	rsb	r2, r10, r2
    6434:	e081a00a 	add	r10, r1, r10
    6438:	e58b2004 	str	r2, [r11, #4]
    643c:	e58ba000 	str	r10, [r11]
    6440:	e28dd00c 	add	sp, sp, #12
    6444:	e8bd4ff0 	pop	{r4, r5, r6, r7, r8, r9, r10, r11, lr}
    6448:	e12fff1e 	bx	lr
    644c:	e06a0007 	rsb	r0, r10, r7
    6450:	e59d1000 	ldr	r1, [sp]
    6454:	eb002bc1 	bl	11360 <__aeabi_uidiv>
    6458:	e28dd00c 	add	sp, sp, #12
    645c:	e8bd4ff0 	pop	{r4, r5, r6, r7, r8, r9, r10, r11, lr}
    6460:	e12fff1e 	bx	lr
    6464:	ebfffec3 	bl	5f78 <__sinit>
    6468:	eaffff92 	b	62b8 <_fread_r+0x40>
    646c:	e3590000 	cmp	r9, #0
    6470:	1affffbc 	bne	6368 <_fread_r+0xf0>
    6474:	e1a00005 	mov	r0, r5
    6478:	e28dd00c 	add	sp, sp, #12
    647c:	e8bd4ff0 	pop	{r4, r5, r6, r7, r8, r9, r10, r11, lr}
    6480:	e12fff1e 	bx	lr

00006484 <fread>:
    6484:	e92d4010 	push	{r4, lr}
    6488:	e59fc030 	ldr	r12, [pc, #48]	; 64c0 <fread+0x3c>
    648c:	e59ce000 	ldr	lr, [r12]
    6490:	e24dd008 	sub	sp, sp, #8
    6494:	e1a0c002 	mov	r12, r2
    6498:	e1a04001 	mov	r4, r1
    649c:	e58d3000 	str	r3, [sp]
    64a0:	e1a01000 	mov	r1, r0
    64a4:	e1a02004 	mov	r2, r4
    64a8:	e1a0000e 	mov	r0, lr
    64ac:	e1a0300c 	mov	r3, r12
    64b0:	ebffff70 	bl	6278 <_fread_r>
    64b4:	e28dd008 	add	sp, sp, #8
    64b8:	e8bd4010 	pop	{r4, lr}
    64bc:	e12fff1e 	bx	lr
    64c0:	00013830 	.word	0x00013830

000064c4 <_malloc_trim_r>:
    64c4:	e92d40f8 	push	{r3, r4, r5, r6, r7, lr}
    64c8:	e59f50e8 	ldr	r5, [pc, #232]	; 65b8 <_malloc_trim_r+0xf4>
    64cc:	e1a07001 	mov	r7, r1
    64d0:	e1a04000 	mov	r4, r0
    64d4:	eb000633 	bl	7da8 <__malloc_lock>
    64d8:	e5953008 	ldr	r3, [r5, #8]
    64dc:	e5936004 	ldr	r6, [r3, #4]
    64e0:	e3c66003 	bic	r6, r6, #3
    64e4:	e0677006 	rsb	r7, r7, r6
    64e8:	e2877efe 	add	r7, r7, #4064	; 0xfe0
    64ec:	e287700f 	add	r7, r7, #15
    64f0:	e1a07627 	lsr	r7, r7, #12
    64f4:	e2477001 	sub	r7, r7, #1
    64f8:	e1a07607 	lsl	r7, r7, #12
    64fc:	e3570a01 	cmp	r7, #4096	; 0x1000
    6500:	ba000006 	blt	6520 <_malloc_trim_r+0x5c>
    6504:	e1a00004 	mov	r0, r4
    6508:	e3a01000 	mov	r1, #0
    650c:	eb000b6b 	bl	92c0 <_sbrk_r>
    6510:	e5953008 	ldr	r3, [r5, #8]
    6514:	e0833006 	add	r3, r3, r6
    6518:	e1500003 	cmp	r0, r3
    651c:	0a000004 	beq	6534 <_malloc_trim_r+0x70>
    6520:	e1a00004 	mov	r0, r4
    6524:	eb000620 	bl	7dac <__malloc_unlock>
    6528:	e3a00000 	mov	r0, #0
    652c:	e8bd40f8 	pop	{r3, r4, r5, r6, r7, lr}
    6530:	e12fff1e 	bx	lr
    6534:	e1a00004 	mov	r0, r4
    6538:	e2671000 	rsb	r1, r7, #0
    653c:	eb000b5f 	bl	92c0 <_sbrk_r>
    6540:	e3700001 	cmn	r0, #1
    6544:	0a00000c 	beq	657c <_malloc_trim_r+0xb8>
    6548:	e59f306c 	ldr	r3, [pc, #108]	; 65bc <_malloc_trim_r+0xf8>
    654c:	e5951008 	ldr	r1, [r5, #8]
    6550:	e5932000 	ldr	r2, [r3]
    6554:	e0676006 	rsb	r6, r7, r6
    6558:	e3866001 	orr	r6, r6, #1
    655c:	e1a00004 	mov	r0, r4
    6560:	e0677002 	rsb	r7, r7, r2
    6564:	e5816004 	str	r6, [r1, #4]
    6568:	e5837000 	str	r7, [r3]
    656c:	eb00060e 	bl	7dac <__malloc_unlock>
    6570:	e3a00001 	mov	r0, #1
    6574:	e8bd40f8 	pop	{r3, r4, r5, r6, r7, lr}
    6578:	e12fff1e 	bx	lr
    657c:	e1a00004 	mov	r0, r4
    6580:	e3a01000 	mov	r1, #0
    6584:	eb000b4d 	bl	92c0 <_sbrk_r>
    6588:	e5953008 	ldr	r3, [r5, #8]
    658c:	e0632000 	rsb	r2, r3, r0
    6590:	e352000f 	cmp	r2, #15
    6594:	daffffe1 	ble	6520 <_malloc_trim_r+0x5c>
    6598:	e59f1020 	ldr	r1, [pc, #32]	; 65c0 <_malloc_trim_r+0xfc>
    659c:	e591c000 	ldr	r12, [r1]
    65a0:	e59f1014 	ldr	r1, [pc, #20]	; 65bc <_malloc_trim_r+0xf8>
    65a4:	e3822001 	orr	r2, r2, #1
    65a8:	e06c0000 	rsb	r0, r12, r0
    65ac:	e5832004 	str	r2, [r3, #4]
    65b0:	e5810000 	str	r0, [r1]
    65b4:	eaffffd9 	b	6520 <_malloc_trim_r+0x5c>
    65b8:	00013cdc 	.word	0x00013cdc
    65bc:	0001412c 	.word	0x0001412c
    65c0:	000140e4 	.word	0x000140e4

000065c4 <_free_r>:
    65c4:	e92d40f8 	push	{r3, r4, r5, r6, r7, lr}
    65c8:	e2514000 	subs	r4, r1, #0
    65cc:	e1a06000 	mov	r6, r0
    65d0:	0a000046 	beq	66f0 <_free_r+0x12c>
    65d4:	eb0005f3 	bl	7da8 <__malloc_lock>
    65d8:	e514e004 	ldr	lr, [r4, #-4]
    65dc:	e59f1238 	ldr	r1, [pc, #568]	; 681c <_free_r+0x258>
    65e0:	e3ce3001 	bic	r3, lr, #1
    65e4:	e244c008 	sub	r12, r4, #8
    65e8:	e08c2003 	add	r2, r12, r3
    65ec:	e5910008 	ldr	r0, [r1, #8]
    65f0:	e5925004 	ldr	r5, [r2, #4]
    65f4:	e1500002 	cmp	r0, r2
    65f8:	e3c55003 	bic	r5, r5, #3
    65fc:	0a00004a 	beq	672c <_free_r+0x168>
    6600:	e21ee001 	ands	lr, lr, #1
    6604:	e5825004 	str	r5, [r2, #4]
    6608:	13a0e000 	movne	lr, #0
    660c:	1a000009 	bne	6638 <_free_r+0x74>
    6610:	e5144008 	ldr	r4, [r4, #-8]
    6614:	e064c00c 	rsb	r12, r4, r12
    6618:	e59c0008 	ldr	r0, [r12, #8]
    661c:	e2817008 	add	r7, r1, #8
    6620:	e1500007 	cmp	r0, r7
    6624:	e0833004 	add	r3, r3, r4
    6628:	159c400c 	ldrne	r4, [r12, #12]
    662c:	1580400c 	strne	r4, [r0, #12]
    6630:	15840008 	strne	r0, [r4, #8]
    6634:	03a0e001 	moveq	lr, #1
    6638:	e0820005 	add	r0, r2, r5
    663c:	e5900004 	ldr	r0, [r0, #4]
    6640:	e3100001 	tst	r0, #1
    6644:	1a000009 	bne	6670 <_free_r+0xac>
    6648:	e35e0000 	cmp	lr, #0
    664c:	e5920008 	ldr	r0, [r2, #8]
    6650:	e0833005 	add	r3, r3, r5
    6654:	1a000002 	bne	6664 <_free_r+0xa0>
    6658:	e59f41c0 	ldr	r4, [pc, #448]	; 6820 <_free_r+0x25c>
    665c:	e1500004 	cmp	r0, r4
    6660:	0a000047 	beq	6784 <_free_r+0x1c0>
    6664:	e592200c 	ldr	r2, [r2, #12]
    6668:	e580200c 	str	r2, [r0, #12]
    666c:	e5820008 	str	r0, [r2, #8]
    6670:	e3832001 	orr	r2, r3, #1
    6674:	e35e0000 	cmp	lr, #0
    6678:	e58c2004 	str	r2, [r12, #4]
    667c:	e78c3003 	str	r3, [r12, r3]
    6680:	1a000018 	bne	66e8 <_free_r+0x124>
    6684:	e3530c02 	cmp	r3, #512	; 0x200
    6688:	3a00001a 	bcc	66f8 <_free_r+0x134>
    668c:	e1a024a3 	lsr	r2, r3, #9
    6690:	e3520004 	cmp	r2, #4
    6694:	8a000042 	bhi	67a4 <_free_r+0x1e0>
    6698:	e1a0e323 	lsr	lr, r3, #6
    669c:	e28ee038 	add	lr, lr, #56	; 0x38
    66a0:	e1a0008e 	lsl	r0, lr, #1
    66a4:	e0810100 	add	r0, r1, r0, lsl #2
    66a8:	e5902008 	ldr	r2, [r0, #8]
    66ac:	e1520000 	cmp	r2, r0
    66b0:	e59f1164 	ldr	r1, [pc, #356]	; 681c <_free_r+0x258>
    66b4:	0a000044 	beq	67cc <_free_r+0x208>
    66b8:	e5921004 	ldr	r1, [r2, #4]
    66bc:	e3c11003 	bic	r1, r1, #3
    66c0:	e1530001 	cmp	r3, r1
    66c4:	2a000002 	bcs	66d4 <_free_r+0x110>
    66c8:	e5922008 	ldr	r2, [r2, #8]
    66cc:	e1500002 	cmp	r0, r2
    66d0:	1afffff8 	bne	66b8 <_free_r+0xf4>
    66d4:	e592300c 	ldr	r3, [r2, #12]
    66d8:	e58c300c 	str	r3, [r12, #12]
    66dc:	e58c2008 	str	r2, [r12, #8]
    66e0:	e583c008 	str	r12, [r3, #8]
    66e4:	e582c00c 	str	r12, [r2, #12]
    66e8:	e1a00006 	mov	r0, r6
    66ec:	eb0005ae 	bl	7dac <__malloc_unlock>
    66f0:	e8bd40f8 	pop	{r3, r4, r5, r6, r7, lr}
    66f4:	e12fff1e 	bx	lr
    66f8:	e5912004 	ldr	r2, [r1, #4]
    66fc:	e1a031a3 	lsr	r3, r3, #3
    6700:	e1a00143 	asr	r0, r3, #2
    6704:	e3a0e001 	mov	lr, #1
    6708:	e182001e 	orr	r0, r2, lr, lsl r0
    670c:	e0813183 	add	r3, r1, r3, lsl #3
    6710:	e5932008 	ldr	r2, [r3, #8]
    6714:	e5810004 	str	r0, [r1, #4]
    6718:	e58c2008 	str	r2, [r12, #8]
    671c:	e58c300c 	str	r3, [r12, #12]
    6720:	e583c008 	str	r12, [r3, #8]
    6724:	e582c00c 	str	r12, [r2, #12]
    6728:	eaffffee 	b	66e8 <_free_r+0x124>
    672c:	e31e0001 	tst	lr, #1
    6730:	e0853003 	add	r3, r5, r3
    6734:	1a000006 	bne	6754 <_free_r+0x190>
    6738:	e5142008 	ldr	r2, [r4, #-8]
    673c:	e062c00c 	rsb	r12, r2, r12
    6740:	e59c000c 	ldr	r0, [r12, #12]
    6744:	e59ce008 	ldr	lr, [r12, #8]
    6748:	e58e000c 	str	r0, [lr, #12]
    674c:	e580e008 	str	lr, [r0, #8]
    6750:	e0833002 	add	r3, r3, r2
    6754:	e59f20c8 	ldr	r2, [pc, #200]	; 6824 <_free_r+0x260>
    6758:	e5920000 	ldr	r0, [r2]
    675c:	e3832001 	orr	r2, r3, #1
    6760:	e1530000 	cmp	r3, r0
    6764:	e58c2004 	str	r2, [r12, #4]
    6768:	e581c008 	str	r12, [r1, #8]
    676c:	3affffdd 	bcc	66e8 <_free_r+0x124>
    6770:	e59f30b0 	ldr	r3, [pc, #176]	; 6828 <_free_r+0x264>
    6774:	e1a00006 	mov	r0, r6
    6778:	e5931000 	ldr	r1, [r3]
    677c:	ebffff50 	bl	64c4 <_malloc_trim_r>
    6780:	eaffffd8 	b	66e8 <_free_r+0x124>
    6784:	e3832001 	orr	r2, r3, #1
    6788:	e581c014 	str	r12, [r1, #20]
    678c:	e581c010 	str	r12, [r1, #16]
    6790:	e58c000c 	str	r0, [r12, #12]
    6794:	e58c0008 	str	r0, [r12, #8]
    6798:	e58c2004 	str	r2, [r12, #4]
    679c:	e78c3003 	str	r3, [r12, r3]
    67a0:	eaffffd0 	b	66e8 <_free_r+0x124>
    67a4:	e3520014 	cmp	r2, #20
    67a8:	9282e05b 	addls	lr, r2, #91	; 0x5b
    67ac:	91a0008e 	lslls	r0, lr, #1
    67b0:	9affffbb 	bls	66a4 <_free_r+0xe0>
    67b4:	e3520054 	cmp	r2, #84	; 0x54
    67b8:	8a00000a 	bhi	67e8 <_free_r+0x224>
    67bc:	e1a0e623 	lsr	lr, r3, #12
    67c0:	e28ee06e 	add	lr, lr, #110	; 0x6e
    67c4:	e1a0008e 	lsl	r0, lr, #1
    67c8:	eaffffb5 	b	66a4 <_free_r+0xe0>
    67cc:	e5913004 	ldr	r3, [r1, #4]
    67d0:	e1a0e14e 	asr	lr, lr, #2
    67d4:	e3a00001 	mov	r0, #1
    67d8:	e1830e10 	orr	r0, r3, r0, lsl lr
    67dc:	e1a03002 	mov	r3, r2
    67e0:	e5810004 	str	r0, [r1, #4]
    67e4:	eaffffbb 	b	66d8 <_free_r+0x114>
    67e8:	e3520f55 	cmp	r2, #340	; 0x154
    67ec:	91a0e7a3 	lsrls	lr, r3, #15
    67f0:	928ee077 	addls	lr, lr, #119	; 0x77
    67f4:	91a0008e 	lslls	r0, lr, #1
    67f8:	9affffa9 	bls	66a4 <_free_r+0xe0>
    67fc:	e59f0028 	ldr	r0, [pc, #40]	; 682c <_free_r+0x268>
    6800:	e1520000 	cmp	r2, r0
    6804:	91a0e923 	lsrls	lr, r3, #18
    6808:	928ee07c 	addls	lr, lr, #124	; 0x7c
    680c:	91a0008e 	lslls	r0, lr, #1
    6810:	83a000fc 	movhi	r0, #252	; 0xfc
    6814:	83a0e07e 	movhi	lr, #126	; 0x7e
    6818:	eaffffa1 	b	66a4 <_free_r+0xe0>
    681c:	00013cdc 	.word	0x00013cdc
    6820:	00013ce4 	.word	0x00013ce4
    6824:	000140e8 	.word	0x000140e8
    6828:	00014128 	.word	0x00014128
    682c:	00000554 	.word	0x00000554

00006830 <__sfvwrite_r>:
    6830:	e92d4ff0 	push	{r4, r5, r6, r7, r8, r9, r10, r11, lr}
    6834:	e5923008 	ldr	r3, [r2, #8]
    6838:	e3530000 	cmp	r3, #0
    683c:	e24dd00c 	sub	sp, sp, #12
    6840:	e1a06002 	mov	r6, r2
    6844:	e1a0b000 	mov	r11, r0
    6848:	e1a04001 	mov	r4, r1
    684c:	0a00004f 	beq	6990 <__sfvwrite_r+0x160>
    6850:	e1d130bc 	ldrh	r3, [r1, #12]
    6854:	e1a03803 	lsl	r3, r3, #16
    6858:	e3130702 	tst	r3, #524288	; 0x80000
    685c:	e1a02823 	lsr	r2, r3, #16
    6860:	0a00004e 	beq	69a0 <__sfvwrite_r+0x170>
    6864:	e5911010 	ldr	r1, [r1, #16]
    6868:	e3510000 	cmp	r1, #0
    686c:	0a00004b 	beq	69a0 <__sfvwrite_r+0x170>
    6870:	e2121002 	ands	r1, r2, #2
    6874:	13a08000 	movne	r8, #0
    6878:	e5965000 	ldr	r5, [r6]
    687c:	11a07008 	movne	r7, r8
    6880:	1a00002e 	bne	6940 <__sfvwrite_r+0x110>
    6884:	e2129001 	ands	r9, r2, #1
    6888:	1a00005f 	bne	6a0c <__sfvwrite_r+0x1dc>
    688c:	e1a07009 	mov	r7, r9
    6890:	e3570000 	cmp	r7, #0
    6894:	0a000022 	beq	6924 <__sfvwrite_r+0xf4>
    6898:	e3130402 	tst	r3, #33554432	; 0x2000000
    689c:	e5948008 	ldr	r8, [r4, #8]
    68a0:	e1a03823 	lsr	r3, r3, #16
    68a4:	0a00008a 	beq	6ad4 <__sfvwrite_r+0x2a4>
    68a8:	e1570008 	cmp	r7, r8
    68ac:	3a0000af 	bcc	6b70 <__sfvwrite_r+0x340>
    68b0:	e3130d12 	tst	r3, #1152	; 0x480
    68b4:	1a0000c9 	bne	6be0 <__sfvwrite_r+0x3b0>
    68b8:	e5940000 	ldr	r0, [r4]
    68bc:	e1a03008 	mov	r3, r8
    68c0:	e1a0a008 	mov	r10, r8
    68c4:	e1a08007 	mov	r8, r7
    68c8:	e1a02003 	mov	r2, r3
    68cc:	e1a01009 	mov	r1, r9
    68d0:	e58d3000 	str	r3, [sp]
    68d4:	eb0004a9 	bl	7b80 <memmove>
    68d8:	e5941008 	ldr	r1, [r4, #8]
    68dc:	e59d3000 	ldr	r3, [sp]
    68e0:	e5942000 	ldr	r2, [r4]
    68e4:	e06aa001 	rsb	r10, r10, r1
    68e8:	e0823003 	add	r3, r2, r3
    68ec:	e584a008 	str	r10, [r4, #8]
    68f0:	e5843000 	str	r3, [r4]
    68f4:	e1a03007 	mov	r3, r7
    68f8:	e5962008 	ldr	r2, [r6, #8]
    68fc:	e0688002 	rsb	r8, r8, r2
    6900:	e3580000 	cmp	r8, #0
    6904:	e0899003 	add	r9, r9, r3
    6908:	e0637007 	rsb	r7, r3, r7
    690c:	e5868008 	str	r8, [r6, #8]
    6910:	0a00001e 	beq	6990 <__sfvwrite_r+0x160>
    6914:	e1d430bc 	ldrh	r3, [r4, #12]
    6918:	e3570000 	cmp	r7, #0
    691c:	e1a03803 	lsl	r3, r3, #16
    6920:	1affffdc 	bne	6898 <__sfvwrite_r+0x68>
    6924:	e5959000 	ldr	r9, [r5]
    6928:	e5957004 	ldr	r7, [r5, #4]
    692c:	e2855008 	add	r5, r5, #8
    6930:	eaffffd6 	b	6890 <__sfvwrite_r+0x60>
    6934:	e5958000 	ldr	r8, [r5]
    6938:	e5957004 	ldr	r7, [r5, #4]
    693c:	e2855008 	add	r5, r5, #8
    6940:	e3570000 	cmp	r7, #0
    6944:	e1a02008 	mov	r2, r8
    6948:	e1a0000b 	mov	r0, r11
    694c:	0afffff8 	beq	6934 <__sfvwrite_r+0x104>
    6950:	e3570b01 	cmp	r7, #1024	; 0x400
    6954:	31a03007 	movcc	r3, r7
    6958:	23a03b01 	movcs	r3, #1024	; 0x400
    695c:	e594101c 	ldr	r1, [r4, #28]
    6960:	e594c024 	ldr	r12, [r4, #36]	; 0x24
    6964:	e1a0e00f 	mov	lr, pc
    6968:	e12fff1c 	bx	r12
    696c:	e3500000 	cmp	r0, #0
    6970:	da00001e 	ble	69f0 <__sfvwrite_r+0x1c0>
    6974:	e5963008 	ldr	r3, [r6, #8]
    6978:	e0603003 	rsb	r3, r0, r3
    697c:	e3530000 	cmp	r3, #0
    6980:	e0888000 	add	r8, r8, r0
    6984:	e0607007 	rsb	r7, r0, r7
    6988:	e5863008 	str	r3, [r6, #8]
    698c:	1affffeb 	bne	6940 <__sfvwrite_r+0x110>
    6990:	e3a00000 	mov	r0, #0
    6994:	e28dd00c 	add	sp, sp, #12
    6998:	e8bd4ff0 	pop	{r4, r5, r6, r7, r8, r9, r10, r11, lr}
    699c:	e12fff1e 	bx	lr
    69a0:	e1a0000b 	mov	r0, r11
    69a4:	e1a01004 	mov	r1, r4
    69a8:	ebfff568 	bl	3f50 <__swsetup_r>
    69ac:	e3500000 	cmp	r0, #0
    69b0:	1a0000cc 	bne	6ce8 <__sfvwrite_r+0x4b8>
    69b4:	e1d430bc 	ldrh	r3, [r4, #12]
    69b8:	e1a03803 	lsl	r3, r3, #16
    69bc:	e1a02823 	lsr	r2, r3, #16
    69c0:	eaffffaa 	b	6870 <__sfvwrite_r+0x40>
    69c4:	e1a01009 	mov	r1, r9
    69c8:	e1a02008 	mov	r2, r8
    69cc:	eb00046b 	bl	7b80 <memmove>
    69d0:	e5943000 	ldr	r3, [r4]
    69d4:	e0833008 	add	r3, r3, r8
    69d8:	e5843000 	str	r3, [r4]
    69dc:	e1a0000b 	mov	r0, r11
    69e0:	e1a01004 	mov	r1, r4
    69e4:	ebfffd18 	bl	5e4c <_fflush_r>
    69e8:	e3500000 	cmp	r0, #0
    69ec:	0a000049 	beq	6b18 <__sfvwrite_r+0x2e8>
    69f0:	e1d430bc 	ldrh	r3, [r4, #12]
    69f4:	e3833040 	orr	r3, r3, #64	; 0x40
    69f8:	e3e00000 	mvn	r0, #0
    69fc:	e1c430bc 	strh	r3, [r4, #12]
    6a00:	e28dd00c 	add	sp, sp, #12
    6a04:	e8bd4ff0 	pop	{r4, r5, r6, r7, r8, r9, r10, r11, lr}
    6a08:	e12fff1e 	bx	lr
    6a0c:	e58d1004 	str	r1, [sp, #4]
    6a10:	e1a09001 	mov	r9, r1
    6a14:	e1a0a001 	mov	r10, r1
    6a18:	e1a08001 	mov	r8, r1
    6a1c:	e3580000 	cmp	r8, #0
    6a20:	0a000025 	beq	6abc <__sfvwrite_r+0x28c>
    6a24:	e59d3004 	ldr	r3, [sp, #4]
    6a28:	e3530000 	cmp	r3, #0
    6a2c:	0a000060 	beq	6bb4 <__sfvwrite_r+0x384>
    6a30:	e5942010 	ldr	r2, [r4, #16]
    6a34:	e5940000 	ldr	r0, [r4]
    6a38:	e1590008 	cmp	r9, r8
    6a3c:	31a03009 	movcc	r3, r9
    6a40:	21a03008 	movcs	r3, r8
    6a44:	e1500002 	cmp	r0, r2
    6a48:	e1a07003 	mov	r7, r3
    6a4c:	e5941008 	ldr	r1, [r4, #8]
    6a50:	e5942014 	ldr	r2, [r4, #20]
    6a54:	9a000002 	bls	6a64 <__sfvwrite_r+0x234>
    6a58:	e081c002 	add	r12, r1, r2
    6a5c:	e153000c 	cmp	r3, r12
    6a60:	ca000084 	bgt	6c78 <__sfvwrite_r+0x448>
    6a64:	e1530002 	cmp	r3, r2
    6a68:	ba00002c 	blt	6b20 <__sfvwrite_r+0x2f0>
    6a6c:	e1a03002 	mov	r3, r2
    6a70:	e1a0000b 	mov	r0, r11
    6a74:	e594101c 	ldr	r1, [r4, #28]
    6a78:	e1a0200a 	mov	r2, r10
    6a7c:	e594c024 	ldr	r12, [r4, #36]	; 0x24
    6a80:	e1a0e00f 	mov	lr, pc
    6a84:	e12fff1c 	bx	r12
    6a88:	e2507000 	subs	r7, r0, #0
    6a8c:	daffffd7 	ble	69f0 <__sfvwrite_r+0x1c0>
    6a90:	e0599007 	subs	r9, r9, r7
    6a94:	0a00002e 	beq	6b54 <__sfvwrite_r+0x324>
    6a98:	e5963008 	ldr	r3, [r6, #8]
    6a9c:	e0673003 	rsb	r3, r7, r3
    6aa0:	e3530000 	cmp	r3, #0
    6aa4:	e08aa007 	add	r10, r10, r7
    6aa8:	e0678008 	rsb	r8, r7, r8
    6aac:	e5863008 	str	r3, [r6, #8]
    6ab0:	0affffb6 	beq	6990 <__sfvwrite_r+0x160>
    6ab4:	e3580000 	cmp	r8, #0
    6ab8:	1affffd9 	bne	6a24 <__sfvwrite_r+0x1f4>
    6abc:	e3a03000 	mov	r3, #0
    6ac0:	e595a000 	ldr	r10, [r5]
    6ac4:	e5958004 	ldr	r8, [r5, #4]
    6ac8:	e58d3004 	str	r3, [sp, #4]
    6acc:	e2855008 	add	r5, r5, #8
    6ad0:	eaffffd1 	b	6a1c <__sfvwrite_r+0x1ec>
    6ad4:	e5940000 	ldr	r0, [r4]
    6ad8:	e5943010 	ldr	r3, [r4, #16]
    6adc:	e1500003 	cmp	r0, r3
    6ae0:	9a000001 	bls	6aec <__sfvwrite_r+0x2bc>
    6ae4:	e1570008 	cmp	r7, r8
    6ae8:	8affffb5 	bhi	69c4 <__sfvwrite_r+0x194>
    6aec:	e5943014 	ldr	r3, [r4, #20]
    6af0:	e1570003 	cmp	r7, r3
    6af4:	3a000022 	bcc	6b84 <__sfvwrite_r+0x354>
    6af8:	e1a0000b 	mov	r0, r11
    6afc:	e594101c 	ldr	r1, [r4, #28]
    6b00:	e1a02009 	mov	r2, r9
    6b04:	e594c024 	ldr	r12, [r4, #36]	; 0x24
    6b08:	e1a0e00f 	mov	lr, pc
    6b0c:	e12fff1c 	bx	r12
    6b10:	e2508000 	subs	r8, r0, #0
    6b14:	daffffb5 	ble	69f0 <__sfvwrite_r+0x1c0>
    6b18:	e1a03008 	mov	r3, r8
    6b1c:	eaffff75 	b	68f8 <__sfvwrite_r+0xc8>
    6b20:	e1a02003 	mov	r2, r3
    6b24:	e1a0100a 	mov	r1, r10
    6b28:	e58d3000 	str	r3, [sp]
    6b2c:	eb000413 	bl	7b80 <memmove>
    6b30:	e59d3000 	ldr	r3, [sp]
    6b34:	e5942008 	ldr	r2, [r4, #8]
    6b38:	e5941000 	ldr	r1, [r4]
    6b3c:	e0632002 	rsb	r2, r3, r2
    6b40:	e0599007 	subs	r9, r9, r7
    6b44:	e0813003 	add	r3, r1, r3
    6b48:	e5842008 	str	r2, [r4, #8]
    6b4c:	e5843000 	str	r3, [r4]
    6b50:	1affffd0 	bne	6a98 <__sfvwrite_r+0x268>
    6b54:	e1a0000b 	mov	r0, r11
    6b58:	e1a01004 	mov	r1, r4
    6b5c:	ebfffcba 	bl	5e4c <_fflush_r>
    6b60:	e3500000 	cmp	r0, #0
    6b64:	1affffa1 	bne	69f0 <__sfvwrite_r+0x1c0>
    6b68:	e58d9004 	str	r9, [sp, #4]
    6b6c:	eaffffc9 	b	6a98 <__sfvwrite_r+0x268>
    6b70:	e5940000 	ldr	r0, [r4]
    6b74:	e1a0a007 	mov	r10, r7
    6b78:	e1a08007 	mov	r8, r7
    6b7c:	e1a03007 	mov	r3, r7
    6b80:	eaffff50 	b	68c8 <__sfvwrite_r+0x98>
    6b84:	e1a02007 	mov	r2, r7
    6b88:	e1a01009 	mov	r1, r9
    6b8c:	eb0003fb 	bl	7b80 <memmove>
    6b90:	e5942008 	ldr	r2, [r4, #8]
    6b94:	e5943000 	ldr	r3, [r4]
    6b98:	e0672002 	rsb	r2, r7, r2
    6b9c:	e0833007 	add	r3, r3, r7
    6ba0:	e5843000 	str	r3, [r4]
    6ba4:	e5842008 	str	r2, [r4, #8]
    6ba8:	e1a08007 	mov	r8, r7
    6bac:	e1a03007 	mov	r3, r7
    6bb0:	eaffff50 	b	68f8 <__sfvwrite_r+0xc8>
    6bb4:	e1a0000a 	mov	r0, r10
    6bb8:	e3a0100a 	mov	r1, #10
    6bbc:	e1a02008 	mov	r2, r8
    6bc0:	eb00036d 	bl	797c <memchr>
    6bc4:	e3500000 	cmp	r0, #0
    6bc8:	12809001 	addne	r9, r0, #1
    6bcc:	e3a03001 	mov	r3, #1
    6bd0:	106a9009 	rsbne	r9, r10, r9
    6bd4:	02889001 	addeq	r9, r8, #1
    6bd8:	e58d3004 	str	r3, [sp, #4]
    6bdc:	eaffff93 	b	6a30 <__sfvwrite_r+0x200>
    6be0:	e5941010 	ldr	r1, [r4, #16]
    6be4:	e594a000 	ldr	r10, [r4]
    6be8:	e5948014 	ldr	r8, [r4, #20]
    6bec:	e061a00a 	rsb	r10, r1, r10
    6bf0:	e0888088 	add	r8, r8, r8, lsl #1
    6bf4:	e28a2001 	add	r2, r10, #1
    6bf8:	e0888fa8 	add	r8, r8, r8, lsr #31
    6bfc:	e0822007 	add	r2, r2, r7
    6c00:	e1a080c8 	asr	r8, r8, #1
    6c04:	e1580002 	cmp	r8, r2
    6c08:	31a08002 	movcc	r8, r2
    6c0c:	21a02008 	movcs	r2, r8
    6c10:	e3130b01 	tst	r3, #1024	; 0x400
    6c14:	0a000027 	beq	6cb8 <__sfvwrite_r+0x488>
    6c18:	e1a01002 	mov	r1, r2
    6c1c:	e1a0000b 	mov	r0, r11
    6c20:	eb000114 	bl	7078 <_malloc_r>
    6c24:	e2503000 	subs	r3, r0, #0
    6c28:	0a000030 	beq	6cf0 <__sfvwrite_r+0x4c0>
    6c2c:	e5941010 	ldr	r1, [r4, #16]
    6c30:	e1a0200a 	mov	r2, r10
    6c34:	e58d3000 	str	r3, [sp]
    6c38:	eb000394 	bl	7a90 <memcpy>
    6c3c:	e1d420bc 	ldrh	r2, [r4, #12]
    6c40:	e3c22d12 	bic	r2, r2, #1152	; 0x480
    6c44:	e3822080 	orr	r2, r2, #128	; 0x80
    6c48:	e1c420bc 	strh	r2, [r4, #12]
    6c4c:	e59d3000 	ldr	r3, [sp]
    6c50:	e083000a 	add	r0, r3, r10
    6c54:	e06aa008 	rsb	r10, r10, r8
    6c58:	e5843010 	str	r3, [r4, #16]
    6c5c:	e584a008 	str	r10, [r4, #8]
    6c60:	e5848014 	str	r8, [r4, #20]
    6c64:	e5840000 	str	r0, [r4]
    6c68:	e1a0a007 	mov	r10, r7
    6c6c:	e1a08007 	mov	r8, r7
    6c70:	e1a03007 	mov	r3, r7
    6c74:	eaffff13 	b	68c8 <__sfvwrite_r+0x98>
    6c78:	e1a0200c 	mov	r2, r12
    6c7c:	e1a0100a 	mov	r1, r10
    6c80:	e58dc000 	str	r12, [sp]
    6c84:	eb0003bd 	bl	7b80 <memmove>
    6c88:	e59dc000 	ldr	r12, [sp]
    6c8c:	e5943000 	ldr	r3, [r4]
    6c90:	e083300c 	add	r3, r3, r12
    6c94:	e5843000 	str	r3, [r4]
    6c98:	e1a0000b 	mov	r0, r11
    6c9c:	e1a01004 	mov	r1, r4
    6ca0:	ebfffc69 	bl	5e4c <_fflush_r>
    6ca4:	e3500000 	cmp	r0, #0
    6ca8:	e59dc000 	ldr	r12, [sp]
    6cac:	1affff4f 	bne	69f0 <__sfvwrite_r+0x1c0>
    6cb0:	e1a0700c 	mov	r7, r12
    6cb4:	eaffff75 	b	6a90 <__sfvwrite_r+0x260>
    6cb8:	e1a0000b 	mov	r0, r11
    6cbc:	eb000786 	bl	8adc <_realloc_r>
    6cc0:	e2503000 	subs	r3, r0, #0
    6cc4:	1affffe1 	bne	6c50 <__sfvwrite_r+0x420>
    6cc8:	e1a0000b 	mov	r0, r11
    6ccc:	e5941010 	ldr	r1, [r4, #16]
    6cd0:	ebfffe3b 	bl	65c4 <_free_r>
    6cd4:	e1d430bc 	ldrh	r3, [r4, #12]
    6cd8:	e3a0200c 	mov	r2, #12
    6cdc:	e3c33080 	bic	r3, r3, #128	; 0x80
    6ce0:	e58b2000 	str	r2, [r11]
    6ce4:	eaffff42 	b	69f4 <__sfvwrite_r+0x1c4>
    6ce8:	e3e00000 	mvn	r0, #0
    6cec:	eaffff28 	b	6994 <__sfvwrite_r+0x164>
    6cf0:	e3a0300c 	mov	r3, #12
    6cf4:	e58b3000 	str	r3, [r11]
    6cf8:	e1d430bc 	ldrh	r3, [r4, #12]
    6cfc:	eaffff3c 	b	69f4 <__sfvwrite_r+0x1c4>

00006d00 <_fwalk>:
    6d00:	e92d41f0 	push	{r4, r5, r6, r7, r8, lr}
    6d04:	e2906e2e 	adds	r6, r0, #736	; 0x2e0
    6d08:	e1a08001 	mov	r8, r1
    6d0c:	0a000018 	beq	6d74 <_fwalk+0x74>
    6d10:	e3a07000 	mov	r7, #0
    6d14:	e5965004 	ldr	r5, [r6, #4]
    6d18:	e2555001 	subs	r5, r5, #1
    6d1c:	e5964008 	ldr	r4, [r6, #8]
    6d20:	4a00000d 	bmi	6d5c <_fwalk+0x5c>
    6d24:	e1d430bc 	ldrh	r3, [r4, #12]
    6d28:	e3530001 	cmp	r3, #1
    6d2c:	e2455001 	sub	r5, r5, #1
    6d30:	9a000006 	bls	6d50 <_fwalk+0x50>
    6d34:	e1d430fe 	ldrsh	r3, [r4, #14]
    6d38:	e3730001 	cmn	r3, #1
    6d3c:	e1a00004 	mov	r0, r4
    6d40:	0a000002 	beq	6d50 <_fwalk+0x50>
    6d44:	e1a0e00f 	mov	lr, pc
    6d48:	e12fff18 	bx	r8
    6d4c:	e1877000 	orr	r7, r7, r0
    6d50:	e3750001 	cmn	r5, #1
    6d54:	e2844068 	add	r4, r4, #104	; 0x68
    6d58:	1afffff1 	bne	6d24 <_fwalk+0x24>
    6d5c:	e5966000 	ldr	r6, [r6]
    6d60:	e3560000 	cmp	r6, #0
    6d64:	1affffea 	bne	6d14 <_fwalk+0x14>
    6d68:	e1a00007 	mov	r0, r7
    6d6c:	e8bd41f0 	pop	{r4, r5, r6, r7, r8, lr}
    6d70:	e12fff1e 	bx	lr
    6d74:	e1a07006 	mov	r7, r6
    6d78:	e1a00007 	mov	r0, r7
    6d7c:	e8bd41f0 	pop	{r4, r5, r6, r7, r8, lr}
    6d80:	e12fff1e 	bx	lr

00006d84 <_fwalk_reent>:
    6d84:	e92d43f8 	push	{r3, r4, r5, r6, r7, r8, r9, lr}
    6d88:	e2906e2e 	adds	r6, r0, #736	; 0x2e0
    6d8c:	e1a08000 	mov	r8, r0
    6d90:	e1a09001 	mov	r9, r1
    6d94:	0a000019 	beq	6e00 <_fwalk_reent+0x7c>
    6d98:	e3a07000 	mov	r7, #0
    6d9c:	e5965004 	ldr	r5, [r6, #4]
    6da0:	e2555001 	subs	r5, r5, #1
    6da4:	e5964008 	ldr	r4, [r6, #8]
    6da8:	4a00000e 	bmi	6de8 <_fwalk_reent+0x64>
    6dac:	e1d430bc 	ldrh	r3, [r4, #12]
    6db0:	e3530001 	cmp	r3, #1
    6db4:	e2455001 	sub	r5, r5, #1
    6db8:	9a000007 	bls	6ddc <_fwalk_reent+0x58>
    6dbc:	e1d430fe 	ldrsh	r3, [r4, #14]
    6dc0:	e3730001 	cmn	r3, #1
    6dc4:	e1a01004 	mov	r1, r4
    6dc8:	e1a00008 	mov	r0, r8
    6dcc:	0a000002 	beq	6ddc <_fwalk_reent+0x58>
    6dd0:	e1a0e00f 	mov	lr, pc
    6dd4:	e12fff19 	bx	r9
    6dd8:	e1877000 	orr	r7, r7, r0
    6ddc:	e3750001 	cmn	r5, #1
    6de0:	e2844068 	add	r4, r4, #104	; 0x68
    6de4:	1afffff0 	bne	6dac <_fwalk_reent+0x28>
    6de8:	e5966000 	ldr	r6, [r6]
    6dec:	e3560000 	cmp	r6, #0
    6df0:	1affffe9 	bne	6d9c <_fwalk_reent+0x18>
    6df4:	e1a00007 	mov	r0, r7
    6df8:	e8bd43f8 	pop	{r3, r4, r5, r6, r7, r8, r9, lr}
    6dfc:	e12fff1e 	bx	lr
    6e00:	e1a07006 	mov	r7, r6
    6e04:	e1a00007 	mov	r0, r7
    6e08:	e8bd43f8 	pop	{r3, r4, r5, r6, r7, r8, r9, lr}
    6e0c:	e12fff1e 	bx	lr

00006e10 <iswspace>:
    6e10:	e35000ff 	cmp	r0, #255	; 0xff
    6e14:	959f3014 	ldrls	r3, [pc, #20]	; 6e30 <iswspace+0x20>
    6e18:	95933000 	ldrls	r3, [r3]
    6e1c:	90830000 	addls	r0, r3, r0
    6e20:	95d00001 	ldrbls	r0, [r0, #1]
    6e24:	92000008 	andls	r0, r0, #8
    6e28:	83a00000 	movhi	r0, #0
    6e2c:	e12fff1e 	bx	lr
    6e30:	00013828 	.word	0x00013828

00006e34 <_setlocale_r>:
    6e34:	e92d4010 	push	{r4, lr}
    6e38:	e2524000 	subs	r4, r2, #0
    6e3c:	0a000004 	beq	6e54 <_setlocale_r+0x20>
    6e40:	e1a00004 	mov	r0, r4
    6e44:	e59f104c 	ldr	r1, [pc, #76]	; 6e98 <_setlocale_r+0x64>
    6e48:	eb0009d2 	bl	9598 <strcmp>
    6e4c:	e3500000 	cmp	r0, #0
    6e50:	1a000002 	bne	6e60 <_setlocale_r+0x2c>
    6e54:	e59f0040 	ldr	r0, [pc, #64]	; 6e9c <_setlocale_r+0x68>
    6e58:	e8bd4010 	pop	{r4, lr}
    6e5c:	e12fff1e 	bx	lr
    6e60:	e1a00004 	mov	r0, r4
    6e64:	e59f1030 	ldr	r1, [pc, #48]	; 6e9c <_setlocale_r+0x68>
    6e68:	eb0009ca 	bl	9598 <strcmp>
    6e6c:	e3500000 	cmp	r0, #0
    6e70:	0afffff7 	beq	6e54 <_setlocale_r+0x20>
    6e74:	e1a00004 	mov	r0, r4
    6e78:	e59f1020 	ldr	r1, [pc, #32]	; 6ea0 <_setlocale_r+0x6c>
    6e7c:	eb0009c5 	bl	9598 <strcmp>
    6e80:	e59f3014 	ldr	r3, [pc, #20]	; 6e9c <_setlocale_r+0x68>
    6e84:	e3500000 	cmp	r0, #0
    6e88:	01a00003 	moveq	r0, r3
    6e8c:	13a00000 	movne	r0, #0
    6e90:	e8bd4010 	pop	{r4, lr}
    6e94:	e12fff1e 	bx	lr
    6e98:	000134d4 	.word	0x000134d4
    6e9c:	0001342c 	.word	0x0001342c
    6ea0:	00013474 	.word	0x00013474

00006ea4 <__locale_charset>:
    6ea4:	e59f0000 	ldr	r0, [pc]	; 6eac <__locale_charset+0x8>
    6ea8:	e12fff1e 	bx	lr
    6eac:	00013c60 	.word	0x00013c60

00006eb0 <__locale_mb_cur_max>:
    6eb0:	e59f3004 	ldr	r3, [pc, #4]	; 6ebc <__locale_mb_cur_max+0xc>
    6eb4:	e5930020 	ldr	r0, [r3, #32]
    6eb8:	e12fff1e 	bx	lr
    6ebc:	00013c60 	.word	0x00013c60

00006ec0 <__locale_msgcharset>:
    6ec0:	e59f0000 	ldr	r0, [pc]	; 6ec8 <__locale_msgcharset+0x8>
    6ec4:	e12fff1e 	bx	lr
    6ec8:	00013c84 	.word	0x00013c84

00006ecc <__locale_cjk_lang>:
    6ecc:	e3a00000 	mov	r0, #0
    6ed0:	e12fff1e 	bx	lr

00006ed4 <_localeconv_r>:
    6ed4:	e59f0000 	ldr	r0, [pc]	; 6edc <_localeconv_r+0x8>
    6ed8:	e12fff1e 	bx	lr
    6edc:	00013ca4 	.word	0x00013ca4

00006ee0 <setlocale>:
    6ee0:	e59f300c 	ldr	r3, [pc, #12]	; 6ef4 <setlocale+0x14>
    6ee4:	e1a02001 	mov	r2, r1
    6ee8:	e1a01000 	mov	r1, r0
    6eec:	e5930000 	ldr	r0, [r3]
    6ef0:	eaffffcf 	b	6e34 <_setlocale_r>
    6ef4:	00013830 	.word	0x00013830

00006ef8 <localeconv>:
    6ef8:	e59f0000 	ldr	r0, [pc]	; 6f00 <localeconv+0x8>
    6efc:	e12fff1e 	bx	lr
    6f00:	00013ca4 	.word	0x00013ca4

00006f04 <__smakebuf_r>:
    6f04:	e92d40f0 	push	{r4, r5, r6, r7, lr}
    6f08:	e1d130bc 	ldrh	r3, [r1, #12]
    6f0c:	e3130002 	tst	r3, #2
    6f10:	e24dd044 	sub	sp, sp, #68	; 0x44
    6f14:	e1a04001 	mov	r4, r1
    6f18:	e1a02003 	mov	r2, r3
    6f1c:	e1a05000 	mov	r5, r0
    6f20:	1a00002c 	bne	6fd8 <__smakebuf_r+0xd4>
    6f24:	e1d110fe 	ldrsh	r1, [r1, #14]
    6f28:	e3510000 	cmp	r1, #0
    6f2c:	ba000011 	blt	6f78 <__smakebuf_r+0x74>
    6f30:	e28d2004 	add	r2, sp, #4
    6f34:	eb001fe5 	bl	eed0 <_fstat_r>
    6f38:	e3500000 	cmp	r0, #0
    6f3c:	ba00000b 	blt	6f70 <__smakebuf_r+0x6c>
    6f40:	e59d3008 	ldr	r3, [sp, #8]
    6f44:	e2033a0f 	and	r3, r3, #61440	; 0xf000
    6f48:	e2532a02 	subs	r2, r3, #8192	; 0x2000
    6f4c:	e2727000 	rsbs	r7, r2, #0
    6f50:	e0b77002 	adcs	r7, r7, r2
    6f54:	e3530902 	cmp	r3, #32768	; 0x8000
    6f58:	0a000026 	beq	6ff8 <__smakebuf_r+0xf4>
    6f5c:	e1d430bc 	ldrh	r3, [r4, #12]
    6f60:	e3833b02 	orr	r3, r3, #2048	; 0x800
    6f64:	e1c430bc 	strh	r3, [r4, #12]
    6f68:	e3a06b01 	mov	r6, #1024	; 0x400
    6f6c:	ea000007 	b	6f90 <__smakebuf_r+0x8c>
    6f70:	e1d430bc 	ldrh	r3, [r4, #12]
    6f74:	e1a02003 	mov	r2, r3
    6f78:	e3833b02 	orr	r3, r3, #2048	; 0x800
    6f7c:	e3120080 	tst	r2, #128	; 0x80
    6f80:	e1c430bc 	strh	r3, [r4, #12]
    6f84:	13a06040 	movne	r6, #64	; 0x40
    6f88:	03a06b01 	moveq	r6, #1024	; 0x400
    6f8c:	e3a07000 	mov	r7, #0
    6f90:	e1a00005 	mov	r0, r5
    6f94:	e1a01006 	mov	r1, r6
    6f98:	eb000036 	bl	7078 <_malloc_r>
    6f9c:	e3500000 	cmp	r0, #0
    6fa0:	e1d430bc 	ldrh	r3, [r4, #12]
    6fa4:	0a000027 	beq	7048 <__smakebuf_r+0x144>
    6fa8:	e59f20c0 	ldr	r2, [pc, #192]	; 7070 <__smakebuf_r+0x16c>
    6fac:	e3833080 	orr	r3, r3, #128	; 0x80
    6fb0:	e3570000 	cmp	r7, #0
    6fb4:	e585203c 	str	r2, [r5, #60]	; 0x3c
    6fb8:	e1c430bc 	strh	r3, [r4, #12]
    6fbc:	e5840000 	str	r0, [r4]
    6fc0:	e5840010 	str	r0, [r4, #16]
    6fc4:	e5846014 	str	r6, [r4, #20]
    6fc8:	1a000014 	bne	7020 <__smakebuf_r+0x11c>
    6fcc:	e28dd044 	add	sp, sp, #68	; 0x44
    6fd0:	e8bd40f0 	pop	{r4, r5, r6, r7, lr}
    6fd4:	e12fff1e 	bx	lr
    6fd8:	e2813043 	add	r3, r1, #67	; 0x43
    6fdc:	e3a02001 	mov	r2, #1
    6fe0:	e5813000 	str	r3, [r1]
    6fe4:	e5813010 	str	r3, [r1, #16]
    6fe8:	e5812014 	str	r2, [r1, #20]
    6fec:	e28dd044 	add	sp, sp, #68	; 0x44
    6ff0:	e8bd40f0 	pop	{r4, r5, r6, r7, lr}
    6ff4:	e12fff1e 	bx	lr
    6ff8:	e59f3074 	ldr	r3, [pc, #116]	; 7074 <__smakebuf_r+0x170>
    6ffc:	e5942028 	ldr	r2, [r4, #40]	; 0x28
    7000:	e1520003 	cmp	r2, r3
    7004:	1affffd4 	bne	6f5c <__smakebuf_r+0x58>
    7008:	e1d430bc 	ldrh	r3, [r4, #12]
    700c:	e3a06b01 	mov	r6, #1024	; 0x400
    7010:	e1833006 	orr	r3, r3, r6
    7014:	e1c430bc 	strh	r3, [r4, #12]
    7018:	e584604c 	str	r6, [r4, #76]	; 0x4c
    701c:	eaffffdb 	b	6f90 <__smakebuf_r+0x8c>
    7020:	e1a00005 	mov	r0, r5
    7024:	e1d410fe 	ldrsh	r1, [r4, #14]
    7028:	eb00229b 	bl	fa9c <_isatty_r>
    702c:	e3500000 	cmp	r0, #0
    7030:	11d430bc 	ldrhne	r3, [r4, #12]
    7034:	13833001 	orrne	r3, r3, #1
    7038:	11c430bc 	strhne	r3, [r4, #12]
    703c:	e28dd044 	add	sp, sp, #68	; 0x44
    7040:	e8bd40f0 	pop	{r4, r5, r6, r7, lr}
    7044:	e12fff1e 	bx	lr
    7048:	e3130c02 	tst	r3, #512	; 0x200
    704c:	1affffde 	bne	6fcc <__smakebuf_r+0xc8>
    7050:	e2842043 	add	r2, r4, #67	; 0x43
    7054:	e3833002 	orr	r3, r3, #2
    7058:	e3a01001 	mov	r1, #1
    705c:	e1c430bc 	strh	r3, [r4, #12]
    7060:	e5842000 	str	r2, [r4]
    7064:	e5842010 	str	r2, [r4, #16]
    7068:	e5841014 	str	r1, [r4, #20]
    706c:	eaffffd6 	b	6fcc <__smakebuf_r+0xc8>
    7070:	00005eec 	.word	0x00005eec
    7074:	00009554 	.word	0x00009554

00007078 <_malloc_r>:
    7078:	e92d4ff0 	push	{r4, r5, r6, r7, r8, r9, r10, r11, lr}
    707c:	e281500b 	add	r5, r1, #11
    7080:	e3550016 	cmp	r5, #22
    7084:	83c55007 	bichi	r5, r5, #7
    7088:	81a03fa5 	lsrhi	r3, r5, #31
    708c:	93a03000 	movls	r3, #0
    7090:	93a05010 	movls	r5, #16
    7094:	e1550001 	cmp	r5, r1
    7098:	21a01003 	movcs	r1, r3
    709c:	33831001 	orrcc	r1, r3, #1
    70a0:	e3510000 	cmp	r1, #0
    70a4:	13a0300c 	movne	r3, #12
    70a8:	e24dd00c 	sub	sp, sp, #12
    70ac:	e1a06000 	mov	r6, r0
    70b0:	15803000 	strne	r3, [r0]
    70b4:	13a04000 	movne	r4, #0
    70b8:	1a000015 	bne	7114 <_malloc_r+0x9c>
    70bc:	eb000339 	bl	7da8 <__malloc_lock>
    70c0:	e3550f7e 	cmp	r5, #504	; 0x1f8
    70c4:	2a000016 	bcs	7124 <_malloc_r+0xac>
    70c8:	e59f76c8 	ldr	r7, [pc, #1736]	; 7798 <_malloc_r+0x720>
    70cc:	e1a0e1a5 	lsr	lr, r5, #3
    70d0:	e087318e 	add	r3, r7, lr, lsl #3
    70d4:	e593400c 	ldr	r4, [r3, #12]
    70d8:	e1540003 	cmp	r4, r3
    70dc:	0a000145 	beq	75f8 <_malloc_r+0x580>
    70e0:	e5943004 	ldr	r3, [r4, #4]
    70e4:	e3c33003 	bic	r3, r3, #3
    70e8:	e0843003 	add	r3, r4, r3
    70ec:	e593c004 	ldr	r12, [r3, #4]
    70f0:	e2841008 	add	r1, r4, #8
    70f4:	e8910006 	ldm	r1, {r1, r2}
    70f8:	e38cc001 	orr	r12, r12, #1
    70fc:	e581200c 	str	r2, [r1, #12]
    7100:	e1a00006 	mov	r0, r6
    7104:	e5821008 	str	r1, [r2, #8]
    7108:	e583c004 	str	r12, [r3, #4]
    710c:	eb000326 	bl	7dac <__malloc_unlock>
    7110:	e2844008 	add	r4, r4, #8
    7114:	e1a00004 	mov	r0, r4
    7118:	e28dd00c 	add	sp, sp, #12
    711c:	e8bd4ff0 	pop	{r4, r5, r6, r7, r8, r9, r10, r11, lr}
    7120:	e12fff1e 	bx	lr
    7124:	e1b0e4a5 	lsrs	lr, r5, #9
    7128:	03a0107e 	moveq	r1, #126	; 0x7e
    712c:	03a0e03f 	moveq	lr, #63	; 0x3f
    7130:	1a000061 	bne	72bc <_malloc_r+0x244>
    7134:	e59f765c 	ldr	r7, [pc, #1628]	; 7798 <_malloc_r+0x720>
    7138:	e0871101 	add	r1, r7, r1, lsl #2
    713c:	e591400c 	ldr	r4, [r1, #12]
    7140:	e1510004 	cmp	r1, r4
    7144:	1a000005 	bne	7160 <_malloc_r+0xe8>
    7148:	ea00000a 	b	7178 <_malloc_r+0x100>
    714c:	e3530000 	cmp	r3, #0
    7150:	aa0000de 	bge	74d0 <_malloc_r+0x458>
    7154:	e594400c 	ldr	r4, [r4, #12]
    7158:	e1510004 	cmp	r1, r4
    715c:	0a000005 	beq	7178 <_malloc_r+0x100>
    7160:	e5942004 	ldr	r2, [r4, #4]
    7164:	e3c22003 	bic	r2, r2, #3
    7168:	e0653002 	rsb	r3, r5, r2
    716c:	e353000f 	cmp	r3, #15
    7170:	dafffff5 	ble	714c <_malloc_r+0xd4>
    7174:	e24ee001 	sub	lr, lr, #1
    7178:	e28ee001 	add	lr, lr, #1
    717c:	e59f3614 	ldr	r3, [pc, #1556]	; 7798 <_malloc_r+0x720>
    7180:	e5974010 	ldr	r4, [r7, #16]
    7184:	e2838008 	add	r8, r3, #8
    7188:	e1540008 	cmp	r4, r8
    718c:	05931004 	ldreq	r1, [r3, #4]
    7190:	0a000016 	beq	71f0 <_malloc_r+0x178>
    7194:	e5942004 	ldr	r2, [r4, #4]
    7198:	e3c22003 	bic	r2, r2, #3
    719c:	e0651002 	rsb	r1, r5, r2
    71a0:	e351000f 	cmp	r1, #15
    71a4:	ca000101 	bgt	75b0 <_malloc_r+0x538>
    71a8:	e3510000 	cmp	r1, #0
    71ac:	e5838014 	str	r8, [r3, #20]
    71b0:	e5838010 	str	r8, [r3, #16]
    71b4:	aa000046 	bge	72d4 <_malloc_r+0x25c>
    71b8:	e3520c02 	cmp	r2, #512	; 0x200
    71bc:	2a0000dc 	bcs	7534 <_malloc_r+0x4bc>
    71c0:	e5930004 	ldr	r0, [r3, #4]
    71c4:	e1a021a2 	lsr	r2, r2, #3
    71c8:	e1a01142 	asr	r1, r2, #2
    71cc:	e3a0c001 	mov	r12, #1
    71d0:	e180111c 	orr	r1, r0, r12, lsl r1
    71d4:	e0832182 	add	r2, r3, r2, lsl #3
    71d8:	e5920008 	ldr	r0, [r2, #8]
    71dc:	e5831004 	str	r1, [r3, #4]
    71e0:	e5840008 	str	r0, [r4, #8]
    71e4:	e584200c 	str	r2, [r4, #12]
    71e8:	e5824008 	str	r4, [r2, #8]
    71ec:	e580400c 	str	r4, [r0, #12]
    71f0:	e1a0314e 	asr	r3, lr, #2
    71f4:	e3a00001 	mov	r0, #1
    71f8:	e1a00310 	lsl	r0, r0, r3
    71fc:	e1500001 	cmp	r0, r1
    7200:	8a00003e 	bhi	7300 <_malloc_r+0x288>
    7204:	e1110000 	tst	r1, r0
    7208:	1a000008 	bne	7230 <_malloc_r+0x1b8>
    720c:	e1a00080 	lsl	r0, r0, #1
    7210:	e3cee003 	bic	lr, lr, #3
    7214:	e1110000 	tst	r1, r0
    7218:	e28ee004 	add	lr, lr, #4
    721c:	1a000003 	bne	7230 <_malloc_r+0x1b8>
    7220:	e1a00080 	lsl	r0, r0, #1
    7224:	e1110000 	tst	r1, r0
    7228:	e28ee004 	add	lr, lr, #4
    722c:	0afffffb 	beq	7220 <_malloc_r+0x1a8>
    7230:	e087418e 	add	r4, r7, lr, lsl #3
    7234:	e1a0c004 	mov	r12, r4
    7238:	e1a0900e 	mov	r9, lr
    723c:	e59c300c 	ldr	r3, [r12, #12]
    7240:	e15c0003 	cmp	r12, r3
    7244:	1a000005 	bne	7260 <_malloc_r+0x1e8>
    7248:	ea0000e5 	b	75e4 <_malloc_r+0x56c>
    724c:	e3520000 	cmp	r2, #0
    7250:	aa0000ee 	bge	7610 <_malloc_r+0x598>
    7254:	e593300c 	ldr	r3, [r3, #12]
    7258:	e15c0003 	cmp	r12, r3
    725c:	0a0000e0 	beq	75e4 <_malloc_r+0x56c>
    7260:	e5931004 	ldr	r1, [r3, #4]
    7264:	e3c11003 	bic	r1, r1, #3
    7268:	e0652001 	rsb	r2, r5, r1
    726c:	e352000f 	cmp	r2, #15
    7270:	dafffff5 	ble	724c <_malloc_r+0x1d4>
    7274:	e1a04003 	mov	r4, r3
    7278:	e5b4c008 	ldr	r12, [r4, #8]!
    727c:	e593100c 	ldr	r1, [r3, #12]
    7280:	e3859001 	orr	r9, r5, #1
    7284:	e382e001 	orr	lr, r2, #1
    7288:	e0835005 	add	r5, r3, r5
    728c:	e5839004 	str	r9, [r3, #4]
    7290:	e1a00006 	mov	r0, r6
    7294:	e58c100c 	str	r1, [r12, #12]
    7298:	e581c008 	str	r12, [r1, #8]
    729c:	e5875014 	str	r5, [r7, #20]
    72a0:	e5875010 	str	r5, [r7, #16]
    72a4:	e585800c 	str	r8, [r5, #12]
    72a8:	e5858008 	str	r8, [r5, #8]
    72ac:	e585e004 	str	lr, [r5, #4]
    72b0:	e7852002 	str	r2, [r5, r2]
    72b4:	eb0002bc 	bl	7dac <__malloc_unlock>
    72b8:	eaffff95 	b	7114 <_malloc_r+0x9c>
    72bc:	e35e0004 	cmp	lr, #4
    72c0:	8a000091 	bhi	750c <_malloc_r+0x494>
    72c4:	e1a0e325 	lsr	lr, r5, #6
    72c8:	e28ee038 	add	lr, lr, #56	; 0x38
    72cc:	e1a0108e 	lsl	r1, lr, #1
    72d0:	eaffff97 	b	7134 <_malloc_r+0xbc>
    72d4:	e0842002 	add	r2, r4, r2
    72d8:	e5923004 	ldr	r3, [r2, #4]
    72dc:	e3833001 	orr	r3, r3, #1
    72e0:	e1a00006 	mov	r0, r6
    72e4:	e5823004 	str	r3, [r2, #4]
    72e8:	eb0002af 	bl	7dac <__malloc_unlock>
    72ec:	e2844008 	add	r4, r4, #8
    72f0:	e1a00004 	mov	r0, r4
    72f4:	e28dd00c 	add	sp, sp, #12
    72f8:	e8bd4ff0 	pop	{r4, r5, r6, r7, r8, r9, r10, r11, lr}
    72fc:	e12fff1e 	bx	lr
    7300:	e5974008 	ldr	r4, [r7, #8]
    7304:	e5949004 	ldr	r9, [r4, #4]
    7308:	e3c99003 	bic	r9, r9, #3
    730c:	e1550009 	cmp	r5, r9
    7310:	8a000002 	bhi	7320 <_malloc_r+0x2a8>
    7314:	e0653009 	rsb	r3, r5, r9
    7318:	e353000f 	cmp	r3, #15
    731c:	ca00005e 	bgt	749c <_malloc_r+0x424>
    7320:	e59fa474 	ldr	r10, [pc, #1140]	; 779c <_malloc_r+0x724>
    7324:	e5973408 	ldr	r3, [r7, #1032]	; 0x408
    7328:	e59ab000 	ldr	r11, [r10]
    732c:	e3730001 	cmn	r3, #1
    7330:	e085b00b 	add	r11, r5, r11
    7334:	128bba01 	addne	r11, r11, #4096	; 0x1000
    7338:	128bb00f 	addne	r11, r11, #15
    733c:	13cbbeff 	bicne	r11, r11, #4080	; 0xff0
    7340:	028bb010 	addeq	r11, r11, #16
    7344:	13cbb00f 	bicne	r11, r11, #15
    7348:	e0842009 	add	r2, r4, r9
    734c:	e1a00006 	mov	r0, r6
    7350:	e1a0100b 	mov	r1, r11
    7354:	e58d2004 	str	r2, [sp, #4]
    7358:	eb0007d8 	bl	92c0 <_sbrk_r>
    735c:	e3700001 	cmn	r0, #1
    7360:	e1a08000 	mov	r8, r0
    7364:	e59d2004 	ldr	r2, [sp, #4]
    7368:	0a0000ba 	beq	7658 <_malloc_r+0x5e0>
    736c:	e1520000 	cmp	r2, r0
    7370:	8a0000b6 	bhi	7650 <_malloc_r+0x5d8>
    7374:	e59a3004 	ldr	r3, [r10, #4]
    7378:	e1520008 	cmp	r2, r8
    737c:	e08b3003 	add	r3, r11, r3
    7380:	e58a3004 	str	r3, [r10, #4]
    7384:	0a0000e8 	beq	772c <_malloc_r+0x6b4>
    7388:	e5971408 	ldr	r1, [r7, #1032]	; 0x408
    738c:	e3710001 	cmn	r1, #1
    7390:	10622008 	rsbne	r2, r2, r8
    7394:	e59f13fc 	ldr	r1, [pc, #1020]	; 7798 <_malloc_r+0x720>
    7398:	10833002 	addne	r3, r3, r2
    739c:	05818408 	streq	r8, [r1, #1032]	; 0x408
    73a0:	158a3004 	strne	r3, [r10, #4]
    73a4:	e2183007 	ands	r3, r8, #7
    73a8:	12632008 	rsbne	r2, r3, #8
    73ac:	10888002 	addne	r8, r8, r2
    73b0:	12633a01 	rsbne	r3, r3, #4096	; 0x1000
    73b4:	12832008 	addne	r2, r3, #8
    73b8:	e088300b 	add	r3, r8, r11
    73bc:	03a02a01 	moveq	r2, #4096	; 0x1000
    73c0:	e1a03a03 	lsl	r3, r3, #20
    73c4:	e042ba23 	sub	r11, r2, r3, lsr #20
    73c8:	e1a0100b 	mov	r1, r11
    73cc:	e1a00006 	mov	r0, r6
    73d0:	eb0007ba 	bl	92c0 <_sbrk_r>
    73d4:	e3700001 	cmn	r0, #1
    73d8:	10682000 	rsbne	r2, r8, r0
    73dc:	e59a3004 	ldr	r3, [r10, #4]
    73e0:	108b2002 	addne	r2, r11, r2
    73e4:	03a0b000 	moveq	r11, #0
    73e8:	13822001 	orrne	r2, r2, #1
    73ec:	03a02001 	moveq	r2, #1
    73f0:	e08b3003 	add	r3, r11, r3
    73f4:	e1540007 	cmp	r4, r7
    73f8:	e5878008 	str	r8, [r7, #8]
    73fc:	e58a3004 	str	r3, [r10, #4]
    7400:	e5882004 	str	r2, [r8, #4]
    7404:	e59fb390 	ldr	r11, [pc, #912]	; 779c <_malloc_r+0x724>
    7408:	0a00000d 	beq	7444 <_malloc_r+0x3cc>
    740c:	e359000f 	cmp	r9, #15
    7410:	9a0000b1 	bls	76dc <_malloc_r+0x664>
    7414:	e5940004 	ldr	r0, [r4, #4]
    7418:	e249200c 	sub	r2, r9, #12
    741c:	e3c22007 	bic	r2, r2, #7
    7420:	e2000001 	and	r0, r0, #1
    7424:	e1820000 	orr	r0, r2, r0
    7428:	e3a01005 	mov	r1, #5
    742c:	e352000f 	cmp	r2, #15
    7430:	e0842002 	add	r2, r4, r2
    7434:	e5840004 	str	r0, [r4, #4]
    7438:	e5821004 	str	r1, [r2, #4]
    743c:	e5821008 	str	r1, [r2, #8]
    7440:	8a0000c0 	bhi	7748 <_malloc_r+0x6d0>
    7444:	e59a202c 	ldr	r2, [r10, #44]	; 0x2c
    7448:	e1530002 	cmp	r3, r2
    744c:	e59f2348 	ldr	r2, [pc, #840]	; 779c <_malloc_r+0x724>
    7450:	8582302c 	strhi	r3, [r2, #44]	; 0x2c
    7454:	e59a2030 	ldr	r2, [r10, #48]	; 0x30
    7458:	e5974008 	ldr	r4, [r7, #8]
    745c:	e1530002 	cmp	r3, r2
    7460:	95943004 	ldrls	r3, [r4, #4]
    7464:	e59f2330 	ldr	r2, [pc, #816]	; 779c <_malloc_r+0x724>
    7468:	85941004 	ldrhi	r1, [r4, #4]
    746c:	85823030 	strhi	r3, [r2, #48]	; 0x30
    7470:	93c33003 	bicls	r3, r3, #3
    7474:	83c13003 	bichi	r3, r1, #3
    7478:	e1550003 	cmp	r5, r3
    747c:	e0653003 	rsb	r3, r5, r3
    7480:	8a000001 	bhi	748c <_malloc_r+0x414>
    7484:	e353000f 	cmp	r3, #15
    7488:	ca000003 	bgt	749c <_malloc_r+0x424>
    748c:	e1a00006 	mov	r0, r6
    7490:	eb000245 	bl	7dac <__malloc_unlock>
    7494:	e3a04000 	mov	r4, #0
    7498:	eaffff1d 	b	7114 <_malloc_r+0x9c>
    749c:	e3852001 	orr	r2, r5, #1
    74a0:	e3833001 	orr	r3, r3, #1
    74a4:	e0845005 	add	r5, r4, r5
    74a8:	e5842004 	str	r2, [r4, #4]
    74ac:	e1a00006 	mov	r0, r6
    74b0:	e5875008 	str	r5, [r7, #8]
    74b4:	e5853004 	str	r3, [r5, #4]
    74b8:	eb00023b 	bl	7dac <__malloc_unlock>
    74bc:	e2844008 	add	r4, r4, #8
    74c0:	e1a00004 	mov	r0, r4
    74c4:	e28dd00c 	add	sp, sp, #12
    74c8:	e8bd4ff0 	pop	{r4, r5, r6, r7, r8, r9, r10, r11, lr}
    74cc:	e12fff1e 	bx	lr
    74d0:	e0842002 	add	r2, r4, r2
    74d4:	e592c004 	ldr	r12, [r2, #4]
    74d8:	e2841008 	add	r1, r4, #8
    74dc:	e891000a 	ldm	r1, {r1, r3}
    74e0:	e38cc001 	orr	r12, r12, #1
    74e4:	e581300c 	str	r3, [r1, #12]
    74e8:	e1a00006 	mov	r0, r6
    74ec:	e5831008 	str	r1, [r3, #8]
    74f0:	e582c004 	str	r12, [r2, #4]
    74f4:	eb00022c 	bl	7dac <__malloc_unlock>
    74f8:	e2844008 	add	r4, r4, #8
    74fc:	e1a00004 	mov	r0, r4
    7500:	e28dd00c 	add	sp, sp, #12
    7504:	e8bd4ff0 	pop	{r4, r5, r6, r7, r8, r9, r10, r11, lr}
    7508:	e12fff1e 	bx	lr
    750c:	e35e0014 	cmp	lr, #20
    7510:	928ee05b 	addls	lr, lr, #91	; 0x5b
    7514:	91a0108e 	lslls	r1, lr, #1
    7518:	9affff05 	bls	7134 <_malloc_r+0xbc>
    751c:	e35e0054 	cmp	lr, #84	; 0x54
    7520:	8a000067 	bhi	76c4 <_malloc_r+0x64c>
    7524:	e1a0e625 	lsr	lr, r5, #12
    7528:	e28ee06e 	add	lr, lr, #110	; 0x6e
    752c:	e1a0108e 	lsl	r1, lr, #1
    7530:	eafffeff 	b	7134 <_malloc_r+0xbc>
    7534:	e1a034a2 	lsr	r3, r2, #9
    7538:	e3530004 	cmp	r3, #4
    753c:	9a00003f 	bls	7640 <_malloc_r+0x5c8>
    7540:	e3530014 	cmp	r3, #20
    7544:	9283105b 	addls	r1, r3, #91	; 0x5b
    7548:	91a00081 	lslls	r0, r1, #1
    754c:	9a000004 	bls	7564 <_malloc_r+0x4ec>
    7550:	e3530054 	cmp	r3, #84	; 0x54
    7554:	8a000080 	bhi	775c <_malloc_r+0x6e4>
    7558:	e1a01622 	lsr	r1, r2, #12
    755c:	e281106e 	add	r1, r1, #110	; 0x6e
    7560:	e1a00081 	lsl	r0, r1, #1
    7564:	e0870100 	add	r0, r7, r0, lsl #2
    7568:	e5903008 	ldr	r3, [r0, #8]
    756c:	e1530000 	cmp	r3, r0
    7570:	e59fc220 	ldr	r12, [pc, #544]	; 7798 <_malloc_r+0x720>
    7574:	0a00005d 	beq	76f0 <_malloc_r+0x678>
    7578:	e5931004 	ldr	r1, [r3, #4]
    757c:	e3c11003 	bic	r1, r1, #3
    7580:	e1520001 	cmp	r2, r1
    7584:	2a000002 	bcs	7594 <_malloc_r+0x51c>
    7588:	e5933008 	ldr	r3, [r3, #8]
    758c:	e1500003 	cmp	r0, r3
    7590:	1afffff8 	bne	7578 <_malloc_r+0x500>
    7594:	e593200c 	ldr	r2, [r3, #12]
    7598:	e5971004 	ldr	r1, [r7, #4]
    759c:	e584200c 	str	r2, [r4, #12]
    75a0:	e5843008 	str	r3, [r4, #8]
    75a4:	e5824008 	str	r4, [r2, #8]
    75a8:	e583400c 	str	r4, [r3, #12]
    75ac:	eaffff0f 	b	71f0 <_malloc_r+0x178>
    75b0:	e385c001 	orr	r12, r5, #1
    75b4:	e3812001 	orr	r2, r1, #1
    75b8:	e0845005 	add	r5, r4, r5
    75bc:	e584c004 	str	r12, [r4, #4]
    75c0:	e1a00006 	mov	r0, r6
    75c4:	e5835014 	str	r5, [r3, #20]
    75c8:	e5835010 	str	r5, [r3, #16]
    75cc:	e585800c 	str	r8, [r5, #12]
    75d0:	e9850104 	stmib	r5, {r2, r8}
    75d4:	e7851001 	str	r1, [r5, r1]
    75d8:	e2844008 	add	r4, r4, #8
    75dc:	eb0001f2 	bl	7dac <__malloc_unlock>
    75e0:	eafffecb 	b	7114 <_malloc_r+0x9c>
    75e4:	e2899001 	add	r9, r9, #1
    75e8:	e3190003 	tst	r9, #3
    75ec:	e28cc008 	add	r12, r12, #8
    75f0:	1affff11 	bne	723c <_malloc_r+0x1c4>
    75f4:	ea00001f 	b	7678 <_malloc_r+0x600>
    75f8:	e2843008 	add	r3, r4, #8
    75fc:	e5944014 	ldr	r4, [r4, #20]
    7600:	e1530004 	cmp	r3, r4
    7604:	028ee002 	addeq	lr, lr, #2
    7608:	0afffedb 	beq	717c <_malloc_r+0x104>
    760c:	eafffeb3 	b	70e0 <_malloc_r+0x68>
    7610:	e0831001 	add	r1, r3, r1
    7614:	e591c004 	ldr	r12, [r1, #4]
    7618:	e1a04003 	mov	r4, r3
    761c:	e5b42008 	ldr	r2, [r4, #8]!
    7620:	e593300c 	ldr	r3, [r3, #12]
    7624:	e38cc001 	orr	r12, r12, #1
    7628:	e581c004 	str	r12, [r1, #4]
    762c:	e1a00006 	mov	r0, r6
    7630:	e582300c 	str	r3, [r2, #12]
    7634:	e5832008 	str	r2, [r3, #8]
    7638:	eb0001db 	bl	7dac <__malloc_unlock>
    763c:	eafffeb4 	b	7114 <_malloc_r+0x9c>
    7640:	e1a01322 	lsr	r1, r2, #6
    7644:	e2811038 	add	r1, r1, #56	; 0x38
    7648:	e1a00081 	lsl	r0, r1, #1
    764c:	eaffffc4 	b	7564 <_malloc_r+0x4ec>
    7650:	e1540007 	cmp	r4, r7
    7654:	0affff46 	beq	7374 <_malloc_r+0x2fc>
    7658:	e5974008 	ldr	r4, [r7, #8]
    765c:	e5943004 	ldr	r3, [r4, #4]
    7660:	e3c33003 	bic	r3, r3, #3
    7664:	eaffff83 	b	7478 <_malloc_r+0x400>
    7668:	e5944000 	ldr	r4, [r4]
    766c:	e1540003 	cmp	r4, r3
    7670:	e24ee001 	sub	lr, lr, #1
    7674:	1a000045 	bne	7790 <_malloc_r+0x718>
    7678:	e31e0003 	tst	lr, #3
    767c:	e2443008 	sub	r3, r4, #8
    7680:	1afffff8 	bne	7668 <_malloc_r+0x5f0>
    7684:	e5973004 	ldr	r3, [r7, #4]
    7688:	e1c33000 	bic	r3, r3, r0
    768c:	e5873004 	str	r3, [r7, #4]
    7690:	e1a00080 	lsl	r0, r0, #1
    7694:	e1500003 	cmp	r0, r3
    7698:	8affff18 	bhi	7300 <_malloc_r+0x288>
    769c:	e3500000 	cmp	r0, #0
    76a0:	0affff16 	beq	7300 <_malloc_r+0x288>
    76a4:	e1130000 	tst	r3, r0
    76a8:	e1a0e009 	mov	lr, r9
    76ac:	1afffedf 	bne	7230 <_malloc_r+0x1b8>
    76b0:	e1a00080 	lsl	r0, r0, #1
    76b4:	e1130000 	tst	r3, r0
    76b8:	e28ee004 	add	lr, lr, #4
    76bc:	0afffffb 	beq	76b0 <_malloc_r+0x638>
    76c0:	eafffeda 	b	7230 <_malloc_r+0x1b8>
    76c4:	e35e0f55 	cmp	lr, #340	; 0x154
    76c8:	8a00000f 	bhi	770c <_malloc_r+0x694>
    76cc:	e1a0e7a5 	lsr	lr, r5, #15
    76d0:	e28ee077 	add	lr, lr, #119	; 0x77
    76d4:	e1a0108e 	lsl	r1, lr, #1
    76d8:	eafffe95 	b	7134 <_malloc_r+0xbc>
    76dc:	e3a03001 	mov	r3, #1
    76e0:	e5883004 	str	r3, [r8, #4]
    76e4:	e1a04008 	mov	r4, r8
    76e8:	e3a03000 	mov	r3, #0
    76ec:	eaffff61 	b	7478 <_malloc_r+0x400>
    76f0:	e59c2004 	ldr	r2, [r12, #4]
    76f4:	e1a01141 	asr	r1, r1, #2
    76f8:	e3a00001 	mov	r0, #1
    76fc:	e1821110 	orr	r1, r2, r0, lsl r1
    7700:	e1a02003 	mov	r2, r3
    7704:	e58c1004 	str	r1, [r12, #4]
    7708:	eaffffa3 	b	759c <_malloc_r+0x524>
    770c:	e59f308c 	ldr	r3, [pc, #140]	; 77a0 <_malloc_r+0x728>
    7710:	e15e0003 	cmp	lr, r3
    7714:	91a0e925 	lsrls	lr, r5, #18
    7718:	928ee07c 	addls	lr, lr, #124	; 0x7c
    771c:	91a0108e 	lslls	r1, lr, #1
    7720:	83a010fc 	movhi	r1, #252	; 0xfc
    7724:	83a0e07e 	movhi	lr, #126	; 0x7e
    7728:	eafffe81 	b	7134 <_malloc_r+0xbc>
    772c:	e1b01a02 	lsls	r1, r2, #20
    7730:	1affff14 	bne	7388 <_malloc_r+0x310>
    7734:	e08b1009 	add	r1, r11, r9
    7738:	e5972008 	ldr	r2, [r7, #8]
    773c:	e3811001 	orr	r1, r1, #1
    7740:	e5821004 	str	r1, [r2, #4]
    7744:	eaffff3e 	b	7444 <_malloc_r+0x3cc>
    7748:	e2841008 	add	r1, r4, #8
    774c:	e1a00006 	mov	r0, r6
    7750:	ebfffb9b 	bl	65c4 <_free_r>
    7754:	e59b3004 	ldr	r3, [r11, #4]
    7758:	eaffff39 	b	7444 <_malloc_r+0x3cc>
    775c:	e3530f55 	cmp	r3, #340	; 0x154
    7760:	91a017a2 	lsrls	r1, r2, #15
    7764:	92811077 	addls	r1, r1, #119	; 0x77
    7768:	91a00081 	lslls	r0, r1, #1
    776c:	9affff7c 	bls	7564 <_malloc_r+0x4ec>
    7770:	e59f1028 	ldr	r1, [pc, #40]	; 77a0 <_malloc_r+0x728>
    7774:	e1530001 	cmp	r3, r1
    7778:	91a01922 	lsrls	r1, r2, #18
    777c:	9281107c 	addls	r1, r1, #124	; 0x7c
    7780:	91a00081 	lslls	r0, r1, #1
    7784:	83a000fc 	movhi	r0, #252	; 0xfc
    7788:	83a0107e 	movhi	r1, #126	; 0x7e
    778c:	eaffff74 	b	7564 <_malloc_r+0x4ec>
    7790:	e5973004 	ldr	r3, [r7, #4]
    7794:	eaffffbd 	b	7690 <_malloc_r+0x618>
    7798:	00013cdc 	.word	0x00013cdc
    779c:	00014128 	.word	0x00014128
    77a0:	00000554 	.word	0x00000554

000077a4 <_mbrtowc_r>:
    77a4:	e92d43f0 	push	{r4, r5, r6, r7, r8, r9, lr}
    77a8:	e2526000 	subs	r6, r2, #0
    77ac:	e24dd00c 	sub	sp, sp, #12
    77b0:	e1a07003 	mov	r7, r3
    77b4:	e1a04000 	mov	r4, r0
    77b8:	e1a08001 	mov	r8, r1
    77bc:	e59d5028 	ldr	r5, [sp, #40]	; 0x28
    77c0:	e59f306c 	ldr	r3, [pc, #108]	; 7834 <_mbrtowc_r+0x90>
    77c4:	0a000010 	beq	780c <_mbrtowc_r+0x68>
    77c8:	e5939000 	ldr	r9, [r3]
    77cc:	ebfffdb4 	bl	6ea4 <__locale_charset>
    77d0:	e1a01008 	mov	r1, r8
    77d4:	e88d0021 	stm	sp, {r0, r5}
    77d8:	e1a02006 	mov	r2, r6
    77dc:	e1a03007 	mov	r3, r7
    77e0:	e1a00004 	mov	r0, r4
    77e4:	e1a0e00f 	mov	lr, pc
    77e8:	e12fff19 	bx	r9
    77ec:	e3700001 	cmn	r0, #1
    77f0:	03a02000 	moveq	r2, #0
    77f4:	03a0308a 	moveq	r3, #138	; 0x8a
    77f8:	05852000 	streq	r2, [r5]
    77fc:	05843000 	streq	r3, [r4]
    7800:	e28dd00c 	add	sp, sp, #12
    7804:	e8bd43f0 	pop	{r4, r5, r6, r7, r8, r9, lr}
    7808:	e12fff1e 	bx	lr
    780c:	e5937000 	ldr	r7, [r3]
    7810:	ebfffda3 	bl	6ea4 <__locale_charset>
    7814:	e1a01006 	mov	r1, r6
    7818:	e88d0021 	stm	sp, {r0, r5}
    781c:	e59f2014 	ldr	r2, [pc, #20]	; 7838 <_mbrtowc_r+0x94>
    7820:	e1a00004 	mov	r0, r4
    7824:	e3a03001 	mov	r3, #1
    7828:	e1a0e00f 	mov	lr, pc
    782c:	e12fff17 	bx	r7
    7830:	eaffffed 	b	77ec <_mbrtowc_r+0x48>
    7834:	000140ec 	.word	0x000140ec
    7838:	00013474 	.word	0x00013474

0000783c <mbrtowc>:
    783c:	e92d43f0 	push	{r4, r5, r6, r7, r8, r9, lr}
    7840:	e59fc088 	ldr	r12, [pc, #136]	; 78d0 <mbrtowc+0x94>
    7844:	e2516000 	subs	r6, r1, #0
    7848:	e1a05003 	mov	r5, r3
    784c:	e24dd00c 	sub	sp, sp, #12
    7850:	e1a08000 	mov	r8, r0
    7854:	e1a07002 	mov	r7, r2
    7858:	e59c4000 	ldr	r4, [r12]
    785c:	e59f3070 	ldr	r3, [pc, #112]	; 78d4 <mbrtowc+0x98>
    7860:	0a000010 	beq	78a8 <mbrtowc+0x6c>
    7864:	e5939000 	ldr	r9, [r3]
    7868:	ebfffd8d 	bl	6ea4 <__locale_charset>
    786c:	e1a01008 	mov	r1, r8
    7870:	e88d0021 	stm	sp, {r0, r5}
    7874:	e1a02006 	mov	r2, r6
    7878:	e1a03007 	mov	r3, r7
    787c:	e1a00004 	mov	r0, r4
    7880:	e1a0e00f 	mov	lr, pc
    7884:	e12fff19 	bx	r9
    7888:	e3700001 	cmn	r0, #1
    788c:	03a02000 	moveq	r2, #0
    7890:	03a0308a 	moveq	r3, #138	; 0x8a
    7894:	05852000 	streq	r2, [r5]
    7898:	05843000 	streq	r3, [r4]
    789c:	e28dd00c 	add	sp, sp, #12
    78a0:	e8bd43f0 	pop	{r4, r5, r6, r7, r8, r9, lr}
    78a4:	e12fff1e 	bx	lr
    78a8:	e5937000 	ldr	r7, [r3]
    78ac:	ebfffd7c 	bl	6ea4 <__locale_charset>
    78b0:	e1a01006 	mov	r1, r6
    78b4:	e88d0021 	stm	sp, {r0, r5}
    78b8:	e59f2018 	ldr	r2, [pc, #24]	; 78d8 <mbrtowc+0x9c>
    78bc:	e1a00004 	mov	r0, r4
    78c0:	e3a03001 	mov	r3, #1
    78c4:	e1a0e00f 	mov	lr, pc
    78c8:	e12fff17 	bx	r7
    78cc:	eaffffed 	b	7888 <mbrtowc+0x4c>
    78d0:	00013830 	.word	0x00013830
    78d4:	000140ec 	.word	0x000140ec
    78d8:	00013474 	.word	0x00013474

000078dc <__ascii_mbtowc>:
    78dc:	e3510000 	cmp	r1, #0
    78e0:	e24dd008 	sub	sp, sp, #8
    78e4:	028d1004 	addeq	r1, sp, #4
    78e8:	e3520000 	cmp	r2, #0
    78ec:	0a000008 	beq	7914 <__ascii_mbtowc+0x38>
    78f0:	e3530000 	cmp	r3, #0
    78f4:	0a000009 	beq	7920 <__ascii_mbtowc+0x44>
    78f8:	e5d23000 	ldrb	r3, [r2]
    78fc:	e5813000 	str	r3, [r1]
    7900:	e5d20000 	ldrb	r0, [r2]
    7904:	e2900000 	adds	r0, r0, #0
    7908:	13a00001 	movne	r0, #1
    790c:	e28dd008 	add	sp, sp, #8
    7910:	e12fff1e 	bx	lr
    7914:	e1a00002 	mov	r0, r2
    7918:	e28dd008 	add	sp, sp, #8
    791c:	e12fff1e 	bx	lr
    7920:	e3e00001 	mvn	r0, #1
    7924:	eafffff8 	b	790c <__ascii_mbtowc+0x30>

00007928 <_mbtowc_r>:
    7928:	e92d43f0 	push	{r4, r5, r6, r7, r8, r9, lr}
    792c:	e59fc044 	ldr	r12, [pc, #68]	; 7978 <_mbtowc_r+0x50>
    7930:	e24dd00c 	sub	sp, sp, #12
    7934:	e1a06000 	mov	r6, r0
    7938:	e1a09001 	mov	r9, r1
    793c:	e1a08002 	mov	r8, r2
    7940:	e1a07003 	mov	r7, r3
    7944:	e59c5000 	ldr	r5, [r12]
    7948:	e59d4028 	ldr	r4, [sp, #40]	; 0x28
    794c:	ebfffd54 	bl	6ea4 <__locale_charset>
    7950:	e1a01009 	mov	r1, r9
    7954:	e88d0011 	stm	sp, {r0, r4}
    7958:	e1a02008 	mov	r2, r8
    795c:	e1a00006 	mov	r0, r6
    7960:	e1a03007 	mov	r3, r7
    7964:	e1a0e00f 	mov	lr, pc
    7968:	e12fff15 	bx	r5
    796c:	e28dd00c 	add	sp, sp, #12
    7970:	e8bd43f0 	pop	{r4, r5, r6, r7, r8, r9, lr}
    7974:	e12fff1e 	bx	lr
    7978:	000140ec 	.word	0x000140ec

0000797c <memchr>:
    797c:	e3100003 	tst	r0, #3
    7980:	e92d0070 	push	{r4, r5, r6}
    7984:	e20110ff 	and	r1, r1, #255	; 0xff
    7988:	0a00003a 	beq	7a78 <memchr+0xfc>
    798c:	e3520000 	cmp	r2, #0
    7990:	e242c001 	sub	r12, r2, #1
    7994:	0a000021 	beq	7a20 <memchr+0xa4>
    7998:	e5d03000 	ldrb	r3, [r0]
    799c:	e1530001 	cmp	r3, r1
    79a0:	0a00001f 	beq	7a24 <memchr+0xa8>
    79a4:	e2803001 	add	r3, r0, #1
    79a8:	ea000006 	b	79c8 <memchr+0x4c>
    79ac:	e35c0000 	cmp	r12, #0
    79b0:	0a00001a 	beq	7a20 <memchr+0xa4>
    79b4:	e5d02000 	ldrb	r2, [r0]
    79b8:	e1520001 	cmp	r2, r1
    79bc:	e2833001 	add	r3, r3, #1
    79c0:	e24cc001 	sub	r12, r12, #1
    79c4:	0a000016 	beq	7a24 <memchr+0xa8>
    79c8:	e3130003 	tst	r3, #3
    79cc:	e1a00003 	mov	r0, r3
    79d0:	1afffff5 	bne	79ac <memchr+0x30>
    79d4:	e35c0003 	cmp	r12, #3
    79d8:	8a000013 	bhi	7a2c <memchr+0xb0>
    79dc:	e35c0000 	cmp	r12, #0
    79e0:	e24c4001 	sub	r4, r12, #1
    79e4:	0a000025 	beq	7a80 <memchr+0x104>
    79e8:	e5d03000 	ldrb	r3, [r0]
    79ec:	e1530001 	cmp	r3, r1
    79f0:	0a00000b 	beq	7a24 <memchr+0xa8>
    79f4:	e2802001 	add	r2, r0, #1
    79f8:	e3a03000 	mov	r3, #0
    79fc:	ea000004 	b	7a14 <memchr+0x98>
    7a00:	e5d0c000 	ldrb	r12, [r0]
    7a04:	e15c0001 	cmp	r12, r1
    7a08:	e2822001 	add	r2, r2, #1
    7a0c:	e2833001 	add	r3, r3, #1
    7a10:	0a000003 	beq	7a24 <memchr+0xa8>
    7a14:	e1530004 	cmp	r3, r4
    7a18:	e1a00002 	mov	r0, r2
    7a1c:	1afffff7 	bne	7a00 <memchr+0x84>
    7a20:	e3a00000 	mov	r0, #0
    7a24:	e8bd0070 	pop	{r4, r5, r6}
    7a28:	e12fff1e 	bx	lr
    7a2c:	e1816401 	orr	r6, r1, r1, lsl #8
    7a30:	e1a03000 	mov	r3, r0
    7a34:	e1866806 	orr	r6, r6, r6, lsl #16
    7a38:	e5935000 	ldr	r5, [r3]
    7a3c:	e59f4044 	ldr	r4, [pc, #68]	; 7a88 <memchr+0x10c>
    7a40:	e0265005 	eor	r5, r6, r5
    7a44:	e0854004 	add	r4, r5, r4
    7a48:	e59f203c 	ldr	r2, [pc, #60]	; 7a8c <memchr+0x110>
    7a4c:	e1c44005 	bic	r4, r4, r5
    7a50:	e0042002 	and	r2, r4, r2
    7a54:	e3520000 	cmp	r2, #0
    7a58:	e1a00003 	mov	r0, r3
    7a5c:	e2833004 	add	r3, r3, #4
    7a60:	1affffdd 	bne	79dc <memchr+0x60>
    7a64:	e24cc004 	sub	r12, r12, #4
    7a68:	e35c0003 	cmp	r12, #3
    7a6c:	e1a00003 	mov	r0, r3
    7a70:	8afffff0 	bhi	7a38 <memchr+0xbc>
    7a74:	eaffffd8 	b	79dc <memchr+0x60>
    7a78:	e1a0c002 	mov	r12, r2
    7a7c:	eaffffd4 	b	79d4 <memchr+0x58>
    7a80:	e1a0000c 	mov	r0, r12
    7a84:	eaffffe6 	b	7a24 <memchr+0xa8>
    7a88:	fefefeff 	.word	0xfefefeff
    7a8c:	80808080 	.word	0x80808080

00007a90 <memcpy>:
    7a90:	e352000f 	cmp	r2, #15
    7a94:	e92d00f0 	push	{r4, r5, r6, r7}
    7a98:	9a00002a 	bls	7b48 <memcpy+0xb8>
    7a9c:	e1803001 	orr	r3, r0, r1
    7aa0:	e3130003 	tst	r3, #3
    7aa4:	1a000031 	bne	7b70 <memcpy+0xe0>
    7aa8:	e2426010 	sub	r6, r2, #16
    7aac:	e1a06226 	lsr	r6, r6, #4
    7ab0:	e0805206 	add	r5, r0, r6, lsl #4
    7ab4:	e2855010 	add	r5, r5, #16
    7ab8:	e1a0c001 	mov	r12, r1
    7abc:	e1a03000 	mov	r3, r0
    7ac0:	e59c4000 	ldr	r4, [r12]
    7ac4:	e5834000 	str	r4, [r3]
    7ac8:	e59c4004 	ldr	r4, [r12, #4]
    7acc:	e5834004 	str	r4, [r3, #4]
    7ad0:	e59c4008 	ldr	r4, [r12, #8]
    7ad4:	e5834008 	str	r4, [r3, #8]
    7ad8:	e59c400c 	ldr	r4, [r12, #12]
    7adc:	e2833010 	add	r3, r3, #16
    7ae0:	e5034004 	str	r4, [r3, #-4]
    7ae4:	e1530005 	cmp	r3, r5
    7ae8:	e28cc010 	add	r12, r12, #16
    7aec:	1afffff3 	bne	7ac0 <memcpy+0x30>
    7af0:	e2863001 	add	r3, r6, #1
    7af4:	e202700f 	and	r7, r2, #15
    7af8:	e1a03203 	lsl	r3, r3, #4
    7afc:	e3570003 	cmp	r7, #3
    7b00:	e0811003 	add	r1, r1, r3
    7b04:	e0803003 	add	r3, r0, r3
    7b08:	9a00001a 	bls	7b78 <memcpy+0xe8>
    7b0c:	e1a05001 	mov	r5, r1
    7b10:	e1a04003 	mov	r4, r3
    7b14:	e1a0c007 	mov	r12, r7
    7b18:	e24cc004 	sub	r12, r12, #4
    7b1c:	e4956004 	ldr	r6, [r5], #4
    7b20:	e35c0003 	cmp	r12, #3
    7b24:	e4846004 	str	r6, [r4], #4
    7b28:	8afffffa 	bhi	7b18 <memcpy+0x88>
    7b2c:	e247c004 	sub	r12, r7, #4
    7b30:	e3ccc003 	bic	r12, r12, #3
    7b34:	e28cc004 	add	r12, r12, #4
    7b38:	e083300c 	add	r3, r3, r12
    7b3c:	e081100c 	add	r1, r1, r12
    7b40:	e2022003 	and	r2, r2, #3
    7b44:	ea000000 	b	7b4c <memcpy+0xbc>
    7b48:	e1a03000 	mov	r3, r0
    7b4c:	e3520000 	cmp	r2, #0
    7b50:	0a000004 	beq	7b68 <memcpy+0xd8>
    7b54:	e0812002 	add	r2, r1, r2
    7b58:	e4d1c001 	ldrb	r12, [r1], #1
    7b5c:	e1510002 	cmp	r1, r2
    7b60:	e4c3c001 	strb	r12, [r3], #1
    7b64:	1afffffb 	bne	7b58 <memcpy+0xc8>
    7b68:	e8bd00f0 	pop	{r4, r5, r6, r7}
    7b6c:	e12fff1e 	bx	lr
    7b70:	e1a03000 	mov	r3, r0
    7b74:	eafffff6 	b	7b54 <memcpy+0xc4>
    7b78:	e1a02007 	mov	r2, r7
    7b7c:	eafffff2 	b	7b4c <memcpy+0xbc>

00007b80 <memmove>:
    7b80:	e1500001 	cmp	r0, r1
    7b84:	e92d00f0 	push	{r4, r5, r6, r7}
    7b88:	9a00000e 	bls	7bc8 <memmove+0x48>
    7b8c:	e081c002 	add	r12, r1, r2
    7b90:	e150000c 	cmp	r0, r12
    7b94:	2a00000b 	bcs	7bc8 <memmove+0x48>
    7b98:	e3520000 	cmp	r2, #0
    7b9c:	e0803002 	add	r3, r0, r2
    7ba0:	e2422001 	sub	r2, r2, #1
    7ba4:	0a000005 	beq	7bc0 <memmove+0x40>
    7ba8:	e1a0100c 	mov	r1, r12
    7bac:	e2422001 	sub	r2, r2, #1
    7bb0:	e571c001 	ldrb	r12, [r1, #-1]!
    7bb4:	e3720001 	cmn	r2, #1
    7bb8:	e563c001 	strb	r12, [r3, #-1]!
    7bbc:	1afffffa 	bne	7bac <memmove+0x2c>
    7bc0:	e8bd00f0 	pop	{r4, r5, r6, r7}
    7bc4:	e12fff1e 	bx	lr
    7bc8:	e352000f 	cmp	r2, #15
    7bcc:	8a000009 	bhi	7bf8 <memmove+0x78>
    7bd0:	e1a03000 	mov	r3, r0
    7bd4:	e3520000 	cmp	r2, #0
    7bd8:	0afffff8 	beq	7bc0 <memmove+0x40>
    7bdc:	e0832002 	add	r2, r3, r2
    7be0:	e4d1c001 	ldrb	r12, [r1], #1
    7be4:	e4c3c001 	strb	r12, [r3], #1
    7be8:	e1530002 	cmp	r3, r2
    7bec:	1afffffb 	bne	7be0 <memmove+0x60>
    7bf0:	e8bd00f0 	pop	{r4, r5, r6, r7}
    7bf4:	e12fff1e 	bx	lr
    7bf8:	e1803001 	orr	r3, r0, r1
    7bfc:	e3130003 	tst	r3, #3
    7c00:	1a000027 	bne	7ca4 <memmove+0x124>
    7c04:	e2426010 	sub	r6, r2, #16
    7c08:	e1a06226 	lsr	r6, r6, #4
    7c0c:	e0805206 	add	r5, r0, r6, lsl #4
    7c10:	e2855010 	add	r5, r5, #16
    7c14:	e1a0c001 	mov	r12, r1
    7c18:	e1a03000 	mov	r3, r0
    7c1c:	e59c4000 	ldr	r4, [r12]
    7c20:	e5834000 	str	r4, [r3]
    7c24:	e59c4004 	ldr	r4, [r12, #4]
    7c28:	e5834004 	str	r4, [r3, #4]
    7c2c:	e59c4008 	ldr	r4, [r12, #8]
    7c30:	e5834008 	str	r4, [r3, #8]
    7c34:	e59c400c 	ldr	r4, [r12, #12]
    7c38:	e2833010 	add	r3, r3, #16
    7c3c:	e5034004 	str	r4, [r3, #-4]
    7c40:	e1530005 	cmp	r3, r5
    7c44:	e28cc010 	add	r12, r12, #16
    7c48:	1afffff3 	bne	7c1c <memmove+0x9c>
    7c4c:	e2863001 	add	r3, r6, #1
    7c50:	e202700f 	and	r7, r2, #15
    7c54:	e1a03203 	lsl	r3, r3, #4
    7c58:	e3570003 	cmp	r7, #3
    7c5c:	e0811003 	add	r1, r1, r3
    7c60:	e0803003 	add	r3, r0, r3
    7c64:	9a000010 	bls	7cac <memmove+0x12c>
    7c68:	e1a05001 	mov	r5, r1
    7c6c:	e1a04003 	mov	r4, r3
    7c70:	e1a0c007 	mov	r12, r7
    7c74:	e24cc004 	sub	r12, r12, #4
    7c78:	e4956004 	ldr	r6, [r5], #4
    7c7c:	e35c0003 	cmp	r12, #3
    7c80:	e4846004 	str	r6, [r4], #4
    7c84:	8afffffa 	bhi	7c74 <memmove+0xf4>
    7c88:	e247c004 	sub	r12, r7, #4
    7c8c:	e3ccc003 	bic	r12, r12, #3
    7c90:	e28cc004 	add	r12, r12, #4
    7c94:	e083300c 	add	r3, r3, r12
    7c98:	e081100c 	add	r1, r1, r12
    7c9c:	e2022003 	and	r2, r2, #3
    7ca0:	eaffffcb 	b	7bd4 <memmove+0x54>
    7ca4:	e1a03000 	mov	r3, r0
    7ca8:	eaffffcb 	b	7bdc <memmove+0x5c>
    7cac:	e1a02007 	mov	r2, r7
    7cb0:	eaffffc7 	b	7bd4 <memmove+0x54>

00007cb4 <memset>:
    7cb4:	e3100003 	tst	r0, #3
    7cb8:	e92d0070 	push	{r4, r5, r6}
    7cbc:	0a000037 	beq	7da0 <memset+0xec>
    7cc0:	e3520000 	cmp	r2, #0
    7cc4:	e2422001 	sub	r2, r2, #1
    7cc8:	0a000032 	beq	7d98 <memset+0xe4>
    7ccc:	e201c0ff 	and	r12, r1, #255	; 0xff
    7cd0:	e1a03000 	mov	r3, r0
    7cd4:	ea000002 	b	7ce4 <memset+0x30>
    7cd8:	e3520000 	cmp	r2, #0
    7cdc:	e2422001 	sub	r2, r2, #1
    7ce0:	0a00002c 	beq	7d98 <memset+0xe4>
    7ce4:	e4c3c001 	strb	r12, [r3], #1
    7ce8:	e3130003 	tst	r3, #3
    7cec:	1afffff9 	bne	7cd8 <memset+0x24>
    7cf0:	e3520003 	cmp	r2, #3
    7cf4:	9a000020 	bls	7d7c <memset+0xc8>
    7cf8:	e20140ff 	and	r4, r1, #255	; 0xff
    7cfc:	e1844404 	orr	r4, r4, r4, lsl #8
    7d00:	e352000f 	cmp	r2, #15
    7d04:	e1844804 	orr	r4, r4, r4, lsl #16
    7d08:	9a000010 	bls	7d50 <memset+0x9c>
    7d0c:	e2426010 	sub	r6, r2, #16
    7d10:	e1a06226 	lsr	r6, r6, #4
    7d14:	e2835010 	add	r5, r3, #16
    7d18:	e0855206 	add	r5, r5, r6, lsl #4
    7d1c:	e1a0c003 	mov	r12, r3
    7d20:	e58c4000 	str	r4, [r12]
    7d24:	e58c4004 	str	r4, [r12, #4]
    7d28:	e58c4008 	str	r4, [r12, #8]
    7d2c:	e58c400c 	str	r4, [r12, #12]
    7d30:	e28cc010 	add	r12, r12, #16
    7d34:	e15c0005 	cmp	r12, r5
    7d38:	1afffff8 	bne	7d20 <memset+0x6c>
    7d3c:	e202200f 	and	r2, r2, #15
    7d40:	e2866001 	add	r6, r6, #1
    7d44:	e3520003 	cmp	r2, #3
    7d48:	e0833206 	add	r3, r3, r6, lsl #4
    7d4c:	9a00000a 	bls	7d7c <memset+0xc8>
    7d50:	e1a05003 	mov	r5, r3
    7d54:	e1a0c002 	mov	r12, r2
    7d58:	e24cc004 	sub	r12, r12, #4
    7d5c:	e35c0003 	cmp	r12, #3
    7d60:	e4854004 	str	r4, [r5], #4
    7d64:	8afffffb 	bhi	7d58 <memset+0xa4>
    7d68:	e242c004 	sub	r12, r2, #4
    7d6c:	e3ccc003 	bic	r12, r12, #3
    7d70:	e28cc004 	add	r12, r12, #4
    7d74:	e083300c 	add	r3, r3, r12
    7d78:	e2022003 	and	r2, r2, #3
    7d7c:	e3520000 	cmp	r2, #0
    7d80:	120110ff 	andne	r1, r1, #255	; 0xff
    7d84:	10832002 	addne	r2, r3, r2
    7d88:	0a000002 	beq	7d98 <memset+0xe4>
    7d8c:	e4c31001 	strb	r1, [r3], #1
    7d90:	e1530002 	cmp	r3, r2
    7d94:	1afffffc 	bne	7d8c <memset+0xd8>
    7d98:	e8bd0070 	pop	{r4, r5, r6}
    7d9c:	e12fff1e 	bx	lr
    7da0:	e1a03000 	mov	r3, r0
    7da4:	eaffffd1 	b	7cf0 <memset+0x3c>

00007da8 <__malloc_lock>:
    7da8:	e12fff1e 	bx	lr

00007dac <__malloc_unlock>:
    7dac:	e12fff1e 	bx	lr

00007db0 <_Balloc>:
    7db0:	e590204c 	ldr	r2, [r0, #76]	; 0x4c
    7db4:	e3520000 	cmp	r2, #0
    7db8:	e92d4070 	push	{r4, r5, r6, lr}
    7dbc:	e1a05000 	mov	r5, r0
    7dc0:	e1a04001 	mov	r4, r1
    7dc4:	0a000009 	beq	7df0 <_Balloc+0x40>
    7dc8:	e7920104 	ldr	r0, [r2, r4, lsl #2]
    7dcc:	e3500000 	cmp	r0, #0
    7dd0:	0a00000f 	beq	7e14 <_Balloc+0x64>
    7dd4:	e5901000 	ldr	r1, [r0]
    7dd8:	e7821104 	str	r1, [r2, r4, lsl #2]
    7ddc:	e3a02000 	mov	r2, #0
    7de0:	e5802010 	str	r2, [r0, #16]
    7de4:	e580200c 	str	r2, [r0, #12]
    7de8:	e8bd4070 	pop	{r4, r5, r6, lr}
    7dec:	e12fff1e 	bx	lr
    7df0:	e3a02021 	mov	r2, #33	; 0x21
    7df4:	e3a01004 	mov	r1, #4
    7df8:	eb001b5b 	bl	eb6c <_calloc_r>
    7dfc:	e3500000 	cmp	r0, #0
    7e00:	e585004c 	str	r0, [r5, #76]	; 0x4c
    7e04:	11a02000 	movne	r2, r0
    7e08:	1affffee 	bne	7dc8 <_Balloc+0x18>
    7e0c:	e3a00000 	mov	r0, #0
    7e10:	eafffff4 	b	7de8 <_Balloc+0x38>
    7e14:	e3a01001 	mov	r1, #1
    7e18:	e1a06411 	lsl	r6, r1, r4
    7e1c:	e2862005 	add	r2, r6, #5
    7e20:	e1a00005 	mov	r0, r5
    7e24:	e1a02102 	lsl	r2, r2, #2
    7e28:	eb001b4f 	bl	eb6c <_calloc_r>
    7e2c:	e3500000 	cmp	r0, #0
    7e30:	0afffff5 	beq	7e0c <_Balloc+0x5c>
    7e34:	e9800050 	stmib	r0, {r4, r6}
    7e38:	eaffffe7 	b	7ddc <_Balloc+0x2c>

00007e3c <_Bfree>:
    7e3c:	e3510000 	cmp	r1, #0
    7e40:	1590304c 	ldrne	r3, [r0, #76]	; 0x4c
    7e44:	15912004 	ldrne	r2, [r1, #4]
    7e48:	17930102 	ldrne	r0, [r3, r2, lsl #2]
    7e4c:	15810000 	strne	r0, [r1]
    7e50:	17831102 	strne	r1, [r3, r2, lsl #2]
    7e54:	e12fff1e 	bx	lr

00007e58 <__multadd>:
    7e58:	e92d43f0 	push	{r4, r5, r6, r7, r8, r9, lr}
    7e5c:	e5917010 	ldr	r7, [r1, #16]
    7e60:	e24dd00c 	sub	sp, sp, #12
    7e64:	e1a08001 	mov	r8, r1
    7e68:	e1a09000 	mov	r9, r0
    7e6c:	e2814014 	add	r4, r1, #20
    7e70:	e3a0c000 	mov	r12, #0
    7e74:	e5946000 	ldr	r6, [r4]
    7e78:	e1a05806 	lsl	r5, r6, #16
    7e7c:	e1a05825 	lsr	r5, r5, #16
    7e80:	e0253592 	mla	r5, r2, r5, r3
    7e84:	e1a03826 	lsr	r3, r6, #16
    7e88:	e0030392 	mul	r3, r2, r3
    7e8c:	e1a01805 	lsl	r1, r5, #16
    7e90:	e0833825 	add	r3, r3, r5, lsr #16
    7e94:	e28cc001 	add	r12, r12, #1
    7e98:	e1a01821 	lsr	r1, r1, #16
    7e9c:	e0811803 	add	r1, r1, r3, lsl #16
    7ea0:	e157000c 	cmp	r7, r12
    7ea4:	e4841004 	str	r1, [r4], #4
    7ea8:	e1a03823 	lsr	r3, r3, #16
    7eac:	cafffff0 	bgt	7e74 <__multadd+0x1c>
    7eb0:	e3530000 	cmp	r3, #0
    7eb4:	0a000006 	beq	7ed4 <__multadd+0x7c>
    7eb8:	e5982008 	ldr	r2, [r8, #8]
    7ebc:	e1570002 	cmp	r7, r2
    7ec0:	aa000007 	bge	7ee4 <__multadd+0x8c>
    7ec4:	e0882107 	add	r2, r8, r7, lsl #2
    7ec8:	e2877001 	add	r7, r7, #1
    7ecc:	e5823014 	str	r3, [r2, #20]
    7ed0:	e5887010 	str	r7, [r8, #16]
    7ed4:	e1a00008 	mov	r0, r8
    7ed8:	e28dd00c 	add	sp, sp, #12
    7edc:	e8bd43f0 	pop	{r4, r5, r6, r7, r8, r9, lr}
    7ee0:	e12fff1e 	bx	lr
    7ee4:	e5981004 	ldr	r1, [r8, #4]
    7ee8:	e1a00009 	mov	r0, r9
    7eec:	e2811001 	add	r1, r1, #1
    7ef0:	e58d3004 	str	r3, [sp, #4]
    7ef4:	ebffffad 	bl	7db0 <_Balloc>
    7ef8:	e5982010 	ldr	r2, [r8, #16]
    7efc:	e2822002 	add	r2, r2, #2
    7f00:	e288100c 	add	r1, r8, #12
    7f04:	e1a04000 	mov	r4, r0
    7f08:	e1a02102 	lsl	r2, r2, #2
    7f0c:	e280000c 	add	r0, r0, #12
    7f10:	ebfffede 	bl	7a90 <memcpy>
    7f14:	e599204c 	ldr	r2, [r9, #76]	; 0x4c
    7f18:	e5981004 	ldr	r1, [r8, #4]
    7f1c:	e7920101 	ldr	r0, [r2, r1, lsl #2]
    7f20:	e59d3004 	ldr	r3, [sp, #4]
    7f24:	e5880000 	str	r0, [r8]
    7f28:	e7828101 	str	r8, [r2, r1, lsl #2]
    7f2c:	e1a08004 	mov	r8, r4
    7f30:	eaffffe3 	b	7ec4 <__multadd+0x6c>

00007f34 <__s2b>:
    7f34:	e92d43f8 	push	{r3, r4, r5, r6, r7, r8, r9, lr}
    7f38:	e1a08003 	mov	r8, r3
    7f3c:	e59f30d4 	ldr	r3, [pc, #212]	; 8018 <__s2b+0xe4>
    7f40:	e288c008 	add	r12, r8, #8
    7f44:	e0c3e39c 	smull	lr, r3, r12, r3
    7f48:	e1a0cfcc 	asr	r12, r12, #31
    7f4c:	e06c30c3 	rsb	r3, r12, r3, asr #1
    7f50:	e3530001 	cmp	r3, #1
    7f54:	e1a05000 	mov	r5, r0
    7f58:	e1a04001 	mov	r4, r1
    7f5c:	e1a07002 	mov	r7, r2
    7f60:	e59d6020 	ldr	r6, [sp, #32]
    7f64:	da000029 	ble	8010 <__s2b+0xdc>
    7f68:	e3a0c001 	mov	r12, #1
    7f6c:	e3a01000 	mov	r1, #0
    7f70:	e1a0c08c 	lsl	r12, r12, #1
    7f74:	e153000c 	cmp	r3, r12
    7f78:	e2811001 	add	r1, r1, #1
    7f7c:	cafffffb 	bgt	7f70 <__s2b+0x3c>
    7f80:	e1a00005 	mov	r0, r5
    7f84:	ebffff89 	bl	7db0 <_Balloc>
    7f88:	e3570009 	cmp	r7, #9
    7f8c:	e3a03001 	mov	r3, #1
    7f90:	e5806014 	str	r6, [r0, #20]
    7f94:	e5803010 	str	r3, [r0, #16]
    7f98:	d284400a 	addle	r4, r4, #10
    7f9c:	d3a07009 	movle	r7, #9
    7fa0:	da00000c 	ble	7fd8 <__s2b+0xa4>
    7fa4:	e2849009 	add	r9, r4, #9
    7fa8:	e1a06009 	mov	r6, r9
    7fac:	e0844007 	add	r4, r4, r7
    7fb0:	e4d63001 	ldrb	r3, [r6], #1
    7fb4:	e1a01000 	mov	r1, r0
    7fb8:	e2433030 	sub	r3, r3, #48	; 0x30
    7fbc:	e1a00005 	mov	r0, r5
    7fc0:	e3a0200a 	mov	r2, #10
    7fc4:	ebffffa3 	bl	7e58 <__multadd>
    7fc8:	e1560004 	cmp	r6, r4
    7fcc:	1afffff7 	bne	7fb0 <__s2b+0x7c>
    7fd0:	e0894007 	add	r4, r9, r7
    7fd4:	e2444008 	sub	r4, r4, #8
    7fd8:	e1580007 	cmp	r8, r7
    7fdc:	da000009 	ble	8008 <__s2b+0xd4>
    7fe0:	e0677008 	rsb	r7, r7, r8
    7fe4:	e0847007 	add	r7, r4, r7
    7fe8:	e4d43001 	ldrb	r3, [r4], #1
    7fec:	e1a01000 	mov	r1, r0
    7ff0:	e2433030 	sub	r3, r3, #48	; 0x30
    7ff4:	e1a00005 	mov	r0, r5
    7ff8:	e3a0200a 	mov	r2, #10
    7ffc:	ebffff95 	bl	7e58 <__multadd>
    8000:	e1540007 	cmp	r4, r7
    8004:	1afffff7 	bne	7fe8 <__s2b+0xb4>
    8008:	e8bd43f8 	pop	{r3, r4, r5, r6, r7, r8, r9, lr}
    800c:	e12fff1e 	bx	lr
    8010:	e3a01000 	mov	r1, #0
    8014:	eaffffd9 	b	7f80 <__s2b+0x4c>
    8018:	38e38e39 	.word	0x38e38e39

0000801c <__hi0bits>:
    801c:	e1b03820 	lsrs	r3, r0, #16
    8020:	01a00800 	lsleq	r0, r0, #16
    8024:	03a03010 	moveq	r3, #16
    8028:	13a03000 	movne	r3, #0
    802c:	e31004ff 	tst	r0, #-16777216	; 0xff000000
    8030:	01a00400 	lsleq	r0, r0, #8
    8034:	02833008 	addeq	r3, r3, #8
    8038:	e310020f 	tst	r0, #-268435456	; 0xf0000000
    803c:	01a00200 	lsleq	r0, r0, #4
    8040:	02833004 	addeq	r3, r3, #4
    8044:	e3100103 	tst	r0, #-1073741824	; 0xc0000000
    8048:	01a00100 	lsleq	r0, r0, #2
    804c:	02833002 	addeq	r3, r3, #2
    8050:	e3500000 	cmp	r0, #0
    8054:	ba000005 	blt	8070 <__hi0bits+0x54>
    8058:	e3100101 	tst	r0, #1073741824	; 0x40000000
    805c:	1a000001 	bne	8068 <__hi0bits+0x4c>
    8060:	e3a00020 	mov	r0, #32
    8064:	e12fff1e 	bx	lr
    8068:	e2830001 	add	r0, r3, #1
    806c:	e12fff1e 	bx	lr
    8070:	e1a00003 	mov	r0, r3
    8074:	e12fff1e 	bx	lr

00008078 <__lo0bits>:
    8078:	e5903000 	ldr	r3, [r0]
    807c:	e2132007 	ands	r2, r3, #7
    8080:	0a000009 	beq	80ac <__lo0bits+0x34>
    8084:	e3130001 	tst	r3, #1
    8088:	1a00001d 	bne	8104 <__lo0bits+0x8c>
    808c:	e3130002 	tst	r3, #2
    8090:	11a030a3 	lsrne	r3, r3, #1
    8094:	01a03123 	lsreq	r3, r3, #2
    8098:	15803000 	strne	r3, [r0]
    809c:	05803000 	streq	r3, [r0]
    80a0:	13a00001 	movne	r0, #1
    80a4:	03a00002 	moveq	r0, #2
    80a8:	e12fff1e 	bx	lr
    80ac:	e1b01803 	lsls	r1, r3, #16
    80b0:	01a03823 	lsreq	r3, r3, #16
    80b4:	03a02010 	moveq	r2, #16
    80b8:	e31300ff 	tst	r3, #255	; 0xff
    80bc:	01a03423 	lsreq	r3, r3, #8
    80c0:	02822008 	addeq	r2, r2, #8
    80c4:	e313000f 	tst	r3, #15
    80c8:	01a03223 	lsreq	r3, r3, #4
    80cc:	02822004 	addeq	r2, r2, #4
    80d0:	e3130003 	tst	r3, #3
    80d4:	01a03123 	lsreq	r3, r3, #2
    80d8:	02822002 	addeq	r2, r2, #2
    80dc:	e3130001 	tst	r3, #1
    80e0:	1a000004 	bne	80f8 <__lo0bits+0x80>
    80e4:	e1b030a3 	lsrs	r3, r3, #1
    80e8:	1a000001 	bne	80f4 <__lo0bits+0x7c>
    80ec:	e3a00020 	mov	r0, #32
    80f0:	e12fff1e 	bx	lr
    80f4:	e2822001 	add	r2, r2, #1
    80f8:	e5803000 	str	r3, [r0]
    80fc:	e1a00002 	mov	r0, r2
    8100:	e12fff1e 	bx	lr
    8104:	e3a00000 	mov	r0, #0
    8108:	e12fff1e 	bx	lr

0000810c <__i2b>:
    810c:	e92d4010 	push	{r4, lr}
    8110:	e1a04001 	mov	r4, r1
    8114:	e3a01001 	mov	r1, #1
    8118:	ebffff24 	bl	7db0 <_Balloc>
    811c:	e3a02001 	mov	r2, #1
    8120:	e5804014 	str	r4, [r0, #20]
    8124:	e5802010 	str	r2, [r0, #16]
    8128:	e8bd4010 	pop	{r4, lr}
    812c:	e12fff1e 	bx	lr

00008130 <__multiply>:
    8130:	e92d4ff0 	push	{r4, r5, r6, r7, r8, r9, r10, r11, lr}
    8134:	e5919010 	ldr	r9, [r1, #16]
    8138:	e592a010 	ldr	r10, [r2, #16]
    813c:	e159000a 	cmp	r9, r10
    8140:	e24dd014 	sub	sp, sp, #20
    8144:	e1a08001 	mov	r8, r1
    8148:	e1a06002 	mov	r6, r2
    814c:	aa000004 	bge	8164 <__multiply+0x34>
    8150:	e1a02009 	mov	r2, r9
    8154:	e1a08006 	mov	r8, r6
    8158:	e1a0900a 	mov	r9, r10
    815c:	e1a06001 	mov	r6, r1
    8160:	e1a0a002 	mov	r10, r2
    8164:	e5983008 	ldr	r3, [r8, #8]
    8168:	e089500a 	add	r5, r9, r10
    816c:	e5981004 	ldr	r1, [r8, #4]
    8170:	e1550003 	cmp	r5, r3
    8174:	c2811001 	addgt	r1, r1, #1
    8178:	ebffff0c 	bl	7db0 <_Balloc>
    817c:	e2804014 	add	r4, r0, #20
    8180:	e0847105 	add	r7, r4, r5, lsl #2
    8184:	e1540007 	cmp	r4, r7
    8188:	e58d0004 	str	r0, [sp, #4]
    818c:	31a03004 	movcc	r3, r4
    8190:	33a00000 	movcc	r0, #0
    8194:	2a000002 	bcs	81a4 <__multiply+0x74>
    8198:	e4830004 	str	r0, [r3], #4
    819c:	e1570003 	cmp	r7, r3
    81a0:	8afffffc 	bhi	8198 <__multiply+0x68>
    81a4:	e2866014 	add	r6, r6, #20
    81a8:	e086a10a 	add	r10, r6, r10, lsl #2
    81ac:	e156000a 	cmp	r6, r10
    81b0:	e2888014 	add	r8, r8, #20
    81b4:	358d7008 	strcc	r7, [sp, #8]
    81b8:	358d500c 	strcc	r5, [sp, #12]
    81bc:	e088c109 	add	r12, r8, r9, lsl #2
    81c0:	31a0700a 	movcc	r7, r10
    81c4:	31a05008 	movcc	r5, r8
    81c8:	2a000040 	bcs	82d0 <__multiply+0x1a0>
    81cc:	e4968004 	ldr	r8, [r6], #4
    81d0:	e1a09808 	lsl	r9, r8, #16
    81d4:	e1b09829 	lsrs	r9, r9, #16
    81d8:	0a00001b 	beq	824c <__multiply+0x11c>
    81dc:	e3a08000 	mov	r8, #0
    81e0:	e1a02005 	mov	r2, r5
    81e4:	e1a03004 	mov	r3, r4
    81e8:	e1a0a008 	mov	r10, r8
    81ec:	ea000000 	b	81f4 <__multiply+0xc4>
    81f0:	e1a03001 	mov	r3, r1
    81f4:	e4920004 	ldr	r0, [r2], #4
    81f8:	e5931000 	ldr	r1, [r3]
    81fc:	e1a0b800 	lsl	r11, r0, #16
    8200:	e1a08801 	lsl	r8, r1, #16
    8204:	e1a0b82b 	lsr	r11, r11, #16
    8208:	e1a08828 	lsr	r8, r8, #16
    820c:	e0288b99 	mla	r8, r9, r11, r8
    8210:	e1a00820 	lsr	r0, r0, #16
    8214:	e1a01821 	lsr	r1, r1, #16
    8218:	e0211099 	mla	r1, r9, r0, r1
    821c:	e088800a 	add	r8, r8, r10
    8220:	e1a00808 	lsl	r0, r8, #16
    8224:	e1a00820 	lsr	r0, r0, #16
    8228:	e0818828 	add	r8, r1, r8, lsr #16
    822c:	e1800808 	orr	r0, r0, r8, lsl #16
    8230:	e1a01003 	mov	r1, r3
    8234:	e15c0002 	cmp	r12, r2
    8238:	e1a0a828 	lsr	r10, r8, #16
    823c:	e4810004 	str	r0, [r1], #4
    8240:	8affffea 	bhi	81f0 <__multiply+0xc0>
    8244:	e583a004 	str	r10, [r3, #4]
    8248:	e5168004 	ldr	r8, [r6, #-4]
    824c:	e1b08828 	lsrs	r8, r8, #16
    8250:	0a000019 	beq	82bc <__multiply+0x18c>
    8254:	e5949000 	ldr	r9, [r4]
    8258:	e3a0a000 	mov	r10, #0
    825c:	e1a02004 	mov	r2, r4
    8260:	e1a00009 	mov	r0, r9
    8264:	e1a03005 	mov	r3, r5
    8268:	e1a0100a 	mov	r1, r10
    826c:	e1d3a0b0 	ldrh	r10, [r3]
    8270:	e1a00820 	lsr	r0, r0, #16
    8274:	e02a0a98 	mla	r10, r8, r10, r0
    8278:	e1a09809 	lsl	r9, r9, #16
    827c:	e08aa001 	add	r10, r10, r1
    8280:	e1a09829 	lsr	r9, r9, #16
    8284:	e189980a 	orr	r9, r9, r10, lsl #16
    8288:	e5829000 	str	r9, [r2]
    828c:	e1a0b002 	mov	r11, r2
    8290:	e5b20004 	ldr	r0, [r2, #4]!
    8294:	e4939004 	ldr	r9, [r3], #4
    8298:	e1a01800 	lsl	r1, r0, #16
    829c:	e1a01821 	lsr	r1, r1, #16
    82a0:	e1a09829 	lsr	r9, r9, #16
    82a4:	e0291998 	mla	r9, r8, r9, r1
    82a8:	e15c0003 	cmp	r12, r3
    82ac:	e089982a 	add	r9, r9, r10, lsr #16
    82b0:	e1a01829 	lsr	r1, r9, #16
    82b4:	8affffec 	bhi	826c <__multiply+0x13c>
    82b8:	e58b9004 	str	r9, [r11, #4]
    82bc:	e1570006 	cmp	r7, r6
    82c0:	e2844004 	add	r4, r4, #4
    82c4:	8affffc0 	bhi	81cc <__multiply+0x9c>
    82c8:	e59d7008 	ldr	r7, [sp, #8]
    82cc:	e59d500c 	ldr	r5, [sp, #12]
    82d0:	e3550000 	cmp	r5, #0
    82d4:	da000009 	ble	8300 <__multiply+0x1d0>
    82d8:	e5173004 	ldr	r3, [r7, #-4]
    82dc:	e3530000 	cmp	r3, #0
    82e0:	e2477004 	sub	r7, r7, #4
    82e4:	0a000003 	beq	82f8 <__multiply+0x1c8>
    82e8:	ea000004 	b	8300 <__multiply+0x1d0>
    82ec:	e5373004 	ldr	r3, [r7, #-4]!
    82f0:	e3530000 	cmp	r3, #0
    82f4:	1a000001 	bne	8300 <__multiply+0x1d0>
    82f8:	e2555001 	subs	r5, r5, #1
    82fc:	1afffffa 	bne	82ec <__multiply+0x1bc>
    8300:	e59d3004 	ldr	r3, [sp, #4]
    8304:	e1a00003 	mov	r0, r3
    8308:	e5835010 	str	r5, [r3, #16]
    830c:	e28dd014 	add	sp, sp, #20
    8310:	e8bd4ff0 	pop	{r4, r5, r6, r7, r8, r9, r10, r11, lr}
    8314:	e12fff1e 	bx	lr

00008318 <__pow5mult>:
    8318:	e2123003 	ands	r3, r2, #3
    831c:	e92d41f0 	push	{r4, r5, r6, r7, r8, lr}
    8320:	e1a04002 	mov	r4, r2
    8324:	e1a07000 	mov	r7, r0
    8328:	e1a06001 	mov	r6, r1
    832c:	1a000025 	bne	83c8 <__pow5mult+0xb0>
    8330:	e1b04144 	asrs	r4, r4, #2
    8334:	0a000019 	beq	83a0 <__pow5mult+0x88>
    8338:	e5975048 	ldr	r5, [r7, #72]	; 0x48
    833c:	e3550000 	cmp	r5, #0
    8340:	0a000027 	beq	83e4 <__pow5mult+0xcc>
    8344:	e3a08000 	mov	r8, #0
    8348:	ea000005 	b	8364 <__pow5mult+0x4c>
    834c:	e1b040c4 	asrs	r4, r4, #1
    8350:	0a000012 	beq	83a0 <__pow5mult+0x88>
    8354:	e5950000 	ldr	r0, [r5]
    8358:	e3500000 	cmp	r0, #0
    835c:	0a000012 	beq	83ac <__pow5mult+0x94>
    8360:	e1a05000 	mov	r5, r0
    8364:	e3140001 	tst	r4, #1
    8368:	0afffff7 	beq	834c <__pow5mult+0x34>
    836c:	e1a01006 	mov	r1, r6
    8370:	e1a02005 	mov	r2, r5
    8374:	e1a00007 	mov	r0, r7
    8378:	ebffff6c 	bl	8130 <__multiply>
    837c:	e3560000 	cmp	r6, #0
    8380:	15962004 	ldrne	r2, [r6, #4]
    8384:	1597304c 	ldrne	r3, [r7, #76]	; 0x4c
    8388:	17931102 	ldrne	r1, [r3, r2, lsl #2]
    838c:	15861000 	strne	r1, [r6]
    8390:	17836102 	strne	r6, [r3, r2, lsl #2]
    8394:	e1b040c4 	asrs	r4, r4, #1
    8398:	e1a06000 	mov	r6, r0
    839c:	1affffec 	bne	8354 <__pow5mult+0x3c>
    83a0:	e1a00006 	mov	r0, r6
    83a4:	e8bd41f0 	pop	{r4, r5, r6, r7, r8, lr}
    83a8:	e12fff1e 	bx	lr
    83ac:	e1a00007 	mov	r0, r7
    83b0:	e1a01005 	mov	r1, r5
    83b4:	e1a02005 	mov	r2, r5
    83b8:	ebffff5c 	bl	8130 <__multiply>
    83bc:	e5850000 	str	r0, [r5]
    83c0:	e5808000 	str	r8, [r0]
    83c4:	eaffffe5 	b	8360 <__pow5mult+0x48>
    83c8:	e59f2044 	ldr	r2, [pc, #68]	; 8414 <__pow5mult+0xfc>
    83cc:	e2433001 	sub	r3, r3, #1
    83d0:	e7922103 	ldr	r2, [r2, r3, lsl #2]
    83d4:	e3a03000 	mov	r3, #0
    83d8:	ebfffe9e 	bl	7e58 <__multadd>
    83dc:	e1a06000 	mov	r6, r0
    83e0:	eaffffd2 	b	8330 <__pow5mult+0x18>
    83e4:	e3a01001 	mov	r1, #1
    83e8:	e1a00007 	mov	r0, r7
    83ec:	ebfffe6f 	bl	7db0 <_Balloc>
    83f0:	e59f1020 	ldr	r1, [pc, #32]	; 8418 <__pow5mult+0x100>
    83f4:	e3a02001 	mov	r2, #1
    83f8:	e3a03000 	mov	r3, #0
    83fc:	e5801014 	str	r1, [r0, #20]
    8400:	e5802010 	str	r2, [r0, #16]
    8404:	e1a05000 	mov	r5, r0
    8408:	e5870048 	str	r0, [r7, #72]	; 0x48
    840c:	e5803000 	str	r3, [r0]
    8410:	eaffffcb 	b	8344 <__pow5mult+0x2c>
    8414:	000134e0 	.word	0x000134e0
    8418:	00000271 	.word	0x00000271

0000841c <__lshift>:
    841c:	e92d47f0 	push	{r4, r5, r6, r7, r8, r9, r10, lr}
    8420:	e5918010 	ldr	r8, [r1, #16]
    8424:	e1a092c2 	asr	r9, r2, #5
    8428:	e5913008 	ldr	r3, [r1, #8]
    842c:	e0898008 	add	r8, r9, r8
    8430:	e2885001 	add	r5, r8, #1
    8434:	e1550003 	cmp	r5, r3
    8438:	e1a06001 	mov	r6, r1
    843c:	e1a0a002 	mov	r10, r2
    8440:	e1a07000 	mov	r7, r0
    8444:	e5911004 	ldr	r1, [r1, #4]
    8448:	da000003 	ble	845c <__lshift+0x40>
    844c:	e1a03083 	lsl	r3, r3, #1
    8450:	e1550003 	cmp	r5, r3
    8454:	e2811001 	add	r1, r1, #1
    8458:	cafffffb 	bgt	844c <__lshift+0x30>
    845c:	e1a00007 	mov	r0, r7
    8460:	ebfffe52 	bl	7db0 <_Balloc>
    8464:	e3590000 	cmp	r9, #0
    8468:	e280c014 	add	r12, r0, #20
    846c:	da000007 	ble	8490 <__lshift+0x74>
    8470:	e3a03000 	mov	r3, #0
    8474:	e1a02003 	mov	r2, r3
    8478:	e1a0400c 	mov	r4, r12
    847c:	e2833001 	add	r3, r3, #1
    8480:	e1530009 	cmp	r3, r9
    8484:	e4842004 	str	r2, [r4], #4
    8488:	1afffffb 	bne	847c <__lshift+0x60>
    848c:	e08cc103 	add	r12, r12, r3, lsl #2
    8490:	e5961010 	ldr	r1, [r6, #16]
    8494:	e2863014 	add	r3, r6, #20
    8498:	e21aa01f 	ands	r10, r10, #31
    849c:	e0831101 	add	r1, r3, r1, lsl #2
    84a0:	0a000017 	beq	8504 <__lshift+0xe8>
    84a4:	e26a9020 	rsb	r9, r10, #32
    84a8:	e3a02000 	mov	r2, #0
    84ac:	ea000000 	b	84b4 <__lshift+0x98>
    84b0:	e1a0c004 	mov	r12, r4
    84b4:	e5934000 	ldr	r4, [r3]
    84b8:	e1822a14 	orr	r2, r2, r4, lsl r10
    84bc:	e1a0400c 	mov	r4, r12
    84c0:	e4842004 	str	r2, [r4], #4
    84c4:	e4932004 	ldr	r2, [r3], #4
    84c8:	e1530001 	cmp	r3, r1
    84cc:	e1a02932 	lsr	r2, r2, r9
    84d0:	3afffff6 	bcc	84b0 <__lshift+0x94>
    84d4:	e3520000 	cmp	r2, #0
    84d8:	e58c2004 	str	r2, [r12, #4]
    84dc:	12885002 	addne	r5, r8, #2
    84e0:	e597304c 	ldr	r3, [r7, #76]	; 0x4c
    84e4:	e5962004 	ldr	r2, [r6, #4]
    84e8:	e7931102 	ldr	r1, [r3, r2, lsl #2]
    84ec:	e2455001 	sub	r5, r5, #1
    84f0:	e5805010 	str	r5, [r0, #16]
    84f4:	e5861000 	str	r1, [r6]
    84f8:	e7836102 	str	r6, [r3, r2, lsl #2]
    84fc:	e8bd47f0 	pop	{r4, r5, r6, r7, r8, r9, r10, lr}
    8500:	e12fff1e 	bx	lr
    8504:	e4932004 	ldr	r2, [r3], #4
    8508:	e1510003 	cmp	r1, r3
    850c:	e48c2004 	str	r2, [r12], #4
    8510:	9afffff2 	bls	84e0 <__lshift+0xc4>
    8514:	e4932004 	ldr	r2, [r3], #4
    8518:	e1510003 	cmp	r1, r3
    851c:	e48c2004 	str	r2, [r12], #4
    8520:	8afffff7 	bhi	8504 <__lshift+0xe8>
    8524:	eaffffed 	b	84e0 <__lshift+0xc4>

00008528 <__mcmp>:
    8528:	e5902010 	ldr	r2, [r0, #16]
    852c:	e5913010 	ldr	r3, [r1, #16]
    8530:	e0522003 	subs	r2, r2, r3
    8534:	1a00000f 	bne	8578 <__mcmp+0x50>
    8538:	e1a03103 	lsl	r3, r3, #2
    853c:	e2800014 	add	r0, r0, #20
    8540:	e2811014 	add	r1, r1, #20
    8544:	e0811003 	add	r1, r1, r3
    8548:	e0803003 	add	r3, r0, r3
    854c:	ea000001 	b	8558 <__mcmp+0x30>
    8550:	e1500003 	cmp	r0, r3
    8554:	2a000009 	bcs	8580 <__mcmp+0x58>
    8558:	e5332004 	ldr	r2, [r3, #-4]!
    855c:	e531c004 	ldr	r12, [r1, #-4]!
    8560:	e152000c 	cmp	r2, r12
    8564:	0afffff9 	beq	8550 <__mcmp+0x28>
    8568:	e15c0002 	cmp	r12, r2
    856c:	93a00001 	movls	r0, #1
    8570:	83e00000 	mvnhi	r0, #0
    8574:	e12fff1e 	bx	lr
    8578:	e1a00002 	mov	r0, r2
    857c:	e12fff1e 	bx	lr
    8580:	e3a00000 	mov	r0, #0
    8584:	e12fff1e 	bx	lr

00008588 <__mdiff>:
    8588:	e92d47f0 	push	{r4, r5, r6, r7, r8, r9, r10, lr}
    858c:	e1a05001 	mov	r5, r1
    8590:	e1a06000 	mov	r6, r0
    8594:	e1a01002 	mov	r1, r2
    8598:	e1a00005 	mov	r0, r5
    859c:	e1a04002 	mov	r4, r2
    85a0:	ebffffe0 	bl	8528 <__mcmp>
    85a4:	e2507000 	subs	r7, r0, #0
    85a8:	0a00003f 	beq	86ac <__mdiff+0x124>
    85ac:	b1a03005 	movlt	r3, r5
    85b0:	b1a05004 	movlt	r5, r4
    85b4:	e1a00006 	mov	r0, r6
    85b8:	e5951004 	ldr	r1, [r5, #4]
    85bc:	b1a04003 	movlt	r4, r3
    85c0:	a3a08000 	movge	r8, #0
    85c4:	b3a08001 	movlt	r8, #1
    85c8:	ebfffdf8 	bl	7db0 <_Balloc>
    85cc:	e5949010 	ldr	r9, [r4, #16]
    85d0:	e5957010 	ldr	r7, [r5, #16]
    85d4:	e285c014 	add	r12, r5, #20
    85d8:	e2844014 	add	r4, r4, #20
    85dc:	e580800c 	str	r8, [r0, #12]
    85e0:	e2803014 	add	r3, r0, #20
    85e4:	e08c8107 	add	r8, r12, r7, lsl #2
    85e8:	e0849109 	add	r9, r4, r9, lsl #2
    85ec:	e3a02000 	mov	r2, #0
    85f0:	e49c5004 	ldr	r5, [r12], #4
    85f4:	e4946004 	ldr	r6, [r4], #4
    85f8:	e1a01805 	lsl	r1, r5, #16
    85fc:	e0822821 	add	r2, r2, r1, lsr #16
    8600:	e1a0a806 	lsl	r10, r6, #16
    8604:	e042182a 	sub	r1, r2, r10, lsr #16
    8608:	e1a02826 	lsr	r2, r6, #16
    860c:	e0622825 	rsb	r2, r2, r5, lsr #16
    8610:	e1a05801 	lsl	r5, r1, #16
    8614:	e0822841 	add	r2, r2, r1, asr #16
    8618:	e1a05825 	lsr	r5, r5, #16
    861c:	e1855802 	orr	r5, r5, r2, lsl #16
    8620:	e1590004 	cmp	r9, r4
    8624:	e4835004 	str	r5, [r3], #4
    8628:	e1a02842 	asr	r2, r2, #16
    862c:	e1a0100c 	mov	r1, r12
    8630:	8affffee 	bhi	85f0 <__mdiff+0x68>
    8634:	e158000c 	cmp	r8, r12
    8638:	e1a06003 	mov	r6, r3
    863c:	9a000010 	bls	8684 <__mdiff+0xfc>
    8640:	e4914004 	ldr	r4, [r1], #4
    8644:	e1a05804 	lsl	r5, r4, #16
    8648:	e0822825 	add	r2, r2, r5, lsr #16
    864c:	e1a05802 	lsl	r5, r2, #16
    8650:	e1a04824 	lsr	r4, r4, #16
    8654:	e0842842 	add	r2, r4, r2, asr #16
    8658:	e1a05825 	lsr	r5, r5, #16
    865c:	e1855802 	orr	r5, r5, r2, lsl #16
    8660:	e1580001 	cmp	r8, r1
    8664:	e4835004 	str	r5, [r3], #4
    8668:	e1a02842 	asr	r2, r2, #16
    866c:	8afffff3 	bhi	8640 <__mdiff+0xb8>
    8670:	e1e0300c 	mvn	r3, r12
    8674:	e0833008 	add	r3, r3, r8
    8678:	e3c33003 	bic	r3, r3, #3
    867c:	e2833004 	add	r3, r3, #4
    8680:	e0863003 	add	r3, r6, r3
    8684:	e3550000 	cmp	r5, #0
    8688:	e2433004 	sub	r3, r3, #4
    868c:	1a000003 	bne	86a0 <__mdiff+0x118>
    8690:	e5332004 	ldr	r2, [r3, #-4]!
    8694:	e3520000 	cmp	r2, #0
    8698:	e2477001 	sub	r7, r7, #1
    869c:	0afffffb 	beq	8690 <__mdiff+0x108>
    86a0:	e5807010 	str	r7, [r0, #16]
    86a4:	e8bd47f0 	pop	{r4, r5, r6, r7, r8, r9, r10, lr}
    86a8:	e12fff1e 	bx	lr
    86ac:	e1a00006 	mov	r0, r6
    86b0:	e1a01007 	mov	r1, r7
    86b4:	ebfffdbd 	bl	7db0 <_Balloc>
    86b8:	e3a03001 	mov	r3, #1
    86bc:	e5807014 	str	r7, [r0, #20]
    86c0:	e5803010 	str	r3, [r0, #16]
    86c4:	e8bd47f0 	pop	{r4, r5, r6, r7, r8, r9, r10, lr}
    86c8:	e12fff1e 	bx	lr

000086cc <__ulp>:
    86cc:	e59f3058 	ldr	r3, [pc, #88]	; 872c <__ulp+0x60>
    86d0:	e0013003 	and	r3, r1, r3
    86d4:	e243350d 	sub	r3, r3, #54525952	; 0x3400000
    86d8:	e3530000 	cmp	r3, #0
    86dc:	da000002 	ble	86ec <__ulp+0x20>
    86e0:	e1a01003 	mov	r1, r3
    86e4:	e3a00000 	mov	r0, #0
    86e8:	e12fff1e 	bx	lr
    86ec:	e2633000 	rsb	r3, r3, #0
    86f0:	e1a03a43 	asr	r3, r3, #20
    86f4:	e3530013 	cmp	r3, #19
    86f8:	da000007 	ble	871c <__ulp+0x50>
    86fc:	e3530032 	cmp	r3, #50	; 0x32
    8700:	d2633033 	rsble	r3, r3, #51	; 0x33
    8704:	d3a02001 	movle	r2, #1
    8708:	d1a03312 	lslle	r3, r2, r3
    870c:	c3a03001 	movgt	r3, #1
    8710:	e3a01000 	mov	r1, #0
    8714:	e1a00003 	mov	r0, r3
    8718:	e12fff1e 	bx	lr
    871c:	e3a02702 	mov	r2, #524288	; 0x80000
    8720:	e1a01352 	asr	r1, r2, r3
    8724:	e3a00000 	mov	r0, #0
    8728:	e12fff1e 	bx	lr
    872c:	7ff00000 	.word	0x7ff00000

00008730 <__b2d>:
    8730:	e92d4038 	push	{r3, r4, r5, lr}
    8734:	e5904010 	ldr	r4, [r0, #16]
    8738:	e2802014 	add	r2, r0, #20
    873c:	e0824104 	add	r4, r2, r4, lsl #2
    8740:	e5145004 	ldr	r5, [r4, #-4]
    8744:	e1a00005 	mov	r0, r5
    8748:	ebfffe33 	bl	801c <__hi0bits>
    874c:	e2603020 	rsb	r3, r0, #32
    8750:	e350000a 	cmp	r0, #10
    8754:	e5813000 	str	r3, [r1]
    8758:	e2441004 	sub	r1, r4, #4
    875c:	ca00000d 	bgt	8798 <__b2d+0x68>
    8760:	e260c00b 	rsb	r12, r0, #11
    8764:	e1a03c35 	lsr	r3, r5, r12
    8768:	e1520001 	cmp	r2, r1
    876c:	e38315ff 	orr	r1, r3, #1069547520	; 0x3fc00000
    8770:	e3813603 	orr	r3, r1, #3145728	; 0x300000
    8774:	35141008 	ldrcc	r1, [r4, #-8]
    8778:	31a0cc31 	lsrcc	r12, r1, r12
    877c:	e2800015 	add	r0, r0, #21
    8780:	23a0c000 	movcs	r12, #0
    8784:	e18c2015 	orr	r2, r12, r5, lsl r0
    8788:	e1a01003 	mov	r1, r3
    878c:	e1a00002 	mov	r0, r2
    8790:	e8bd4038 	pop	{r3, r4, r5, lr}
    8794:	e12fff1e 	bx	lr
    8798:	e1520001 	cmp	r2, r1
    879c:	32441008 	subcc	r1, r4, #8
    87a0:	3514c008 	ldrcc	r12, [r4, #-8]
    87a4:	23a0c000 	movcs	r12, #0
    87a8:	e250400b 	subs	r4, r0, #11
    87ac:	0a00000d 	beq	87e8 <__b2d+0xb8>
    87b0:	e1a05415 	lsl	r5, r5, r4
    87b4:	e1510002 	cmp	r1, r2
    87b8:	85111004 	ldrhi	r1, [r1, #-4]
    87bc:	e38555ff 	orr	r5, r5, #1069547520	; 0x3fc00000
    87c0:	e260002b 	rsb	r0, r0, #43	; 0x2b
    87c4:	e3855603 	orr	r5, r5, #3145728	; 0x300000
    87c8:	e185303c 	orr	r3, r5, r12, lsr r0
    87cc:	81a00031 	lsrhi	r0, r1, r0
    87d0:	93a00000 	movls	r0, #0
    87d4:	e180241c 	orr	r2, r0, r12, lsl r4
    87d8:	e1a01003 	mov	r1, r3
    87dc:	e1a00002 	mov	r0, r2
    87e0:	e8bd4038 	pop	{r3, r4, r5, lr}
    87e4:	e12fff1e 	bx	lr
    87e8:	e38555ff 	orr	r5, r5, #1069547520	; 0x3fc00000
    87ec:	e3853603 	orr	r3, r5, #3145728	; 0x300000
    87f0:	e1a0200c 	mov	r2, r12
    87f4:	e1a01003 	mov	r1, r3
    87f8:	e1a00002 	mov	r0, r2
    87fc:	e8bd4038 	pop	{r3, r4, r5, lr}
    8800:	e12fff1e 	bx	lr

00008804 <__d2b>:
    8804:	e92d43f0 	push	{r4, r5, r6, r7, r8, r9, lr}
    8808:	e3a01001 	mov	r1, #1
    880c:	e24dd00c 	sub	sp, sp, #12
    8810:	e1a05003 	mov	r5, r3
    8814:	e1a04002 	mov	r4, r2
    8818:	e59d8028 	ldr	r8, [sp, #40]	; 0x28
    881c:	e59d702c 	ldr	r7, [sp, #44]	; 0x2c
    8820:	ebfffd62 	bl	7db0 <_Balloc>
    8824:	e3c53102 	bic	r3, r5, #-2147483648	; 0x80000000
    8828:	e1b09a23 	lsrs	r9, r3, #20
    882c:	e3c534ff 	bic	r3, r5, #-16777216	; 0xff000000
    8830:	e3c3360f 	bic	r3, r3, #15728640	; 0xf00000
    8834:	13833601 	orrne	r3, r3, #1048576	; 0x100000
    8838:	e3540000 	cmp	r4, #0
    883c:	e1a06000 	mov	r6, r0
    8840:	e58d3004 	str	r3, [sp, #4]
    8844:	0a00001e 	beq	88c4 <__d2b+0xc0>
    8848:	e28d0008 	add	r0, sp, #8
    884c:	e5204008 	str	r4, [r0, #-8]!
    8850:	e1a0000d 	mov	r0, sp
    8854:	ebfffe07 	bl	8078 <__lo0bits>
    8858:	e89d000c 	ldm	sp, {r2, r3}
    885c:	e3500000 	cmp	r0, #0
    8860:	12601020 	rsbne	r1, r0, #32
    8864:	11822113 	orrne	r2, r2, r3, lsl r1
    8868:	11a03033 	lsrne	r3, r3, r0
    886c:	15862014 	strne	r2, [r6, #20]
    8870:	05862014 	streq	r2, [r6, #20]
    8874:	158d3004 	strne	r3, [sp, #4]
    8878:	e3530000 	cmp	r3, #0
    887c:	03a02001 	moveq	r2, #1
    8880:	13a02002 	movne	r2, #2
    8884:	e3590000 	cmp	r9, #0
    8888:	e5863018 	str	r3, [r6, #24]
    888c:	e5862010 	str	r2, [r6, #16]
    8890:	1a000014 	bne	88e8 <__d2b+0xe4>
    8894:	e2400e43 	sub	r0, r0, #1072	; 0x430
    8898:	e0863102 	add	r3, r6, r2, lsl #2
    889c:	e2400002 	sub	r0, r0, #2
    88a0:	e5880000 	str	r0, [r8]
    88a4:	e5930010 	ldr	r0, [r3, #16]
    88a8:	ebfffddb 	bl	801c <__hi0bits>
    88ac:	e0600282 	rsb	r0, r0, r2, lsl #5
    88b0:	e5870000 	str	r0, [r7]
    88b4:	e1a00006 	mov	r0, r6
    88b8:	e28dd00c 	add	sp, sp, #12
    88bc:	e8bd43f0 	pop	{r4, r5, r6, r7, r8, r9, lr}
    88c0:	e12fff1e 	bx	lr
    88c4:	e28d0004 	add	r0, sp, #4
    88c8:	ebfffdea 	bl	8078 <__lo0bits>
    88cc:	e59d3004 	ldr	r3, [sp, #4]
    88d0:	e3a02001 	mov	r2, #1
    88d4:	e3590000 	cmp	r9, #0
    88d8:	e5863014 	str	r3, [r6, #20]
    88dc:	e5862010 	str	r2, [r6, #16]
    88e0:	e2800020 	add	r0, r0, #32
    88e4:	0affffea 	beq	8894 <__d2b+0x90>
    88e8:	e2499e43 	sub	r9, r9, #1072	; 0x430
    88ec:	e2499003 	sub	r9, r9, #3
    88f0:	e0899000 	add	r9, r9, r0
    88f4:	e2600035 	rsb	r0, r0, #53	; 0x35
    88f8:	e5889000 	str	r9, [r8]
    88fc:	e5870000 	str	r0, [r7]
    8900:	e1a00006 	mov	r0, r6
    8904:	e28dd00c 	add	sp, sp, #12
    8908:	e8bd43f0 	pop	{r4, r5, r6, r7, r8, r9, lr}
    890c:	e12fff1e 	bx	lr

00008910 <__ratio>:
    8910:	e92d40f0 	push	{r4, r5, r6, r7, lr}
    8914:	e24dd00c 	sub	sp, sp, #12
    8918:	e1a06001 	mov	r6, r1
    891c:	e1a0100d 	mov	r1, sp
    8920:	e1a07000 	mov	r7, r0
    8924:	ebffff81 	bl	8730 <__b2d>
    8928:	e1a05001 	mov	r5, r1
    892c:	e1a04000 	mov	r4, r0
    8930:	e28d1004 	add	r1, sp, #4
    8934:	e1a00006 	mov	r0, r6
    8938:	ebffff7c 	bl	8730 <__b2d>
    893c:	e597e010 	ldr	lr, [r7, #16]
    8940:	e1a03001 	mov	r3, r1
    8944:	e1a02000 	mov	r2, r0
    8948:	e596c010 	ldr	r12, [r6, #16]
    894c:	e89d0003 	ldm	sp, {r0, r1}
    8950:	e06cc00e 	rsb	r12, r12, lr
    8954:	e0611000 	rsb	r1, r1, r0
    8958:	e081c28c 	add	r12, r1, r12, lsl #5
    895c:	e35c0000 	cmp	r12, #0
    8960:	e1a01005 	mov	r1, r5
    8964:	c0851a0c 	addgt	r1, r5, r12, lsl #20
    8968:	e1a07003 	mov	r7, r3
    896c:	c1a04004 	movgt	r4, r4
    8970:	c1a05001 	movgt	r5, r1
    8974:	d0437a0c 	suble	r7, r3, r12, lsl #20
    8978:	d1a02002 	movle	r2, r2
    897c:	d1a03007 	movle	r3, r7
    8980:	e1a00004 	mov	r0, r4
    8984:	e1a01005 	mov	r1, r5
    8988:	eb002465 	bl	11b24 <__aeabi_ddiv>
    898c:	e28dd00c 	add	sp, sp, #12
    8990:	e8bd40f0 	pop	{r4, r5, r6, r7, lr}
    8994:	e12fff1e 	bx	lr

00008998 <_mprec_log10>:
    8998:	e3500017 	cmp	r0, #23
    899c:	e92d4010 	push	{r4, lr}
    89a0:	e1a04000 	mov	r4, r0
    89a4:	da000008 	ble	89cc <_mprec_log10+0x34>
    89a8:	e59f1034 	ldr	r1, [pc, #52]	; 89e4 <_mprec_log10+0x4c>
    89ac:	e3a00000 	mov	r0, #0
    89b0:	e3a02000 	mov	r2, #0
    89b4:	e59f302c 	ldr	r3, [pc, #44]	; 89e8 <_mprec_log10+0x50>
    89b8:	eb0023b5 	bl	11894 <__aeabi_dmul>
    89bc:	e2544001 	subs	r4, r4, #1
    89c0:	1afffffa 	bne	89b0 <_mprec_log10+0x18>
    89c4:	e8bd4010 	pop	{r4, lr}
    89c8:	e12fff1e 	bx	lr
    89cc:	e59f3018 	ldr	r3, [pc, #24]	; 89ec <_mprec_log10+0x54>
    89d0:	e0834180 	add	r4, r3, r0, lsl #3
    89d4:	e2841010 	add	r1, r4, #16
    89d8:	e8910003 	ldm	r1, {r0, r1}
    89dc:	e8bd4010 	pop	{r4, lr}
    89e0:	e12fff1e 	bx	lr
    89e4:	3ff00000 	.word	0x3ff00000
    89e8:	40240000 	.word	0x40240000
    89ec:	000134e0 	.word	0x000134e0

000089f0 <__copybits>:
    89f0:	e92d0030 	push	{r4, r5}
    89f4:	e5924010 	ldr	r4, [r2, #16]
    89f8:	e2823014 	add	r3, r2, #20
    89fc:	e2411001 	sub	r1, r1, #1
    8a00:	e1a052c1 	asr	r5, r1, #5
    8a04:	e0834104 	add	r4, r3, r4, lsl #2
    8a08:	e2855001 	add	r5, r5, #1
    8a0c:	e1530004 	cmp	r3, r4
    8a10:	e0805105 	add	r5, r0, r5, lsl #2
    8a14:	2a000009 	bcs	8a40 <__copybits+0x50>
    8a18:	e1a01000 	mov	r1, r0
    8a1c:	e493c004 	ldr	r12, [r3], #4
    8a20:	e1540003 	cmp	r4, r3
    8a24:	e481c004 	str	r12, [r1], #4
    8a28:	8afffffb 	bhi	8a1c <__copybits+0x2c>
    8a2c:	e0623004 	rsb	r3, r2, r4
    8a30:	e2433015 	sub	r3, r3, #21
    8a34:	e3c33003 	bic	r3, r3, #3
    8a38:	e2833004 	add	r3, r3, #4
    8a3c:	e0800003 	add	r0, r0, r3
    8a40:	e1550000 	cmp	r5, r0
    8a44:	9a000003 	bls	8a58 <__copybits+0x68>
    8a48:	e3a03000 	mov	r3, #0
    8a4c:	e4803004 	str	r3, [r0], #4
    8a50:	e1550000 	cmp	r5, r0
    8a54:	8afffffc 	bhi	8a4c <__copybits+0x5c>
    8a58:	e8bd0030 	pop	{r4, r5}
    8a5c:	e12fff1e 	bx	lr

00008a60 <__any_on>:
    8a60:	e5903010 	ldr	r3, [r0, #16]
    8a64:	e1a022c1 	asr	r2, r1, #5
    8a68:	e1530002 	cmp	r3, r2
    8a6c:	e2800014 	add	r0, r0, #20
    8a70:	b0803103 	addlt	r3, r0, r3, lsl #2
    8a74:	ba00000a 	blt	8aa4 <__any_on+0x44>
    8a78:	da000008 	ble	8aa0 <__any_on+0x40>
    8a7c:	e211101f 	ands	r1, r1, #31
    8a80:	0a000006 	beq	8aa0 <__any_on+0x40>
    8a84:	e7903102 	ldr	r3, [r0, r2, lsl #2]
    8a88:	e1a0c133 	lsr	r12, r3, r1
    8a8c:	e153011c 	cmp	r3, r12, lsl r1
    8a90:	e0803102 	add	r3, r0, r2, lsl #2
    8a94:	0a000002 	beq	8aa4 <__any_on+0x44>
    8a98:	e3a00001 	mov	r0, #1
    8a9c:	e12fff1e 	bx	lr
    8aa0:	e0803102 	add	r3, r0, r2, lsl #2
    8aa4:	e1500003 	cmp	r0, r3
    8aa8:	2a000009 	bcs	8ad4 <__any_on+0x74>
    8aac:	e5132004 	ldr	r2, [r3, #-4]
    8ab0:	e3520000 	cmp	r2, #0
    8ab4:	e2433004 	sub	r3, r3, #4
    8ab8:	0a000003 	beq	8acc <__any_on+0x6c>
    8abc:	eafffff5 	b	8a98 <__any_on+0x38>
    8ac0:	e5332004 	ldr	r2, [r3, #-4]!
    8ac4:	e3520000 	cmp	r2, #0
    8ac8:	1afffff2 	bne	8a98 <__any_on+0x38>
    8acc:	e1500003 	cmp	r0, r3
    8ad0:	3afffffa 	bcc	8ac0 <__any_on+0x60>
    8ad4:	e3a00000 	mov	r0, #0
    8ad8:	e12fff1e 	bx	lr

00008adc <_realloc_r>:
    8adc:	e92d4ff0 	push	{r4, r5, r6, r7, r8, r9, r10, r11, lr}
    8ae0:	e2514000 	subs	r4, r1, #0
    8ae4:	e24dd00c 	sub	sp, sp, #12
    8ae8:	e1a08002 	mov	r8, r2
    8aec:	e1a09000 	mov	r9, r0
    8af0:	0a0000d1 	beq	8e3c <_realloc_r+0x360>
    8af4:	ebfffcab 	bl	7da8 <__malloc_lock>
    8af8:	e288600b 	add	r6, r8, #11
    8afc:	e3560016 	cmp	r6, #22
    8b00:	83c66007 	bichi	r6, r6, #7
    8b04:	93a02010 	movls	r2, #16
    8b08:	81a00fa6 	lsrhi	r0, r6, #31
    8b0c:	91a06002 	movls	r6, r2
    8b10:	93a00000 	movls	r0, #0
    8b14:	e5143004 	ldr	r3, [r4, #-4]
    8b18:	81a02006 	movhi	r2, r6
    8b1c:	e1560008 	cmp	r6, r8
    8b20:	33800001 	orrcc	r0, r0, #1
    8b24:	e3500000 	cmp	r0, #0
    8b28:	e3c35003 	bic	r5, r3, #3
    8b2c:	13a0300c 	movne	r3, #12
    8b30:	e2447008 	sub	r7, r4, #8
    8b34:	15893000 	strne	r3, [r9]
    8b38:	13a00000 	movne	r0, #0
    8b3c:	1a000056 	bne	8c9c <_realloc_r+0x1c0>
    8b40:	e1550002 	cmp	r5, r2
    8b44:	aa000047 	bge	8c68 <_realloc_r+0x18c>
    8b48:	e59fa4f4 	ldr	r10, [pc, #1268]	; 9044 <_realloc_r+0x568>
    8b4c:	e59ac008 	ldr	r12, [r10, #8]
    8b50:	e0871005 	add	r1, r7, r5
    8b54:	e15c0001 	cmp	r12, r1
    8b58:	0a0000bc 	beq	8e50 <_realloc_r+0x374>
    8b5c:	e591e004 	ldr	lr, [r1, #4]
    8b60:	e3ceb001 	bic	r11, lr, #1
    8b64:	e081b00b 	add	r11, r1, r11
    8b68:	e59bb004 	ldr	r11, [r11, #4]
    8b6c:	e31b0001 	tst	r11, #1
    8b70:	11a01000 	movne	r1, r0
    8b74:	0a000058 	beq	8cdc <_realloc_r+0x200>
    8b78:	e3130001 	tst	r3, #1
    8b7c:	1a00008d 	bne	8db8 <_realloc_r+0x2dc>
    8b80:	e514b008 	ldr	r11, [r4, #-8]
    8b84:	e06bb007 	rsb	r11, r11, r7
    8b88:	e59b3004 	ldr	r3, [r11, #4]
    8b8c:	e3510000 	cmp	r1, #0
    8b90:	e3c33003 	bic	r3, r3, #3
    8b94:	e0833005 	add	r3, r3, r5
    8b98:	0a000059 	beq	8d04 <_realloc_r+0x228>
    8b9c:	e151000c 	cmp	r1, r12
    8ba0:	e080c003 	add	r12, r0, r3
    8ba4:	0a0000de 	beq	8f24 <_realloc_r+0x448>
    8ba8:	e15c0002 	cmp	r12, r2
    8bac:	ba000054 	blt	8d04 <_realloc_r+0x228>
    8bb0:	e2812008 	add	r2, r1, #8
    8bb4:	e892000c 	ldm	r2, {r2, r3}
    8bb8:	e582300c 	str	r3, [r2, #12]
    8bbc:	e5832008 	str	r2, [r3, #8]
    8bc0:	e1a0700b 	mov	r7, r11
    8bc4:	e59b300c 	ldr	r3, [r11, #12]
    8bc8:	e5b71008 	ldr	r1, [r7, #8]!
    8bcc:	e2452004 	sub	r2, r5, #4
    8bd0:	e3520024 	cmp	r2, #36	; 0x24
    8bd4:	e581300c 	str	r3, [r1, #12]
    8bd8:	e5831008 	str	r1, [r3, #8]
    8bdc:	8a00010a 	bhi	900c <_realloc_r+0x530>
    8be0:	e3520013 	cmp	r2, #19
    8be4:	91a03007 	movls	r3, r7
    8be8:	9a000014 	bls	8c40 <_realloc_r+0x164>
    8bec:	e5943000 	ldr	r3, [r4]
    8bf0:	e58b3008 	str	r3, [r11, #8]
    8bf4:	e5943004 	ldr	r3, [r4, #4]
    8bf8:	e352001b 	cmp	r2, #27
    8bfc:	e58b300c 	str	r3, [r11, #12]
    8c00:	92844008 	addls	r4, r4, #8
    8c04:	928b3010 	addls	r3, r11, #16
    8c08:	9a00000c 	bls	8c40 <_realloc_r+0x164>
    8c0c:	e5943008 	ldr	r3, [r4, #8]
    8c10:	e58b3010 	str	r3, [r11, #16]
    8c14:	e594300c 	ldr	r3, [r4, #12]
    8c18:	e58b3014 	str	r3, [r11, #20]
    8c1c:	e3520024 	cmp	r2, #36	; 0x24
    8c20:	05943010 	ldreq	r3, [r4, #16]
    8c24:	058b3018 	streq	r3, [r11, #24]
    8c28:	05942014 	ldreq	r2, [r4, #20]
    8c2c:	058b201c 	streq	r2, [r11, #28]
    8c30:	12844010 	addne	r4, r4, #16
    8c34:	128b3018 	addne	r3, r11, #24
    8c38:	028b3020 	addeq	r3, r11, #32
    8c3c:	02844018 	addeq	r4, r4, #24
    8c40:	e5942000 	ldr	r2, [r4]
    8c44:	e5832000 	str	r2, [r3]
    8c48:	e5942004 	ldr	r2, [r4, #4]
    8c4c:	e5832004 	str	r2, [r3, #4]
    8c50:	e5942008 	ldr	r2, [r4, #8]
    8c54:	e5832008 	str	r2, [r3, #8]
    8c58:	e59b3004 	ldr	r3, [r11, #4]
    8c5c:	e1a04007 	mov	r4, r7
    8c60:	e1a0500c 	mov	r5, r12
    8c64:	e1a0700b 	mov	r7, r11
    8c68:	e0662005 	rsb	r2, r6, r5
    8c6c:	e352000f 	cmp	r2, #15
    8c70:	e2033001 	and	r3, r3, #1
    8c74:	8a00000b 	bhi	8ca8 <_realloc_r+0x1cc>
    8c78:	e1833005 	orr	r3, r3, r5
    8c7c:	e5873004 	str	r3, [r7, #4]
    8c80:	e0875005 	add	r5, r7, r5
    8c84:	e5953004 	ldr	r3, [r5, #4]
    8c88:	e3833001 	orr	r3, r3, #1
    8c8c:	e5853004 	str	r3, [r5, #4]
    8c90:	e1a00009 	mov	r0, r9
    8c94:	ebfffc44 	bl	7dac <__malloc_unlock>
    8c98:	e1a00004 	mov	r0, r4
    8c9c:	e28dd00c 	add	sp, sp, #12
    8ca0:	e8bd4ff0 	pop	{r4, r5, r6, r7, r8, r9, r10, r11, lr}
    8ca4:	e12fff1e 	bx	lr
    8ca8:	e0871006 	add	r1, r7, r6
    8cac:	e1833006 	orr	r3, r3, r6
    8cb0:	e3820001 	orr	r0, r2, #1
    8cb4:	e5873004 	str	r3, [r7, #4]
    8cb8:	e5810004 	str	r0, [r1, #4]
    8cbc:	e0812002 	add	r2, r1, r2
    8cc0:	e5923004 	ldr	r3, [r2, #4]
    8cc4:	e3833001 	orr	r3, r3, #1
    8cc8:	e2811008 	add	r1, r1, #8
    8ccc:	e5823004 	str	r3, [r2, #4]
    8cd0:	e1a00009 	mov	r0, r9
    8cd4:	ebfff63a 	bl	65c4 <_free_r>
    8cd8:	eaffffec 	b	8c90 <_realloc_r+0x1b4>
    8cdc:	e3ce0003 	bic	r0, lr, #3
    8ce0:	e080e005 	add	lr, r0, r5
    8ce4:	e15e0002 	cmp	lr, r2
    8ce8:	baffffa2 	blt	8b78 <_realloc_r+0x9c>
    8cec:	e2811008 	add	r1, r1, #8
    8cf0:	e8910006 	ldm	r1, {r1, r2}
    8cf4:	e1a0500e 	mov	r5, lr
    8cf8:	e581200c 	str	r2, [r1, #12]
    8cfc:	e5821008 	str	r1, [r2, #8]
    8d00:	eaffffd8 	b	8c68 <_realloc_r+0x18c>
    8d04:	e1530002 	cmp	r3, r2
    8d08:	ba00002a 	blt	8db8 <_realloc_r+0x2dc>
    8d0c:	e1a0700b 	mov	r7, r11
    8d10:	e5b70008 	ldr	r0, [r7, #8]!
    8d14:	e59b100c 	ldr	r1, [r11, #12]
    8d18:	e2452004 	sub	r2, r5, #4
    8d1c:	e3520024 	cmp	r2, #36	; 0x24
    8d20:	e580100c 	str	r1, [r0, #12]
    8d24:	e5810008 	str	r0, [r1, #8]
    8d28:	8a000072 	bhi	8ef8 <_realloc_r+0x41c>
    8d2c:	e3520013 	cmp	r2, #19
    8d30:	91a02007 	movls	r2, r7
    8d34:	9a000014 	bls	8d8c <_realloc_r+0x2b0>
    8d38:	e5941000 	ldr	r1, [r4]
    8d3c:	e58b1008 	str	r1, [r11, #8]
    8d40:	e5941004 	ldr	r1, [r4, #4]
    8d44:	e352001b 	cmp	r2, #27
    8d48:	e58b100c 	str	r1, [r11, #12]
    8d4c:	92844008 	addls	r4, r4, #8
    8d50:	928b2010 	addls	r2, r11, #16
    8d54:	9a00000c 	bls	8d8c <_realloc_r+0x2b0>
    8d58:	e5941008 	ldr	r1, [r4, #8]
    8d5c:	e58b1010 	str	r1, [r11, #16]
    8d60:	e594100c 	ldr	r1, [r4, #12]
    8d64:	e58b1014 	str	r1, [r11, #20]
    8d68:	e3520024 	cmp	r2, #36	; 0x24
    8d6c:	05942010 	ldreq	r2, [r4, #16]
    8d70:	058b2018 	streq	r2, [r11, #24]
    8d74:	05941014 	ldreq	r1, [r4, #20]
    8d78:	058b101c 	streq	r1, [r11, #28]
    8d7c:	12844010 	addne	r4, r4, #16
    8d80:	128b2018 	addne	r2, r11, #24
    8d84:	028b2020 	addeq	r2, r11, #32
    8d88:	02844018 	addeq	r4, r4, #24
    8d8c:	e5941000 	ldr	r1, [r4]
    8d90:	e5821000 	str	r1, [r2]
    8d94:	e5941004 	ldr	r1, [r4, #4]
    8d98:	e5821004 	str	r1, [r2, #4]
    8d9c:	e5941008 	ldr	r1, [r4, #8]
    8da0:	e5821008 	str	r1, [r2, #8]
    8da4:	e1a04007 	mov	r4, r7
    8da8:	e1a05003 	mov	r5, r3
    8dac:	e1a0700b 	mov	r7, r11
    8db0:	e59b3004 	ldr	r3, [r11, #4]
    8db4:	eaffffab 	b	8c68 <_realloc_r+0x18c>
    8db8:	e1a01008 	mov	r1, r8
    8dbc:	e1a00009 	mov	r0, r9
    8dc0:	ebfff8ac 	bl	7078 <_malloc_r>
    8dc4:	e2508000 	subs	r8, r0, #0
    8dc8:	0a000015 	beq	8e24 <_realloc_r+0x348>
    8dcc:	e5143004 	ldr	r3, [r4, #-4]
    8dd0:	e3c32001 	bic	r2, r3, #1
    8dd4:	e0872002 	add	r2, r7, r2
    8dd8:	e2481008 	sub	r1, r8, #8
    8ddc:	e1510002 	cmp	r1, r2
    8de0:	0a000085 	beq	8ffc <_realloc_r+0x520>
    8de4:	e2452004 	sub	r2, r5, #4
    8de8:	e3520024 	cmp	r2, #36	; 0x24
    8dec:	8a000049 	bhi	8f18 <_realloc_r+0x43c>
    8df0:	e3520013 	cmp	r2, #19
    8df4:	91a03008 	movls	r3, r8
    8df8:	91a02004 	movls	r2, r4
    8dfc:	8a000027 	bhi	8ea0 <_realloc_r+0x3c4>
    8e00:	e5921000 	ldr	r1, [r2]
    8e04:	e5831000 	str	r1, [r3]
    8e08:	e5921004 	ldr	r1, [r2, #4]
    8e0c:	e5831004 	str	r1, [r3, #4]
    8e10:	e5922008 	ldr	r2, [r2, #8]
    8e14:	e5832008 	str	r2, [r3, #8]
    8e18:	e1a01004 	mov	r1, r4
    8e1c:	e1a00009 	mov	r0, r9
    8e20:	ebfff5e7 	bl	65c4 <_free_r>
    8e24:	e1a00009 	mov	r0, r9
    8e28:	ebfffbdf 	bl	7dac <__malloc_unlock>
    8e2c:	e1a00008 	mov	r0, r8
    8e30:	e28dd00c 	add	sp, sp, #12
    8e34:	e8bd4ff0 	pop	{r4, r5, r6, r7, r8, r9, r10, r11, lr}
    8e38:	e12fff1e 	bx	lr
    8e3c:	e1a01002 	mov	r1, r2
    8e40:	ebfff88c 	bl	7078 <_malloc_r>
    8e44:	e28dd00c 	add	sp, sp, #12
    8e48:	e8bd4ff0 	pop	{r4, r5, r6, r7, r8, r9, r10, r11, lr}
    8e4c:	e12fff1e 	bx	lr
    8e50:	e59c0004 	ldr	r0, [r12, #4]
    8e54:	e3c00003 	bic	r0, r0, #3
    8e58:	e0801005 	add	r1, r0, r5
    8e5c:	e286e010 	add	lr, r6, #16
    8e60:	e151000e 	cmp	r1, lr
    8e64:	b1a0100c 	movlt	r1, r12
    8e68:	baffff42 	blt	8b78 <_realloc_r+0x9c>
    8e6c:	e0663001 	rsb	r3, r6, r1
    8e70:	e0877006 	add	r7, r7, r6
    8e74:	e3833001 	orr	r3, r3, #1
    8e78:	e58a7008 	str	r7, [r10, #8]
    8e7c:	e5873004 	str	r3, [r7, #4]
    8e80:	e5143004 	ldr	r3, [r4, #-4]
    8e84:	e2033001 	and	r3, r3, #1
    8e88:	e1866003 	orr	r6, r6, r3
    8e8c:	e1a00009 	mov	r0, r9
    8e90:	e5046004 	str	r6, [r4, #-4]
    8e94:	ebfffbc4 	bl	7dac <__malloc_unlock>
    8e98:	e1a00004 	mov	r0, r4
    8e9c:	eaffff7e 	b	8c9c <_realloc_r+0x1c0>
    8ea0:	e5943000 	ldr	r3, [r4]
    8ea4:	e5883000 	str	r3, [r8]
    8ea8:	e5943004 	ldr	r3, [r4, #4]
    8eac:	e352001b 	cmp	r2, #27
    8eb0:	e5883004 	str	r3, [r8, #4]
    8eb4:	92842008 	addls	r2, r4, #8
    8eb8:	92883008 	addls	r3, r8, #8
    8ebc:	9affffcf 	bls	8e00 <_realloc_r+0x324>
    8ec0:	e5943008 	ldr	r3, [r4, #8]
    8ec4:	e5883008 	str	r3, [r8, #8]
    8ec8:	e594300c 	ldr	r3, [r4, #12]
    8ecc:	e588300c 	str	r3, [r8, #12]
    8ed0:	e3520024 	cmp	r2, #36	; 0x24
    8ed4:	05943010 	ldreq	r3, [r4, #16]
    8ed8:	05883010 	streq	r3, [r8, #16]
    8edc:	05942014 	ldreq	r2, [r4, #20]
    8ee0:	12883010 	addne	r3, r8, #16
    8ee4:	05882014 	streq	r2, [r8, #20]
    8ee8:	12842010 	addne	r2, r4, #16
    8eec:	02883018 	addeq	r3, r8, #24
    8ef0:	02842018 	addeq	r2, r4, #24
    8ef4:	eaffffc1 	b	8e00 <_realloc_r+0x324>
    8ef8:	e1a01004 	mov	r1, r4
    8efc:	e1a00007 	mov	r0, r7
    8f00:	e1a05003 	mov	r5, r3
    8f04:	e1a04007 	mov	r4, r7
    8f08:	ebfffb1c 	bl	7b80 <memmove>
    8f0c:	e1a0700b 	mov	r7, r11
    8f10:	e59b3004 	ldr	r3, [r11, #4]
    8f14:	eaffff53 	b	8c68 <_realloc_r+0x18c>
    8f18:	e1a01004 	mov	r1, r4
    8f1c:	ebfffb17 	bl	7b80 <memmove>
    8f20:	eaffffbc 	b	8e18 <_realloc_r+0x33c>
    8f24:	e2861010 	add	r1, r6, #16
    8f28:	e15c0001 	cmp	r12, r1
    8f2c:	baffff74 	blt	8d04 <_realloc_r+0x228>
    8f30:	e1a0700b 	mov	r7, r11
    8f34:	e5b71008 	ldr	r1, [r7, #8]!
    8f38:	e59b300c 	ldr	r3, [r11, #12]
    8f3c:	e2452004 	sub	r2, r5, #4
    8f40:	e3520024 	cmp	r2, #36	; 0x24
    8f44:	e581300c 	str	r3, [r1, #12]
    8f48:	e5831008 	str	r1, [r3, #8]
    8f4c:	8a000036 	bhi	902c <_realloc_r+0x550>
    8f50:	e3520013 	cmp	r2, #19
    8f54:	91a03007 	movls	r3, r7
    8f58:	9a000014 	bls	8fb0 <_realloc_r+0x4d4>
    8f5c:	e5943000 	ldr	r3, [r4]
    8f60:	e58b3008 	str	r3, [r11, #8]
    8f64:	e5943004 	ldr	r3, [r4, #4]
    8f68:	e352001b 	cmp	r2, #27
    8f6c:	e58b300c 	str	r3, [r11, #12]
    8f70:	92844008 	addls	r4, r4, #8
    8f74:	928b3010 	addls	r3, r11, #16
    8f78:	9a00000c 	bls	8fb0 <_realloc_r+0x4d4>
    8f7c:	e5943008 	ldr	r3, [r4, #8]
    8f80:	e58b3010 	str	r3, [r11, #16]
    8f84:	e594300c 	ldr	r3, [r4, #12]
    8f88:	e58b3014 	str	r3, [r11, #20]
    8f8c:	e3520024 	cmp	r2, #36	; 0x24
    8f90:	05943010 	ldreq	r3, [r4, #16]
    8f94:	058b3018 	streq	r3, [r11, #24]
    8f98:	05942014 	ldreq	r2, [r4, #20]
    8f9c:	058b201c 	streq	r2, [r11, #28]
    8fa0:	12844010 	addne	r4, r4, #16
    8fa4:	128b3018 	addne	r3, r11, #24
    8fa8:	028b3020 	addeq	r3, r11, #32
    8fac:	02844018 	addeq	r4, r4, #24
    8fb0:	e5942000 	ldr	r2, [r4]
    8fb4:	e5832000 	str	r2, [r3]
    8fb8:	e5942004 	ldr	r2, [r4, #4]
    8fbc:	e5832004 	str	r2, [r3, #4]
    8fc0:	e5942008 	ldr	r2, [r4, #8]
    8fc4:	e5832008 	str	r2, [r3, #8]
    8fc8:	e066200c 	rsb	r2, r6, r12
    8fcc:	e08b3006 	add	r3, r11, r6
    8fd0:	e3822001 	orr	r2, r2, #1
    8fd4:	e58a3008 	str	r3, [r10, #8]
    8fd8:	e5832004 	str	r2, [r3, #4]
    8fdc:	e59b3004 	ldr	r3, [r11, #4]
    8fe0:	e2033001 	and	r3, r3, #1
    8fe4:	e1866003 	orr	r6, r6, r3
    8fe8:	e1a00009 	mov	r0, r9
    8fec:	e58b6004 	str	r6, [r11, #4]
    8ff0:	ebfffb6d 	bl	7dac <__malloc_unlock>
    8ff4:	e1a00007 	mov	r0, r7
    8ff8:	eaffff27 	b	8c9c <_realloc_r+0x1c0>
    8ffc:	e5182004 	ldr	r2, [r8, #-4]
    9000:	e3c22003 	bic	r2, r2, #3
    9004:	e0855002 	add	r5, r5, r2
    9008:	eaffff16 	b	8c68 <_realloc_r+0x18c>
    900c:	e1a01004 	mov	r1, r4
    9010:	e1a00007 	mov	r0, r7
    9014:	e1a0500c 	mov	r5, r12
    9018:	e1a04007 	mov	r4, r7
    901c:	ebfffad7 	bl	7b80 <memmove>
    9020:	e1a0700b 	mov	r7, r11
    9024:	e59b3004 	ldr	r3, [r11, #4]
    9028:	eaffff0e 	b	8c68 <_realloc_r+0x18c>
    902c:	e1a01004 	mov	r1, r4
    9030:	e1a00007 	mov	r0, r7
    9034:	e58dc004 	str	r12, [sp, #4]
    9038:	ebfffad0 	bl	7b80 <memmove>
    903c:	e59dc004 	ldr	r12, [sp, #4]
    9040:	eaffffe0 	b	8fc8 <_realloc_r+0x4ec>
    9044:	00013cdc 	.word	0x00013cdc

00009048 <lflush>:
    9048:	e92d4008 	push	{r3, lr}
    904c:	e1d030bc 	ldrh	r3, [r0, #12]
    9050:	e2033009 	and	r3, r3, #9
    9054:	e3530009 	cmp	r3, #9
    9058:	13a00000 	movne	r0, #0
    905c:	0a000001 	beq	9068 <lflush+0x20>
    9060:	e8bd4008 	pop	{r3, lr}
    9064:	e12fff1e 	bx	lr
    9068:	ebfff38c 	bl	5ea0 <fflush>
    906c:	e8bd4008 	pop	{r3, lr}
    9070:	e12fff1e 	bx	lr

00009074 <__srefill_r>:
    9074:	e92d40f8 	push	{r3, r4, r5, r6, r7, lr}
    9078:	e2505000 	subs	r5, r0, #0
    907c:	e1a04001 	mov	r4, r1
    9080:	0a000002 	beq	9090 <__srefill_r+0x1c>
    9084:	e5953038 	ldr	r3, [r5, #56]	; 0x38
    9088:	e3530000 	cmp	r3, #0
    908c:	0a00003e 	beq	918c <__srefill_r+0x118>
    9090:	e1d420bc 	ldrh	r2, [r4, #12]
    9094:	e3120a02 	tst	r2, #8192	; 0x2000
    9098:	e1a03002 	mov	r3, r2
    909c:	1a000005 	bne	90b8 <__srefill_r+0x44>
    90a0:	e5943064 	ldr	r3, [r4, #100]	; 0x64
    90a4:	e3822a02 	orr	r2, r2, #8192	; 0x2000
    90a8:	e3c33a02 	bic	r3, r3, #8192	; 0x2000
    90ac:	e1c420bc 	strh	r2, [r4, #12]
    90b0:	e5843064 	str	r3, [r4, #100]	; 0x64
    90b4:	e1a03002 	mov	r3, r2
    90b8:	e3a01000 	mov	r1, #0
    90bc:	e3130020 	tst	r3, #32
    90c0:	e5841004 	str	r1, [r4, #4]
    90c4:	1a00002d 	bne	9180 <__srefill_r+0x10c>
    90c8:	e3130004 	tst	r3, #4
    90cc:	0a000020 	beq	9154 <__srefill_r+0xe0>
    90d0:	e5941030 	ldr	r1, [r4, #48]	; 0x30
    90d4:	e3510000 	cmp	r1, #0
    90d8:	0a000009 	beq	9104 <__srefill_r+0x90>
    90dc:	e2843040 	add	r3, r4, #64	; 0x40
    90e0:	e1510003 	cmp	r1, r3
    90e4:	11a00005 	movne	r0, r5
    90e8:	1bfff535 	blne	65c4 <_free_r>
    90ec:	e594303c 	ldr	r3, [r4, #60]	; 0x3c
    90f0:	e3a00000 	mov	r0, #0
    90f4:	e1530000 	cmp	r3, r0
    90f8:	e5843004 	str	r3, [r4, #4]
    90fc:	e5840030 	str	r0, [r4, #48]	; 0x30
    9100:	1a000039 	bne	91ec <__srefill_r+0x178>
    9104:	e5943010 	ldr	r3, [r4, #16]
    9108:	e3530000 	cmp	r3, #0
    910c:	0a000044 	beq	9224 <__srefill_r+0x1b0>
    9110:	e1d460bc 	ldrh	r6, [r4, #12]
    9114:	e3160003 	tst	r6, #3
    9118:	1a00001d 	bne	9194 <__srefill_r+0x120>
    911c:	e5942010 	ldr	r2, [r4, #16]
    9120:	e1a00005 	mov	r0, r5
    9124:	e5842000 	str	r2, [r4]
    9128:	e594101c 	ldr	r1, [r4, #28]
    912c:	e5943014 	ldr	r3, [r4, #20]
    9130:	e594c020 	ldr	r12, [r4, #32]
    9134:	e1a0e00f 	mov	lr, pc
    9138:	e12fff1c 	bx	r12
    913c:	e3500000 	cmp	r0, #0
    9140:	e5840004 	str	r0, [r4, #4]
    9144:	c3a00000 	movgt	r0, #0
    9148:	da000008 	ble	9170 <__srefill_r+0xfc>
    914c:	e8bd40f8 	pop	{r3, r4, r5, r6, r7, lr}
    9150:	e12fff1e 	bx	lr
    9154:	e3130010 	tst	r3, #16
    9158:	0a000035 	beq	9234 <__srefill_r+0x1c0>
    915c:	e3130008 	tst	r3, #8
    9160:	1a000025 	bne	91fc <__srefill_r+0x188>
    9164:	e3822004 	orr	r2, r2, #4
    9168:	e1c420bc 	strh	r2, [r4, #12]
    916c:	eaffffe4 	b	9104 <__srefill_r+0x90>
    9170:	1a000015 	bne	91cc <__srefill_r+0x158>
    9174:	e1d430bc 	ldrh	r3, [r4, #12]
    9178:	e3833020 	orr	r3, r3, #32
    917c:	e1c430bc 	strh	r3, [r4, #12]
    9180:	e3e00000 	mvn	r0, #0
    9184:	e8bd40f8 	pop	{r3, r4, r5, r6, r7, lr}
    9188:	e12fff1e 	bx	lr
    918c:	ebfff379 	bl	5f78 <__sinit>
    9190:	eaffffbe 	b	9090 <__srefill_r+0x1c>
    9194:	e59f20b0 	ldr	r2, [pc, #176]	; 924c <__srefill_r+0x1d8>
    9198:	e3a03001 	mov	r3, #1
    919c:	e5920000 	ldr	r0, [r2]
    91a0:	e1c430bc 	strh	r3, [r4, #12]
    91a4:	e59f10a4 	ldr	r1, [pc, #164]	; 9250 <__srefill_r+0x1dc>
    91a8:	e2067009 	and	r7, r6, #9
    91ac:	ebfff6d3 	bl	6d00 <_fwalk>
    91b0:	e3570009 	cmp	r7, #9
    91b4:	e1c460bc 	strh	r6, [r4, #12]
    91b8:	1affffd7 	bne	911c <__srefill_r+0xa8>
    91bc:	e1a00005 	mov	r0, r5
    91c0:	e1a01004 	mov	r1, r4
    91c4:	ebfff28f 	bl	5c08 <__sflush_r>
    91c8:	eaffffd3 	b	911c <__srefill_r+0xa8>
    91cc:	e1d420bc 	ldrh	r2, [r4, #12]
    91d0:	e3a03000 	mov	r3, #0
    91d4:	e3822040 	orr	r2, r2, #64	; 0x40
    91d8:	e1c420bc 	strh	r2, [r4, #12]
    91dc:	e5843004 	str	r3, [r4, #4]
    91e0:	e3e00000 	mvn	r0, #0
    91e4:	e8bd40f8 	pop	{r3, r4, r5, r6, r7, lr}
    91e8:	e12fff1e 	bx	lr
    91ec:	e5943038 	ldr	r3, [r4, #56]	; 0x38
    91f0:	e5843000 	str	r3, [r4]
    91f4:	e8bd40f8 	pop	{r3, r4, r5, r6, r7, lr}
    91f8:	e12fff1e 	bx	lr
    91fc:	e1a00005 	mov	r0, r5
    9200:	e1a01004 	mov	r1, r4
    9204:	ebfff310 	bl	5e4c <_fflush_r>
    9208:	e3500000 	cmp	r0, #0
    920c:	1affffdb 	bne	9180 <__srefill_r+0x10c>
    9210:	e1d420bc 	ldrh	r2, [r4, #12]
    9214:	e5840008 	str	r0, [r4, #8]
    9218:	e5840018 	str	r0, [r4, #24]
    921c:	e3c22008 	bic	r2, r2, #8
    9220:	eaffffcf 	b	9164 <__srefill_r+0xf0>
    9224:	e1a00005 	mov	r0, r5
    9228:	e1a01004 	mov	r1, r4
    922c:	ebfff734 	bl	6f04 <__smakebuf_r>
    9230:	eaffffb6 	b	9110 <__srefill_r+0x9c>
    9234:	e3822040 	orr	r2, r2, #64	; 0x40
    9238:	e3a03009 	mov	r3, #9
    923c:	e5853000 	str	r3, [r5]
    9240:	e3e00000 	mvn	r0, #0
    9244:	e1c420bc 	strh	r2, [r4, #12]
    9248:	eaffffbf 	b	914c <__srefill_r+0xd8>
    924c:	00013428 	.word	0x00013428
    9250:	00009048 	.word	0x00009048

00009254 <__fpclassifyd>:
    9254:	e1903001 	orrs	r3, r0, r1
    9258:	1a000001 	bne	9264 <__fpclassifyd+0x10>
    925c:	e3a00002 	mov	r0, #2
    9260:	e12fff1e 	bx	lr
    9264:	e2703001 	rsbs	r3, r0, #1
    9268:	33a03000 	movcc	r3, #0
    926c:	e3510102 	cmp	r1, #-2147483648	; 0x80000000
    9270:	03500000 	cmpeq	r0, #0
    9274:	0afffff8 	beq	925c <__fpclassifyd+0x8>
    9278:	e3c12102 	bic	r2, r1, #-2147483648	; 0x80000000
    927c:	e59f1034 	ldr	r1, [pc, #52]	; 92b8 <__fpclassifyd+0x64>
    9280:	e2420601 	sub	r0, r2, #1048576	; 0x100000
    9284:	e1500001 	cmp	r0, r1
    9288:	8a000001 	bhi	9294 <__fpclassifyd+0x40>
    928c:	e3a00004 	mov	r0, #4
    9290:	e12fff1e 	bx	lr
    9294:	e3520601 	cmp	r2, #1048576	; 0x100000
    9298:	2a000001 	bcs	92a4 <__fpclassifyd+0x50>
    929c:	e3a00003 	mov	r0, #3
    92a0:	e12fff1e 	bx	lr
    92a4:	e59f0010 	ldr	r0, [pc, #16]	; 92bc <__fpclassifyd+0x68>
    92a8:	e1520000 	cmp	r2, r0
    92ac:	13a00000 	movne	r0, #0
    92b0:	02030001 	andeq	r0, r3, #1
    92b4:	e12fff1e 	bx	lr
    92b8:	7fdfffff 	.word	0x7fdfffff
    92bc:	7ff00000 	.word	0x7ff00000

000092c0 <_sbrk_r>:
    92c0:	e92d4038 	push	{r3, r4, r5, lr}
    92c4:	e59f4034 	ldr	r4, [pc, #52]	; 9300 <_sbrk_r+0x40>
    92c8:	e3a03000 	mov	r3, #0
    92cc:	e1a05000 	mov	r5, r0
    92d0:	e1a00001 	mov	r0, r1
    92d4:	e5843000 	str	r3, [r4]
    92d8:	eb0026c7 	bl	12dfc <_sbrk>
    92dc:	e3700001 	cmn	r0, #1
    92e0:	0a000001 	beq	92ec <_sbrk_r+0x2c>
    92e4:	e8bd4038 	pop	{r3, r4, r5, lr}
    92e8:	e12fff1e 	bx	lr
    92ec:	e5943000 	ldr	r3, [r4]
    92f0:	e3530000 	cmp	r3, #0
    92f4:	15853000 	strne	r3, [r5]
    92f8:	e8bd4038 	pop	{r3, r4, r5, lr}
    92fc:	e12fff1e 	bx	lr
    9300:	0001415c 	.word	0x0001415c

00009304 <__sccl>:
    9304:	e92d0070 	push	{r4, r5, r6}
    9308:	e5d1c000 	ldrb	r12, [r1]
    930c:	e35c005e 	cmp	r12, #94	; 0x5e
    9310:	13a02000 	movne	r2, #0
    9314:	03a02001 	moveq	r2, #1
    9318:	05d1c001 	ldrbeq	r12, [r1, #1]
    931c:	12814001 	addne	r4, r1, #1
    9320:	11a05002 	movne	r5, r2
    9324:	01a05002 	moveq	r5, r2
    9328:	02814002 	addeq	r4, r1, #2
    932c:	e3a03000 	mov	r3, #0
    9330:	e7c02003 	strb	r2, [r0, r3]
    9334:	e2833001 	add	r3, r3, #1
    9338:	e3530c01 	cmp	r3, #256	; 0x100
    933c:	1afffffb 	bne	9330 <__sccl+0x2c>
    9340:	e35c0000 	cmp	r12, #0
    9344:	02440001 	subeq	r0, r4, #1
    9348:	12252001 	eorne	r2, r5, #1
    934c:	0a00000c 	beq	9384 <__sccl+0x80>
    9350:	e7c0200c 	strb	r2, [r0, r12]
    9354:	e2845001 	add	r5, r4, #1
    9358:	e5553001 	ldrb	r3, [r5, #-1]
    935c:	e353002d 	cmp	r3, #45	; 0x2d
    9360:	0a00000c 	beq	9398 <__sccl+0x94>
    9364:	e353005d 	cmp	r3, #93	; 0x5d
    9368:	0a000004 	beq	9380 <__sccl+0x7c>
    936c:	e3530000 	cmp	r3, #0
    9370:	0a000005 	beq	938c <__sccl+0x88>
    9374:	e1a0c003 	mov	r12, r3
    9378:	e1a04005 	mov	r4, r5
    937c:	eafffff3 	b	9350 <__sccl+0x4c>
    9380:	e1a00005 	mov	r0, r5
    9384:	e8bd0070 	pop	{r4, r5, r6}
    9388:	e12fff1e 	bx	lr
    938c:	e1a00004 	mov	r0, r4
    9390:	e8bd0070 	pop	{r4, r5, r6}
    9394:	e12fff1e 	bx	lr
    9398:	e5d41001 	ldrb	r1, [r4, #1]
    939c:	e351005d 	cmp	r1, #93	; 0x5d
    93a0:	13a06000 	movne	r6, #0
    93a4:	03a06001 	moveq	r6, #1
    93a8:	e151000c 	cmp	r1, r12
    93ac:	b3866001 	orrlt	r6, r6, #1
    93b0:	e3560000 	cmp	r6, #0
    93b4:	1affffee 	bne	9374 <__sccl+0x70>
    93b8:	e2844002 	add	r4, r4, #2
    93bc:	e080300c 	add	r3, r0, r12
    93c0:	e28cc001 	add	r12, r12, #1
    93c4:	e151000c 	cmp	r1, r12
    93c8:	e5e32001 	strb	r2, [r3, #1]!
    93cc:	cafffffb 	bgt	93c0 <__sccl+0xbc>
    93d0:	e2855002 	add	r5, r5, #2
    93d4:	eaffffdf 	b	9358 <__sccl+0x54>

000093d8 <nanf>:
    93d8:	e59f0000 	ldr	r0, [pc]	; 93e0 <nanf+0x8>
    93dc:	e12fff1e 	bx	lr
    93e0:	7fc00000 	.word	0x7fc00000

000093e4 <_sprintf_r>:
    93e4:	e92d000c 	push	{r2, r3}
    93e8:	e92d4070 	push	{r4, r5, r6, lr}
    93ec:	e24dd070 	sub	sp, sp, #112	; 0x70
    93f0:	e28de084 	add	lr, sp, #132	; 0x84
    93f4:	e1a04001 	mov	r4, r1
    93f8:	e3e0c102 	mvn	r12, #-2147483648	; 0x80000000
    93fc:	e1a0300e 	mov	r3, lr
    9400:	e59d2080 	ldr	r2, [sp, #128]	; 0x80
    9404:	e3a06f82 	mov	r6, #520	; 0x208
    9408:	e3e05000 	mvn	r5, #0
    940c:	e28d1008 	add	r1, sp, #8
    9410:	e58d4008 	str	r4, [sp, #8]
    9414:	e58d4018 	str	r4, [sp, #24]
    9418:	e58de004 	str	lr, [sp, #4]
    941c:	e1cd61b4 	strh	r6, [sp, #20]
    9420:	e58dc010 	str	r12, [sp, #16]
    9424:	e58dc01c 	str	r12, [sp, #28]
    9428:	e1cd51b6 	strh	r5, [sp, #22]
    942c:	eb000865 	bl	b5c8 <_svfprintf_r>
    9430:	e59d3008 	ldr	r3, [sp, #8]
    9434:	e3a02000 	mov	r2, #0
    9438:	e5c32000 	strb	r2, [r3]
    943c:	e28dd070 	add	sp, sp, #112	; 0x70
    9440:	e8bd4070 	pop	{r4, r5, r6, lr}
    9444:	e28dd008 	add	sp, sp, #8
    9448:	e12fff1e 	bx	lr

0000944c <sprintf>:
    944c:	e92d000e 	push	{r1, r2, r3}
    9450:	e92d4070 	push	{r4, r5, r6, lr}
    9454:	e59f2060 	ldr	r2, [pc, #96]	; 94bc <sprintf+0x70>
    9458:	e24dd074 	sub	sp, sp, #116	; 0x74
    945c:	e28de088 	add	lr, sp, #136	; 0x88
    9460:	e1a04000 	mov	r4, r0
    9464:	e3e0c102 	mvn	r12, #-2147483648	; 0x80000000
    9468:	e1a0300e 	mov	r3, lr
    946c:	e5920000 	ldr	r0, [r2]
    9470:	e3a06f82 	mov	r6, #520	; 0x208
    9474:	e59d2084 	ldr	r2, [sp, #132]	; 0x84
    9478:	e3e05000 	mvn	r5, #0
    947c:	e28d1008 	add	r1, sp, #8
    9480:	e58d4008 	str	r4, [sp, #8]
    9484:	e58d4018 	str	r4, [sp, #24]
    9488:	e58de004 	str	lr, [sp, #4]
    948c:	e1cd61b4 	strh	r6, [sp, #20]
    9490:	e58dc010 	str	r12, [sp, #16]
    9494:	e58dc01c 	str	r12, [sp, #28]
    9498:	e1cd51b6 	strh	r5, [sp, #22]
    949c:	eb000849 	bl	b5c8 <_svfprintf_r>
    94a0:	e59d3008 	ldr	r3, [sp, #8]
    94a4:	e3a02000 	mov	r2, #0
    94a8:	e5c32000 	strb	r2, [r3]
    94ac:	e28dd074 	add	sp, sp, #116	; 0x74
    94b0:	e8bd4070 	pop	{r4, r5, r6, lr}
    94b4:	e28dd00c 	add	sp, sp, #12
    94b8:	e12fff1e 	bx	lr
    94bc:	00013830 	.word	0x00013830

000094c0 <__sread>:
    94c0:	e92d4010 	push	{r4, lr}
    94c4:	e1a04001 	mov	r4, r1
    94c8:	e1d110fe 	ldrsh	r1, [r1, #14]
    94cc:	eb001992 	bl	fb1c <_read_r>
    94d0:	e3500000 	cmp	r0, #0
    94d4:	a5943050 	ldrge	r3, [r4, #80]	; 0x50
    94d8:	b1d430bc 	ldrhlt	r3, [r4, #12]
    94dc:	a0833000 	addge	r3, r3, r0
    94e0:	b3c33a01 	biclt	r3, r3, #4096	; 0x1000
    94e4:	a5843050 	strge	r3, [r4, #80]	; 0x50
    94e8:	b1c430bc 	strhlt	r3, [r4, #12]
    94ec:	e8bd4010 	pop	{r4, lr}
    94f0:	e12fff1e 	bx	lr

000094f4 <__seofread>:
    94f4:	e3a00000 	mov	r0, #0
    94f8:	e12fff1e 	bx	lr

000094fc <__swrite>:
    94fc:	e92d40f8 	push	{r3, r4, r5, r6, r7, lr}
    9500:	e1a04001 	mov	r4, r1
    9504:	e1d110bc 	ldrh	r1, [r1, #12]
    9508:	e3110c01 	tst	r1, #256	; 0x100
    950c:	e1a06002 	mov	r6, r2
    9510:	e1a05003 	mov	r5, r3
    9514:	e1a07000 	mov	r7, r0
    9518:	0a000004 	beq	9530 <__swrite+0x34>
    951c:	e1d410fe 	ldrsh	r1, [r4, #14]
    9520:	e3a02000 	mov	r2, #0
    9524:	e3a03002 	mov	r3, #2
    9528:	eb00196a 	bl	fad8 <_lseek_r>
    952c:	e1d410bc 	ldrh	r1, [r4, #12]
    9530:	e3c11a01 	bic	r1, r1, #4096	; 0x1000
    9534:	e1c410bc 	strh	r1, [r4, #12]
    9538:	e1a00007 	mov	r0, r7
    953c:	e1d410fe 	ldrsh	r1, [r4, #14]
    9540:	e1a02006 	mov	r2, r6
    9544:	e1a03005 	mov	r3, r5
    9548:	eb001576 	bl	eb28 <_write_r>
    954c:	e8bd40f8 	pop	{r3, r4, r5, r6, r7, lr}
    9550:	e12fff1e 	bx	lr

00009554 <__sseek>:
    9554:	e92d4010 	push	{r4, lr}
    9558:	e1a04001 	mov	r4, r1
    955c:	e1d110fe 	ldrsh	r1, [r1, #14]
    9560:	eb00195c 	bl	fad8 <_lseek_r>
    9564:	e1d430bc 	ldrh	r3, [r4, #12]
    9568:	e3700001 	cmn	r0, #1
    956c:	03c33a01 	biceq	r3, r3, #4096	; 0x1000
    9570:	13833a01 	orrne	r3, r3, #4096	; 0x1000
    9574:	15840050 	strne	r0, [r4, #80]	; 0x50
    9578:	e1c430bc 	strh	r3, [r4, #12]
    957c:	e8bd4010 	pop	{r4, lr}
    9580:	e12fff1e 	bx	lr

00009584 <__sclose>:
    9584:	e92d4008 	push	{r3, lr}
    9588:	e1d110fe 	ldrsh	r1, [r1, #14]
    958c:	eb00159d 	bl	ec08 <_close_r>
    9590:	e8bd4008 	pop	{r3, lr}
    9594:	e12fff1e 	bx	lr

00009598 <strcmp>:
    9598:	e0202001 	eor	r2, r0, r1
    959c:	e3120003 	tst	r2, #3
    95a0:	1a000021 	bne	962c <strcmp+0x94>
    95a4:	e2102003 	ands	r2, r0, #3
    95a8:	e3c00003 	bic	r0, r0, #3
    95ac:	e3c11003 	bic	r1, r1, #3
    95b0:	e490c004 	ldr	r12, [r0], #4
    95b4:	04913004 	ldreq	r3, [r1], #4
    95b8:	0a000006 	beq	95d8 <strcmp+0x40>
    95bc:	e2222003 	eor	r2, r2, #3
    95c0:	e1a02182 	lsl	r2, r2, #3
    95c4:	e3e034ff 	mvn	r3, #-16777216	; 0xff000000
    95c8:	e1a02233 	lsr	r2, r3, r2
    95cc:	e4913004 	ldr	r3, [r1], #4
    95d0:	e18cc002 	orr	r12, r12, r2
    95d4:	e1833002 	orr	r3, r3, r2
    95d8:	e52d4004 	push	{r4}		; (str r4, [sp, #-4]!)
    95dc:	e3a04001 	mov	r4, #1
    95e0:	e1844404 	orr	r4, r4, r4, lsl #8
    95e4:	e1844804 	orr	r4, r4, r4, lsl #16
    95e8:	e04c2004 	sub	r2, r12, r4
    95ec:	e15c0003 	cmp	r12, r3
    95f0:	01c2200c 	biceq	r2, r2, r12
    95f4:	01120384 	tsteq	r2, r4, lsl #7
    95f8:	0490c004 	ldreq	r12, [r0], #4
    95fc:	04913004 	ldreq	r3, [r1], #4
    9600:	0afffff8 	beq	95e8 <strcmp+0x50>
    9604:	e1a00c0c 	lsl	r0, r12, #24
    9608:	e1a0c42c 	lsr	r12, r12, #8
    960c:	e3500001 	cmp	r0, #1
    9610:	21500c03 	cmpcs	r0, r3, lsl #24
    9614:	01a03423 	lsreq	r3, r3, #8
    9618:	0afffff9 	beq	9604 <strcmp+0x6c>
    961c:	e20330ff 	and	r3, r3, #255	; 0xff
    9620:	e0630c20 	rsb	r0, r3, r0, lsr #24
    9624:	e49d4004 	pop	{r4}		; (ldr r4, [sp], #4)
    9628:	e12fff1e 	bx	lr
    962c:	e3100003 	tst	r0, #3
    9630:	0a000006 	beq	9650 <strcmp+0xb8>
    9634:	e4d02001 	ldrb	r2, [r0], #1
    9638:	e4d13001 	ldrb	r3, [r1], #1
    963c:	e3520001 	cmp	r2, #1
    9640:	21520003 	cmpcs	r2, r3
    9644:	0afffff8 	beq	962c <strcmp+0x94>
    9648:	e0420003 	sub	r0, r2, r3
    964c:	e12fff1e 	bx	lr
    9650:	e52d5004 	push	{r5}		; (str r5, [sp, #-4]!)
    9654:	e52d4004 	push	{r4}		; (str r4, [sp, #-4]!)
    9658:	e3a02001 	mov	r2, #1
    965c:	e1822402 	orr	r2, r2, r2, lsl #8
    9660:	e1822802 	orr	r2, r2, r2, lsl #16
    9664:	e201c003 	and	r12, r1, #3
    9668:	e3c11003 	bic	r1, r1, #3
    966c:	e4904004 	ldr	r4, [r0], #4
    9670:	e4915004 	ldr	r5, [r1], #4
    9674:	e35c0002 	cmp	r12, #2
    9678:	0a000017 	beq	96dc <strcmp+0x144>
    967c:	8a00002d 	bhi	9738 <strcmp+0x1a0>
    9680:	e3c4c4ff 	bic	r12, r4, #-16777216	; 0xff000000
    9684:	e15c0425 	cmp	r12, r5, lsr #8
    9688:	e0443002 	sub	r3, r4, r2
    968c:	e1c33004 	bic	r3, r3, r4
    9690:	1a000007 	bne	96b4 <strcmp+0x11c>
    9694:	e0133382 	ands	r3, r3, r2, lsl #7
    9698:	04915004 	ldreq	r5, [r1], #4
    969c:	1a000006 	bne	96bc <strcmp+0x124>
    96a0:	e02cc004 	eor	r12, r12, r4
    96a4:	e15c0c05 	cmp	r12, r5, lsl #24
    96a8:	1a000008 	bne	96d0 <strcmp+0x138>
    96ac:	e4904004 	ldr	r4, [r0], #4
    96b0:	eafffff2 	b	9680 <strcmp+0xe8>
    96b4:	e1a05425 	lsr	r5, r5, #8
    96b8:	ea000037 	b	979c <strcmp+0x204>
    96bc:	e3d334ff 	bics	r3, r3, #-16777216	; 0xff000000
    96c0:	1a000031 	bne	978c <strcmp+0x1f4>
    96c4:	e5d15000 	ldrb	r5, [r1]
    96c8:	e1a0cc24 	lsr	r12, r4, #24
    96cc:	ea000032 	b	979c <strcmp+0x204>
    96d0:	e1a0cc24 	lsr	r12, r4, #24
    96d4:	e20550ff 	and	r5, r5, #255	; 0xff
    96d8:	ea00002f 	b	979c <strcmp+0x204>
    96dc:	e1a0c804 	lsl	r12, r4, #16
    96e0:	e0443002 	sub	r3, r4, r2
    96e4:	e1a0c82c 	lsr	r12, r12, #16
    96e8:	e1c33004 	bic	r3, r3, r4
    96ec:	e15c0825 	cmp	r12, r5, lsr #16
    96f0:	1a00000e 	bne	9730 <strcmp+0x198>
    96f4:	e0133382 	ands	r3, r3, r2, lsl #7
    96f8:	04915004 	ldreq	r5, [r1], #4
    96fc:	1a000004 	bne	9714 <strcmp+0x17c>
    9700:	e02cc004 	eor	r12, r12, r4
    9704:	e15c0805 	cmp	r12, r5, lsl #16
    9708:	1a000006 	bne	9728 <strcmp+0x190>
    970c:	e4904004 	ldr	r4, [r0], #4
    9710:	eafffff1 	b	96dc <strcmp+0x144>
    9714:	e1b03803 	lsls	r3, r3, #16
    9718:	1a00001b 	bne	978c <strcmp+0x1f4>
    971c:	e1d150b0 	ldrh	r5, [r1]
    9720:	e1a0c824 	lsr	r12, r4, #16
    9724:	ea00001c 	b	979c <strcmp+0x204>
    9728:	e1a05805 	lsl	r5, r5, #16
    972c:	e1a0c824 	lsr	r12, r4, #16
    9730:	e1a05825 	lsr	r5, r5, #16
    9734:	ea000018 	b	979c <strcmp+0x204>
    9738:	e204c0ff 	and	r12, r4, #255	; 0xff
    973c:	e15c0c25 	cmp	r12, r5, lsr #24
    9740:	e0443002 	sub	r3, r4, r2
    9744:	e1c33004 	bic	r3, r3, r4
    9748:	1a000007 	bne	976c <strcmp+0x1d4>
    974c:	e0133382 	ands	r3, r3, r2, lsl #7
    9750:	04915004 	ldreq	r5, [r1], #4
    9754:	1a000006 	bne	9774 <strcmp+0x1dc>
    9758:	e02cc004 	eor	r12, r12, r4
    975c:	e15c0405 	cmp	r12, r5, lsl #8
    9760:	1a000006 	bne	9780 <strcmp+0x1e8>
    9764:	e4904004 	ldr	r4, [r0], #4
    9768:	eafffff2 	b	9738 <strcmp+0x1a0>
    976c:	e1a05c25 	lsr	r5, r5, #24
    9770:	ea000009 	b	979c <strcmp+0x204>
    9774:	e31400ff 	tst	r4, #255	; 0xff
    9778:	0a000003 	beq	978c <strcmp+0x1f4>
    977c:	e4915004 	ldr	r5, [r1], #4
    9780:	e1a0c424 	lsr	r12, r4, #8
    9784:	e3c554ff 	bic	r5, r5, #-16777216	; 0xff000000
    9788:	ea000003 	b	979c <strcmp+0x204>
    978c:	e3a00000 	mov	r0, #0
    9790:	e49d4004 	pop	{r4}		; (ldr r4, [sp], #4)
    9794:	e49d5004 	pop	{r5}		; (ldr r5, [sp], #4)
    9798:	e12fff1e 	bx	lr
    979c:	e20c20ff 	and	r2, r12, #255	; 0xff
    97a0:	e20500ff 	and	r0, r5, #255	; 0xff
    97a4:	e3500001 	cmp	r0, #1
    97a8:	21500002 	cmpcs	r0, r2
    97ac:	01a0c42c 	lsreq	r12, r12, #8
    97b0:	01a05425 	lsreq	r5, r5, #8
    97b4:	0afffff8 	beq	979c <strcmp+0x204>
    97b8:	e0420000 	sub	r0, r2, r0
    97bc:	e49d4004 	pop	{r4}		; (ldr r4, [sp], #4)
    97c0:	e49d5004 	pop	{r5}		; (ldr r5, [sp], #4)
    97c4:	e12fff1e 	bx	lr

000097c8 <_strtod_r>:
    97c8:	e92d4ff0 	push	{r4, r5, r6, r7, r8, r9, r10, r11, lr}
    97cc:	e3a03000 	mov	r3, #0
    97d0:	e24dd064 	sub	sp, sp, #100	; 0x64
    97d4:	e1a04001 	mov	r4, r1
    97d8:	e58d104c 	str	r1, [sp, #76]	; 0x4c
    97dc:	e58d3050 	str	r3, [sp, #80]	; 0x50
    97e0:	e1a06000 	mov	r6, r0
    97e4:	e1a03001 	mov	r3, r1
    97e8:	e3a00000 	mov	r0, #0
    97ec:	e3a01000 	mov	r1, #0
    97f0:	e58d0008 	str	r0, [sp, #8]
    97f4:	e58d100c 	str	r1, [sp, #12]
    97f8:	e58d2010 	str	r2, [sp, #16]
    97fc:	e1a05003 	mov	r5, r3
    9800:	e4d3b001 	ldrb	r11, [r3], #1
    9804:	e35b002d 	cmp	r11, #45	; 0x2d
    9808:	979ff10b 	ldrls	pc, [pc, r11, lsl #2]
    980c:	ea0000f2 	b	9bdc <_strtod_r+0x414>
    9810:	00009ab8 	.word	0x00009ab8
    9814:	00009bdc 	.word	0x00009bdc
    9818:	00009bdc 	.word	0x00009bdc
    981c:	00009bdc 	.word	0x00009bdc
    9820:	00009bdc 	.word	0x00009bdc
    9824:	00009bdc 	.word	0x00009bdc
    9828:	00009bdc 	.word	0x00009bdc
    982c:	00009bdc 	.word	0x00009bdc
    9830:	00009bdc 	.word	0x00009bdc
    9834:	00009b00 	.word	0x00009b00
    9838:	00009b00 	.word	0x00009b00
    983c:	00009b00 	.word	0x00009b00
    9840:	00009b00 	.word	0x00009b00
    9844:	00009b00 	.word	0x00009b00
    9848:	00009bdc 	.word	0x00009bdc
    984c:	00009bdc 	.word	0x00009bdc
    9850:	00009bdc 	.word	0x00009bdc
    9854:	00009bdc 	.word	0x00009bdc
    9858:	00009bdc 	.word	0x00009bdc
    985c:	00009bdc 	.word	0x00009bdc
    9860:	00009bdc 	.word	0x00009bdc
    9864:	00009bdc 	.word	0x00009bdc
    9868:	00009bdc 	.word	0x00009bdc
    986c:	00009bdc 	.word	0x00009bdc
    9870:	00009bdc 	.word	0x00009bdc
    9874:	00009bdc 	.word	0x00009bdc
    9878:	00009bdc 	.word	0x00009bdc
    987c:	00009bdc 	.word	0x00009bdc
    9880:	00009bdc 	.word	0x00009bdc
    9884:	00009bdc 	.word	0x00009bdc
    9888:	00009bdc 	.word	0x00009bdc
    988c:	00009bdc 	.word	0x00009bdc
    9890:	00009b00 	.word	0x00009b00
    9894:	00009bdc 	.word	0x00009bdc
    9898:	00009bdc 	.word	0x00009bdc
    989c:	00009bdc 	.word	0x00009bdc
    98a0:	00009bdc 	.word	0x00009bdc
    98a4:	00009bdc 	.word	0x00009bdc
    98a8:	00009bdc 	.word	0x00009bdc
    98ac:	00009bdc 	.word	0x00009bdc
    98b0:	00009bdc 	.word	0x00009bdc
    98b4:	00009bdc 	.word	0x00009bdc
    98b8:	00009bdc 	.word	0x00009bdc
    98bc:	000098c8 	.word	0x000098c8
    98c0:	00009bdc 	.word	0x00009bdc
    98c4:	00009b08 	.word	0x00009b08
    98c8:	e3a02000 	mov	r2, #0
    98cc:	e58d2014 	str	r2, [sp, #20]
    98d0:	e2853001 	add	r3, r5, #1
    98d4:	e58d304c 	str	r3, [sp, #76]	; 0x4c
    98d8:	e5d5b001 	ldrb	r11, [r5, #1]
    98dc:	e35b0000 	cmp	r11, #0
    98e0:	0a000075 	beq	9abc <_strtod_r+0x2f4>
    98e4:	e1a05003 	mov	r5, r3
    98e8:	e35b0030 	cmp	r11, #48	; 0x30
    98ec:	13a03000 	movne	r3, #0
    98f0:	158d5018 	strne	r5, [sp, #24]
    98f4:	158d301c 	strne	r3, [sp, #28]
    98f8:	0a000105 	beq	9d14 <_strtod_r+0x54c>
    98fc:	e24b3030 	sub	r3, r11, #48	; 0x30
    9900:	e20330ff 	and	r3, r3, #255	; 0xff
    9904:	e3a0a000 	mov	r10, #0
    9908:	e3530009 	cmp	r3, #9
    990c:	e1a0800a 	mov	r8, r10
    9910:	e1a0700a 	mov	r7, r10
    9914:	859d5018 	ldrhi	r5, [sp, #24]
    9918:	8a000010 	bhi	9960 <_strtod_r+0x198>
    991c:	e59d0018 	ldr	r0, [sp, #24]
    9920:	e2803001 	add	r3, r0, #1
    9924:	e3570008 	cmp	r7, #8
    9928:	e58d304c 	str	r3, [sp, #76]	; 0x4c
    992c:	d0888108 	addle	r8, r8, r8, lsl #2
    9930:	c08aa10a 	addgt	r10, r10, r10, lsl #2
    9934:	d08b8088 	addle	r8, r11, r8, lsl #1
    9938:	c08ba08a 	addgt	r10, r11, r10, lsl #1
    993c:	e1a05003 	mov	r5, r3
    9940:	e4d3b001 	ldrb	r11, [r3], #1
    9944:	e24b2030 	sub	r2, r11, #48	; 0x30
    9948:	e20220ff 	and	r2, r2, #255	; 0xff
    994c:	d2488030 	suble	r8, r8, #48	; 0x30
    9950:	c24aa030 	subgt	r10, r10, #48	; 0x30
    9954:	e3520009 	cmp	r2, #9
    9958:	e2877001 	add	r7, r7, #1
    995c:	9afffff0 	bls	9924 <_strtod_r+0x15c>
    9960:	e1a00006 	mov	r0, r6
    9964:	ebfff55a 	bl	6ed4 <_localeconv_r>
    9968:	e5909000 	ldr	r9, [r0]
    996c:	e1a00006 	mov	r0, r6
    9970:	ebfff557 	bl	6ed4 <_localeconv_r>
    9974:	e5900000 	ldr	r0, [r0]
    9978:	ebffdaf5 	bl	554 <strlen>
    997c:	e1a01009 	mov	r1, r9
    9980:	e1a02000 	mov	r2, r0
    9984:	e1a00005 	mov	r0, r5
    9988:	eb0018c1 	bl	fc94 <strncmp>
    998c:	e2505000 	subs	r5, r0, #0
    9990:	0a0000f1 	beq	9d5c <_strtod_r+0x594>
    9994:	e3a03000 	mov	r3, #0
    9998:	e1a05003 	mov	r5, r3
    999c:	e1a0c003 	mov	r12, r3
    99a0:	e1a09007 	mov	r9, r7
    99a4:	e3cb2020 	bic	r2, r11, #32
    99a8:	e3520045 	cmp	r2, #69	; 0x45
    99ac:	1a000058 	bne	9b14 <_strtod_r+0x34c>
    99b0:	e59d001c 	ldr	r0, [sp, #28]
    99b4:	e1892003 	orr	r2, r9, r3
    99b8:	e1920000 	orrs	r0, r2, r0
    99bc:	0a0000b8 	beq	9ca4 <_strtod_r+0x4dc>
    99c0:	e59d404c 	ldr	r4, [sp, #76]	; 0x4c
    99c4:	e2842001 	add	r2, r4, #1
    99c8:	e58d204c 	str	r2, [sp, #76]	; 0x4c
    99cc:	e5d4b001 	ldrb	r11, [r4, #1]
    99d0:	e35b002b 	cmp	r11, #43	; 0x2b
    99d4:	0a00030c 	beq	a60c <_strtod_r+0xe44>
    99d8:	e35b002d 	cmp	r11, #45	; 0x2d
    99dc:	0a000236 	beq	a2bc <_strtod_r+0xaf4>
    99e0:	e3a02000 	mov	r2, #0
    99e4:	e58d2020 	str	r2, [sp, #32]
    99e8:	e24b2030 	sub	r2, r11, #48	; 0x30
    99ec:	e3520009 	cmp	r2, #9
    99f0:	858d404c 	strhi	r4, [sp, #76]	; 0x4c
    99f4:	83a02000 	movhi	r2, #0
    99f8:	8a000046 	bhi	9b18 <_strtod_r+0x350>
    99fc:	e35b0030 	cmp	r11, #48	; 0x30
    9a00:	1a000007 	bne	9a24 <_strtod_r+0x25c>
    9a04:	e59d104c 	ldr	r1, [sp, #76]	; 0x4c
    9a08:	ea000000 	b	9a10 <_strtod_r+0x248>
    9a0c:	e1a01002 	mov	r1, r2
    9a10:	e2812001 	add	r2, r1, #1
    9a14:	e58d204c 	str	r2, [sp, #76]	; 0x4c
    9a18:	e5d1b001 	ldrb	r11, [r1, #1]
    9a1c:	e35b0030 	cmp	r11, #48	; 0x30
    9a20:	0afffff9 	beq	9a0c <_strtod_r+0x244>
    9a24:	e24b2031 	sub	r2, r11, #49	; 0x31
    9a28:	e3520008 	cmp	r2, #8
    9a2c:	8a000038 	bhi	9b14 <_strtod_r+0x34c>
    9a30:	e59d104c 	ldr	r1, [sp, #76]	; 0x4c
    9a34:	e58d1024 	str	r1, [sp, #36]	; 0x24
    9a38:	e2811001 	add	r1, r1, #1
    9a3c:	e59d0024 	ldr	r0, [sp, #36]	; 0x24
    9a40:	e58d104c 	str	r1, [sp, #76]	; 0x4c
    9a44:	e24b2030 	sub	r2, r11, #48	; 0x30
    9a48:	e5d0b001 	ldrb	r11, [r0, #1]
    9a4c:	e24b0030 	sub	r0, r11, #48	; 0x30
    9a50:	e20000ff 	and	r0, r0, #255	; 0xff
    9a54:	e3500009 	cmp	r0, #9
    9a58:	8a00000a 	bhi	9a88 <_strtod_r+0x2c0>
    9a5c:	e2810001 	add	r0, r1, #1
    9a60:	e58d004c 	str	r0, [sp, #76]	; 0x4c
    9a64:	e0822102 	add	r2, r2, r2, lsl #2
    9a68:	e08b2082 	add	r2, r11, r2, lsl #1
    9a6c:	e5d1b001 	ldrb	r11, [r1, #1]
    9a70:	e24b1030 	sub	r1, r11, #48	; 0x30
    9a74:	e20110ff 	and	r1, r1, #255	; 0xff
    9a78:	e3510009 	cmp	r1, #9
    9a7c:	e2422030 	sub	r2, r2, #48	; 0x30
    9a80:	e1a01000 	mov	r1, r0
    9a84:	9afffff4 	bls	9a5c <_strtod_r+0x294>
    9a88:	e59d0024 	ldr	r0, [sp, #36]	; 0x24
    9a8c:	e0601001 	rsb	r1, r0, r1
    9a90:	e3510008 	cmp	r1, #8
    9a94:	c59f2f8c 	ldrgt	r2, [pc, #3980]	; aa28 <_strtod_r+0x1260>
    9a98:	ca000002 	bgt	9aa8 <_strtod_r+0x2e0>
    9a9c:	e59f1f84 	ldr	r1, [pc, #3972]	; aa28 <_strtod_r+0x1260>
    9aa0:	e1520001 	cmp	r2, r1
    9aa4:	a1a02001 	movge	r2, r1
    9aa8:	e59d1020 	ldr	r1, [sp, #32]
    9aac:	e3510000 	cmp	r1, #0
    9ab0:	12622000 	rsbne	r2, r2, #0
    9ab4:	ea000017 	b	9b18 <_strtod_r+0x350>
    9ab8:	e3a0b000 	mov	r11, #0
    9abc:	e1a0700b 	mov	r7, r11
    9ac0:	e3a00000 	mov	r0, #0
    9ac4:	e58d404c 	str	r4, [sp, #76]	; 0x4c
    9ac8:	e58d0014 	str	r0, [sp, #20]
    9acc:	e59d1010 	ldr	r1, [sp, #16]
    9ad0:	e3510000 	cmp	r1, #0
    9ad4:	159d304c 	ldrne	r3, [sp, #76]	; 0x4c
    9ad8:	e59d2014 	ldr	r2, [sp, #20]
    9adc:	15813000 	strne	r3, [r1]
    9ae0:	e3520000 	cmp	r2, #0
    9ae4:	12873102 	addne	r3, r7, #-2147483648	; 0x80000000
    9ae8:	01a03007 	moveq	r3, r7
    9aec:	e1a0000b 	mov	r0, r11
    9af0:	e1a01003 	mov	r1, r3
    9af4:	e28dd064 	add	sp, sp, #100	; 0x64
    9af8:	e8bd4ff0 	pop	{r4, r5, r6, r7, r8, r9, r10, r11, lr}
    9afc:	e12fff1e 	bx	lr
    9b00:	e58d304c 	str	r3, [sp, #76]	; 0x4c
    9b04:	eaffff3c 	b	97fc <_strtod_r+0x34>
    9b08:	e3a01001 	mov	r1, #1
    9b0c:	e58d1014 	str	r1, [sp, #20]
    9b10:	eaffff6e 	b	98d0 <_strtod_r+0x108>
    9b14:	e3a02000 	mov	r2, #0
    9b18:	e3590000 	cmp	r9, #0
    9b1c:	0a000031 	beq	9be8 <_strtod_r+0x420>
    9b20:	e3590010 	cmp	r9, #16
    9b24:	b1a0b009 	movlt	r11, r9
    9b28:	a3a0b010 	movge	r11, #16
    9b2c:	e0655002 	rsb	r5, r5, r2
    9b30:	e3570000 	cmp	r7, #0
    9b34:	e1a00008 	mov	r0, r8
    9b38:	01a07009 	moveq	r7, r9
    9b3c:	e58d5024 	str	r5, [sp, #36]	; 0x24
    9b40:	eb001f13 	bl	11794 <__aeabi_ui2d>
    9b44:	e35b0009 	cmp	r11, #9
    9b48:	e58d0008 	str	r0, [sp, #8]
    9b4c:	e58d100c 	str	r1, [sp, #12]
    9b50:	da00000f 	ble	9b94 <_strtod_r+0x3cc>
    9b54:	e59f3ed0 	ldr	r3, [pc, #3792]	; aa2c <_strtod_r+0x1264>
    9b58:	e083318b 	add	r3, r3, r11, lsl #3
    9b5c:	e2433048 	sub	r3, r3, #72	; 0x48
    9b60:	e893000c 	ldm	r3, {r2, r3}
    9b64:	eb001f4a 	bl	11894 <__aeabi_dmul>
    9b68:	e1a04000 	mov	r4, r0
    9b6c:	e1a0000a 	mov	r0, r10
    9b70:	e1a05001 	mov	r5, r1
    9b74:	eb001f06 	bl	11794 <__aeabi_ui2d>
    9b78:	e1a02000 	mov	r2, r0
    9b7c:	e1a03001 	mov	r3, r1
    9b80:	e1a00004 	mov	r0, r4
    9b84:	e1a01005 	mov	r1, r5
    9b88:	eb001e3d 	bl	11484 <__adddf3>
    9b8c:	e58d0008 	str	r0, [sp, #8]
    9b90:	e58d100c 	str	r1, [sp, #12]
    9b94:	e359000f 	cmp	r9, #15
    9b98:	ca00008f 	bgt	9ddc <_strtod_r+0x614>
    9b9c:	e59d1024 	ldr	r1, [sp, #36]	; 0x24
    9ba0:	e3510000 	cmp	r1, #0
    9ba4:	0a000057 	beq	9d08 <_strtod_r+0x540>
    9ba8:	da000381 	ble	a9b4 <_strtod_r+0x11ec>
    9bac:	e59d2024 	ldr	r2, [sp, #36]	; 0x24
    9bb0:	e3520016 	cmp	r2, #22
    9bb4:	ca00036b 	bgt	a968 <_strtod_r+0x11a0>
    9bb8:	e59f1e6c 	ldr	r1, [pc, #3692]	; aa2c <_strtod_r+0x1264>
    9bbc:	e0811182 	add	r1, r1, r2, lsl #3
    9bc0:	e8910003 	ldm	r1, {r0, r1}
    9bc4:	e28d3008 	add	r3, sp, #8
    9bc8:	e893000c 	ldm	r3, {r2, r3}
    9bcc:	eb001f30 	bl	11894 <__aeabi_dmul>
    9bd0:	e1a0b000 	mov	r11, r0
    9bd4:	e1a07001 	mov	r7, r1
    9bd8:	eaffffbb 	b	9acc <_strtod_r+0x304>
    9bdc:	e3a03000 	mov	r3, #0
    9be0:	e58d3014 	str	r3, [sp, #20]
    9be4:	eaffff3f 	b	98e8 <_strtod_r+0x120>
    9be8:	e59d201c 	ldr	r2, [sp, #28]
    9bec:	e1932002 	orrs	r2, r3, r2
    9bf0:	1a000044 	bne	9d08 <_strtod_r+0x540>
    9bf4:	e35c0000 	cmp	r12, #0
    9bf8:	1a000029 	bne	9ca4 <_strtod_r+0x4dc>
    9bfc:	e24bb049 	sub	r11, r11, #73	; 0x49
    9c00:	e35b0025 	cmp	r11, #37	; 0x25
    9c04:	979ff10b 	ldrls	pc, [pc, r11, lsl #2]
    9c08:	ea000025 	b	9ca4 <_strtod_r+0x4dc>
    9c0c:	0000a3b0 	.word	0x0000a3b0
    9c10:	00009ca4 	.word	0x00009ca4
    9c14:	00009ca4 	.word	0x00009ca4
    9c18:	00009ca4 	.word	0x00009ca4
    9c1c:	00009ca4 	.word	0x00009ca4
    9c20:	00009cb0 	.word	0x00009cb0
    9c24:	00009ca4 	.word	0x00009ca4
    9c28:	00009ca4 	.word	0x00009ca4
    9c2c:	00009ca4 	.word	0x00009ca4
    9c30:	00009ca4 	.word	0x00009ca4
    9c34:	00009ca4 	.word	0x00009ca4
    9c38:	00009ca4 	.word	0x00009ca4
    9c3c:	00009ca4 	.word	0x00009ca4
    9c40:	00009ca4 	.word	0x00009ca4
    9c44:	00009ca4 	.word	0x00009ca4
    9c48:	00009ca4 	.word	0x00009ca4
    9c4c:	00009ca4 	.word	0x00009ca4
    9c50:	00009ca4 	.word	0x00009ca4
    9c54:	00009ca4 	.word	0x00009ca4
    9c58:	00009ca4 	.word	0x00009ca4
    9c5c:	00009ca4 	.word	0x00009ca4
    9c60:	00009ca4 	.word	0x00009ca4
    9c64:	00009ca4 	.word	0x00009ca4
    9c68:	00009ca4 	.word	0x00009ca4
    9c6c:	00009ca4 	.word	0x00009ca4
    9c70:	00009ca4 	.word	0x00009ca4
    9c74:	00009ca4 	.word	0x00009ca4
    9c78:	00009ca4 	.word	0x00009ca4
    9c7c:	00009ca4 	.word	0x00009ca4
    9c80:	00009ca4 	.word	0x00009ca4
    9c84:	00009ca4 	.word	0x00009ca4
    9c88:	00009ca4 	.word	0x00009ca4
    9c8c:	0000a3b0 	.word	0x0000a3b0
    9c90:	00009ca4 	.word	0x00009ca4
    9c94:	00009ca4 	.word	0x00009ca4
    9c98:	00009ca4 	.word	0x00009ca4
    9c9c:	00009ca4 	.word	0x00009ca4
    9ca0:	00009cb0 	.word	0x00009cb0
    9ca4:	e59db008 	ldr	r11, [sp, #8]
    9ca8:	e59d700c 	ldr	r7, [sp, #12]
    9cac:	eaffff83 	b	9ac0 <_strtod_r+0x2f8>
    9cb0:	e59f0d78 	ldr	r0, [pc, #3448]	; aa30 <_strtod_r+0x1268>
    9cb4:	e59d104c 	ldr	r1, [sp, #76]	; 0x4c
    9cb8:	ea000006 	b	9cd8 <_strtod_r+0x510>
    9cbc:	e5f13001 	ldrb	r3, [r1, #1]!
    9cc0:	e243c041 	sub	r12, r3, #65	; 0x41
    9cc4:	e20cc0ff 	and	r12, r12, #255	; 0xff
    9cc8:	e35c0019 	cmp	r12, #25
    9ccc:	92833020 	addls	r3, r3, #32
    9cd0:	e1530002 	cmp	r3, r2
    9cd4:	1afffff2 	bne	9ca4 <_strtod_r+0x4dc>
    9cd8:	e5f02001 	ldrb	r2, [r0, #1]!
    9cdc:	e3520000 	cmp	r2, #0
    9ce0:	1afffff5 	bne	9cbc <_strtod_r+0x4f4>
    9ce4:	e2813001 	add	r3, r1, #1
    9ce8:	e58d304c 	str	r3, [sp, #76]	; 0x4c
    9cec:	e5d13001 	ldrb	r3, [r1, #1]
    9cf0:	e3530028 	cmp	r3, #40	; 0x28
    9cf4:	0a0003fb 	beq	ace8 <_strtod_r+0x1520>
    9cf8:	e59f2d34 	ldr	r2, [pc, #3380]	; aa34 <_strtod_r+0x126c>
    9cfc:	e3a03000 	mov	r3, #0
    9d00:	e58d200c 	str	r2, [sp, #12]
    9d04:	e58d3008 	str	r3, [sp, #8]
    9d08:	e59db008 	ldr	r11, [sp, #8]
    9d0c:	e59d700c 	ldr	r7, [sp, #12]
    9d10:	eaffff6d 	b	9acc <_strtod_r+0x304>
    9d14:	e5d53001 	ldrb	r3, [r5, #1]
    9d18:	e3530058 	cmp	r3, #88	; 0x58
    9d1c:	0a0001f8 	beq	a504 <_strtod_r+0xd3c>
    9d20:	e3530078 	cmp	r3, #120	; 0x78
    9d24:	1a000001 	bne	9d30 <_strtod_r+0x568>
    9d28:	ea0001f5 	b	a504 <_strtod_r+0xd3c>
    9d2c:	e1a05003 	mov	r5, r3
    9d30:	e2853001 	add	r3, r5, #1
    9d34:	e58d304c 	str	r3, [sp, #76]	; 0x4c
    9d38:	e5d5b001 	ldrb	r11, [r5, #1]
    9d3c:	e35b0030 	cmp	r11, #48	; 0x30
    9d40:	0afffff9 	beq	9d2c <_strtod_r+0x564>
    9d44:	e35b0000 	cmp	r11, #0
    9d48:	0a000134 	beq	a220 <_strtod_r+0xa58>
    9d4c:	e58d3018 	str	r3, [sp, #24]
    9d50:	e3a03001 	mov	r3, #1
    9d54:	e58d301c 	str	r3, [sp, #28]
    9d58:	eafffee7 	b	98fc <_strtod_r+0x134>
    9d5c:	e1a00006 	mov	r0, r6
    9d60:	e59d904c 	ldr	r9, [sp, #76]	; 0x4c
    9d64:	ebfff45a 	bl	6ed4 <_localeconv_r>
    9d68:	e5900000 	ldr	r0, [r0]
    9d6c:	ebffd9f8 	bl	554 <strlen>
    9d70:	e0893000 	add	r3, r9, r0
    9d74:	e58d304c 	str	r3, [sp, #76]	; 0x4c
    9d78:	e3570000 	cmp	r7, #0
    9d7c:	e7d9b000 	ldrb	r11, [r9, r0]
    9d80:	1a000128 	bne	a228 <_strtod_r+0xa60>
    9d84:	e35b0030 	cmp	r11, #48	; 0x30
    9d88:	1a00031d 	bne	aa04 <_strtod_r+0x123c>
    9d8c:	e2631001 	rsb	r1, r3, #1
    9d90:	ea000000 	b	9d98 <_strtod_r+0x5d0>
    9d94:	e1a03002 	mov	r3, r2
    9d98:	e2832001 	add	r2, r3, #1
    9d9c:	e58d204c 	str	r2, [sp, #76]	; 0x4c
    9da0:	e5d3b001 	ldrb	r11, [r3, #1]
    9da4:	e35b0030 	cmp	r11, #48	; 0x30
    9da8:	e0813003 	add	r3, r1, r3
    9dac:	0afffff8 	beq	9d94 <_strtod_r+0x5cc>
    9db0:	e24b2031 	sub	r2, r11, #49	; 0x31
    9db4:	e3520008 	cmp	r2, #8
    9db8:	8a000145 	bhi	a2d4 <_strtod_r+0xb0c>
    9dbc:	e59d104c 	ldr	r1, [sp, #76]	; 0x4c
    9dc0:	e1a05003 	mov	r5, r3
    9dc4:	e58d1018 	str	r1, [sp, #24]
    9dc8:	e24b2030 	sub	r2, r11, #48	; 0x30
    9dcc:	e1a00001 	mov	r0, r1
    9dd0:	e3a09000 	mov	r9, #0
    9dd4:	e3a03001 	mov	r3, #1
    9dd8:	ea00011a 	b	a248 <_strtod_r+0xa80>
    9ddc:	e59d1024 	ldr	r1, [sp, #36]	; 0x24
    9de0:	e06b3009 	rsb	r3, r11, r9
    9de4:	e0814003 	add	r4, r1, r3
    9de8:	e3540000 	cmp	r4, #0
    9dec:	da000261 	ble	a778 <_strtod_r+0xfb0>
    9df0:	e214300f 	ands	r3, r4, #15
    9df4:	0a000007 	beq	9e18 <_strtod_r+0x650>
    9df8:	e59f1c2c 	ldr	r1, [pc, #3116]	; aa2c <_strtod_r+0x1264>
    9dfc:	e0811183 	add	r1, r1, r3, lsl #3
    9e00:	e8910003 	ldm	r1, {r0, r1}
    9e04:	e28d3008 	add	r3, sp, #8
    9e08:	e893000c 	ldm	r3, {r2, r3}
    9e0c:	eb001ea0 	bl	11894 <__aeabi_dmul>
    9e10:	e58d0008 	str	r0, [sp, #8]
    9e14:	e58d100c 	str	r1, [sp, #12]
    9e18:	e3d4400f 	bics	r4, r4, #15
    9e1c:	1a000130 	bne	a2e4 <_strtod_r+0xb1c>
    9e20:	e3a02000 	mov	r2, #0
    9e24:	e58d201c 	str	r2, [sp, #28]
    9e28:	e58d8000 	str	r8, [sp]
    9e2c:	e59d1018 	ldr	r1, [sp, #24]
    9e30:	e1a02007 	mov	r2, r7
    9e34:	e1a03009 	mov	r3, r9
    9e38:	e1a00006 	mov	r0, r6
    9e3c:	ebfff83c 	bl	7f34 <__s2b>
    9e40:	e3500000 	cmp	r0, #0
    9e44:	e58d0020 	str	r0, [sp, #32]
    9e48:	0a0001e6 	beq	a5e8 <_strtod_r+0xe20>
    9e4c:	e59d2024 	ldr	r2, [sp, #36]	; 0x24
    9e50:	e3a01000 	mov	r1, #0
    9e54:	e1520001 	cmp	r2, r1
    9e58:	b2622000 	rsblt	r2, r2, #0
    9e5c:	a3a02000 	movge	r2, #0
    9e60:	e58d1018 	str	r1, [sp, #24]
    9e64:	e1a0a001 	mov	r10, r1
    9e68:	e58d2028 	str	r2, [sp, #40]	; 0x28
    9e6c:	ea0000b4 	b	a144 <_strtod_r+0x97c>
    9e70:	e0621001 	rsb	r1, r2, r1
    9e74:	e351001f 	cmp	r1, #31
    9e78:	e0613003 	rsb	r3, r1, r3
    9e7c:	ca00017c 	bgt	a474 <_strtod_r+0xcac>
    9e80:	e3a0b001 	mov	r11, #1
    9e84:	e1a0b11b 	lsl	r11, r11, r1
    9e88:	e3a02000 	mov	r2, #0
    9e8c:	e58db03c 	str	r11, [sp, #60]	; 0x3c
    9e90:	e58d2038 	str	r2, [sp, #56]	; 0x38
    9e94:	e59d201c 	ldr	r2, [sp, #28]
    9e98:	e0848003 	add	r8, r4, r3
    9e9c:	e0855003 	add	r5, r5, r3
    9ea0:	e0855002 	add	r5, r5, r2
    9ea4:	e1580004 	cmp	r8, r4
    9ea8:	b1a02008 	movlt	r2, r8
    9eac:	a1a02004 	movge	r2, r4
    9eb0:	e1520005 	cmp	r2, r5
    9eb4:	a1a02005 	movge	r2, r5
    9eb8:	e59d3028 	ldr	r3, [sp, #40]	; 0x28
    9ebc:	e3520000 	cmp	r2, #0
    9ec0:	c0628008 	rsbgt	r8, r2, r8
    9ec4:	c0625005 	rsbgt	r5, r2, r5
    9ec8:	c0624004 	rsbgt	r4, r2, r4
    9ecc:	e3530000 	cmp	r3, #0
    9ed0:	0a00000f 	beq	9f14 <_strtod_r+0x74c>
    9ed4:	e1a0100a 	mov	r1, r10
    9ed8:	e1a00006 	mov	r0, r6
    9edc:	e1a02003 	mov	r2, r3
    9ee0:	ebfff90c 	bl	8318 <__pow5mult>
    9ee4:	e250a000 	subs	r10, r0, #0
    9ee8:	0a0001fe 	beq	a6e8 <_strtod_r+0xf20>
    9eec:	e1a00006 	mov	r0, r6
    9ef0:	e1a0100a 	mov	r1, r10
    9ef4:	e59d2050 	ldr	r2, [sp, #80]	; 0x50
    9ef8:	ebfff88c 	bl	8130 <__multiply>
    9efc:	e250b000 	subs	r11, r0, #0
    9f00:	0a0001f8 	beq	a6e8 <_strtod_r+0xf20>
    9f04:	e1a00006 	mov	r0, r6
    9f08:	e59d1050 	ldr	r1, [sp, #80]	; 0x50
    9f0c:	ebfff7ca 	bl	7e3c <_Bfree>
    9f10:	e58db050 	str	r11, [sp, #80]	; 0x50
    9f14:	e3580000 	cmp	r8, #0
    9f18:	da000006 	ble	9f38 <_strtod_r+0x770>
    9f1c:	e1a02008 	mov	r2, r8
    9f20:	e1a00006 	mov	r0, r6
    9f24:	e59d1050 	ldr	r1, [sp, #80]	; 0x50
    9f28:	ebfff93b 	bl	841c <__lshift>
    9f2c:	e3500000 	cmp	r0, #0
    9f30:	e58d0050 	str	r0, [sp, #80]	; 0x50
    9f34:	0a0002ab 	beq	a9e8 <_strtod_r+0x1220>
    9f38:	e3570000 	cmp	r7, #0
    9f3c:	0a000005 	beq	9f58 <_strtod_r+0x790>
    9f40:	e1a01009 	mov	r1, r9
    9f44:	e1a02007 	mov	r2, r7
    9f48:	e1a00006 	mov	r0, r6
    9f4c:	ebfff8f1 	bl	8318 <__pow5mult>
    9f50:	e2509000 	subs	r9, r0, #0
    9f54:	0a0001e3 	beq	a6e8 <_strtod_r+0xf20>
    9f58:	e3550000 	cmp	r5, #0
    9f5c:	da000005 	ble	9f78 <_strtod_r+0x7b0>
    9f60:	e1a01009 	mov	r1, r9
    9f64:	e1a02005 	mov	r2, r5
    9f68:	e1a00006 	mov	r0, r6
    9f6c:	ebfff92a 	bl	841c <__lshift>
    9f70:	e2509000 	subs	r9, r0, #0
    9f74:	0a0001db 	beq	a6e8 <_strtod_r+0xf20>
    9f78:	e3540000 	cmp	r4, #0
    9f7c:	da000005 	ble	9f98 <_strtod_r+0x7d0>
    9f80:	e1a0100a 	mov	r1, r10
    9f84:	e1a02004 	mov	r2, r4
    9f88:	e1a00006 	mov	r0, r6
    9f8c:	ebfff922 	bl	841c <__lshift>
    9f90:	e250a000 	subs	r10, r0, #0
    9f94:	0a0001d3 	beq	a6e8 <_strtod_r+0xf20>
    9f98:	e59d1050 	ldr	r1, [sp, #80]	; 0x50
    9f9c:	e1a00006 	mov	r0, r6
    9fa0:	e1a02009 	mov	r2, r9
    9fa4:	ebfff977 	bl	8588 <__mdiff>
    9fa8:	e2501000 	subs	r1, r0, #0
    9fac:	e58d1018 	str	r1, [sp, #24]
    9fb0:	0a0001cc 	beq	a6e8 <_strtod_r+0xf20>
    9fb4:	e59d2018 	ldr	r2, [sp, #24]
    9fb8:	e59d3018 	ldr	r3, [sp, #24]
    9fbc:	e592200c 	ldr	r2, [r2, #12]
    9fc0:	e3a07000 	mov	r7, #0
    9fc4:	e1a0100a 	mov	r1, r10
    9fc8:	e583700c 	str	r7, [r3, #12]
    9fcc:	e58d2034 	str	r2, [sp, #52]	; 0x34
    9fd0:	ebfff954 	bl	8528 <__mcmp>
    9fd4:	e1500007 	cmp	r0, r7
    9fd8:	ba0002e6 	blt	ab78 <_strtod_r+0x13b0>
    9fdc:	0a0002aa 	beq	aa8c <_strtod_r+0x12c4>
    9fe0:	e59d0018 	ldr	r0, [sp, #24]
    9fe4:	e1a0100a 	mov	r1, r10
    9fe8:	ebfffa48 	bl	8910 <__ratio>
    9fec:	e3a02000 	mov	r2, #0
    9ff0:	e3a03101 	mov	r3, #1073741824	; 0x40000000
    9ff4:	e1a04000 	mov	r4, r0
    9ff8:	e1a05001 	mov	r5, r1
    9ffc:	eb001f8a 	bl	11e2c <__aeabi_dcmple>
    a000:	e3500000 	cmp	r0, #0
    a004:	0a00010b 	beq	a438 <_strtod_r+0xc70>
    a008:	e59d2034 	ldr	r2, [sp, #52]	; 0x34
    a00c:	e3520000 	cmp	r2, #0
    a010:	0a00011e 	beq	a490 <_strtod_r+0xcc8>
    a014:	e59f5a1c 	ldr	r5, [pc, #2588]	; aa38 <_strtod_r+0x1270>
    a018:	e59d100c 	ldr	r1, [sp, #12]
    a01c:	e59fba14 	ldr	r11, [pc, #2580]	; aa38 <_strtod_r+0x1270>
    a020:	e3a04000 	mov	r4, #0
    a024:	e59f8a5c 	ldr	r8, [pc, #2652]	; aa88 <_strtod_r+0x12c0>
    a028:	e59f3a0c 	ldr	r3, [pc, #2572]	; aa3c <_strtod_r+0x1274>
    a02c:	e0018008 	and	r8, r1, r8
    a030:	e1580003 	cmp	r8, r3
    a034:	0a000146 	beq	a554 <_strtod_r+0xd8c>
    a038:	e59d001c 	ldr	r0, [sp, #28]
    a03c:	e358066a 	cmp	r8, #111149056	; 0x6a00000
    a040:	83a03000 	movhi	r3, #0
    a044:	93a03001 	movls	r3, #1
    a048:	e3500000 	cmp	r0, #0
    a04c:	03a03000 	moveq	r3, #0
    a050:	e3530000 	cmp	r3, #0
    a054:	0a000017 	beq	a0b8 <_strtod_r+0x8f0>
    a058:	e1a00007 	mov	r0, r7
    a05c:	e1a0100b 	mov	r1, r11
    a060:	e59f29d8 	ldr	r2, [pc, #2520]	; aa40 <_strtod_r+0x1278>
    a064:	e59f39d8 	ldr	r3, [pc, #2520]	; aa44 <_strtod_r+0x127c>
    a068:	eb001f6f 	bl	11e2c <__aeabi_dcmple>
    a06c:	e3500000 	cmp	r0, #0
    a070:	0a00000e 	beq	a0b0 <_strtod_r+0x8e8>
    a074:	e1a00007 	mov	r0, r7
    a078:	e1a0100b 	mov	r1, r11
    a07c:	eb001f93 	bl	11ed0 <__aeabi_d2uiz>
    a080:	e2507000 	subs	r7, r0, #0
    a084:	059fb9ac 	ldreq	r11, [pc, #2476]	; aa38 <_strtod_r+0x1270>
    a088:	0a000002 	beq	a098 <_strtod_r+0x8d0>
    a08c:	eb001dc0 	bl	11794 <__aeabi_ui2d>
    a090:	e1a07000 	mov	r7, r0
    a094:	e1a0b001 	mov	r11, r1
    a098:	e59d1034 	ldr	r1, [sp, #52]	; 0x34
    a09c:	e3510000 	cmp	r1, #0
    a0a0:	028b3102 	addeq	r3, r11, #-2147483648	; 0x80000000
    a0a4:	11a0300b 	movne	r3, r11
    a0a8:	e1a04007 	mov	r4, r7
    a0ac:	e1a05003 	mov	r5, r3
    a0b0:	e285366b 	add	r3, r5, #112197632	; 0x6b00000
    a0b4:	e0685003 	rsb	r5, r8, r3
    a0b8:	e28d002c 	add	r0, sp, #44	; 0x2c
    a0bc:	e8900003 	ldm	r0, {r0, r1}
    a0c0:	ebfff981 	bl	86cc <__ulp>
    a0c4:	e1a02000 	mov	r2, r0
    a0c8:	e1a03001 	mov	r3, r1
    a0cc:	e1a00004 	mov	r0, r4
    a0d0:	e1a01005 	mov	r1, r5
    a0d4:	eb001dee 	bl	11894 <__aeabi_dmul>
    a0d8:	e1a02000 	mov	r2, r0
    a0dc:	e28d002c 	add	r0, sp, #44	; 0x2c
    a0e0:	e1a03001 	mov	r3, r1
    a0e4:	e8900003 	ldm	r0, {r0, r1}
    a0e8:	eb001ce5 	bl	11484 <__adddf3>
    a0ec:	e58d0008 	str	r0, [sp, #8]
    a0f0:	e58d100c 	str	r1, [sp, #12]
    a0f4:	e59d400c 	ldr	r4, [sp, #12]
    a0f8:	e59d201c 	ldr	r2, [sp, #28]
    a0fc:	e3520000 	cmp	r2, #0
    a100:	1a000003 	bne	a114 <_strtod_r+0x94c>
    a104:	e59f397c 	ldr	r3, [pc, #2428]	; aa88 <_strtod_r+0x12c0>
    a108:	e0043003 	and	r3, r4, r3
    a10c:	e1580003 	cmp	r8, r3
    a110:	0a000146 	beq	a630 <_strtod_r+0xe68>
    a114:	e1a00006 	mov	r0, r6
    a118:	e59d1050 	ldr	r1, [sp, #80]	; 0x50
    a11c:	ebfff746 	bl	7e3c <_Bfree>
    a120:	e1a00006 	mov	r0, r6
    a124:	e1a01009 	mov	r1, r9
    a128:	ebfff743 	bl	7e3c <_Bfree>
    a12c:	e1a00006 	mov	r0, r6
    a130:	e1a0100a 	mov	r1, r10
    a134:	ebfff740 	bl	7e3c <_Bfree>
    a138:	e1a00006 	mov	r0, r6
    a13c:	e59d1018 	ldr	r1, [sp, #24]
    a140:	ebfff73d 	bl	7e3c <_Bfree>
    a144:	e59d3020 	ldr	r3, [sp, #32]
    a148:	e1a00006 	mov	r0, r6
    a14c:	e5931004 	ldr	r1, [r3, #4]
    a150:	ebfff716 	bl	7db0 <_Balloc>
    a154:	e2509000 	subs	r9, r0, #0
    a158:	0a000162 	beq	a6e8 <_strtod_r+0xf20>
    a15c:	e59d0020 	ldr	r0, [sp, #32]
    a160:	e5902010 	ldr	r2, [r0, #16]
    a164:	e59d3020 	ldr	r3, [sp, #32]
    a168:	e2822002 	add	r2, r2, #2
    a16c:	e283100c 	add	r1, r3, #12
    a170:	e1a02102 	lsl	r2, r2, #2
    a174:	e289000c 	add	r0, r9, #12
    a178:	ebfff644 	bl	7a90 <memcpy>
    a17c:	e28d1058 	add	r1, sp, #88	; 0x58
    a180:	e28d0054 	add	r0, sp, #84	; 0x54
    a184:	e28d2008 	add	r2, sp, #8
    a188:	e892000c 	ldm	r2, {r2, r3}
    a18c:	e88d0003 	stm	sp, {r0, r1}
    a190:	e1a00006 	mov	r0, r6
    a194:	ebfff99a 	bl	8804 <__d2b>
    a198:	e59d1008 	ldr	r1, [sp, #8]
    a19c:	e59d200c 	ldr	r2, [sp, #12]
    a1a0:	e3500000 	cmp	r0, #0
    a1a4:	e58d0050 	str	r0, [sp, #80]	; 0x50
    a1a8:	e58d102c 	str	r1, [sp, #44]	; 0x2c
    a1ac:	e58d2030 	str	r2, [sp, #48]	; 0x30
    a1b0:	0a00020c 	beq	a9e8 <_strtod_r+0x1220>
    a1b4:	e1a00006 	mov	r0, r6
    a1b8:	e3a01001 	mov	r1, #1
    a1bc:	ebfff7d2 	bl	810c <__i2b>
    a1c0:	e250a000 	subs	r10, r0, #0
    a1c4:	0a000147 	beq	a6e8 <_strtod_r+0xf20>
    a1c8:	e59d2054 	ldr	r2, [sp, #84]	; 0x54
    a1cc:	e59d3024 	ldr	r3, [sp, #36]	; 0x24
    a1d0:	e3520000 	cmp	r2, #0
    a1d4:	a59d0028 	ldrge	r0, [sp, #40]	; 0x28
    a1d8:	e59d101c 	ldr	r1, [sp, #28]
    a1dc:	e1c37fc3 	bic	r7, r3, r3, asr #31
    a1e0:	e59d3058 	ldr	r3, [sp, #88]	; 0x58
    a1e4:	a0804002 	addge	r4, r0, r2
    a1e8:	b0625007 	rsblt	r5, r2, r7
    a1ec:	e0612002 	rsb	r2, r1, r2
    a1f0:	e0822003 	add	r2, r2, r3
    a1f4:	e3e01fff 	mvn	r1, #1020	; 0x3fc
    a1f8:	a1a05007 	movge	r5, r7
    a1fc:	b59d4028 	ldrlt	r4, [sp, #40]	; 0x28
    a200:	e1520001 	cmp	r2, r1
    a204:	e2633036 	rsb	r3, r3, #54	; 0x36
    a208:	baffff18 	blt	9e70 <_strtod_r+0x6a8>
    a20c:	e3a00000 	mov	r0, #0
    a210:	e3a01001 	mov	r1, #1
    a214:	e58d0038 	str	r0, [sp, #56]	; 0x38
    a218:	e58d103c 	str	r1, [sp, #60]	; 0x3c
    a21c:	eaffff1c 	b	9e94 <_strtod_r+0x6cc>
    a220:	e1a0700b 	mov	r7, r11
    a224:	eafffe28 	b	9acc <_strtod_r+0x304>
    a228:	e1a03005 	mov	r3, r5
    a22c:	e1a09007 	mov	r9, r7
    a230:	e24b2030 	sub	r2, r11, #48	; 0x30
    a234:	e3520009 	cmp	r2, #9
    a238:	83a0c001 	movhi	r12, #1
    a23c:	8afffdd8 	bhi	99a4 <_strtod_r+0x1dc>
    a240:	e59d004c 	ldr	r0, [sp, #76]	; 0x4c
    a244:	e2833001 	add	r3, r3, #1
    a248:	e3520000 	cmp	r2, #0
    a24c:	0a000016 	beq	a2ac <_strtod_r+0xae4>
    a250:	e3530001 	cmp	r3, #1
    a254:	e0855003 	add	r5, r5, r3
    a258:	0a00000d 	beq	a294 <_strtod_r+0xacc>
    a25c:	e089c003 	add	r12, r9, r3
    a260:	e24c1001 	sub	r1, r12, #1
    a264:	e2899001 	add	r9, r9, #1
    a268:	e2493001 	sub	r3, r9, #1
    a26c:	e3530008 	cmp	r3, #8
    a270:	d0888108 	addle	r8, r8, r8, lsl #2
    a274:	d1a08088 	lslle	r8, r8, #1
    a278:	da000002 	ble	a288 <_strtod_r+0xac0>
    a27c:	e3590010 	cmp	r9, #16
    a280:	d08aa10a 	addle	r10, r10, r10, lsl #2
    a284:	d1a0a08a 	lslle	r10, r10, #1
    a288:	e1590001 	cmp	r9, r1
    a28c:	1afffff4 	bne	a264 <_strtod_r+0xa9c>
    a290:	e24c9001 	sub	r9, r12, #1
    a294:	e3590008 	cmp	r9, #8
    a298:	e2899001 	add	r9, r9, #1
    a29c:	ca0001d3 	bgt	a9f0 <_strtod_r+0x1228>
    a2a0:	e0888108 	add	r8, r8, r8, lsl #2
    a2a4:	e0828088 	add	r8, r2, r8, lsl #1
    a2a8:	e3a03000 	mov	r3, #0
    a2ac:	e2802001 	add	r2, r0, #1
    a2b0:	e58d204c 	str	r2, [sp, #76]	; 0x4c
    a2b4:	e5d0b001 	ldrb	r11, [r0, #1]
    a2b8:	eaffffdc 	b	a230 <_strtod_r+0xa68>
    a2bc:	e3a00001 	mov	r0, #1
    a2c0:	e58d0020 	str	r0, [sp, #32]
    a2c4:	e2842002 	add	r2, r4, #2
    a2c8:	e58d204c 	str	r2, [sp, #76]	; 0x4c
    a2cc:	e5d4b002 	ldrb	r11, [r4, #2]
    a2d0:	eafffdc4 	b	99e8 <_strtod_r+0x220>
    a2d4:	e3a09000 	mov	r9, #0
    a2d8:	e1a05009 	mov	r5, r9
    a2dc:	e3a0c001 	mov	r12, #1
    a2e0:	eafffdaf 	b	99a4 <_strtod_r+0x1dc>
    a2e4:	e3540f4d 	cmp	r4, #308	; 0x134
    a2e8:	ca0000be 	bgt	a5e8 <_strtod_r+0xe20>
    a2ec:	e1a04244 	asr	r4, r4, #4
    a2f0:	e3540001 	cmp	r4, #1
    a2f4:	e59fb74c 	ldr	r11, [pc, #1868]	; aa48 <_strtod_r+0x1280>
    a2f8:	da00026a 	ble	aca8 <_strtod_r+0x14e0>
    a2fc:	e28d1008 	add	r1, sp, #8
    a300:	e8910003 	ldm	r1, {r0, r1}
    a304:	e1a0500b 	mov	r5, r11
    a308:	e3a0a000 	mov	r10, #0
    a30c:	e3140001 	tst	r4, #1
    a310:	e1a040c4 	asr	r4, r4, #1
    a314:	1895000c 	ldmne	r5, {r2, r3}
    a318:	1b001d5d 	blne	11894 <__aeabi_dmul>
    a31c:	e3540001 	cmp	r4, #1
    a320:	e28aa001 	add	r10, r10, #1
    a324:	e2855008 	add	r5, r5, #8
    a328:	cafffff7 	bgt	a30c <_strtod_r+0xb44>
    a32c:	e58d0008 	str	r0, [sp, #8]
    a330:	e58d100c 	str	r1, [sp, #12]
    a334:	e59d300c 	ldr	r3, [sp, #12]
    a338:	e2433635 	sub	r3, r3, #55574528	; 0x3500000
    a33c:	e58d300c 	str	r3, [sp, #12]
    a340:	e08ba18a 	add	r10, r11, r10, lsl #3
    a344:	e28d3008 	add	r3, sp, #8
    a348:	e893000c 	ldm	r3, {r2, r3}
    a34c:	e89a0003 	ldm	r10, {r0, r1}
    a350:	eb001d4f 	bl	11894 <__aeabi_dmul>
    a354:	e58d0008 	str	r0, [sp, #8]
    a358:	e58d100c 	str	r1, [sp, #12]
    a35c:	e59d000c 	ldr	r0, [sp, #12]
    a360:	e3c03102 	bic	r3, r0, #-2147483648	; 0x80000000
    a364:	e59f26e0 	ldr	r2, [pc, #1760]	; aa4c <_strtod_r+0x1284>
    a368:	e1a03a23 	lsr	r3, r3, #20
    a36c:	e1a03a03 	lsl	r3, r3, #20
    a370:	e1530002 	cmp	r3, r2
    a374:	e1a02000 	mov	r2, r0
    a378:	8a00009a 	bhi	a5e8 <_strtod_r+0xe20>
    a37c:	e59f16cc 	ldr	r1, [pc, #1740]	; aa50 <_strtod_r+0x1288>
    a380:	e1530001 	cmp	r3, r1
    a384:	859f16f8 	ldrhi	r1, [pc, #1784]	; aa84 <_strtod_r+0x12bc>
    a388:	83a02000 	movhi	r2, #0
    a38c:	83e03000 	mvnhi	r3, #0
    a390:	92822635 	addls	r2, r2, #55574528	; 0x3500000
    a394:	93a00000 	movls	r0, #0
    a398:	858d100c 	strhi	r1, [sp, #12]
    a39c:	858d201c 	strhi	r2, [sp, #28]
    a3a0:	858d3008 	strhi	r3, [sp, #8]
    a3a4:	958d200c 	strls	r2, [sp, #12]
    a3a8:	958d001c 	strls	r0, [sp, #28]
    a3ac:	eafffe9d 	b	9e28 <_strtod_r+0x660>
    a3b0:	e59f069c 	ldr	r0, [pc, #1692]	; aa54 <_strtod_r+0x128c>
    a3b4:	e59d104c 	ldr	r1, [sp, #76]	; 0x4c
    a3b8:	ea000006 	b	a3d8 <_strtod_r+0xc10>
    a3bc:	e5f13001 	ldrb	r3, [r1, #1]!
    a3c0:	e243c041 	sub	r12, r3, #65	; 0x41
    a3c4:	e20cc0ff 	and	r12, r12, #255	; 0xff
    a3c8:	e35c0019 	cmp	r12, #25
    a3cc:	92833020 	addls	r3, r3, #32
    a3d0:	e1530002 	cmp	r3, r2
    a3d4:	1afffe32 	bne	9ca4 <_strtod_r+0x4dc>
    a3d8:	e5f02001 	ldrb	r2, [r0, #1]!
    a3dc:	e3520000 	cmp	r2, #0
    a3e0:	1afffff5 	bne	a3bc <_strtod_r+0xbf4>
    a3e4:	e58d104c 	str	r1, [sp, #76]	; 0x4c
    a3e8:	e59fc668 	ldr	r12, [pc, #1640]	; aa58 <_strtod_r+0x1290>
    a3ec:	e1a00001 	mov	r0, r1
    a3f0:	ea000006 	b	a410 <_strtod_r+0xc48>
    a3f4:	e5f03001 	ldrb	r3, [r0, #1]!
    a3f8:	e2434041 	sub	r4, r3, #65	; 0x41
    a3fc:	e20440ff 	and	r4, r4, #255	; 0xff
    a400:	e3540019 	cmp	r4, #25
    a404:	92833020 	addls	r3, r3, #32
    a408:	e1530002 	cmp	r3, r2
    a40c:	1a000211 	bne	ac58 <_strtod_r+0x1490>
    a410:	e5fc2001 	ldrb	r2, [r12, #1]!
    a414:	e3520000 	cmp	r2, #0
    a418:	1afffff5 	bne	a3f4 <_strtod_r+0xc2c>
    a41c:	e2800001 	add	r0, r0, #1
    a420:	e58d004c 	str	r0, [sp, #76]	; 0x4c
    a424:	e59f365c 	ldr	r3, [pc, #1628]	; aa88 <_strtod_r+0x12c0>
    a428:	e3a00000 	mov	r0, #0
    a42c:	e58d300c 	str	r3, [sp, #12]
    a430:	e58d0008 	str	r0, [sp, #8]
    a434:	eafffe33 	b	9d08 <_strtod_r+0x540>
    a438:	e1a00004 	mov	r0, r4
    a43c:	e1a01005 	mov	r1, r5
    a440:	e59f3634 	ldr	r3, [pc, #1588]	; aa7c <_strtod_r+0x12b4>
    a444:	e3a02000 	mov	r2, #0
    a448:	eb001d11 	bl	11894 <__aeabi_dmul>
    a44c:	e59d3034 	ldr	r3, [sp, #52]	; 0x34
    a450:	e3530000 	cmp	r3, #0
    a454:	02813102 	addeq	r3, r1, #-2147483648	; 0x80000000
    a458:	11a03001 	movne	r3, r1
    a45c:	e1a0b001 	mov	r11, r1
    a460:	e1a07000 	mov	r7, r0
    a464:	e1a04000 	mov	r4, r0
    a468:	e1a05003 	mov	r5, r3
    a46c:	e59d100c 	ldr	r1, [sp, #12]
    a470:	eafffeeb 	b	a024 <_strtod_r+0x85c>
    a474:	e59f85e0 	ldr	r8, [pc, #1504]	; aa5c <_strtod_r+0x1294>
    a478:	e3a0b001 	mov	r11, #1
    a47c:	e0628008 	rsb	r8, r2, r8
    a480:	e1a0881b 	lsl	r8, r11, r8
    a484:	e58db03c 	str	r11, [sp, #60]	; 0x3c
    a488:	e58d8038 	str	r8, [sp, #56]	; 0x38
    a48c:	eafffe80 	b	9e94 <_strtod_r+0x6cc>
    a490:	e59d3008 	ldr	r3, [sp, #8]
    a494:	e3530000 	cmp	r3, #0
    a498:	1a00009c 	bne	a710 <_strtod_r+0xf48>
    a49c:	e59d000c 	ldr	r0, [sp, #12]
    a4a0:	e3c034ff 	bic	r3, r0, #-16777216	; 0xff000000
    a4a4:	e3c3360f 	bic	r3, r3, #15728640	; 0xf00000
    a4a8:	e3530000 	cmp	r3, #0
    a4ac:	e1a08000 	mov	r8, r0
    a4b0:	1a000058 	bne	a618 <_strtod_r+0xe50>
    a4b4:	e1a00004 	mov	r0, r4
    a4b8:	e1a01005 	mov	r1, r5
    a4bc:	e3a02000 	mov	r2, #0
    a4c0:	e59f3570 	ldr	r3, [pc, #1392]	; aa38 <_strtod_r+0x1270>
    a4c4:	eb001e52 	bl	11e14 <__aeabi_dcmplt>
    a4c8:	e3500000 	cmp	r0, #0
    a4cc:	1a0001dc 	bne	ac44 <_strtod_r+0x147c>
    a4d0:	e3a02000 	mov	r2, #0
    a4d4:	e59f35a0 	ldr	r3, [pc, #1440]	; aa7c <_strtod_r+0x12b4>
    a4d8:	e1a00004 	mov	r0, r4
    a4dc:	e1a01005 	mov	r1, r5
    a4e0:	eb001ceb 	bl	11894 <__aeabi_dmul>
    a4e4:	e1a07000 	mov	r7, r0
    a4e8:	e1a0b001 	mov	r11, r1
    a4ec:	e1a02000 	mov	r2, r0
    a4f0:	e2813102 	add	r3, r1, #-2147483648	; 0x80000000
    a4f4:	e1a04002 	mov	r4, r2
    a4f8:	e1a05003 	mov	r5, r3
    a4fc:	e1a01008 	mov	r1, r8
    a500:	eafffec7 	b	a024 <_strtod_r+0x85c>
    a504:	e59d0014 	ldr	r0, [sp, #20]
    a508:	e28d3050 	add	r3, sp, #80	; 0x50
    a50c:	e58d0004 	str	r0, [sp, #4]
    a510:	e58d3000 	str	r3, [sp]
    a514:	e1a00006 	mov	r0, r6
    a518:	e28d104c 	add	r1, sp, #76	; 0x4c
    a51c:	e59f253c 	ldr	r2, [pc, #1340]	; aa60 <_strtod_r+0x1298>
    a520:	e28d3054 	add	r3, sp, #84	; 0x54
    a524:	eb0012b6 	bl	f004 <__gethex>
    a528:	e210b007 	ands	r11, r0, #7
    a52c:	e1a04000 	mov	r4, r0
    a530:	0affff3a 	beq	a220 <_strtod_r+0xa58>
    a534:	e35b0006 	cmp	r11, #6
    a538:	1a0000d4 	bne	a890 <_strtod_r+0x10c8>
    a53c:	e3a0b000 	mov	r11, #0
    a540:	e2855001 	add	r5, r5, #1
    a544:	e58d504c 	str	r5, [sp, #76]	; 0x4c
    a548:	e1a0700b 	mov	r7, r11
    a54c:	e58db014 	str	r11, [sp, #20]
    a550:	eafffd5d 	b	9acc <_strtod_r+0x304>
    a554:	e2411635 	sub	r1, r1, #55574528	; 0x3500000
    a558:	e28d202c 	add	r2, sp, #44	; 0x2c
    a55c:	e892000c 	ldm	r2, {r2, r3}
    a560:	e58d100c 	str	r1, [sp, #12]
    a564:	e28d1008 	add	r1, sp, #8
    a568:	e8910003 	ldm	r1, {r0, r1}
    a56c:	e58d2040 	str	r2, [sp, #64]	; 0x40
    a570:	e58d3044 	str	r3, [sp, #68]	; 0x44
    a574:	ebfff854 	bl	86cc <__ulp>
    a578:	e1a02000 	mov	r2, r0
    a57c:	e1a03001 	mov	r3, r1
    a580:	e1a00004 	mov	r0, r4
    a584:	e1a01005 	mov	r1, r5
    a588:	eb001cc1 	bl	11894 <__aeabi_dmul>
    a58c:	e1a02000 	mov	r2, r0
    a590:	e1a03001 	mov	r3, r1
    a594:	e28d1008 	add	r1, sp, #8
    a598:	e8910003 	ldm	r1, {r0, r1}
    a59c:	eb001bb8 	bl	11484 <__adddf3>
    a5a0:	e58d0008 	str	r0, [sp, #8]
    a5a4:	e58d100c 	str	r1, [sp, #12]
    a5a8:	e59d100c 	ldr	r1, [sp, #12]
    a5ac:	e3c13102 	bic	r3, r1, #-2147483648	; 0x80000000
    a5b0:	e1a03a23 	lsr	r3, r3, #20
    a5b4:	e59f24a8 	ldr	r2, [pc, #1192]	; aa64 <_strtod_r+0x129c>
    a5b8:	e1a03a03 	lsl	r3, r3, #20
    a5bc:	e1530002 	cmp	r3, r2
    a5c0:	9a0000ae 	bls	a880 <_strtod_r+0x10b8>
    a5c4:	e59f34b8 	ldr	r3, [pc, #1208]	; aa84 <_strtod_r+0x12bc>
    a5c8:	e59d2044 	ldr	r2, [sp, #68]	; 0x44
    a5cc:	e1520003 	cmp	r2, r3
    a5d0:	0a000197 	beq	ac34 <_strtod_r+0x146c>
    a5d4:	e59f04a8 	ldr	r0, [pc, #1192]	; aa84 <_strtod_r+0x12bc>
    a5d8:	e3e01000 	mvn	r1, #0
    a5dc:	e58d000c 	str	r0, [sp, #12]
    a5e0:	e58d1008 	str	r1, [sp, #8]
    a5e4:	eafffeca 	b	a114 <_strtod_r+0x94c>
    a5e8:	e59f3498 	ldr	r3, [pc, #1176]	; aa88 <_strtod_r+0x12c0>
    a5ec:	e3a00000 	mov	r0, #0
    a5f0:	e58d300c 	str	r3, [sp, #12]
    a5f4:	e3a03022 	mov	r3, #34	; 0x22
    a5f8:	e58d0008 	str	r0, [sp, #8]
    a5fc:	e1a0b000 	mov	r11, r0
    a600:	e59f7480 	ldr	r7, [pc, #1152]	; aa88 <_strtod_r+0x12c0>
    a604:	e5863000 	str	r3, [r6]
    a608:	eafffd2f 	b	9acc <_strtod_r+0x304>
    a60c:	e3a01000 	mov	r1, #0
    a610:	e58d1020 	str	r1, [sp, #32]
    a614:	eaffff2a 	b	a2c4 <_strtod_r+0xafc>
    a618:	e59d100c 	ldr	r1, [sp, #12]
    a61c:	e3a04000 	mov	r4, #0
    a620:	e59f5440 	ldr	r5, [pc, #1088]	; aa68 <_strtod_r+0x12a0>
    a624:	e3a07000 	mov	r7, #0
    a628:	e59fb408 	ldr	r11, [pc, #1032]	; aa38 <_strtod_r+0x1270>
    a62c:	eafffe7c 	b	a024 <_strtod_r+0x85c>
    a630:	e1a00007 	mov	r0, r7
    a634:	e1a0100b 	mov	r1, r11
    a638:	eb001e0d 	bl	11e74 <__aeabi_d2iz>
    a63c:	eb001c5d 	bl	117b8 <__aeabi_i2d>
    a640:	e1a03001 	mov	r3, r1
    a644:	e1a02000 	mov	r2, r0
    a648:	e1a0100b 	mov	r1, r11
    a64c:	e1a00007 	mov	r0, r7
    a650:	eb001b8a 	bl	11480 <__aeabi_dsub>
    a654:	e59d3034 	ldr	r3, [sp, #52]	; 0x34
    a658:	e3530000 	cmp	r3, #0
    a65c:	e1a07000 	mov	r7, r0
    a660:	e1a08001 	mov	r8, r1
    a664:	1a000031 	bne	a730 <_strtod_r+0xf68>
    a668:	e59d2008 	ldr	r2, [sp, #8]
    a66c:	e3520000 	cmp	r2, #0
    a670:	1a00002e 	bne	a730 <_strtod_r+0xf68>
    a674:	e3c434ff 	bic	r3, r4, #-16777216	; 0xff000000
    a678:	e3c3360f 	bic	r3, r3, #15728640	; 0xf00000
    a67c:	e3530000 	cmp	r3, #0
    a680:	1a00002a 	bne	a730 <_strtod_r+0xf68>
    a684:	e28f3fe1 	add	r3, pc, #900	; 0x384
    a688:	e893000c 	ldm	r3, {r2, r3}
    a68c:	eb001de0 	bl	11e14 <__aeabi_dcmplt>
    a690:	e3500000 	cmp	r0, #0
    a694:	0afffe9e 	beq	a114 <_strtod_r+0x94c>
    a698:	e59db01c 	ldr	r11, [sp, #28]
    a69c:	e59d700c 	ldr	r7, [sp, #12]
    a6a0:	e59d1050 	ldr	r1, [sp, #80]	; 0x50
    a6a4:	e1a00006 	mov	r0, r6
    a6a8:	ebfff5e3 	bl	7e3c <_Bfree>
    a6ac:	e1a00006 	mov	r0, r6
    a6b0:	e1a01009 	mov	r1, r9
    a6b4:	ebfff5e0 	bl	7e3c <_Bfree>
    a6b8:	e1a00006 	mov	r0, r6
    a6bc:	e1a0100a 	mov	r1, r10
    a6c0:	ebfff5dd 	bl	7e3c <_Bfree>
    a6c4:	e1a00006 	mov	r0, r6
    a6c8:	e59d1020 	ldr	r1, [sp, #32]
    a6cc:	ebfff5da 	bl	7e3c <_Bfree>
    a6d0:	e1a00006 	mov	r0, r6
    a6d4:	e59d1018 	ldr	r1, [sp, #24]
    a6d8:	ebfff5d7 	bl	7e3c <_Bfree>
    a6dc:	eafffcfa 	b	9acc <_strtod_r+0x304>
    a6e0:	e3710001 	cmn	r1, #1
    a6e4:	1a0001ab 	bne	ad98 <_strtod_r+0x15d0>
    a6e8:	e59d1050 	ldr	r1, [sp, #80]	; 0x50
    a6ec:	e59f2394 	ldr	r2, [pc, #916]	; aa88 <_strtod_r+0x12c0>
    a6f0:	e3a00000 	mov	r0, #0
    a6f4:	e3a03022 	mov	r3, #34	; 0x22
    a6f8:	e58d200c 	str	r2, [sp, #12]
    a6fc:	e58d0008 	str	r0, [sp, #8]
    a700:	e1a0b000 	mov	r11, r0
    a704:	e1a07002 	mov	r7, r2
    a708:	e5863000 	str	r3, [r6]
    a70c:	eaffffe4 	b	a6a4 <_strtod_r+0xedc>
    a710:	e59d1008 	ldr	r1, [sp, #8]
    a714:	e3510001 	cmp	r1, #1
    a718:	1affffbe 	bne	a618 <_strtod_r+0xe50>
    a71c:	e59d200c 	ldr	r2, [sp, #12]
    a720:	e3520000 	cmp	r2, #0
    a724:	0a00013c 	beq	ac1c <_strtod_r+0x1454>
    a728:	e1a01002 	mov	r1, r2
    a72c:	eaffffba 	b	a61c <_strtod_r+0xe54>
    a730:	e1a00007 	mov	r0, r7
    a734:	e1a01008 	mov	r1, r8
    a738:	e28f3fb6 	add	r3, pc, #728	; 0x2d8
    a73c:	e893000c 	ldm	r3, {r2, r3}
    a740:	eb001db3 	bl	11e14 <__aeabi_dcmplt>
    a744:	e3500000 	cmp	r0, #0
    a748:	1a000006 	bne	a768 <_strtod_r+0xfa0>
    a74c:	e1a00007 	mov	r0, r7
    a750:	e1a01008 	mov	r1, r8
    a754:	e28f3fb1 	add	r3, pc, #708	; 0x2c4
    a758:	e893000c 	ldm	r3, {r2, r3}
    a75c:	eb001dbe 	bl	11e5c <__aeabi_dcmpgt>
    a760:	e3500000 	cmp	r0, #0
    a764:	0afffe6a 	beq	a114 <_strtod_r+0x94c>
    a768:	e59d1050 	ldr	r1, [sp, #80]	; 0x50
    a76c:	e59db008 	ldr	r11, [sp, #8]
    a770:	e59d700c 	ldr	r7, [sp, #12]
    a774:	eaffffca 	b	a6a4 <_strtod_r+0xedc>
    a778:	0afffda8 	beq	9e20 <_strtod_r+0x658>
    a77c:	e2644000 	rsb	r4, r4, #0
    a780:	e214300f 	ands	r3, r4, #15
    a784:	0a000007 	beq	a7a8 <_strtod_r+0xfe0>
    a788:	e59f229c 	ldr	r2, [pc, #668]	; aa2c <_strtod_r+0x1264>
    a78c:	e0823183 	add	r3, r2, r3, lsl #3
    a790:	e28d1008 	add	r1, sp, #8
    a794:	e8910003 	ldm	r1, {r0, r1}
    a798:	e893000c 	ldm	r3, {r2, r3}
    a79c:	eb001ce0 	bl	11b24 <__aeabi_ddiv>
    a7a0:	e58d0008 	str	r0, [sp, #8]
    a7a4:	e58d100c 	str	r1, [sp, #12]
    a7a8:	e1b04244 	asrs	r4, r4, #4
    a7ac:	0afffd9b 	beq	9e20 <_strtod_r+0x658>
    a7b0:	e354001f 	cmp	r4, #31
    a7b4:	ca00002c 	bgt	a86c <_strtod_r+0x10a4>
    a7b8:	e2141010 	ands	r1, r4, #16
    a7bc:	13a0106a 	movne	r1, #106	; 0x6a
    a7c0:	e3540000 	cmp	r4, #0
    a7c4:	e58d101c 	str	r1, [sp, #28]
    a7c8:	da00000a 	ble	a7f8 <_strtod_r+0x1030>
    a7cc:	e59f5298 	ldr	r5, [pc, #664]	; aa6c <_strtod_r+0x12a4>
    a7d0:	e28d1008 	add	r1, sp, #8
    a7d4:	e8910003 	ldm	r1, {r0, r1}
    a7d8:	e3140001 	tst	r4, #1
    a7dc:	1895000c 	ldmne	r5, {r2, r3}
    a7e0:	1b001c2b 	blne	11894 <__aeabi_dmul>
    a7e4:	e1b040c4 	asrs	r4, r4, #1
    a7e8:	e2855008 	add	r5, r5, #8
    a7ec:	1afffff9 	bne	a7d8 <_strtod_r+0x1010>
    a7f0:	e58d0008 	str	r0, [sp, #8]
    a7f4:	e58d100c 	str	r1, [sp, #12]
    a7f8:	e59d201c 	ldr	r2, [sp, #28]
    a7fc:	e3520000 	cmp	r2, #0
    a800:	0a000012 	beq	a850 <_strtod_r+0x1088>
    a804:	e59d300c 	ldr	r3, [sp, #12]
    a808:	e3c34102 	bic	r4, r3, #-2147483648	; 0x80000000
    a80c:	e1a04a24 	lsr	r4, r4, #20
    a810:	e1a04a04 	lsl	r4, r4, #20
    a814:	e1a03a24 	lsr	r3, r4, #20
    a818:	e263306b 	rsb	r3, r3, #107	; 0x6b
    a81c:	e3530000 	cmp	r3, #0
    a820:	e59d200c 	ldr	r2, [sp, #12]
    a824:	da000009 	ble	a850 <_strtod_r+0x1088>
    a828:	e353001f 	cmp	r3, #31
    a82c:	da000143 	ble	ad40 <_strtod_r+0x1578>
    a830:	e3530034 	cmp	r3, #52	; 0x34
    a834:	d3e01000 	mvnle	r1, #0
    a838:	d2433020 	suble	r3, r3, #32
    a83c:	d0021311 	andle	r1, r2, r1, lsl r3
    a840:	e3a00000 	mov	r0, #0
    a844:	c3a01637 	movgt	r1, #57671680	; 0x3700000
    a848:	e58d0008 	str	r0, [sp, #8]
    a84c:	e58d100c 	str	r1, [sp, #12]
    a850:	e28d1008 	add	r1, sp, #8
    a854:	e8910003 	ldm	r1, {r0, r1}
    a858:	e3a02000 	mov	r2, #0
    a85c:	e3a03000 	mov	r3, #0
    a860:	eb001d65 	bl	11dfc <__aeabi_dcmpeq>
    a864:	e3500000 	cmp	r0, #0
    a868:	0afffd6e 	beq	9e28 <_strtod_r+0x660>
    a86c:	e3a03022 	mov	r3, #34	; 0x22
    a870:	e3a0b000 	mov	r11, #0
    a874:	e5863000 	str	r3, [r6]
    a878:	e1a0700b 	mov	r7, r11
    a87c:	eafffc92 	b	9acc <_strtod_r+0x304>
    a880:	e59d200c 	ldr	r2, [sp, #12]
    a884:	e2824635 	add	r4, r2, #55574528	; 0x3500000
    a888:	e58d400c 	str	r4, [sp, #12]
    a88c:	eafffe19 	b	a0f8 <_strtod_r+0x930>
    a890:	e59d2050 	ldr	r2, [sp, #80]	; 0x50
    a894:	e3520000 	cmp	r2, #0
    a898:	0a000005 	beq	a8b4 <_strtod_r+0x10ec>
    a89c:	e28d0058 	add	r0, sp, #88	; 0x58
    a8a0:	e3a01035 	mov	r1, #53	; 0x35
    a8a4:	ebfff851 	bl	89f0 <__copybits>
    a8a8:	e1a00006 	mov	r0, r6
    a8ac:	e59d1050 	ldr	r1, [sp, #80]	; 0x50
    a8b0:	ebfff561 	bl	7e3c <_Bfree>
    a8b4:	e59d3054 	ldr	r3, [sp, #84]	; 0x54
    a8b8:	e35b0006 	cmp	r11, #6
    a8bc:	979ff10b 	ldrls	pc, [pc, r11, lsl #2]
    a8c0:	ea00000a 	b	a8f0 <_strtod_r+0x1128>
    a8c4:	0000a934 	.word	0x0000a934
    a8c8:	0000a944 	.word	0x0000a944
    a8cc:	0000a920 	.word	0x0000a920
    a8d0:	0000a90c 	.word	0x0000a90c
    a8d4:	0000a8e0 	.word	0x0000a8e0
    a8d8:	0000a944 	.word	0x0000a944
    a8dc:	0000a934 	.word	0x0000a934
    a8e0:	e3e03102 	mvn	r3, #-2147483648	; 0x80000000
    a8e4:	e3e00000 	mvn	r0, #0
    a8e8:	e58d300c 	str	r3, [sp, #12]
    a8ec:	e58d0008 	str	r0, [sp, #8]
    a8f0:	e3140008 	tst	r4, #8
    a8f4:	0afffd03 	beq	9d08 <_strtod_r+0x540>
    a8f8:	e59d100c 	ldr	r1, [sp, #12]
    a8fc:	e3813102 	orr	r3, r1, #-2147483648	; 0x80000000
    a900:	e1a07003 	mov	r7, r3
    a904:	e59db008 	ldr	r11, [sp, #8]
    a908:	eafffc6f 	b	9acc <_strtod_r+0x304>
    a90c:	e59f1174 	ldr	r1, [pc, #372]	; aa88 <_strtod_r+0x12c0>
    a910:	e3a02000 	mov	r2, #0
    a914:	e58d100c 	str	r1, [sp, #12]
    a918:	e58d2008 	str	r2, [sp, #8]
    a91c:	eafffff3 	b	a8f0 <_strtod_r+0x1128>
    a920:	e59d2058 	ldr	r2, [sp, #88]	; 0x58
    a924:	e59d305c 	ldr	r3, [sp, #92]	; 0x5c
    a928:	e58d2008 	str	r2, [sp, #8]
    a92c:	e58d300c 	str	r3, [sp, #12]
    a930:	eaffffee 	b	a8f0 <_strtod_r+0x1128>
    a934:	e3a01000 	mov	r1, #0
    a938:	e58d100c 	str	r1, [sp, #12]
    a93c:	e58d1008 	str	r1, [sp, #8]
    a940:	eaffffea 	b	a8f0 <_strtod_r+0x1128>
    a944:	e59d105c 	ldr	r1, [sp, #92]	; 0x5c
    a948:	e2833e43 	add	r3, r3, #1072	; 0x430
    a94c:	e2832003 	add	r2, r3, #3
    a950:	e59d0058 	ldr	r0, [sp, #88]	; 0x58
    a954:	e3c13601 	bic	r3, r1, #1048576	; 0x100000
    a958:	e1833a02 	orr	r3, r3, r2, lsl #20
    a95c:	e58d0008 	str	r0, [sp, #8]
    a960:	e58d300c 	str	r3, [sp, #12]
    a964:	eaffffe1 	b	a8f0 <_strtod_r+0x1128>
    a968:	e59d0024 	ldr	r0, [sp, #36]	; 0x24
    a96c:	e2693025 	rsb	r3, r9, #37	; 0x25
    a970:	e1500003 	cmp	r0, r3
    a974:	cafffd18 	bgt	9ddc <_strtod_r+0x614>
    a978:	e59f40ac 	ldr	r4, [pc, #172]	; aa2c <_strtod_r+0x1264>
    a97c:	e269900f 	rsb	r9, r9, #15
    a980:	e0841189 	add	r1, r4, r9, lsl #3
    a984:	e28d3008 	add	r3, sp, #8
    a988:	e893000c 	ldm	r3, {r2, r3}
    a98c:	e8910003 	ldm	r1, {r0, r1}
    a990:	eb001bbf 	bl	11894 <__aeabi_dmul>
    a994:	e59d2024 	ldr	r2, [sp, #36]	; 0x24
    a998:	e0699002 	rsb	r9, r9, r2
    a99c:	e0844189 	add	r4, r4, r9, lsl #3
    a9a0:	e894000c 	ldm	r4, {r2, r3}
    a9a4:	eb001bba 	bl	11894 <__aeabi_dmul>
    a9a8:	e1a0b000 	mov	r11, r0
    a9ac:	e1a07001 	mov	r7, r1
    a9b0:	eafffc45 	b	9acc <_strtod_r+0x304>
    a9b4:	e59d3024 	ldr	r3, [sp, #36]	; 0x24
    a9b8:	e3730016 	cmn	r3, #22
    a9bc:	bafffd06 	blt	9ddc <_strtod_r+0x614>
    a9c0:	e59d0024 	ldr	r0, [sp, #36]	; 0x24
    a9c4:	e59f3060 	ldr	r3, [pc, #96]	; aa2c <_strtod_r+0x1264>
    a9c8:	e0433180 	sub	r3, r3, r0, lsl #3
    a9cc:	e893000c 	ldm	r3, {r2, r3}
    a9d0:	e28d1008 	add	r1, sp, #8
    a9d4:	e8910003 	ldm	r1, {r0, r1}
    a9d8:	eb001c51 	bl	11b24 <__aeabi_ddiv>
    a9dc:	e1a0b000 	mov	r11, r0
    a9e0:	e1a07001 	mov	r7, r1
    a9e4:	eafffc38 	b	9acc <_strtod_r+0x304>
    a9e8:	e1a01000 	mov	r1, r0
    a9ec:	eaffff3e 	b	a6ec <_strtod_r+0xf24>
    a9f0:	e3590010 	cmp	r9, #16
    a9f4:	d08aa10a 	addle	r10, r10, r10, lsl #2
    a9f8:	d082a08a 	addle	r10, r2, r10, lsl #1
    a9fc:	e3a03000 	mov	r3, #0
    aa00:	eafffe29 	b	a2ac <_strtod_r+0xae4>
    aa04:	e1a03007 	mov	r3, r7
    aa08:	eafffce8 	b	9db0 <_strtod_r+0x5e8>
    aa0c:	e1a00000 	nop			; (mov r0, r0)
    aa10:	94a03595 	.word	0x94a03595
    aa14:	3fcfffff 	.word	0x3fcfffff
    aa18:	94a03595 	.word	0x94a03595
    aa1c:	3fdfffff 	.word	0x3fdfffff
    aa20:	35afe535 	.word	0x35afe535
    aa24:	3fe00000 	.word	0x3fe00000
    aa28:	00004e1f 	.word	0x00004e1f
    aa2c:	000134f0 	.word	0x000134f0
    aa30:	00013663 	.word	0x00013663
    aa34:	fff80000 	.word	0xfff80000
    aa38:	3ff00000 	.word	0x3ff00000
    aa3c:	7fe00000 	.word	0x7fe00000
    aa40:	ffc00000 	.word	0xffc00000
    aa44:	41dfffff 	.word	0x41dfffff
    aa48:	000135e0 	.word	0x000135e0
    aa4c:	7ca00000 	.word	0x7ca00000
    aa50:	7c900000 	.word	0x7c900000
    aa54:	00013657 	.word	0x00013657
    aa58:	0001365b 	.word	0x0001365b
    aa5c:	fffffbe3 	.word	0xfffffbe3
    aa60:	00013608 	.word	0x00013608
    aa64:	7c9fffff 	.word	0x7c9fffff
    aa68:	bff00000 	.word	0xbff00000
    aa6c:	00013630 	.word	0x00013630
    aa70:	000fffff 	.word	0x000fffff
    aa74:	39500000 	.word	0x39500000
    aa78:	bfe00000 	.word	0xbfe00000
    aa7c:	3fe00000 	.word	0x3fe00000
    aa80:	0001361c 	.word	0x0001361c
    aa84:	7fefffff 	.word	0x7fefffff
    aa88:	7ff00000 	.word	0x7ff00000
    aa8c:	e59d1034 	ldr	r1, [sp, #52]	; 0x34
    aa90:	e3510000 	cmp	r1, #0
    aa94:	e59db02c 	ldr	r11, [sp, #44]	; 0x2c
    aa98:	e59d7030 	ldr	r7, [sp, #48]	; 0x30
    aa9c:	0a000070 	beq	ac64 <_strtod_r+0x149c>
    aaa0:	e59d300c 	ldr	r3, [sp, #12]
    aaa4:	e3c324ff 	bic	r2, r3, #-16777216	; 0xff000000
    aaa8:	e51f3040 	ldr	r3, [pc, #-64]	; aa70 <_strtod_r+0x12a8>
    aaac:	e3c2260f 	bic	r2, r2, #15728640	; 0xf00000
    aab0:	e1520003 	cmp	r2, r3
    aab4:	e59d200c 	ldr	r2, [sp, #12]
    aab8:	0a0000a5 	beq	ad54 <_strtod_r+0x158c>
    aabc:	e59d3038 	ldr	r3, [sp, #56]	; 0x38
    aac0:	e3530000 	cmp	r3, #0
    aac4:	0a000072 	beq	ac94 <_strtod_r+0x14cc>
    aac8:	e59d000c 	ldr	r0, [sp, #12]
    aacc:	e1130000 	tst	r3, r0
    aad0:	0a00000d 	beq	ab0c <_strtod_r+0x1344>
    aad4:	e59d1034 	ldr	r1, [sp, #52]	; 0x34
    aad8:	e3510000 	cmp	r1, #0
    aadc:	e59d201c 	ldr	r2, [sp, #28]
    aae0:	e28d1008 	add	r1, sp, #8
    aae4:	e8910003 	ldm	r1, {r0, r1}
    aae8:	0a000070 	beq	acb0 <_strtod_r+0x14e8>
    aaec:	eb0000f7 	bl	aed0 <sulp>
    aaf0:	e1a02000 	mov	r2, r0
    aaf4:	e1a03001 	mov	r3, r1
    aaf8:	e1a0000b 	mov	r0, r11
    aafc:	e1a01007 	mov	r1, r7
    ab00:	eb001a5f 	bl	11484 <__adddf3>
    ab04:	e1a0b000 	mov	r11, r0
    ab08:	e1a07001 	mov	r7, r1
    ab0c:	e59d301c 	ldr	r3, [sp, #28]
    ab10:	e3530000 	cmp	r3, #0
    ab14:	0a000015 	beq	ab70 <_strtod_r+0x13a8>
    ab18:	e51f00ac 	ldr	r0, [pc, #-172]	; aa74 <_strtod_r+0x12ac>
    ab1c:	e3a02000 	mov	r2, #0
    ab20:	e58d0044 	str	r0, [sp, #68]	; 0x44
    ab24:	e58d2040 	str	r2, [sp, #64]	; 0x40
    ab28:	e28d3040 	add	r3, sp, #64	; 0x40
    ab2c:	e893000c 	ldm	r3, {r2, r3}
    ab30:	e1a0000b 	mov	r0, r11
    ab34:	e1a01007 	mov	r1, r7
    ab38:	eb001b55 	bl	11894 <__aeabi_dmul>
    ab3c:	e1a03001 	mov	r3, r1
    ab40:	e1a02000 	mov	r2, r0
    ab44:	e58d2008 	str	r2, [sp, #8]
    ab48:	e58d300c 	str	r3, [sp, #12]
    ab4c:	e59d300c 	ldr	r3, [sp, #12]
    ab50:	e3530000 	cmp	r3, #0
    ab54:	e1a0b000 	mov	r11, r0
    ab58:	e1a07001 	mov	r7, r1
    ab5c:	1a000003 	bne	ab70 <_strtod_r+0x13a8>
    ab60:	e59d0008 	ldr	r0, [sp, #8]
    ab64:	e3500000 	cmp	r0, #0
    ab68:	03a03022 	moveq	r3, #34	; 0x22
    ab6c:	05863000 	streq	r3, [r6]
    ab70:	e59d1050 	ldr	r1, [sp, #80]	; 0x50
    ab74:	eafffeca 	b	a6a4 <_strtod_r+0xedc>
    ab78:	e59d0034 	ldr	r0, [sp, #52]	; 0x34
    ab7c:	e3500000 	cmp	r0, #0
    ab80:	e59db02c 	ldr	r11, [sp, #44]	; 0x2c
    ab84:	e59d7030 	ldr	r7, [sp, #48]	; 0x30
    ab88:	1affffdf 	bne	ab0c <_strtod_r+0x1344>
    ab8c:	e59d1008 	ldr	r1, [sp, #8]
    ab90:	e3510000 	cmp	r1, #0
    ab94:	1affffdc 	bne	ab0c <_strtod_r+0x1344>
    ab98:	e59d200c 	ldr	r2, [sp, #12]
    ab9c:	e3c234ff 	bic	r3, r2, #-16777216	; 0xff000000
    aba0:	e3c3360f 	bic	r3, r3, #15728640	; 0xf00000
    aba4:	e3530000 	cmp	r3, #0
    aba8:	1affffd7 	bne	ab0c <_strtod_r+0x1344>
    abac:	e3c24102 	bic	r4, r2, #-2147483648	; 0x80000000
    abb0:	e1a04a24 	lsr	r4, r4, #20
    abb4:	e1a04a04 	lsl	r4, r4, #20
    abb8:	e354066b 	cmp	r4, #112197632	; 0x6b00000
    abbc:	9affffd2 	bls	ab0c <_strtod_r+0x1344>
    abc0:	e59d0018 	ldr	r0, [sp, #24]
    abc4:	e5903014 	ldr	r3, [r0, #20]
    abc8:	e3530000 	cmp	r3, #0
    abcc:	1a000002 	bne	abdc <_strtod_r+0x1414>
    abd0:	e5903010 	ldr	r3, [r0, #16]
    abd4:	e3530001 	cmp	r3, #1
    abd8:	daffffcb 	ble	ab0c <_strtod_r+0x1344>
    abdc:	e59d1018 	ldr	r1, [sp, #24]
    abe0:	e3a02001 	mov	r2, #1
    abe4:	e1a00006 	mov	r0, r6
    abe8:	ebfff60b 	bl	841c <__lshift>
    abec:	e1a0100a 	mov	r1, r10
    abf0:	e58d0018 	str	r0, [sp, #24]
    abf4:	ebfff64b 	bl	8528 <__mcmp>
    abf8:	e3500000 	cmp	r0, #0
    abfc:	daffffc2 	ble	ab0c <_strtod_r+0x1344>
    ac00:	e59d001c 	ldr	r0, [sp, #28]
    ac04:	e3500000 	cmp	r0, #0
    ac08:	0a000043 	beq	ad1c <_strtod_r+0x1554>
    ac0c:	e354066b 	cmp	r4, #112197632	; 0x6b00000
    ac10:	8a000041 	bhi	ad1c <_strtod_r+0x1554>
    ac14:	e3540637 	cmp	r4, #57671680	; 0x3700000
    ac18:	8affffbe 	bhi	ab18 <_strtod_r+0x1350>
    ac1c:	e3a03022 	mov	r3, #34	; 0x22
    ac20:	e3a0b000 	mov	r11, #0
    ac24:	e5863000 	str	r3, [r6]
    ac28:	e1a0700b 	mov	r7, r11
    ac2c:	e59d1050 	ldr	r1, [sp, #80]	; 0x50
    ac30:	eafffe9b 	b	a6a4 <_strtod_r+0xedc>
    ac34:	e59d3040 	ldr	r3, [sp, #64]	; 0x40
    ac38:	e3730001 	cmn	r3, #1
    ac3c:	1afffe64 	bne	a5d4 <_strtod_r+0xe0c>
    ac40:	eafffea8 	b	a6e8 <_strtod_r+0xf20>
    ac44:	e59d2034 	ldr	r2, [sp, #52]	; 0x34
    ac48:	e51f31d8 	ldr	r3, [pc, #-472]	; aa78 <_strtod_r+0x12b0>
    ac4c:	e51fb1d8 	ldr	r11, [pc, #-472]	; aa7c <_strtod_r+0x12b4>
    ac50:	e1a07002 	mov	r7, r2
    ac54:	eafffe26 	b	a4f4 <_strtod_r+0xd2c>
    ac58:	e2811001 	add	r1, r1, #1
    ac5c:	e58d104c 	str	r1, [sp, #76]	; 0x4c
    ac60:	eafffdef 	b	a424 <_strtod_r+0xc5c>
    ac64:	e59d200c 	ldr	r2, [sp, #12]
    ac68:	e3c234ff 	bic	r3, r2, #-16777216	; 0xff000000
    ac6c:	e3c3360f 	bic	r3, r3, #15728640	; 0xf00000
    ac70:	e3530000 	cmp	r3, #0
    ac74:	1affff90 	bne	aabc <_strtod_r+0x12f4>
    ac78:	e59d3008 	ldr	r3, [sp, #8]
    ac7c:	e3530000 	cmp	r3, #0
    ac80:	1affff8d 	bne	aabc <_strtod_r+0x12f4>
    ac84:	e3c24102 	bic	r4, r2, #-2147483648	; 0x80000000
    ac88:	e1a04a24 	lsr	r4, r4, #20
    ac8c:	e1a04a04 	lsl	r4, r4, #20
    ac90:	eaffffda 	b	ac00 <_strtod_r+0x1438>
    ac94:	e59d303c 	ldr	r3, [sp, #60]	; 0x3c
    ac98:	e59d0008 	ldr	r0, [sp, #8]
    ac9c:	e1130000 	tst	r3, r0
    aca0:	0affff99 	beq	ab0c <_strtod_r+0x1344>
    aca4:	eaffff8a 	b	aad4 <_strtod_r+0x130c>
    aca8:	e3a0a000 	mov	r10, #0
    acac:	eafffda0 	b	a334 <_strtod_r+0xb6c>
    acb0:	eb000086 	bl	aed0 <sulp>
    acb4:	e1a02000 	mov	r2, r0
    acb8:	e1a03001 	mov	r3, r1
    acbc:	e1a0000b 	mov	r0, r11
    acc0:	e1a01007 	mov	r1, r7
    acc4:	eb0019ed 	bl	11480 <__aeabi_dsub>
    acc8:	e3a02000 	mov	r2, #0
    accc:	e3a03000 	mov	r3, #0
    acd0:	e1a0b000 	mov	r11, r0
    acd4:	e1a07001 	mov	r7, r1
    acd8:	eb001c47 	bl	11dfc <__aeabi_dcmpeq>
    acdc:	e3500000 	cmp	r0, #0
    ace0:	1affffcd 	bne	ac1c <_strtod_r+0x1454>
    ace4:	eaffff88 	b	ab0c <_strtod_r+0x1344>
    ace8:	e28d004c 	add	r0, sp, #76	; 0x4c
    acec:	e51f1274 	ldr	r1, [pc, #-628]	; aa80 <_strtod_r+0x12b8>
    acf0:	e28d2058 	add	r2, sp, #88	; 0x58
    acf4:	eb0012c7 	bl	f818 <__hexnan>
    acf8:	e3500005 	cmp	r0, #5
    acfc:	1afffbfd 	bne	9cf8 <_strtod_r+0x530>
    ad00:	e59d305c 	ldr	r3, [sp, #92]	; 0x5c
    ad04:	e59d1058 	ldr	r1, [sp, #88]	; 0x58
    ad08:	e383347f 	orr	r3, r3, #2130706432	; 0x7f000000
    ad0c:	e383360f 	orr	r3, r3, #15728640	; 0xf00000
    ad10:	e58d300c 	str	r3, [sp, #12]
    ad14:	e58d1008 	str	r1, [sp, #8]
    ad18:	eafffbfa 	b	9d08 <_strtod_r+0x540>
    ad1c:	e2444601 	sub	r4, r4, #1048576	; 0x100000
    ad20:	e1e04a24 	mvn	r4, r4, lsr #20
    ad24:	e1e01a04 	mvn	r1, r4, lsl #20
    ad28:	e3e02000 	mvn	r2, #0
    ad2c:	e58d100c 	str	r1, [sp, #12]
    ad30:	e58d2008 	str	r2, [sp, #8]
    ad34:	e1a0b002 	mov	r11, r2
    ad38:	e1a07001 	mov	r7, r1
    ad3c:	eaffff72 	b	ab0c <_strtod_r+0x1344>
    ad40:	e59d0008 	ldr	r0, [sp, #8]
    ad44:	e3e02000 	mvn	r2, #0
    ad48:	e0002312 	and	r2, r0, r2, lsl r3
    ad4c:	e58d2008 	str	r2, [sp, #8]
    ad50:	eafffebe 	b	a850 <_strtod_r+0x1088>
    ad54:	e59d001c 	ldr	r0, [sp, #28]
    ad58:	e3500000 	cmp	r0, #0
    ad5c:	e59d1008 	ldr	r1, [sp, #8]
    ad60:	0a000015 	beq	adbc <_strtod_r+0x15f4>
    ad64:	e51f32e4 	ldr	r3, [pc, #-740]	; aa88 <_strtod_r+0x12c0>
    ad68:	e0023003 	and	r3, r2, r3
    ad6c:	e353066a 	cmp	r3, #111149056	; 0x6a00000
    ad70:	8a000011 	bhi	adbc <_strtod_r+0x15f4>
    ad74:	e1a03a23 	lsr	r3, r3, #20
    ad78:	e263306b 	rsb	r3, r3, #107	; 0x6b
    ad7c:	e3e00000 	mvn	r0, #0
    ad80:	e1a03310 	lsl	r3, r0, r3
    ad84:	e1510003 	cmp	r1, r3
    ad88:	1affff4b 	bne	aabc <_strtod_r+0x12f4>
    ad8c:	e51f3310 	ldr	r3, [pc, #-784]	; aa84 <_strtod_r+0x12bc>
    ad90:	e1520003 	cmp	r2, r3
    ad94:	0afffe51 	beq	a6e0 <_strtod_r+0xf18>
    ad98:	e51f3318 	ldr	r3, [pc, #-792]	; aa88 <_strtod_r+0x12c0>
    ad9c:	e0023003 	and	r3, r2, r3
    ada0:	e2833601 	add	r3, r3, #1048576	; 0x100000
    ada4:	e3a01000 	mov	r1, #0
    ada8:	e58d300c 	str	r3, [sp, #12]
    adac:	e58d1008 	str	r1, [sp, #8]
    adb0:	e1a0b001 	mov	r11, r1
    adb4:	e1a07003 	mov	r7, r3
    adb8:	eaffff53 	b	ab0c <_strtod_r+0x1344>
    adbc:	e3e03000 	mvn	r3, #0
    adc0:	eaffffef 	b	ad84 <_strtod_r+0x15bc>

0000adc4 <strtod>:
    adc4:	e59f300c 	ldr	r3, [pc, #12]	; add8 <strtod+0x14>
    adc8:	e1a02001 	mov	r2, r1
    adcc:	e1a01000 	mov	r1, r0
    add0:	e5930000 	ldr	r0, [r3]
    add4:	eafffa7b 	b	97c8 <_strtod_r>
    add8:	00013830 	.word	0x00013830

0000addc <strtof>:
    addc:	e92d41f0 	push	{r4, r5, r6, r7, r8, lr}
    ade0:	e59f70d8 	ldr	r7, [pc, #216]	; aec0 <strtof+0xe4>
    ade4:	e1a02001 	mov	r2, r1
    ade8:	e1a01000 	mov	r1, r0
    adec:	e5970000 	ldr	r0, [r7]
    adf0:	ebfffa74 	bl	97c8 <_strtod_r>
    adf4:	e1a05001 	mov	r5, r1
    adf8:	e1a04000 	mov	r4, r0
    adfc:	eb001c48 	bl	11f24 <__aeabi_d2f>
    ae00:	e3a01000 	mov	r1, #0
    ae04:	e1a06000 	mov	r6, r0
    ae08:	eb001c94 	bl	12060 <__aeabi_fcmpeq>
    ae0c:	e3500000 	cmp	r0, #0
    ae10:	e3a08001 	mov	r8, #1
    ae14:	e3a03000 	mov	r3, #0
    ae18:	01a08000 	moveq	r8, r0
    ae1c:	e1a01005 	mov	r1, r5
    ae20:	e1a00004 	mov	r0, r4
    ae24:	e3a02000 	mov	r2, #0
    ae28:	eb001bf3 	bl	11dfc <__aeabi_dcmpeq>
    ae2c:	e3500000 	cmp	r0, #0
    ae30:	e3a03001 	mov	r3, #1
    ae34:	13a03000 	movne	r3, #0
    ae38:	e0088003 	and	r8, r8, r3
    ae3c:	e3180001 	tst	r8, #1
    ae40:	1a000010 	bne	ae88 <strtof+0xac>
    ae44:	e1a00006 	mov	r0, r6
    ae48:	e59f1074 	ldr	r1, [pc, #116]	; aec4 <strtof+0xe8>
    ae4c:	eb001c9b 	bl	120c0 <__aeabi_fcmpgt>
    ae50:	e3500000 	cmp	r0, #0
    ae54:	1a000011 	bne	aea0 <strtof+0xc4>
    ae58:	e1a00006 	mov	r0, r6
    ae5c:	e3e01502 	mvn	r1, #8388608	; 0x800000
    ae60:	eb001c84 	bl	12078 <__aeabi_fcmplt>
    ae64:	e3500000 	cmp	r0, #0
    ae68:	0a000009 	beq	ae94 <strtof+0xb8>
    ae6c:	e1a00004 	mov	r0, r4
    ae70:	e1a01005 	mov	r1, r5
    ae74:	e3e02000 	mvn	r2, #0
    ae78:	e3e03601 	mvn	r3, #1048576	; 0x100000
    ae7c:	eb001be4 	bl	11e14 <__aeabi_dcmplt>
    ae80:	e3500000 	cmp	r0, #0
    ae84:	1a000002 	bne	ae94 <strtof+0xb8>
    ae88:	e5973000 	ldr	r3, [r7]
    ae8c:	e3a02022 	mov	r2, #34	; 0x22
    ae90:	e5832000 	str	r2, [r3]
    ae94:	e1a00006 	mov	r0, r6
    ae98:	e8bd41f0 	pop	{r4, r5, r6, r7, r8, lr}
    ae9c:	e12fff1e 	bx	lr
    aea0:	e1a00004 	mov	r0, r4
    aea4:	e1a01005 	mov	r1, r5
    aea8:	e3e02000 	mvn	r2, #0
    aeac:	e59f3014 	ldr	r3, [pc, #20]	; aec8 <strtof+0xec>
    aeb0:	eb001be9 	bl	11e5c <__aeabi_dcmpgt>
    aeb4:	e3500000 	cmp	r0, #0
    aeb8:	0afffff2 	beq	ae88 <strtof+0xac>
    aebc:	eaffffe5 	b	ae58 <strtof+0x7c>
    aec0:	00013830 	.word	0x00013830
    aec4:	7f7fffff 	.word	0x7f7fffff
    aec8:	7fefffff 	.word	0x7fefffff
    aecc:	e1a00000 	nop			; (mov r0, r0)

0000aed0 <sulp>:
    aed0:	e92d41f0 	push	{r4, r5, r6, r7, r8, lr}
    aed4:	e1a08002 	mov	r8, r2
    aed8:	e1a05001 	mov	r5, r1
    aedc:	ebfff5fa 	bl	86cc <__ulp>
    aee0:	e3580000 	cmp	r8, #0
    aee4:	e1a06000 	mov	r6, r0
    aee8:	e1a07001 	mov	r7, r1
    aeec:	0a00000c 	beq	af24 <sulp+0x54>
    aef0:	e3c53102 	bic	r3, r5, #-2147483648	; 0x80000000
    aef4:	e1a03a23 	lsr	r3, r3, #20
    aef8:	e1a03a03 	lsl	r3, r3, #20
    aefc:	e1a03a23 	lsr	r3, r3, #20
    af00:	e263306b 	rsb	r3, r3, #107	; 0x6b
    af04:	e3530000 	cmp	r3, #0
    af08:	da000005 	ble	af24 <sulp+0x54>
    af0c:	e1a03a03 	lsl	r3, r3, #20
    af10:	e283c5ff 	add	r12, r3, #1069547520	; 0x3fc00000
    af14:	e28c3603 	add	r3, r12, #3145728	; 0x300000
    af18:	e3a02000 	mov	r2, #0
    af1c:	eb001a5c 	bl	11894 <__aeabi_dmul>
    af20:	ea000001 	b	af2c <sulp+0x5c>
    af24:	e1a00006 	mov	r0, r6
    af28:	e1a01007 	mov	r1, r7
    af2c:	e8bd41f0 	pop	{r4, r5, r6, r7, r8, lr}
    af30:	e12fff1e 	bx	lr

0000af34 <_strtol_r>:
    af34:	e92d4ff0 	push	{r4, r5, r6, r7, r8, r9, r10, r11, lr}
    af38:	e59fc1c0 	ldr	r12, [pc, #448]	; b100 <_strtol_r+0x1cc>
    af3c:	e24dd014 	sub	sp, sp, #20
    af40:	e1a0b001 	mov	r11, r1
    af44:	e59c7000 	ldr	r7, [r12]
    af48:	e58d000c 	str	r0, [sp, #12]
    af4c:	e1a08003 	mov	r8, r3
    af50:	ea000000 	b	af58 <_strtol_r+0x24>
    af54:	e1a01004 	mov	r1, r4
    af58:	e1a04001 	mov	r4, r1
    af5c:	e4d45001 	ldrb	r5, [r4], #1
    af60:	e0873005 	add	r3, r7, r5
    af64:	e5d33001 	ldrb	r3, [r3, #1]
    af68:	e2133008 	ands	r3, r3, #8
    af6c:	1afffff8 	bne	af54 <_strtol_r+0x20>
    af70:	e355002d 	cmp	r5, #45	; 0x2d
    af74:	0a000051 	beq	b0c0 <_strtol_r+0x18c>
    af78:	e355002b 	cmp	r5, #43	; 0x2b
    af7c:	05d15001 	ldrbeq	r5, [r1, #1]
    af80:	02814002 	addeq	r4, r1, #2
    af84:	e3d81010 	bics	r1, r8, #16
    af88:	1a000007 	bne	afac <_strtol_r+0x78>
    af8c:	e2781001 	rsbs	r1, r8, #1
    af90:	33a01000 	movcc	r1, #0
    af94:	e3550030 	cmp	r5, #48	; 0x30
    af98:	0a00004c 	beq	b0d0 <_strtol_r+0x19c>
    af9c:	e3510000 	cmp	r1, #0
    afa0:	13a0800a 	movne	r8, #10
    afa4:	11a0a008 	movne	r10, r8
    afa8:	1a000000 	bne	afb0 <_strtol_r+0x7c>
    afac:	e1a0a008 	mov	r10, r8
    afb0:	e3530000 	cmp	r3, #0
    afb4:	03e06102 	mvneq	r6, #-2147483648	; 0x80000000
    afb8:	13a06102 	movne	r6, #-2147483648	; 0x80000000
    afbc:	e1a00006 	mov	r0, r6
    afc0:	e1a0100a 	mov	r1, r10
    afc4:	e98d000c 	stmib	sp, {r2, r3}
    afc8:	eb001921 	bl	11454 <__aeabi_uidivmod>
    afcc:	e1a00006 	mov	r0, r6
    afd0:	e1a09001 	mov	r9, r1
    afd4:	e3a06000 	mov	r6, #0
    afd8:	e1a0100a 	mov	r1, r10
    afdc:	eb0018df 	bl	11360 <__aeabi_uidiv>
    afe0:	e1a01006 	mov	r1, r6
    afe4:	e99d000c 	ldmib	sp, {r2, r3}
    afe8:	ea000009 	b	b014 <_strtol_r+0xe0>
    afec:	e1550009 	cmp	r5, r9
    aff0:	d3a0c000 	movle	r12, #0
    aff4:	c3a0c001 	movgt	r12, #1
    aff8:	e1510000 	cmp	r1, r0
    affc:	13a0c000 	movne	r12, #0
    b000:	e35c0000 	cmp	r12, #0
    b004:	1a000014 	bne	b05c <_strtol_r+0x128>
    b008:	e021519a 	mla	r1, r10, r1, r5
    b00c:	e3a06001 	mov	r6, #1
    b010:	e4d45001 	ldrb	r5, [r4], #1
    b014:	e087c005 	add	r12, r7, r5
    b018:	e5dcc001 	ldrb	r12, [r12, #1]
    b01c:	e31c0004 	tst	r12, #4
    b020:	12455030 	subne	r5, r5, #48	; 0x30
    b024:	1a000005 	bne	b040 <_strtol_r+0x10c>
    b028:	e21cc003 	ands	r12, r12, #3
    b02c:	0a00000c 	beq	b064 <_strtol_r+0x130>
    b030:	e35c0001 	cmp	r12, #1
    b034:	13a0c057 	movne	r12, #87	; 0x57
    b038:	03a0c037 	moveq	r12, #55	; 0x37
    b03c:	e06c5005 	rsb	r5, r12, r5
    b040:	e1580005 	cmp	r8, r5
    b044:	da000006 	ble	b064 <_strtol_r+0x130>
    b048:	e1510000 	cmp	r1, r0
    b04c:	93a0c000 	movls	r12, #0
    b050:	83a0c001 	movhi	r12, #1
    b054:	e19c6fa6 	orrs	r6, r12, r6, lsr #31
    b058:	0affffe3 	beq	afec <_strtol_r+0xb8>
    b05c:	e3e06000 	mvn	r6, #0
    b060:	eaffffea 	b	b010 <_strtol_r+0xdc>
    b064:	e3760001 	cmn	r6, #1
    b068:	0a00000a 	beq	b098 <_strtol_r+0x164>
    b06c:	e3530000 	cmp	r3, #0
    b070:	12611000 	rsbne	r1, r1, #0
    b074:	e3520000 	cmp	r2, #0
    b078:	e1a00001 	mov	r0, r1
    b07c:	0a000002 	beq	b08c <_strtol_r+0x158>
    b080:	e3560000 	cmp	r6, #0
    b084:	1a00000b 	bne	b0b8 <_strtol_r+0x184>
    b088:	e582b000 	str	r11, [r2]
    b08c:	e28dd014 	add	sp, sp, #20
    b090:	e8bd4ff0 	pop	{r4, r5, r6, r7, r8, r9, r10, r11, lr}
    b094:	e12fff1e 	bx	lr
    b098:	e3530000 	cmp	r3, #0
    b09c:	e59d100c 	ldr	r1, [sp, #12]
    b0a0:	03e00102 	mvneq	r0, #-2147483648	; 0x80000000
    b0a4:	13a00102 	movne	r0, #-2147483648	; 0x80000000
    b0a8:	e3a03022 	mov	r3, #34	; 0x22
    b0ac:	e3520000 	cmp	r2, #0
    b0b0:	e5813000 	str	r3, [r1]
    b0b4:	0afffff4 	beq	b08c <_strtol_r+0x158>
    b0b8:	e244b001 	sub	r11, r4, #1
    b0bc:	eafffff1 	b	b088 <_strtol_r+0x154>
    b0c0:	e2814002 	add	r4, r1, #2
    b0c4:	e5d15001 	ldrb	r5, [r1, #1]
    b0c8:	e3a03001 	mov	r3, #1
    b0cc:	eaffffac 	b	af84 <_strtol_r+0x50>
    b0d0:	e5d40000 	ldrb	r0, [r4]
    b0d4:	e20000df 	and	r0, r0, #223	; 0xdf
    b0d8:	e3500058 	cmp	r0, #88	; 0x58
    b0dc:	0a000002 	beq	b0ec <_strtol_r+0x1b8>
    b0e0:	e3510000 	cmp	r1, #0
    b0e4:	13a08008 	movne	r8, #8
    b0e8:	eaffffaf 	b	afac <_strtol_r+0x78>
    b0ec:	e3a08010 	mov	r8, #16
    b0f0:	e5d45001 	ldrb	r5, [r4, #1]
    b0f4:	e1a0a008 	mov	r10, r8
    b0f8:	e2844002 	add	r4, r4, #2
    b0fc:	eaffffab 	b	afb0 <_strtol_r+0x7c>
    b100:	00013828 	.word	0x00013828

0000b104 <strtol>:
    b104:	e59fc01c 	ldr	r12, [pc, #28]	; b128 <strtol+0x24>
    b108:	e52d4004 	push	{r4}		; (str r4, [sp, #-4]!)
    b10c:	e1a04001 	mov	r4, r1
    b110:	e1a03002 	mov	r3, r2
    b114:	e1a01000 	mov	r1, r0
    b118:	e1a02004 	mov	r2, r4
    b11c:	e59c0000 	ldr	r0, [r12]
    b120:	e49d4004 	pop	{r4}		; (ldr r4, [sp], #4)
    b124:	eaffff82 	b	af34 <_strtol_r>
    b128:	00013830 	.word	0x00013830

0000b12c <_strtoul_r>:
    b12c:	e92d4ff0 	push	{r4, r5, r6, r7, r8, r9, r10, r11, lr}
    b130:	e59fc1d0 	ldr	r12, [pc, #464]	; b308 <_strtoul_r+0x1dc>
    b134:	e24dd00c 	sub	sp, sp, #12
    b138:	e1a09001 	mov	r9, r1
    b13c:	e59c7000 	ldr	r7, [r12]
    b140:	e58d0004 	str	r0, [sp, #4]
    b144:	e1a0b002 	mov	r11, r2
    b148:	e1a0a003 	mov	r10, r3
    b14c:	ea000000 	b	b154 <_strtoul_r+0x28>
    b150:	e1a01004 	mov	r1, r4
    b154:	e1a04001 	mov	r4, r1
    b158:	e4d45001 	ldrb	r5, [r4], #1
    b15c:	e0873005 	add	r3, r7, r5
    b160:	e5d32001 	ldrb	r2, [r3, #1]
    b164:	e2122008 	ands	r2, r2, #8
    b168:	1afffff8 	bne	b150 <_strtoul_r+0x24>
    b16c:	e355002d 	cmp	r5, #45	; 0x2d
    b170:	0a000059 	beq	b2dc <_strtoul_r+0x1b0>
    b174:	e355002b 	cmp	r5, #43	; 0x2b
    b178:	05d15001 	ldrbeq	r5, [r1, #1]
    b17c:	e1a03002 	mov	r3, r2
    b180:	02814002 	addeq	r4, r1, #2
    b184:	e3da2010 	bics	r2, r10, #16
    b188:	1a000014 	bne	b1e0 <_strtoul_r+0xb4>
    b18c:	e27a2001 	rsbs	r2, r10, #1
    b190:	33a02000 	movcc	r2, #0
    b194:	e3550030 	cmp	r5, #48	; 0x30
    b198:	0a000006 	beq	b1b8 <_strtoul_r+0x8c>
    b19c:	e3520000 	cmp	r2, #0
    b1a0:	0a00000e 	beq	b1e0 <_strtoul_r+0xb4>
    b1a4:	e3a0a00a 	mov	r10, #10
    b1a8:	e1a0200a 	mov	r2, r10
    b1ac:	e3a01005 	mov	r1, #5
    b1b0:	e59f8154 	ldr	r8, [pc, #340]	; b30c <_strtoul_r+0x1e0>
    b1b4:	ea000013 	b	b208 <_strtoul_r+0xdc>
    b1b8:	e5d41000 	ldrb	r1, [r4]
    b1bc:	e20110df 	and	r1, r1, #223	; 0xdf
    b1c0:	e3510058 	cmp	r1, #88	; 0x58
    b1c4:	0a000048 	beq	b2ec <_strtoul_r+0x1c0>
    b1c8:	e3520000 	cmp	r2, #0
    b1cc:	13a0a008 	movne	r10, #8
    b1d0:	11a0200a 	movne	r2, r10
    b1d4:	13a01007 	movne	r1, #7
    b1d8:	13e0820e 	mvnne	r8, #-536870912	; 0xe0000000
    b1dc:	1a000009 	bne	b208 <_strtoul_r+0xdc>
    b1e0:	e1a0100a 	mov	r1, r10
    b1e4:	e3e00000 	mvn	r0, #0
    b1e8:	e58d3000 	str	r3, [sp]
    b1ec:	eb00185b 	bl	11360 <__aeabi_uidiv>
    b1f0:	e1a0100a 	mov	r1, r10
    b1f4:	e1a08000 	mov	r8, r0
    b1f8:	e3e00000 	mvn	r0, #0
    b1fc:	eb001894 	bl	11454 <__aeabi_uidivmod>
    b200:	e59d3000 	ldr	r3, [sp]
    b204:	e1a0200a 	mov	r2, r10
    b208:	e3a06000 	mov	r6, #0
    b20c:	e1a00006 	mov	r0, r6
    b210:	ea000009 	b	b23c <_strtoul_r+0x110>
    b214:	e1550001 	cmp	r5, r1
    b218:	d3a0c000 	movle	r12, #0
    b21c:	c3a0c001 	movgt	r12, #1
    b220:	e1500008 	cmp	r0, r8
    b224:	13a0c000 	movne	r12, #0
    b228:	e35c0000 	cmp	r12, #0
    b22c:	1a000014 	bne	b284 <_strtoul_r+0x158>
    b230:	e0205092 	mla	r0, r2, r0, r5
    b234:	e3a06001 	mov	r6, #1
    b238:	e4d45001 	ldrb	r5, [r4], #1
    b23c:	e087c005 	add	r12, r7, r5
    b240:	e5dcc001 	ldrb	r12, [r12, #1]
    b244:	e31c0004 	tst	r12, #4
    b248:	12455030 	subne	r5, r5, #48	; 0x30
    b24c:	1a000005 	bne	b268 <_strtoul_r+0x13c>
    b250:	e21cc003 	ands	r12, r12, #3
    b254:	0a00000c 	beq	b28c <_strtoul_r+0x160>
    b258:	e35c0001 	cmp	r12, #1
    b25c:	13a0c057 	movne	r12, #87	; 0x57
    b260:	03a0c037 	moveq	r12, #55	; 0x37
    b264:	e06c5005 	rsb	r5, r12, r5
    b268:	e15a0005 	cmp	r10, r5
    b26c:	da000006 	ble	b28c <_strtoul_r+0x160>
    b270:	e1500008 	cmp	r0, r8
    b274:	93a0c000 	movls	r12, #0
    b278:	83a0c001 	movhi	r12, #1
    b27c:	e19c6fa6 	orrs	r6, r12, r6, lsr #31
    b280:	0affffe3 	beq	b214 <_strtoul_r+0xe8>
    b284:	e3e06000 	mvn	r6, #0
    b288:	eaffffea 	b	b238 <_strtoul_r+0x10c>
    b28c:	e3760001 	cmn	r6, #1
    b290:	0a000009 	beq	b2bc <_strtoul_r+0x190>
    b294:	e3530000 	cmp	r3, #0
    b298:	12600000 	rsbne	r0, r0, #0
    b29c:	e35b0000 	cmp	r11, #0
    b2a0:	0a000002 	beq	b2b0 <_strtoul_r+0x184>
    b2a4:	e3560000 	cmp	r6, #0
    b2a8:	1a000009 	bne	b2d4 <_strtoul_r+0x1a8>
    b2ac:	e58b9000 	str	r9, [r11]
    b2b0:	e28dd00c 	add	sp, sp, #12
    b2b4:	e8bd4ff0 	pop	{r4, r5, r6, r7, r8, r9, r10, r11, lr}
    b2b8:	e12fff1e 	bx	lr
    b2bc:	e59d2004 	ldr	r2, [sp, #4]
    b2c0:	e3a03022 	mov	r3, #34	; 0x22
    b2c4:	e35b0000 	cmp	r11, #0
    b2c8:	e1a00006 	mov	r0, r6
    b2cc:	e5823000 	str	r3, [r2]
    b2d0:	0afffff6 	beq	b2b0 <_strtoul_r+0x184>
    b2d4:	e2449001 	sub	r9, r4, #1
    b2d8:	eafffff3 	b	b2ac <_strtoul_r+0x180>
    b2dc:	e2814002 	add	r4, r1, #2
    b2e0:	e5d15001 	ldrb	r5, [r1, #1]
    b2e4:	e3a03001 	mov	r3, #1
    b2e8:	eaffffa5 	b	b184 <_strtoul_r+0x58>
    b2ec:	e3a0a010 	mov	r10, #16
    b2f0:	e5d45001 	ldrb	r5, [r4, #1]
    b2f4:	e1a0200a 	mov	r2, r10
    b2f8:	e3a0100f 	mov	r1, #15
    b2fc:	e2844002 	add	r4, r4, #2
    b300:	e3e0820f 	mvn	r8, #-268435456	; 0xf0000000
    b304:	eaffffbf 	b	b208 <_strtoul_r+0xdc>
    b308:	00013828 	.word	0x00013828
    b30c:	19999999 	.word	0x19999999

0000b310 <strtoul>:
    b310:	e59fc01c 	ldr	r12, [pc, #28]	; b334 <strtoul+0x24>
    b314:	e52d4004 	push	{r4}		; (str r4, [sp, #-4]!)
    b318:	e1a04001 	mov	r4, r1
    b31c:	e1a03002 	mov	r3, r2
    b320:	e1a01000 	mov	r1, r0
    b324:	e1a02004 	mov	r2, r4
    b328:	e59c0000 	ldr	r0, [r12]
    b32c:	e49d4004 	pop	{r4}		; (ldr r4, [sp], #4)
    b330:	eaffff7d 	b	b12c <_strtoul_r>
    b334:	00013830 	.word	0x00013830

0000b338 <_strtoull_r>:
    b338:	e92d4ff0 	push	{r4, r5, r6, r7, r8, r9, r10, r11, lr}
    b33c:	e59fc27c 	ldr	r12, [pc, #636]	; b5c0 <_strtoull_r+0x288>
    b340:	e24dd01c 	sub	sp, sp, #28
    b344:	e1a09002 	mov	r9, r2
    b348:	e58d100c 	str	r1, [sp, #12]
    b34c:	e59c7000 	ldr	r7, [r12]
    b350:	e58d0014 	str	r0, [sp, #20]
    b354:	e1a08003 	mov	r8, r3
    b358:	e1a02001 	mov	r2, r1
    b35c:	ea000000 	b	b364 <_strtoull_r+0x2c>
    b360:	e1a02006 	mov	r2, r6
    b364:	e1a06002 	mov	r6, r2
    b368:	e4d6a001 	ldrb	r10, [r6], #1
    b36c:	e087300a 	add	r3, r7, r10
    b370:	e5d33001 	ldrb	r3, [r3, #1]
    b374:	e2133008 	ands	r3, r3, #8
    b378:	1afffff8 	bne	b360 <_strtoull_r+0x28>
    b37c:	e35a002d 	cmp	r10, #45	; 0x2d
    b380:	0a000068 	beq	b528 <_strtoull_r+0x1f0>
    b384:	e35a002b 	cmp	r10, #43	; 0x2b
    b388:	e58d3010 	str	r3, [sp, #16]
    b38c:	05d2a001 	ldrbeq	r10, [r2, #1]
    b390:	02826002 	addeq	r6, r2, #2
    b394:	e3d8c010 	bics	r12, r8, #16
    b398:	1a00000d 	bne	b3d4 <_strtoull_r+0x9c>
    b39c:	e2783001 	rsbs	r3, r8, #1
    b3a0:	33a03000 	movcc	r3, #0
    b3a4:	e35a0030 	cmp	r10, #48	; 0x30
    b3a8:	0a000063 	beq	b53c <_strtoull_r+0x204>
    b3ac:	e3530000 	cmp	r3, #0
    b3b0:	0a000079 	beq	b59c <_strtoull_r+0x264>
    b3b4:	e3a0000a 	mov	r0, #10
    b3b8:	e3a01000 	mov	r1, #0
    b3bc:	e3a02005 	mov	r2, #5
    b3c0:	e28f5e1f 	add	r5, pc, #496	; 0x1f0
    b3c4:	e8950030 	ldm	r5, {r4, r5}
    b3c8:	e88d0003 	stm	sp, {r0, r1}
    b3cc:	e3a0800a 	mov	r8, #10
    b3d0:	ea00000d 	b	b40c <_strtoull_r+0xd4>
    b3d4:	e1a01fc8 	asr	r1, r8, #31
    b3d8:	e1a00008 	mov	r0, r8
    b3dc:	e88d0003 	stm	sp, {r0, r1}
    b3e0:	e1a02008 	mov	r2, r8
    b3e4:	e1a03001 	mov	r3, r1
    b3e8:	e3e00000 	mvn	r0, #0
    b3ec:	e3e01000 	mvn	r1, #0
    b3f0:	eb001b38 	bl	120d8 <__aeabi_uldivmod>
    b3f4:	e89d000c 	ldm	sp, {r2, r3}
    b3f8:	e1a04000 	mov	r4, r0
    b3fc:	e1a05001 	mov	r5, r1
    b400:	e3e00000 	mvn	r0, #0
    b404:	e3e01000 	mvn	r1, #0
    b408:	eb001b32 	bl	120d8 <__aeabi_uldivmod>
    b40c:	e3a0c000 	mov	r12, #0
    b410:	e3a00000 	mov	r0, #0
    b414:	e3a01000 	mov	r1, #0
    b418:	ea000013 	b	b46c <_strtoull_r+0x134>
    b41c:	e1510005 	cmp	r1, r5
    b420:	01500004 	cmpeq	r0, r4
    b424:	13a0c000 	movne	r12, #0
    b428:	03a0c001 	moveq	r12, #1
    b42c:	e1530002 	cmp	r3, r2
    b430:	d3a0c000 	movle	r12, #0
    b434:	c20cc001 	andgt	r12, r12, #1
    b438:	e35c0000 	cmp	r12, #0
    b43c:	1a00001d 	bne	b4b8 <_strtoull_r+0x180>
    b440:	e59dc004 	ldr	r12, [sp, #4]
    b444:	e00c0c90 	mul	r12, r0, r12
    b448:	e59da000 	ldr	r10, [sp]
    b44c:	e021c19a 	mla	r1, r10, r1, r12
    b450:	e1a0c00a 	mov	r12, r10
    b454:	e08bac90 	umull	r10, r11, r0, r12
    b458:	e081b00b 	add	r11, r1, r11
    b45c:	e09a0003 	adds	r0, r10, r3
    b460:	e0ab1fc3 	adc	r1, r11, r3, asr #31
    b464:	e3a0c001 	mov	r12, #1
    b468:	e4d6a001 	ldrb	r10, [r6], #1
    b46c:	e087300a 	add	r3, r7, r10
    b470:	e5d33001 	ldrb	r3, [r3, #1]
    b474:	e3130004 	tst	r3, #4
    b478:	124a3030 	subne	r3, r10, #48	; 0x30
    b47c:	1a000005 	bne	b498 <_strtoull_r+0x160>
    b480:	e2133003 	ands	r3, r3, #3
    b484:	0a00000d 	beq	b4c0 <_strtoull_r+0x188>
    b488:	e3530001 	cmp	r3, #1
    b48c:	13a03057 	movne	r3, #87	; 0x57
    b490:	03a03037 	moveq	r3, #55	; 0x37
    b494:	e063300a 	rsb	r3, r3, r10
    b498:	e1580003 	cmp	r8, r3
    b49c:	da000007 	ble	b4c0 <_strtoull_r+0x188>
    b4a0:	e1510005 	cmp	r1, r5
    b4a4:	01500004 	cmpeq	r0, r4
    b4a8:	93a0a000 	movls	r10, #0
    b4ac:	83a0a001 	movhi	r10, #1
    b4b0:	e19acfac 	orrs	r12, r10, r12, lsr #31
    b4b4:	0affffd8 	beq	b41c <_strtoull_r+0xe4>
    b4b8:	e3e0c000 	mvn	r12, #0
    b4bc:	eaffffe9 	b	b468 <_strtoull_r+0x130>
    b4c0:	e37c0001 	cmn	r12, #1
    b4c4:	0a00000b 	beq	b4f8 <_strtoull_r+0x1c0>
    b4c8:	e59da010 	ldr	r10, [sp, #16]
    b4cc:	e35a0000 	cmp	r10, #0
    b4d0:	1a000011 	bne	b51c <_strtoull_r+0x1e4>
    b4d4:	e3590000 	cmp	r9, #0
    b4d8:	0a000003 	beq	b4ec <_strtoull_r+0x1b4>
    b4dc:	e35c0000 	cmp	r12, #0
    b4e0:	1a00000b 	bne	b514 <_strtoull_r+0x1dc>
    b4e4:	e59d600c 	ldr	r6, [sp, #12]
    b4e8:	e5896000 	str	r6, [r9]
    b4ec:	e28dd01c 	add	sp, sp, #28
    b4f0:	e8bd4ff0 	pop	{r4, r5, r6, r7, r8, r9, r10, r11, lr}
    b4f4:	e12fff1e 	bx	lr
    b4f8:	e59d4014 	ldr	r4, [sp, #20]
    b4fc:	e3a03022 	mov	r3, #34	; 0x22
    b500:	e3590000 	cmp	r9, #0
    b504:	e3e00000 	mvn	r0, #0
    b508:	e3e01000 	mvn	r1, #0
    b50c:	e5843000 	str	r3, [r4]
    b510:	0afffff5 	beq	b4ec <_strtoull_r+0x1b4>
    b514:	e2466001 	sub	r6, r6, #1
    b518:	eafffff2 	b	b4e8 <_strtoull_r+0x1b0>
    b51c:	e2700000 	rsbs	r0, r0, #0
    b520:	e2e11000 	rsc	r1, r1, #0
    b524:	eaffffea 	b	b4d4 <_strtoull_r+0x19c>
    b528:	e3a04001 	mov	r4, #1
    b52c:	e2826002 	add	r6, r2, #2
    b530:	e5d2a001 	ldrb	r10, [r2, #1]
    b534:	e58d4010 	str	r4, [sp, #16]
    b538:	eaffff95 	b	b394 <_strtoull_r+0x5c>
    b53c:	e5d62000 	ldrb	r2, [r6]
    b540:	e20220df 	and	r2, r2, #223	; 0xdf
    b544:	e3520058 	cmp	r2, #88	; 0x58
    b548:	0a000009 	beq	b574 <_strtoull_r+0x23c>
    b54c:	e3530000 	cmp	r3, #0
    b550:	0a000011 	beq	b59c <_strtoull_r+0x264>
    b554:	e3a00008 	mov	r0, #8
    b558:	e3a01000 	mov	r1, #0
    b55c:	e3a02007 	mov	r2, #7
    b560:	e3e04000 	mvn	r4, #0
    b564:	e3e0520e 	mvn	r5, #-536870912	; 0xe0000000
    b568:	e88d0003 	stm	sp, {r0, r1}
    b56c:	e3a08008 	mov	r8, #8
    b570:	eaffffa5 	b	b40c <_strtoull_r+0xd4>
    b574:	e3a00010 	mov	r0, #16
    b578:	e3a01000 	mov	r1, #0
    b57c:	e5d6a001 	ldrb	r10, [r6, #1]
    b580:	e3a0200f 	mov	r2, #15
    b584:	e2866002 	add	r6, r6, #2
    b588:	e3e04000 	mvn	r4, #0
    b58c:	e3e0520f 	mvn	r5, #-268435456	; 0xf0000000
    b590:	e88d0003 	stm	sp, {r0, r1}
    b594:	e3a08010 	mov	r8, #16
    b598:	eaffff9b 	b	b40c <_strtoull_r+0xd4>
    b59c:	e1a02fc8 	asr	r2, r8, #31
    b5a0:	e1a01008 	mov	r1, r8
    b5a4:	e88d0006 	stm	sp, {r1, r2}
    b5a8:	e1a03002 	mov	r3, r2
    b5ac:	e1a02008 	mov	r2, r8
    b5b0:	eaffff8c 	b	b3e8 <_strtoull_r+0xb0>
    b5b4:	e1a00000 	nop			; (mov r0, r0)
    b5b8:	99999999 	.word	0x99999999
    b5bc:	19999999 	.word	0x19999999
    b5c0:	00013828 	.word	0x00013828
    b5c4:	e1a00000 	nop			; (mov r0, r0)

0000b5c8 <_svfprintf_r>:
    b5c8:	e92d4ff0 	push	{r4, r5, r6, r7, r8, r9, r10, r11, lr}
    b5cc:	e24ddf43 	sub	sp, sp, #268	; 0x10c
    b5d0:	e58d3048 	str	r3, [sp, #72]	; 0x48
    b5d4:	e58d1030 	str	r1, [sp, #48]	; 0x30
    b5d8:	e58d2024 	str	r2, [sp, #36]	; 0x24
    b5dc:	e58d0038 	str	r0, [sp, #56]	; 0x38
    b5e0:	ebffee3b 	bl	6ed4 <_localeconv_r>
    b5e4:	e5900000 	ldr	r0, [r0]
    b5e8:	e58d0054 	str	r0, [sp, #84]	; 0x54
    b5ec:	ebffd3d8 	bl	554 <strlen>
    b5f0:	e59d4030 	ldr	r4, [sp, #48]	; 0x30
    b5f4:	e1d430bc 	ldrh	r3, [r4, #12]
    b5f8:	e3130080 	tst	r3, #128	; 0x80
    b5fc:	e58d0060 	str	r0, [sp, #96]	; 0x60
    b600:	0a000002 	beq	b610 <_svfprintf_r+0x48>
    b604:	e5943010 	ldr	r3, [r4, #16]
    b608:	e3530000 	cmp	r3, #0
    b60c:	0a000651 	beq	cf58 <_svfprintf_r+0x1990>
    b610:	e3a03000 	mov	r3, #0
    b614:	e28d40c8 	add	r4, sp, #200	; 0xc8
    b618:	e59fcf94 	ldr	r12, [pc, #3988]	; c5b4 <_svfprintf_r+0xfec>
    b61c:	e58d401c 	str	r4, [sp, #28]
    b620:	e58d309c 	str	r3, [sp, #156]	; 0x9c
    b624:	e58d3098 	str	r3, [sp, #152]	; 0x98
    b628:	e58d303c 	str	r3, [sp, #60]	; 0x3c
    b62c:	e58d4094 	str	r4, [sp, #148]	; 0x94
    b630:	e58d3058 	str	r3, [sp, #88]	; 0x58
    b634:	e58d305c 	str	r3, [sp, #92]	; 0x5c
    b638:	e58d3068 	str	r3, [sp, #104]	; 0x68
    b63c:	e58d3064 	str	r3, [sp, #100]	; 0x64
    b640:	e58d3040 	str	r3, [sp, #64]	; 0x40
    b644:	e1a07004 	mov	r7, r4
    b648:	e28c9010 	add	r9, r12, #16
    b64c:	e59d4024 	ldr	r4, [sp, #36]	; 0x24
    b650:	e5d43000 	ldrb	r3, [r4]
    b654:	e3530025 	cmp	r3, #37	; 0x25
    b658:	13530000 	cmpne	r3, #0
    b65c:	0a0000a2 	beq	b8ec <_svfprintf_r+0x324>
    b660:	e2843001 	add	r3, r4, #1
    b664:	e1a04003 	mov	r4, r3
    b668:	e5d33000 	ldrb	r3, [r3]
    b66c:	e3530025 	cmp	r3, #37	; 0x25
    b670:	13530000 	cmpne	r3, #0
    b674:	e2843001 	add	r3, r4, #1
    b678:	1afffff9 	bne	b664 <_svfprintf_r+0x9c>
    b67c:	e59dc024 	ldr	r12, [sp, #36]	; 0x24
    b680:	e054500c 	subs	r5, r4, r12
    b684:	0a00000d 	beq	b6c0 <_svfprintf_r+0xf8>
    b688:	e59d3098 	ldr	r3, [sp, #152]	; 0x98
    b68c:	e59d209c 	ldr	r2, [sp, #156]	; 0x9c
    b690:	e2833001 	add	r3, r3, #1
    b694:	e3530007 	cmp	r3, #7
    b698:	e0822005 	add	r2, r2, r5
    b69c:	e587c000 	str	r12, [r7]
    b6a0:	e5875004 	str	r5, [r7, #4]
    b6a4:	e58d3098 	str	r3, [sp, #152]	; 0x98
    b6a8:	e58d209c 	str	r2, [sp, #156]	; 0x9c
    b6ac:	d2877008 	addle	r7, r7, #8
    b6b0:	ca000077 	bgt	b894 <_svfprintf_r+0x2cc>
    b6b4:	e59dc040 	ldr	r12, [sp, #64]	; 0x40
    b6b8:	e08cc005 	add	r12, r12, r5
    b6bc:	e58dc040 	str	r12, [sp, #64]	; 0x40
    b6c0:	e5d43000 	ldrb	r3, [r4]
    b6c4:	e3530000 	cmp	r3, #0
    b6c8:	0a000079 	beq	b8b4 <_svfprintf_r+0x2ec>
    b6cc:	e2845001 	add	r5, r4, #1
    b6d0:	e3e0c000 	mvn	r12, #0
    b6d4:	e3a03000 	mov	r3, #0
    b6d8:	e58d5024 	str	r5, [sp, #36]	; 0x24
    b6dc:	e5d48001 	ldrb	r8, [r4, #1]
    b6e0:	e58dc028 	str	r12, [sp, #40]	; 0x28
    b6e4:	e1a02003 	mov	r2, r3
    b6e8:	e5cd3077 	strb	r3, [sp, #119]	; 0x77
    b6ec:	e58d3044 	str	r3, [sp, #68]	; 0x44
    b6f0:	e58d3020 	str	r3, [sp, #32]
    b6f4:	e1a03005 	mov	r3, r5
    b6f8:	e2833001 	add	r3, r3, #1
    b6fc:	e2481020 	sub	r1, r8, #32
    b700:	e3510058 	cmp	r1, #88	; 0x58
    b704:	979ff101 	ldrls	pc, [pc, r1, lsl #2]
    b708:	ea000262 	b	c098 <_svfprintf_r+0xad0>
    b70c:	0000bf38 	.word	0x0000bf38
    b710:	0000c098 	.word	0x0000c098
    b714:	0000c098 	.word	0x0000c098
    b718:	0000bf48 	.word	0x0000bf48
    b71c:	0000c098 	.word	0x0000c098
    b720:	0000c098 	.word	0x0000c098
    b724:	0000c098 	.word	0x0000c098
    b728:	0000c098 	.word	0x0000c098
    b72c:	0000c098 	.word	0x0000c098
    b730:	0000c098 	.word	0x0000c098
    b734:	0000bf5c 	.word	0x0000bf5c
    b738:	0000be60 	.word	0x0000be60
    b73c:	0000c098 	.word	0x0000c098
    b740:	0000b880 	.word	0x0000b880
    b744:	0000bb7c 	.word	0x0000bb7c
    b748:	0000c098 	.word	0x0000c098
    b74c:	0000c054 	.word	0x0000c054
    b750:	0000c068 	.word	0x0000c068
    b754:	0000c068 	.word	0x0000c068
    b758:	0000c068 	.word	0x0000c068
    b75c:	0000c068 	.word	0x0000c068
    b760:	0000c068 	.word	0x0000c068
    b764:	0000c068 	.word	0x0000c068
    b768:	0000c068 	.word	0x0000c068
    b76c:	0000c068 	.word	0x0000c068
    b770:	0000c068 	.word	0x0000c068
    b774:	0000c098 	.word	0x0000c098
    b778:	0000c098 	.word	0x0000c098
    b77c:	0000c098 	.word	0x0000c098
    b780:	0000c098 	.word	0x0000c098
    b784:	0000c098 	.word	0x0000c098
    b788:	0000c098 	.word	0x0000c098
    b78c:	0000c098 	.word	0x0000c098
    b790:	0000c098 	.word	0x0000c098
    b794:	0000c098 	.word	0x0000c098
    b798:	0000c098 	.word	0x0000c098
    b79c:	0000bc20 	.word	0x0000bc20
    b7a0:	0000bc78 	.word	0x0000bc78
    b7a4:	0000c098 	.word	0x0000c098
    b7a8:	0000bc78 	.word	0x0000bc78
    b7ac:	0000c098 	.word	0x0000c098
    b7b0:	0000c098 	.word	0x0000c098
    b7b4:	0000c098 	.word	0x0000c098
    b7b8:	0000c098 	.word	0x0000c098
    b7bc:	0000bd20 	.word	0x0000bd20
    b7c0:	0000c098 	.word	0x0000c098
    b7c4:	0000c098 	.word	0x0000c098
    b7c8:	0000bd34 	.word	0x0000bd34
    b7cc:	0000c098 	.word	0x0000c098
    b7d0:	0000c098 	.word	0x0000c098
    b7d4:	0000c098 	.word	0x0000c098
    b7d8:	0000c098 	.word	0x0000c098
    b7dc:	0000c098 	.word	0x0000c098
    b7e0:	0000bbd0 	.word	0x0000bbd0
    b7e4:	0000c098 	.word	0x0000c098
    b7e8:	0000c098 	.word	0x0000c098
    b7ec:	0000bfc8 	.word	0x0000bfc8
    b7f0:	0000c098 	.word	0x0000c098
    b7f4:	0000c098 	.word	0x0000c098
    b7f8:	0000c098 	.word	0x0000c098
    b7fc:	0000c098 	.word	0x0000c098
    b800:	0000c098 	.word	0x0000c098
    b804:	0000c098 	.word	0x0000c098
    b808:	0000c098 	.word	0x0000c098
    b80c:	0000c098 	.word	0x0000c098
    b810:	0000c098 	.word	0x0000c098
    b814:	0000c098 	.word	0x0000c098
    b818:	0000bf84 	.word	0x0000bf84
    b81c:	0000c014 	.word	0x0000c014
    b820:	0000bc78 	.word	0x0000bc78
    b824:	0000bc78 	.word	0x0000bc78
    b828:	0000bc78 	.word	0x0000bc78
    b82c:	0000bf24 	.word	0x0000bf24
    b830:	0000c014 	.word	0x0000c014
    b834:	0000c098 	.word	0x0000c098
    b838:	0000c098 	.word	0x0000c098
    b83c:	0000be6c 	.word	0x0000be6c
    b840:	0000c098 	.word	0x0000c098
    b844:	0000be9c 	.word	0x0000be9c
    b848:	0000bb4c 	.word	0x0000bb4c
    b84c:	0000bedc 	.word	0x0000bedc
    b850:	0000bd74 	.word	0x0000bd74
    b854:	0000c098 	.word	0x0000c098
    b858:	0000bd88 	.word	0x0000bd88
    b85c:	0000c098 	.word	0x0000c098
    b860:	0000b8f4 	.word	0x0000b8f4
    b864:	0000c098 	.word	0x0000c098
    b868:	0000c098 	.word	0x0000c098
    b86c:	0000bdfc 	.word	0x0000bdfc
    b870:	e59d5044 	ldr	r5, [sp, #68]	; 0x44
    b874:	e2655000 	rsb	r5, r5, #0
    b878:	e58d5044 	str	r5, [sp, #68]	; 0x44
    b87c:	e58d1048 	str	r1, [sp, #72]	; 0x48
    b880:	e59dc020 	ldr	r12, [sp, #32]
    b884:	e38cc004 	orr	r12, r12, #4
    b888:	e58dc020 	str	r12, [sp, #32]
    b88c:	e5d38000 	ldrb	r8, [r3]
    b890:	eaffff98 	b	b6f8 <_svfprintf_r+0x130>
    b894:	e59d0038 	ldr	r0, [sp, #56]	; 0x38
    b898:	e59d1030 	ldr	r1, [sp, #48]	; 0x30
    b89c:	e28d2094 	add	r2, sp, #148	; 0x94
    b8a0:	eb001153 	bl	fdf4 <__ssprint_r>
    b8a4:	e3500000 	cmp	r0, #0
    b8a8:	1a000007 	bne	b8cc <_svfprintf_r+0x304>
    b8ac:	e28d70c8 	add	r7, sp, #200	; 0xc8
    b8b0:	eaffff7f 	b	b6b4 <_svfprintf_r+0xec>
    b8b4:	e59d309c 	ldr	r3, [sp, #156]	; 0x9c
    b8b8:	e3530000 	cmp	r3, #0
    b8bc:	159d0038 	ldrne	r0, [sp, #56]	; 0x38
    b8c0:	159d1030 	ldrne	r1, [sp, #48]	; 0x30
    b8c4:	128d2094 	addne	r2, sp, #148	; 0x94
    b8c8:	1b001149 	blne	fdf4 <__ssprint_r>
    b8cc:	e59d4030 	ldr	r4, [sp, #48]	; 0x30
    b8d0:	e1d430bc 	ldrh	r3, [r4, #12]
    b8d4:	e59d0040 	ldr	r0, [sp, #64]	; 0x40
    b8d8:	e3130040 	tst	r3, #64	; 0x40
    b8dc:	13e00000 	mvnne	r0, #0
    b8e0:	e28ddf43 	add	sp, sp, #268	; 0x10c
    b8e4:	e8bd4ff0 	pop	{r4, r5, r6, r7, r8, r9, r10, r11, lr}
    b8e8:	e12fff1e 	bx	lr
    b8ec:	e59d4024 	ldr	r4, [sp, #36]	; 0x24
    b8f0:	eaffff72 	b	b6c0 <_svfprintf_r+0xf8>
    b8f4:	e59d5020 	ldr	r5, [sp, #32]
    b8f8:	e3150020 	tst	r5, #32
    b8fc:	e58d3024 	str	r3, [sp, #36]	; 0x24
    b900:	0a0000b9 	beq	bbec <_svfprintf_r+0x624>
    b904:	e59dc048 	ldr	r12, [sp, #72]	; 0x48
    b908:	e28c3007 	add	r3, r12, #7
    b90c:	e3c33007 	bic	r3, r3, #7
    b910:	e2834008 	add	r4, r3, #8
    b914:	e58d4048 	str	r4, [sp, #72]	; 0x48
    b918:	e8930030 	ldm	r3, {r4, r5}
    b91c:	e3a03001 	mov	r3, #1
    b920:	e3a0a000 	mov	r10, #0
    b924:	e5cda077 	strb	r10, [sp, #119]	; 0x77
    b928:	e59dc028 	ldr	r12, [sp, #40]	; 0x28
    b92c:	e35c0000 	cmp	r12, #0
    b930:	a59dc020 	ldrge	r12, [sp, #32]
    b934:	a3ccc080 	bicge	r12, r12, #128	; 0x80
    b938:	a58dc020 	strge	r12, [sp, #32]
    b93c:	e1940005 	orrs	r0, r4, r5
    b940:	e59dc028 	ldr	r12, [sp, #40]	; 0x28
    b944:	03a02000 	moveq	r2, #0
    b948:	13a02001 	movne	r2, #1
    b94c:	e35c0000 	cmp	r12, #0
    b950:	13822001 	orrne	r2, r2, #1
    b954:	e3520000 	cmp	r2, #0
    b958:	0a0002cb 	beq	c48c <_svfprintf_r+0xec4>
    b95c:	e3530001 	cmp	r3, #1
    b960:	0a0003b1 	beq	c82c <_svfprintf_r+0x1264>
    b964:	e3530002 	cmp	r3, #2
    b968:	e28d20c7 	add	r2, sp, #199	; 0xc7
    b96c:	1a00005b 	bne	bae0 <_svfprintf_r+0x518>
    b970:	e59dc068 	ldr	r12, [sp, #104]	; 0x68
    b974:	e1a03224 	lsr	r3, r4, #4
    b978:	e204000f 	and	r0, r4, #15
    b97c:	e1833e05 	orr	r3, r3, r5, lsl #28
    b980:	e1a01225 	lsr	r1, r5, #4
    b984:	e1a04003 	mov	r4, r3
    b988:	e1a05001 	mov	r5, r1
    b98c:	e7dc3000 	ldrb	r3, [r12, r0]
    b990:	e1940005 	orrs	r0, r4, r5
    b994:	e1a06002 	mov	r6, r2
    b998:	e5c23000 	strb	r3, [r2]
    b99c:	e2422001 	sub	r2, r2, #1
    b9a0:	1afffff3 	bne	b974 <_svfprintf_r+0x3ac>
    b9a4:	e59d301c 	ldr	r3, [sp, #28]
    b9a8:	e0663003 	rsb	r3, r6, r3
    b9ac:	e58d3034 	str	r3, [sp, #52]	; 0x34
    b9b0:	e59dc034 	ldr	r12, [sp, #52]	; 0x34
    b9b4:	e59d4028 	ldr	r4, [sp, #40]	; 0x28
    b9b8:	e3a05000 	mov	r5, #0
    b9bc:	e15c0004 	cmp	r12, r4
    b9c0:	b1a0c004 	movlt	r12, r4
    b9c4:	e58dc02c 	str	r12, [sp, #44]	; 0x2c
    b9c8:	e58d5050 	str	r5, [sp, #80]	; 0x50
    b9cc:	e35a0000 	cmp	r10, #0
    b9d0:	0a000002 	beq	b9e0 <_svfprintf_r+0x418>
    b9d4:	e59d402c 	ldr	r4, [sp, #44]	; 0x2c
    b9d8:	e2844001 	add	r4, r4, #1
    b9dc:	e58d402c 	str	r4, [sp, #44]	; 0x2c
    b9e0:	e59d5020 	ldr	r5, [sp, #32]
    b9e4:	e215b002 	ands	r11, r5, #2
    b9e8:	159dc02c 	ldrne	r12, [sp, #44]	; 0x2c
    b9ec:	e59d3020 	ldr	r3, [sp, #32]
    b9f0:	128cc002 	addne	r12, r12, #2
    b9f4:	158dc02c 	strne	r12, [sp, #44]	; 0x2c
    b9f8:	e2133084 	ands	r3, r3, #132	; 0x84
    b9fc:	e58d304c 	str	r3, [sp, #76]	; 0x4c
    ba00:	1a0001ae 	bne	c0c0 <_svfprintf_r+0xaf8>
    ba04:	e59d4044 	ldr	r4, [sp, #68]	; 0x44
    ba08:	e59dc02c 	ldr	r12, [sp, #44]	; 0x2c
    ba0c:	e06c5004 	rsb	r5, r12, r4
    ba10:	e3550000 	cmp	r5, #0
    ba14:	da0001a9 	ble	c0c0 <_svfprintf_r+0xaf8>
    ba18:	e3550010 	cmp	r5, #16
    ba1c:	e59d109c 	ldr	r1, [sp, #156]	; 0x9c
    ba20:	e59d2098 	ldr	r2, [sp, #152]	; 0x98
    ba24:	e59fab88 	ldr	r10, [pc, #2952]	; c5b4 <_svfprintf_r+0xfec>
    ba28:	da000021 	ble	bab4 <_svfprintf_r+0x4ec>
    ba2c:	e58d606c 	str	r6, [sp, #108]	; 0x6c
    ba30:	e1a00007 	mov	r0, r7
    ba34:	e3a04010 	mov	r4, #16
    ba38:	e1a07005 	mov	r7, r5
    ba3c:	e59d6030 	ldr	r6, [sp, #48]	; 0x30
    ba40:	e59d5038 	ldr	r5, [sp, #56]	; 0x38
    ba44:	ea000002 	b	ba54 <_svfprintf_r+0x48c>
    ba48:	e2477010 	sub	r7, r7, #16
    ba4c:	e3570010 	cmp	r7, #16
    ba50:	da000014 	ble	baa8 <_svfprintf_r+0x4e0>
    ba54:	e2822001 	add	r2, r2, #1
    ba58:	e59f3b54 	ldr	r3, [pc, #2900]	; c5b4 <_svfprintf_r+0xfec>
    ba5c:	e3520007 	cmp	r2, #7
    ba60:	e2811010 	add	r1, r1, #16
    ba64:	e8800018 	stm	r0, {r3, r4}
    ba68:	e58d2098 	str	r2, [sp, #152]	; 0x98
    ba6c:	e58d109c 	str	r1, [sp, #156]	; 0x9c
    ba70:	d2800008 	addle	r0, r0, #8
    ba74:	dafffff3 	ble	ba48 <_svfprintf_r+0x480>
    ba78:	e1a00005 	mov	r0, r5
    ba7c:	e1a01006 	mov	r1, r6
    ba80:	e28d2094 	add	r2, sp, #148	; 0x94
    ba84:	eb0010da 	bl	fdf4 <__ssprint_r>
    ba88:	e3500000 	cmp	r0, #0
    ba8c:	1affff8e 	bne	b8cc <_svfprintf_r+0x304>
    ba90:	e2477010 	sub	r7, r7, #16
    ba94:	e3570010 	cmp	r7, #16
    ba98:	e59d109c 	ldr	r1, [sp, #156]	; 0x9c
    ba9c:	e59d2098 	ldr	r2, [sp, #152]	; 0x98
    baa0:	e28d00c8 	add	r0, sp, #200	; 0xc8
    baa4:	caffffea 	bgt	ba54 <_svfprintf_r+0x48c>
    baa8:	e59d606c 	ldr	r6, [sp, #108]	; 0x6c
    baac:	e1a05007 	mov	r5, r7
    bab0:	e1a07000 	mov	r7, r0
    bab4:	e2822001 	add	r2, r2, #1
    bab8:	e0854001 	add	r4, r5, r1
    babc:	e3520007 	cmp	r2, #7
    bac0:	e58d2098 	str	r2, [sp, #152]	; 0x98
    bac4:	e58d409c 	str	r4, [sp, #156]	; 0x9c
    bac8:	e587a000 	str	r10, [r7]
    bacc:	e5875004 	str	r5, [r7, #4]
    bad0:	ca00035f 	bgt	c854 <_svfprintf_r+0x128c>
    bad4:	e2877008 	add	r7, r7, #8
    bad8:	e5dda077 	ldrb	r10, [sp, #119]	; 0x77
    badc:	ea000178 	b	c0c4 <_svfprintf_r+0xafc>
    bae0:	e1a031a4 	lsr	r3, r4, #3
    bae4:	e1833e85 	orr	r3, r3, r5, lsl #29
    bae8:	e1a001a5 	lsr	r0, r5, #3
    baec:	e2041007 	and	r1, r4, #7
    baf0:	e1a05000 	mov	r5, r0
    baf4:	e1a04003 	mov	r4, r3
    baf8:	e1940005 	orrs	r0, r4, r5
    bafc:	e2813030 	add	r3, r1, #48	; 0x30
    bb00:	e1a06002 	mov	r6, r2
    bb04:	e5c23000 	strb	r3, [r2]
    bb08:	e2422001 	sub	r2, r2, #1
    bb0c:	1afffff3 	bne	bae0 <_svfprintf_r+0x518>
    bb10:	e59d4020 	ldr	r4, [sp, #32]
    bb14:	e3140001 	tst	r4, #1
    bb18:	e1a01006 	mov	r1, r6
    bb1c:	0a000348 	beq	c844 <_svfprintf_r+0x127c>
    bb20:	e3530030 	cmp	r3, #48	; 0x30
    bb24:	059dc01c 	ldreq	r12, [sp, #28]
    bb28:	159d401c 	ldrne	r4, [sp, #28]
    bb2c:	11a06002 	movne	r6, r2
    bb30:	0066c00c 	rsbeq	r12, r6, r12
    bb34:	13a03030 	movne	r3, #48	; 0x30
    bb38:	10664004 	rsbne	r4, r6, r4
    bb3c:	058dc034 	streq	r12, [sp, #52]	; 0x34
    bb40:	158d4034 	strne	r4, [sp, #52]	; 0x34
    bb44:	15413001 	strbne	r3, [r1, #-1]
    bb48:	eaffff98 	b	b9b0 <_svfprintf_r+0x3e8>
    bb4c:	e59dc020 	ldr	r12, [sp, #32]
    bb50:	e58d3024 	str	r3, [sp, #36]	; 0x24
    bb54:	e21c3020 	ands	r3, r12, #32
    bb58:	0a00007c 	beq	bd50 <_svfprintf_r+0x788>
    bb5c:	e59d4048 	ldr	r4, [sp, #72]	; 0x48
    bb60:	e2843007 	add	r3, r4, #7
    bb64:	e3c33007 	bic	r3, r3, #7
    bb68:	e2835008 	add	r5, r3, #8
    bb6c:	e58d5048 	str	r5, [sp, #72]	; 0x48
    bb70:	e8930030 	ldm	r3, {r4, r5}
    bb74:	e3a03000 	mov	r3, #0
    bb78:	eaffff68 	b	b920 <_svfprintf_r+0x358>
    bb7c:	e5d38000 	ldrb	r8, [r3]
    bb80:	e358002a 	cmp	r8, #42	; 0x2a
    bb84:	e2830001 	add	r0, r3, #1
    bb88:	0a00063c 	beq	d480 <_svfprintf_r+0x1eb8>
    bb8c:	e2481030 	sub	r1, r8, #48	; 0x30
    bb90:	e3510009 	cmp	r1, #9
    bb94:	83a04000 	movhi	r4, #0
    bb98:	81a03000 	movhi	r3, r0
    bb9c:	858d4028 	strhi	r4, [sp, #40]	; 0x28
    bba0:	8afffed5 	bhi	b6fc <_svfprintf_r+0x134>
    bba4:	e3a03000 	mov	r3, #0
    bba8:	e4d08001 	ldrb	r8, [r0], #1
    bbac:	e0833103 	add	r3, r3, r3, lsl #2
    bbb0:	e0813083 	add	r3, r1, r3, lsl #1
    bbb4:	e2481030 	sub	r1, r8, #48	; 0x30
    bbb8:	e3510009 	cmp	r1, #9
    bbbc:	9afffff9 	bls	bba8 <_svfprintf_r+0x5e0>
    bbc0:	e1833fc3 	orr	r3, r3, r3, asr #31
    bbc4:	e58d3028 	str	r3, [sp, #40]	; 0x28
    bbc8:	e1a03000 	mov	r3, r0
    bbcc:	eafffeca 	b	b6fc <_svfprintf_r+0x134>
    bbd0:	e59d4020 	ldr	r4, [sp, #32]
    bbd4:	e3844010 	orr	r4, r4, #16
    bbd8:	e58d4020 	str	r4, [sp, #32]
    bbdc:	e59d5020 	ldr	r5, [sp, #32]
    bbe0:	e3150020 	tst	r5, #32
    bbe4:	e58d3024 	str	r3, [sp, #36]	; 0x24
    bbe8:	1affff45 	bne	b904 <_svfprintf_r+0x33c>
    bbec:	e59d5020 	ldr	r5, [sp, #32]
    bbf0:	e3150010 	tst	r5, #16
    bbf4:	1a00035d 	bne	c970 <_svfprintf_r+0x13a8>
    bbf8:	e59d4020 	ldr	r4, [sp, #32]
    bbfc:	e3140040 	tst	r4, #64	; 0x40
    bc00:	0a00035a 	beq	c970 <_svfprintf_r+0x13a8>
    bc04:	e59d5048 	ldr	r5, [sp, #72]	; 0x48
    bc08:	e1d540b0 	ldrh	r4, [r5]
    bc0c:	e2855004 	add	r5, r5, #4
    bc10:	e58d5048 	str	r5, [sp, #72]	; 0x48
    bc14:	e3a03001 	mov	r3, #1
    bc18:	e3a05000 	mov	r5, #0
    bc1c:	eaffff3f 	b	b920 <_svfprintf_r+0x358>
    bc20:	e59d5020 	ldr	r5, [sp, #32]
    bc24:	e3855010 	orr	r5, r5, #16
    bc28:	e58d5020 	str	r5, [sp, #32]
    bc2c:	e59dc020 	ldr	r12, [sp, #32]
    bc30:	e31c0020 	tst	r12, #32
    bc34:	e58d3024 	str	r3, [sp, #36]	; 0x24
    bc38:	e5cd2077 	strb	r2, [sp, #119]	; 0x77
    bc3c:	0a0000f9 	beq	c028 <_svfprintf_r+0xa60>
    bc40:	e59d4048 	ldr	r4, [sp, #72]	; 0x48
    bc44:	e2841007 	add	r1, r4, #7
    bc48:	e3c11007 	bic	r1, r1, #7
    bc4c:	e891000c 	ldm	r1, {r2, r3}
    bc50:	e2811008 	add	r1, r1, #8
    bc54:	e58d1048 	str	r1, [sp, #72]	; 0x48
    bc58:	e1a04002 	mov	r4, r2
    bc5c:	e1a05003 	mov	r5, r3
    bc60:	e3520000 	cmp	r2, #0
    bc64:	e2d30000 	sbcs	r0, r3, #0
    bc68:	ba0003e4 	blt	cc00 <_svfprintf_r+0x1638>
    bc6c:	e5dda077 	ldrb	r10, [sp, #119]	; 0x77
    bc70:	e3a03001 	mov	r3, #1
    bc74:	eaffff2b 	b	b928 <_svfprintf_r+0x360>
    bc78:	e59d4020 	ldr	r4, [sp, #32]
    bc7c:	e59d5048 	ldr	r5, [sp, #72]	; 0x48
    bc80:	e58d3024 	str	r3, [sp, #36]	; 0x24
    bc84:	e3140008 	tst	r4, #8
    bc88:	e2853007 	add	r3, r5, #7
    bc8c:	e5cd2077 	strb	r2, [sp, #119]	; 0x77
    bc90:	e3c33007 	bic	r3, r3, #7
    bc94:	0a0003f0 	beq	cc5c <_svfprintf_r+0x1694>
    bc98:	e283c008 	add	r12, r3, #8
    bc9c:	e5934000 	ldr	r4, [r3]
    bca0:	e5933004 	ldr	r3, [r3, #4]
    bca4:	e58dc048 	str	r12, [sp, #72]	; 0x48
    bca8:	e58d4058 	str	r4, [sp, #88]	; 0x58
    bcac:	e58d305c 	str	r3, [sp, #92]	; 0x5c
    bcb0:	e28d0058 	add	r0, sp, #88	; 0x58
    bcb4:	e8900003 	ldm	r0, {r0, r1}
    bcb8:	ebfff565 	bl	9254 <__fpclassifyd>
    bcbc:	e3500001 	cmp	r0, #1
    bcc0:	e28d0058 	add	r0, sp, #88	; 0x58
    bcc4:	e8900003 	ldm	r0, {r0, r1}
    bcc8:	1a0003d2 	bne	cc18 <_svfprintf_r+0x1650>
    bccc:	e3a03000 	mov	r3, #0
    bcd0:	e3a02000 	mov	r2, #0
    bcd4:	eb00184e 	bl	11e14 <__aeabi_dcmplt>
    bcd8:	e59d4020 	ldr	r4, [sp, #32]
    bcdc:	e3500000 	cmp	r0, #0
    bce0:	13a0a02d 	movne	r10, #45	; 0x2d
    bce4:	e59f38cc 	ldr	r3, [pc, #2252]	; c5b8 <_svfprintf_r+0xff0>
    bce8:	e3a05003 	mov	r5, #3
    bcec:	e3a0c000 	mov	r12, #0
    bcf0:	05dda077 	ldrbeq	r10, [sp, #119]	; 0x77
    bcf4:	15cda077 	strbne	r10, [sp, #119]	; 0x77
    bcf8:	e3c44080 	bic	r4, r4, #128	; 0x80
    bcfc:	e3580047 	cmp	r8, #71	; 0x47
    bd00:	e59f68b4 	ldr	r6, [pc, #2228]	; c5bc <_svfprintf_r+0xff4>
    bd04:	e58d502c 	str	r5, [sp, #44]	; 0x2c
    bd08:	e58dc028 	str	r12, [sp, #40]	; 0x28
    bd0c:	e58d4020 	str	r4, [sp, #32]
    bd10:	d1a06003 	movle	r6, r3
    bd14:	e58d5034 	str	r5, [sp, #52]	; 0x34
    bd18:	e58dc050 	str	r12, [sp, #80]	; 0x50
    bd1c:	eaffff2a 	b	b9cc <_svfprintf_r+0x404>
    bd20:	e59d4020 	ldr	r4, [sp, #32]
    bd24:	e3844008 	orr	r4, r4, #8
    bd28:	e58d4020 	str	r4, [sp, #32]
    bd2c:	e5d38000 	ldrb	r8, [r3]
    bd30:	eafffe70 	b	b6f8 <_svfprintf_r+0x130>
    bd34:	e59d5020 	ldr	r5, [sp, #32]
    bd38:	e3855010 	orr	r5, r5, #16
    bd3c:	e58d5020 	str	r5, [sp, #32]
    bd40:	e59dc020 	ldr	r12, [sp, #32]
    bd44:	e58d3024 	str	r3, [sp, #36]	; 0x24
    bd48:	e21c3020 	ands	r3, r12, #32
    bd4c:	1affff82 	bne	bb5c <_svfprintf_r+0x594>
    bd50:	e59dc020 	ldr	r12, [sp, #32]
    bd54:	e21c2010 	ands	r2, r12, #16
    bd58:	0a0003d0 	beq	cca0 <_svfprintf_r+0x16d8>
    bd5c:	e59d5048 	ldr	r5, [sp, #72]	; 0x48
    bd60:	e5954000 	ldr	r4, [r5]
    bd64:	e2855004 	add	r5, r5, #4
    bd68:	e58d5048 	str	r5, [sp, #72]	; 0x48
    bd6c:	e3a05000 	mov	r5, #0
    bd70:	eafffeea 	b	b920 <_svfprintf_r+0x358>
    bd74:	e59d5020 	ldr	r5, [sp, #32]
    bd78:	e3855020 	orr	r5, r5, #32
    bd7c:	e58d5020 	str	r5, [sp, #32]
    bd80:	e5d38000 	ldrb	r8, [r3]
    bd84:	eafffe5b 	b	b6f8 <_svfprintf_r+0x130>
    bd88:	e59d4048 	ldr	r4, [sp, #72]	; 0x48
    bd8c:	e5946000 	ldr	r6, [r4]
    bd90:	e3a05000 	mov	r5, #0
    bd94:	e1560005 	cmp	r6, r5
    bd98:	e58d3024 	str	r3, [sp, #36]	; 0x24
    bd9c:	e2844004 	add	r4, r4, #4
    bda0:	e5cd5077 	strb	r5, [sp, #119]	; 0x77
    bda4:	0a000505 	beq	d1c0 <_svfprintf_r+0x1bf8>
    bda8:	e59dc028 	ldr	r12, [sp, #40]	; 0x28
    bdac:	e35c0000 	cmp	r12, #0
    bdb0:	e1a00006 	mov	r0, r6
    bdb4:	ba0004e2 	blt	d144 <_svfprintf_r+0x1b7c>
    bdb8:	e1a01005 	mov	r1, r5
    bdbc:	e1a0200c 	mov	r2, r12
    bdc0:	ebffeeed 	bl	797c <memchr>
    bdc4:	e3500000 	cmp	r0, #0
    bdc8:	0a00051b 	beq	d23c <_svfprintf_r+0x1c74>
    bdcc:	e59dc028 	ldr	r12, [sp, #40]	; 0x28
    bdd0:	e0660000 	rsb	r0, r6, r0
    bdd4:	e15c0000 	cmp	r12, r0
    bdd8:	a1a0c000 	movge	r12, r0
    bddc:	e58d4048 	str	r4, [sp, #72]	; 0x48
    bde0:	e1cc4fcc 	bic	r4, r12, r12, asr #31
    bde4:	e58dc034 	str	r12, [sp, #52]	; 0x34
    bde8:	e58d5028 	str	r5, [sp, #40]	; 0x28
    bdec:	e58d402c 	str	r4, [sp, #44]	; 0x2c
    bdf0:	e58d5050 	str	r5, [sp, #80]	; 0x50
    bdf4:	e5dda077 	ldrb	r10, [sp, #119]	; 0x77
    bdf8:	eafffef3 	b	b9cc <_svfprintf_r+0x404>
    bdfc:	e59d5020 	ldr	r5, [sp, #32]
    be00:	e59f47b8 	ldr	r4, [pc, #1976]	; c5c0 <_svfprintf_r+0xff8>
    be04:	e3150020 	tst	r5, #32
    be08:	e58d3024 	str	r3, [sp, #36]	; 0x24
    be0c:	e5cd2077 	strb	r2, [sp, #119]	; 0x77
    be10:	e58d4068 	str	r4, [sp, #104]	; 0x68
    be14:	0a000072 	beq	bfe4 <_svfprintf_r+0xa1c>
    be18:	e59dc048 	ldr	r12, [sp, #72]	; 0x48
    be1c:	e28c3007 	add	r3, r12, #7
    be20:	e3c33007 	bic	r3, r3, #7
    be24:	e2834008 	add	r4, r3, #8
    be28:	e58d4048 	str	r4, [sp, #72]	; 0x48
    be2c:	e8930030 	ldm	r3, {r4, r5}
    be30:	e59dc020 	ldr	r12, [sp, #32]
    be34:	e31c0001 	tst	r12, #1
    be38:	0a00023f 	beq	c73c <_svfprintf_r+0x1174>
    be3c:	e1940005 	orrs	r0, r4, r5
    be40:	0a00023d 	beq	c73c <_svfprintf_r+0x1174>
    be44:	e3a03030 	mov	r3, #48	; 0x30
    be48:	e38cc002 	orr	r12, r12, #2
    be4c:	e5cd3078 	strb	r3, [sp, #120]	; 0x78
    be50:	e5cd8079 	strb	r8, [sp, #121]	; 0x79
    be54:	e58dc020 	str	r12, [sp, #32]
    be58:	e3a03002 	mov	r3, #2
    be5c:	eafffeaf 	b	b920 <_svfprintf_r+0x358>
    be60:	e5d38000 	ldrb	r8, [r3]
    be64:	e3a0202b 	mov	r2, #43	; 0x2b
    be68:	eafffe22 	b	b6f8 <_svfprintf_r+0x130>
    be6c:	e5d38000 	ldrb	r8, [r3]
    be70:	e358006c 	cmp	r8, #108	; 0x6c
    be74:	059dc020 	ldreq	r12, [sp, #32]
    be78:	159d4020 	ldrne	r4, [sp, #32]
    be7c:	e1a01003 	mov	r1, r3
    be80:	038cc020 	orreq	r12, r12, #32
    be84:	13844010 	orrne	r4, r4, #16
    be88:	02833001 	addeq	r3, r3, #1
    be8c:	058dc020 	streq	r12, [sp, #32]
    be90:	05d18001 	ldrbeq	r8, [r1, #1]
    be94:	158d4020 	strne	r4, [sp, #32]
    be98:	eafffe16 	b	b6f8 <_svfprintf_r+0x130>
    be9c:	e59dc020 	ldr	r12, [sp, #32]
    bea0:	e31c0020 	tst	r12, #32
    bea4:	e58d3024 	str	r3, [sp, #36]	; 0x24
    bea8:	e5cd2077 	strb	r2, [sp, #119]	; 0x77
    beac:	0a000371 	beq	cc78 <_svfprintf_r+0x16b0>
    beb0:	e59d4048 	ldr	r4, [sp, #72]	; 0x48
    beb4:	e5941000 	ldr	r1, [r4]
    beb8:	e59d4040 	ldr	r4, [sp, #64]	; 0x40
    bebc:	e1a05fc4 	asr	r5, r4, #31
    bec0:	e1a03005 	mov	r3, r5
    bec4:	e59d5048 	ldr	r5, [sp, #72]	; 0x48
    bec8:	e1a02004 	mov	r2, r4
    becc:	e2855004 	add	r5, r5, #4
    bed0:	e58d5048 	str	r5, [sp, #72]	; 0x48
    bed4:	e881000c 	stm	r1, {r2, r3}
    bed8:	eafffddb 	b	b64c <_svfprintf_r+0x84>
    bedc:	e59dc048 	ldr	r12, [sp, #72]	; 0x48
    bee0:	e59d5020 	ldr	r5, [sp, #32]
    bee4:	e28cc004 	add	r12, r12, #4
    bee8:	e58d3024 	str	r3, [sp, #36]	; 0x24
    beec:	e59d3048 	ldr	r3, [sp, #72]	; 0x48
    bef0:	e58dc048 	str	r12, [sp, #72]	; 0x48
    bef4:	e59fc6c4 	ldr	r12, [pc, #1732]	; c5c0 <_svfprintf_r+0xff8>
    bef8:	e3855002 	orr	r5, r5, #2
    befc:	e5934000 	ldr	r4, [r3]
    bf00:	e3a08078 	mov	r8, #120	; 0x78
    bf04:	e3a03030 	mov	r3, #48	; 0x30
    bf08:	e58d5020 	str	r5, [sp, #32]
    bf0c:	e5cd3078 	strb	r3, [sp, #120]	; 0x78
    bf10:	e3a05000 	mov	r5, #0
    bf14:	e5cd8079 	strb	r8, [sp, #121]	; 0x79
    bf18:	e58dc068 	str	r12, [sp, #104]	; 0x68
    bf1c:	e3a03002 	mov	r3, #2
    bf20:	eafffe7e 	b	b920 <_svfprintf_r+0x358>
    bf24:	e59d5020 	ldr	r5, [sp, #32]
    bf28:	e3855040 	orr	r5, r5, #64	; 0x40
    bf2c:	e58d5020 	str	r5, [sp, #32]
    bf30:	e5d38000 	ldrb	r8, [r3]
    bf34:	eafffdef 	b	b6f8 <_svfprintf_r+0x130>
    bf38:	e3520000 	cmp	r2, #0
    bf3c:	e5d38000 	ldrb	r8, [r3]
    bf40:	03a02020 	moveq	r2, #32
    bf44:	eafffdeb 	b	b6f8 <_svfprintf_r+0x130>
    bf48:	e59d5020 	ldr	r5, [sp, #32]
    bf4c:	e3855001 	orr	r5, r5, #1
    bf50:	e58d5020 	str	r5, [sp, #32]
    bf54:	e5d38000 	ldrb	r8, [r3]
    bf58:	eafffde6 	b	b6f8 <_svfprintf_r+0x130>
    bf5c:	e59dc048 	ldr	r12, [sp, #72]	; 0x48
    bf60:	e59cc000 	ldr	r12, [r12]
    bf64:	e59d4048 	ldr	r4, [sp, #72]	; 0x48
    bf68:	e35c0000 	cmp	r12, #0
    bf6c:	e58dc044 	str	r12, [sp, #68]	; 0x44
    bf70:	e2841004 	add	r1, r4, #4
    bf74:	bafffe3d 	blt	b870 <_svfprintf_r+0x2a8>
    bf78:	e58d1048 	str	r1, [sp, #72]	; 0x48
    bf7c:	e5d38000 	ldrb	r8, [r3]
    bf80:	eafffddc 	b	b6f8 <_svfprintf_r+0x130>
    bf84:	e58d3024 	str	r3, [sp, #36]	; 0x24
    bf88:	e59d3048 	ldr	r3, [sp, #72]	; 0x48
    bf8c:	e59d4048 	ldr	r4, [sp, #72]	; 0x48
    bf90:	e5932000 	ldr	r2, [r3]
    bf94:	e3a0c001 	mov	r12, #1
    bf98:	e2844004 	add	r4, r4, #4
    bf9c:	e3a03000 	mov	r3, #0
    bfa0:	e58dc02c 	str	r12, [sp, #44]	; 0x2c
    bfa4:	e5cd20a0 	strb	r2, [sp, #160]	; 0xa0
    bfa8:	e58d4048 	str	r4, [sp, #72]	; 0x48
    bfac:	e1a0a003 	mov	r10, r3
    bfb0:	e5cd3077 	strb	r3, [sp, #119]	; 0x77
    bfb4:	e58da028 	str	r10, [sp, #40]	; 0x28
    bfb8:	e58da050 	str	r10, [sp, #80]	; 0x50
    bfbc:	e58dc034 	str	r12, [sp, #52]	; 0x34
    bfc0:	e28d60a0 	add	r6, sp, #160	; 0xa0
    bfc4:	eafffe85 	b	b9e0 <_svfprintf_r+0x418>
    bfc8:	e59d5020 	ldr	r5, [sp, #32]
    bfcc:	e59f45f0 	ldr	r4, [pc, #1520]	; c5c4 <_svfprintf_r+0xffc>
    bfd0:	e3150020 	tst	r5, #32
    bfd4:	e58d3024 	str	r3, [sp, #36]	; 0x24
    bfd8:	e5cd2077 	strb	r2, [sp, #119]	; 0x77
    bfdc:	e58d4068 	str	r4, [sp, #104]	; 0x68
    bfe0:	1affff8c 	bne	be18 <_svfprintf_r+0x850>
    bfe4:	e59d5020 	ldr	r5, [sp, #32]
    bfe8:	e3150010 	tst	r5, #16
    bfec:	1a000266 	bne	c98c <_svfprintf_r+0x13c4>
    bff0:	e59d4020 	ldr	r4, [sp, #32]
    bff4:	e3140040 	tst	r4, #64	; 0x40
    bff8:	0a000263 	beq	c98c <_svfprintf_r+0x13c4>
    bffc:	e59d5048 	ldr	r5, [sp, #72]	; 0x48
    c000:	e1d540b0 	ldrh	r4, [r5]
    c004:	e2855004 	add	r5, r5, #4
    c008:	e58d5048 	str	r5, [sp, #72]	; 0x48
    c00c:	e3a05000 	mov	r5, #0
    c010:	eaffff86 	b	be30 <_svfprintf_r+0x868>
    c014:	e59dc020 	ldr	r12, [sp, #32]
    c018:	e31c0020 	tst	r12, #32
    c01c:	e58d3024 	str	r3, [sp, #36]	; 0x24
    c020:	e5cd2077 	strb	r2, [sp, #119]	; 0x77
    c024:	1affff05 	bne	bc40 <_svfprintf_r+0x678>
    c028:	e59d5020 	ldr	r5, [sp, #32]
    c02c:	e3150010 	tst	r5, #16
    c030:	0a000327 	beq	ccd4 <_svfprintf_r+0x170c>
    c034:	e59dc048 	ldr	r12, [sp, #72]	; 0x48
    c038:	e59c4000 	ldr	r4, [r12]
    c03c:	e28cc004 	add	r12, r12, #4
    c040:	e1a05fc4 	asr	r5, r4, #31
    c044:	e58dc048 	str	r12, [sp, #72]	; 0x48
    c048:	e1a02004 	mov	r2, r4
    c04c:	e1a03005 	mov	r3, r5
    c050:	eaffff02 	b	bc60 <_svfprintf_r+0x698>
    c054:	e59d5020 	ldr	r5, [sp, #32]
    c058:	e3855080 	orr	r5, r5, #128	; 0x80
    c05c:	e58d5020 	str	r5, [sp, #32]
    c060:	e5d38000 	ldrb	r8, [r3]
    c064:	eafffda3 	b	b6f8 <_svfprintf_r+0x130>
    c068:	e3a0c000 	mov	r12, #0
    c06c:	e58dc044 	str	r12, [sp, #68]	; 0x44
    c070:	e2481030 	sub	r1, r8, #48	; 0x30
    c074:	e1a0000c 	mov	r0, r12
    c078:	e4d38001 	ldrb	r8, [r3], #1
    c07c:	e0800100 	add	r0, r0, r0, lsl #2
    c080:	e0810080 	add	r0, r1, r0, lsl #1
    c084:	e2481030 	sub	r1, r8, #48	; 0x30
    c088:	e3510009 	cmp	r1, #9
    c08c:	9afffff9 	bls	c078 <_svfprintf_r+0xab0>
    c090:	e58d0044 	str	r0, [sp, #68]	; 0x44
    c094:	eafffd98 	b	b6fc <_svfprintf_r+0x134>
    c098:	e3580000 	cmp	r8, #0
    c09c:	e58d3024 	str	r3, [sp, #36]	; 0x24
    c0a0:	e5cd2077 	strb	r2, [sp, #119]	; 0x77
    c0a4:	0afffe02 	beq	b8b4 <_svfprintf_r+0x2ec>
    c0a8:	e3a03000 	mov	r3, #0
    c0ac:	e3a0c001 	mov	r12, #1
    c0b0:	e1a0a003 	mov	r10, r3
    c0b4:	e58dc02c 	str	r12, [sp, #44]	; 0x2c
    c0b8:	e5cd80a0 	strb	r8, [sp, #160]	; 0xa0
    c0bc:	eaffffbb 	b	bfb0 <_svfprintf_r+0x9e8>
    c0c0:	e59d409c 	ldr	r4, [sp, #156]	; 0x9c
    c0c4:	e35a0000 	cmp	r10, #0
    c0c8:	0a00000a 	beq	c0f8 <_svfprintf_r+0xb30>
    c0cc:	e59d3098 	ldr	r3, [sp, #152]	; 0x98
    c0d0:	e2833001 	add	r3, r3, #1
    c0d4:	e3530007 	cmp	r3, #7
    c0d8:	e2844001 	add	r4, r4, #1
    c0dc:	e28d2077 	add	r2, sp, #119	; 0x77
    c0e0:	e58d3098 	str	r3, [sp, #152]	; 0x98
    c0e4:	e3a03001 	mov	r3, #1
    c0e8:	e887000c 	stm	r7, {r2, r3}
    c0ec:	e58d409c 	str	r4, [sp, #156]	; 0x9c
    c0f0:	d2877008 	addle	r7, r7, #8
    c0f4:	ca00017e 	bgt	c6f4 <_svfprintf_r+0x112c>
    c0f8:	e35b0000 	cmp	r11, #0
    c0fc:	0a00000a 	beq	c12c <_svfprintf_r+0xb64>
    c100:	e59d3098 	ldr	r3, [sp, #152]	; 0x98
    c104:	e2833001 	add	r3, r3, #1
    c108:	e3530007 	cmp	r3, #7
    c10c:	e2844002 	add	r4, r4, #2
    c110:	e28d2078 	add	r2, sp, #120	; 0x78
    c114:	e58d3098 	str	r3, [sp, #152]	; 0x98
    c118:	e3a03002 	mov	r3, #2
    c11c:	e887000c 	stm	r7, {r2, r3}
    c120:	e58d409c 	str	r4, [sp, #156]	; 0x9c
    c124:	d2877008 	addle	r7, r7, #8
    c128:	ca00017a 	bgt	c718 <_svfprintf_r+0x1150>
    c12c:	e59d504c 	ldr	r5, [sp, #76]	; 0x4c
    c130:	e3550080 	cmp	r5, #128	; 0x80
    c134:	0a0000e3 	beq	c4c8 <_svfprintf_r+0xf00>
    c138:	e59dc028 	ldr	r12, [sp, #40]	; 0x28
    c13c:	e59d3034 	ldr	r3, [sp, #52]	; 0x34
    c140:	e063a00c 	rsb	r10, r3, r12
    c144:	e35a0000 	cmp	r10, #0
    c148:	da000034 	ble	c220 <_svfprintf_r+0xc58>
    c14c:	e35a0010 	cmp	r10, #16
    c150:	e59d3098 	ldr	r3, [sp, #152]	; 0x98
    c154:	e59f5478 	ldr	r5, [pc, #1144]	; c5d4 <_svfprintf_r+0x100c>
    c158:	da000020 	ble	c1e0 <_svfprintf_r+0xc18>
    c15c:	e1a02007 	mov	r2, r7
    c160:	e1a01004 	mov	r1, r4
    c164:	e1a07005 	mov	r7, r5
    c168:	e3a0b010 	mov	r11, #16
    c16c:	e59d4038 	ldr	r4, [sp, #56]	; 0x38
    c170:	e59d5030 	ldr	r5, [sp, #48]	; 0x30
    c174:	ea000002 	b	c184 <_svfprintf_r+0xbbc>
    c178:	e24aa010 	sub	r10, r10, #16
    c17c:	e35a0010 	cmp	r10, #16
    c180:	da000013 	ble	c1d4 <_svfprintf_r+0xc0c>
    c184:	e2833001 	add	r3, r3, #1
    c188:	e3530007 	cmp	r3, #7
    c18c:	e2811010 	add	r1, r1, #16
    c190:	e8820a00 	stm	r2, {r9, r11}
    c194:	e58d3098 	str	r3, [sp, #152]	; 0x98
    c198:	e58d109c 	str	r1, [sp, #156]	; 0x9c
    c19c:	d2822008 	addle	r2, r2, #8
    c1a0:	dafffff4 	ble	c178 <_svfprintf_r+0xbb0>
    c1a4:	e1a00004 	mov	r0, r4
    c1a8:	e1a01005 	mov	r1, r5
    c1ac:	e28d2094 	add	r2, sp, #148	; 0x94
    c1b0:	eb000f0f 	bl	fdf4 <__ssprint_r>
    c1b4:	e3500000 	cmp	r0, #0
    c1b8:	1afffdc3 	bne	b8cc <_svfprintf_r+0x304>
    c1bc:	e24aa010 	sub	r10, r10, #16
    c1c0:	e35a0010 	cmp	r10, #16
    c1c4:	e59d109c 	ldr	r1, [sp, #156]	; 0x9c
    c1c8:	e59d3098 	ldr	r3, [sp, #152]	; 0x98
    c1cc:	e28d20c8 	add	r2, sp, #200	; 0xc8
    c1d0:	caffffeb 	bgt	c184 <_svfprintf_r+0xbbc>
    c1d4:	e1a05007 	mov	r5, r7
    c1d8:	e1a04001 	mov	r4, r1
    c1dc:	e1a07002 	mov	r7, r2
    c1e0:	e2833001 	add	r3, r3, #1
    c1e4:	e3530007 	cmp	r3, #7
    c1e8:	e084400a 	add	r4, r4, r10
    c1ec:	e8870420 	stm	r7, {r5, r10}
    c1f0:	e58d3098 	str	r3, [sp, #152]	; 0x98
    c1f4:	e58d409c 	str	r4, [sp, #156]	; 0x9c
    c1f8:	d2877008 	addle	r7, r7, #8
    c1fc:	da000007 	ble	c220 <_svfprintf_r+0xc58>
    c200:	e59d0038 	ldr	r0, [sp, #56]	; 0x38
    c204:	e59d1030 	ldr	r1, [sp, #48]	; 0x30
    c208:	e28d2094 	add	r2, sp, #148	; 0x94
    c20c:	eb000ef8 	bl	fdf4 <__ssprint_r>
    c210:	e3500000 	cmp	r0, #0
    c214:	1afffdac 	bne	b8cc <_svfprintf_r+0x304>
    c218:	e59d409c 	ldr	r4, [sp, #156]	; 0x9c
    c21c:	e28d70c8 	add	r7, sp, #200	; 0xc8
    c220:	e59d5020 	ldr	r5, [sp, #32]
    c224:	e3150c01 	tst	r5, #256	; 0x100
    c228:	1a00004d 	bne	c364 <_svfprintf_r+0xd9c>
    c22c:	e59d3098 	ldr	r3, [sp, #152]	; 0x98
    c230:	e59dc034 	ldr	r12, [sp, #52]	; 0x34
    c234:	e2833001 	add	r3, r3, #1
    c238:	e084400c 	add	r4, r4, r12
    c23c:	e3530007 	cmp	r3, #7
    c240:	e58d409c 	str	r4, [sp, #156]	; 0x9c
    c244:	e8871040 	stm	r7, {r6, r12}
    c248:	e58d3098 	str	r3, [sp, #152]	; 0x98
    c24c:	ca000118 	bgt	c6b4 <_svfprintf_r+0x10ec>
    c250:	e2877008 	add	r7, r7, #8
    c254:	e59dc020 	ldr	r12, [sp, #32]
    c258:	e31c0004 	tst	r12, #4
    c25c:	0a000033 	beq	c330 <_svfprintf_r+0xd68>
    c260:	e59dc044 	ldr	r12, [sp, #68]	; 0x44
    c264:	e59d002c 	ldr	r0, [sp, #44]	; 0x2c
    c268:	e060500c 	rsb	r5, r0, r12
    c26c:	e3550000 	cmp	r5, #0
    c270:	da00002e 	ble	c330 <_svfprintf_r+0xd68>
    c274:	e3550010 	cmp	r5, #16
    c278:	e59d3098 	ldr	r3, [sp, #152]	; 0x98
    c27c:	e59fa330 	ldr	r10, [pc, #816]	; c5b4 <_svfprintf_r+0xfec>
    c280:	da00001b 	ble	c2f4 <_svfprintf_r+0xd2c>
    c284:	e3a06010 	mov	r6, #16
    c288:	e59d8038 	ldr	r8, [sp, #56]	; 0x38
    c28c:	e59db030 	ldr	r11, [sp, #48]	; 0x30
    c290:	ea000002 	b	c2a0 <_svfprintf_r+0xcd8>
    c294:	e2455010 	sub	r5, r5, #16
    c298:	e3550010 	cmp	r5, #16
    c29c:	da000014 	ble	c2f4 <_svfprintf_r+0xd2c>
    c2a0:	e2833001 	add	r3, r3, #1
    c2a4:	e59f1308 	ldr	r1, [pc, #776]	; c5b4 <_svfprintf_r+0xfec>
    c2a8:	e3530007 	cmp	r3, #7
    c2ac:	e2844010 	add	r4, r4, #16
    c2b0:	e8870042 	stm	r7, {r1, r6}
    c2b4:	e58d3098 	str	r3, [sp, #152]	; 0x98
    c2b8:	e58d409c 	str	r4, [sp, #156]	; 0x9c
    c2bc:	d2877008 	addle	r7, r7, #8
    c2c0:	dafffff3 	ble	c294 <_svfprintf_r+0xccc>
    c2c4:	e1a00008 	mov	r0, r8
    c2c8:	e1a0100b 	mov	r1, r11
    c2cc:	e28d2094 	add	r2, sp, #148	; 0x94
    c2d0:	eb000ec7 	bl	fdf4 <__ssprint_r>
    c2d4:	e3500000 	cmp	r0, #0
    c2d8:	1afffd7b 	bne	b8cc <_svfprintf_r+0x304>
    c2dc:	e2455010 	sub	r5, r5, #16
    c2e0:	e28d3098 	add	r3, sp, #152	; 0x98
    c2e4:	e3550010 	cmp	r5, #16
    c2e8:	e8930018 	ldm	r3, {r3, r4}
    c2ec:	e28d70c8 	add	r7, sp, #200	; 0xc8
    c2f0:	caffffea 	bgt	c2a0 <_svfprintf_r+0xcd8>
    c2f4:	e2833001 	add	r3, r3, #1
    c2f8:	e0844005 	add	r4, r4, r5
    c2fc:	e3530007 	cmp	r3, #7
    c300:	e58d3098 	str	r3, [sp, #152]	; 0x98
    c304:	e58d409c 	str	r4, [sp, #156]	; 0x9c
    c308:	e587a000 	str	r10, [r7]
    c30c:	e5875004 	str	r5, [r7, #4]
    c310:	da000006 	ble	c330 <_svfprintf_r+0xd68>
    c314:	e59d0038 	ldr	r0, [sp, #56]	; 0x38
    c318:	e59d1030 	ldr	r1, [sp, #48]	; 0x30
    c31c:	e28d2094 	add	r2, sp, #148	; 0x94
    c320:	eb000eb3 	bl	fdf4 <__ssprint_r>
    c324:	e3500000 	cmp	r0, #0
    c328:	1afffd67 	bne	b8cc <_svfprintf_r+0x304>
    c32c:	e59d409c 	ldr	r4, [sp, #156]	; 0x9c
    c330:	e59d5040 	ldr	r5, [sp, #64]	; 0x40
    c334:	e59dc02c 	ldr	r12, [sp, #44]	; 0x2c
    c338:	e59d0044 	ldr	r0, [sp, #68]	; 0x44
    c33c:	e15c0000 	cmp	r12, r0
    c340:	a085500c 	addge	r5, r5, r12
    c344:	b0855000 	addlt	r5, r5, r0
    c348:	e3540000 	cmp	r4, #0
    c34c:	e58d5040 	str	r5, [sp, #64]	; 0x40
    c350:	1a0000e0 	bne	c6d8 <_svfprintf_r+0x1110>
    c354:	e3a03000 	mov	r3, #0
    c358:	e58d3098 	str	r3, [sp, #152]	; 0x98
    c35c:	e28d70c8 	add	r7, sp, #200	; 0xc8
    c360:	eafffcb9 	b	b64c <_svfprintf_r+0x84>
    c364:	e3580065 	cmp	r8, #101	; 0x65
    c368:	da00009c 	ble	c5e0 <_svfprintf_r+0x1018>
    c36c:	e28d0058 	add	r0, sp, #88	; 0x58
    c370:	e8900003 	ldm	r0, {r0, r1}
    c374:	e3a02000 	mov	r2, #0
    c378:	e3a03000 	mov	r3, #0
    c37c:	eb00169e 	bl	11dfc <__aeabi_dcmpeq>
    c380:	e3500000 	cmp	r0, #0
    c384:	0a0000ee 	beq	c744 <_svfprintf_r+0x117c>
    c388:	e59d3098 	ldr	r3, [sp, #152]	; 0x98
    c38c:	e59f023c 	ldr	r0, [pc, #572]	; c5d0 <_svfprintf_r+0x1008>
    c390:	e2833001 	add	r3, r3, #1
    c394:	e2844001 	add	r4, r4, #1
    c398:	e3530007 	cmp	r3, #7
    c39c:	e3a02001 	mov	r2, #1
    c3a0:	e5870000 	str	r0, [r7]
    c3a4:	e5872004 	str	r2, [r7, #4]
    c3a8:	e58d409c 	str	r4, [sp, #156]	; 0x9c
    c3ac:	e58d3098 	str	r3, [sp, #152]	; 0x98
    c3b0:	d2877008 	addle	r7, r7, #8
    c3b4:	ca000252 	bgt	cd04 <_svfprintf_r+0x173c>
    c3b8:	e59d307c 	ldr	r3, [sp, #124]	; 0x7c
    c3bc:	e59d503c 	ldr	r5, [sp, #60]	; 0x3c
    c3c0:	e1530005 	cmp	r3, r5
    c3c4:	ba000002 	blt	c3d4 <_svfprintf_r+0xe0c>
    c3c8:	e59dc020 	ldr	r12, [sp, #32]
    c3cc:	e31c0001 	tst	r12, #1
    c3d0:	0affff9f 	beq	c254 <_svfprintf_r+0xc8c>
    c3d4:	e59d3098 	ldr	r3, [sp, #152]	; 0x98
    c3d8:	e59d5060 	ldr	r5, [sp, #96]	; 0x60
    c3dc:	e2833001 	add	r3, r3, #1
    c3e0:	e59dc054 	ldr	r12, [sp, #84]	; 0x54
    c3e4:	e0844005 	add	r4, r4, r5
    c3e8:	e3530007 	cmp	r3, #7
    c3ec:	e587c000 	str	r12, [r7]
    c3f0:	e5875004 	str	r5, [r7, #4]
    c3f4:	e58d409c 	str	r4, [sp, #156]	; 0x9c
    c3f8:	e58d3098 	str	r3, [sp, #152]	; 0x98
    c3fc:	d2877008 	addle	r7, r7, #8
    c400:	ca000289 	bgt	ce2c <_svfprintf_r+0x1864>
    c404:	e59d503c 	ldr	r5, [sp, #60]	; 0x3c
    c408:	e2456001 	sub	r6, r5, #1
    c40c:	e3560000 	cmp	r6, #0
    c410:	daffff8f 	ble	c254 <_svfprintf_r+0xc8c>
    c414:	e3560010 	cmp	r6, #16
    c418:	e59d3098 	ldr	r3, [sp, #152]	; 0x98
    c41c:	e59f51b0 	ldr	r5, [pc, #432]	; c5d4 <_svfprintf_r+0x100c>
    c420:	da00014a 	ble	c950 <_svfprintf_r+0x1388>
    c424:	e3a08010 	mov	r8, #16
    c428:	e59da038 	ldr	r10, [sp, #56]	; 0x38
    c42c:	e59db030 	ldr	r11, [sp, #48]	; 0x30
    c430:	ea000002 	b	c440 <_svfprintf_r+0xe78>
    c434:	e2466010 	sub	r6, r6, #16
    c438:	e3560010 	cmp	r6, #16
    c43c:	da000143 	ble	c950 <_svfprintf_r+0x1388>
    c440:	e2833001 	add	r3, r3, #1
    c444:	e3530007 	cmp	r3, #7
    c448:	e2844010 	add	r4, r4, #16
    c44c:	e5879000 	str	r9, [r7]
    c450:	e5878004 	str	r8, [r7, #4]
    c454:	e58d3098 	str	r3, [sp, #152]	; 0x98
    c458:	e58d409c 	str	r4, [sp, #156]	; 0x9c
    c45c:	d2877008 	addle	r7, r7, #8
    c460:	dafffff3 	ble	c434 <_svfprintf_r+0xe6c>
    c464:	e1a0000a 	mov	r0, r10
    c468:	e1a0100b 	mov	r1, r11
    c46c:	e28d2094 	add	r2, sp, #148	; 0x94
    c470:	eb000e5f 	bl	fdf4 <__ssprint_r>
    c474:	e3500000 	cmp	r0, #0
    c478:	1afffd13 	bne	b8cc <_svfprintf_r+0x304>
    c47c:	e28d3098 	add	r3, sp, #152	; 0x98
    c480:	e8930018 	ldm	r3, {r3, r4}
    c484:	e28d70c8 	add	r7, sp, #200	; 0xc8
    c488:	eaffffe9 	b	c434 <_svfprintf_r+0xe6c>
    c48c:	e3530000 	cmp	r3, #0
    c490:	158d2034 	strne	r2, [sp, #52]	; 0x34
    c494:	128d60c8 	addne	r6, sp, #200	; 0xc8
    c498:	1afffd44 	bne	b9b0 <_svfprintf_r+0x3e8>
    c49c:	e59d4020 	ldr	r4, [sp, #32]
    c4a0:	e3140001 	tst	r4, #1
    c4a4:	128d6f42 	addne	r6, sp, #264	; 0x108
    c4a8:	13a03030 	movne	r3, #48	; 0x30
    c4ac:	159d501c 	ldrne	r5, [sp, #28]
    c4b0:	15663041 	strbne	r3, [r6, #-65]!	; 0xffffffbf
    c4b4:	10665005 	rsbne	r5, r6, r5
    c4b8:	158d5034 	strne	r5, [sp, #52]	; 0x34
    c4bc:	058d3034 	streq	r3, [sp, #52]	; 0x34
    c4c0:	028d60c8 	addeq	r6, sp, #200	; 0xc8
    c4c4:	eafffd39 	b	b9b0 <_svfprintf_r+0x3e8>
    c4c8:	e59dc044 	ldr	r12, [sp, #68]	; 0x44
    c4cc:	e59d502c 	ldr	r5, [sp, #44]	; 0x2c
    c4d0:	e065a00c 	rsb	r10, r5, r12
    c4d4:	e35a0000 	cmp	r10, #0
    c4d8:	daffff16 	ble	c138 <_svfprintf_r+0xb70>
    c4dc:	e35a0010 	cmp	r10, #16
    c4e0:	e59d3098 	ldr	r3, [sp, #152]	; 0x98
    c4e4:	e59f50e8 	ldr	r5, [pc, #232]	; c5d4 <_svfprintf_r+0x100c>
    c4e8:	da000020 	ble	c570 <_svfprintf_r+0xfa8>
    c4ec:	e1a02007 	mov	r2, r7
    c4f0:	e1a01004 	mov	r1, r4
    c4f4:	e1a07005 	mov	r7, r5
    c4f8:	e3a0b010 	mov	r11, #16
    c4fc:	e59d4038 	ldr	r4, [sp, #56]	; 0x38
    c500:	e59d5030 	ldr	r5, [sp, #48]	; 0x30
    c504:	ea000002 	b	c514 <_svfprintf_r+0xf4c>
    c508:	e24aa010 	sub	r10, r10, #16
    c50c:	e35a0010 	cmp	r10, #16
    c510:	da000013 	ble	c564 <_svfprintf_r+0xf9c>
    c514:	e2833001 	add	r3, r3, #1
    c518:	e3530007 	cmp	r3, #7
    c51c:	e2811010 	add	r1, r1, #16
    c520:	e8820a00 	stm	r2, {r9, r11}
    c524:	e58d3098 	str	r3, [sp, #152]	; 0x98
    c528:	e58d109c 	str	r1, [sp, #156]	; 0x9c
    c52c:	d2822008 	addle	r2, r2, #8
    c530:	dafffff4 	ble	c508 <_svfprintf_r+0xf40>
    c534:	e1a00004 	mov	r0, r4
    c538:	e1a01005 	mov	r1, r5
    c53c:	e28d2094 	add	r2, sp, #148	; 0x94
    c540:	eb000e2b 	bl	fdf4 <__ssprint_r>
    c544:	e3500000 	cmp	r0, #0
    c548:	1afffcdf 	bne	b8cc <_svfprintf_r+0x304>
    c54c:	e24aa010 	sub	r10, r10, #16
    c550:	e35a0010 	cmp	r10, #16
    c554:	e59d109c 	ldr	r1, [sp, #156]	; 0x9c
    c558:	e59d3098 	ldr	r3, [sp, #152]	; 0x98
    c55c:	e28d20c8 	add	r2, sp, #200	; 0xc8
    c560:	caffffeb 	bgt	c514 <_svfprintf_r+0xf4c>
    c564:	e1a05007 	mov	r5, r7
    c568:	e1a04001 	mov	r4, r1
    c56c:	e1a07002 	mov	r7, r2
    c570:	e2833001 	add	r3, r3, #1
    c574:	e3530007 	cmp	r3, #7
    c578:	e084400a 	add	r4, r4, r10
    c57c:	e8870420 	stm	r7, {r5, r10}
    c580:	e58d3098 	str	r3, [sp, #152]	; 0x98
    c584:	e58d409c 	str	r4, [sp, #156]	; 0x9c
    c588:	d2877008 	addle	r7, r7, #8
    c58c:	dafffee9 	ble	c138 <_svfprintf_r+0xb70>
    c590:	e59d0038 	ldr	r0, [sp, #56]	; 0x38
    c594:	e59d1030 	ldr	r1, [sp, #48]	; 0x30
    c598:	e28d2094 	add	r2, sp, #148	; 0x94
    c59c:	eb000e14 	bl	fdf4 <__ssprint_r>
    c5a0:	e3500000 	cmp	r0, #0
    c5a4:	1afffcc8 	bne	b8cc <_svfprintf_r+0x304>
    c5a8:	e59d409c 	ldr	r4, [sp, #156]	; 0x9c
    c5ac:	e28d70c8 	add	r7, sp, #200	; 0xc8
    c5b0:	eafffee0 	b	c138 <_svfprintf_r+0xb70>
    c5b4:	00013668 	.word	0x00013668
    c5b8:	00013454 	.word	0x00013454
    c5bc:	00013458 	.word	0x00013458
    c5c0:	00013478 	.word	0x00013478
    c5c4:	00013464 	.word	0x00013464
    c5c8:	0001345c 	.word	0x0001345c
    c5cc:	00013460 	.word	0x00013460
    c5d0:	00013494 	.word	0x00013494
    c5d4:	00013678 	.word	0x00013678
    c5d8:	0001348c 	.word	0x0001348c
    c5dc:	66666667 	.word	0x66666667
    c5e0:	e59d503c 	ldr	r5, [sp, #60]	; 0x3c
    c5e4:	e59d8098 	ldr	r8, [sp, #152]	; 0x98
    c5e8:	e3550001 	cmp	r5, #1
    c5ec:	e2888001 	add	r8, r8, #1
    c5f0:	e2844001 	add	r4, r4, #1
    c5f4:	da00014e 	ble	cb34 <_svfprintf_r+0x156c>
    c5f8:	e3580007 	cmp	r8, #7
    c5fc:	e3a03001 	mov	r3, #1
    c600:	e58d409c 	str	r4, [sp, #156]	; 0x9c
    c604:	e5876000 	str	r6, [r7]
    c608:	e58d8098 	str	r8, [sp, #152]	; 0x98
    c60c:	e5873004 	str	r3, [r7, #4]
    c610:	d2877008 	addle	r7, r7, #8
    c614:	ca000151 	bgt	cb60 <_svfprintf_r+0x1598>
    c618:	e59d5060 	ldr	r5, [sp, #96]	; 0x60
    c61c:	e2888001 	add	r8, r8, #1
    c620:	e59dc054 	ldr	r12, [sp, #84]	; 0x54
    c624:	e3580007 	cmp	r8, #7
    c628:	e0844005 	add	r4, r4, r5
    c62c:	e587c000 	str	r12, [r7]
    c630:	e5875004 	str	r5, [r7, #4]
    c634:	e58d8098 	str	r8, [sp, #152]	; 0x98
    c638:	e58d409c 	str	r4, [sp, #156]	; 0x9c
    c63c:	d2877008 	addle	r7, r7, #8
    c640:	ca000150 	bgt	cb88 <_svfprintf_r+0x15c0>
    c644:	e28d0058 	add	r0, sp, #88	; 0x58
    c648:	e8900003 	ldm	r0, {r0, r1}
    c64c:	e3a02000 	mov	r2, #0
    c650:	e3a03000 	mov	r3, #0
    c654:	eb0015e8 	bl	11dfc <__aeabi_dcmpeq>
    c658:	e3500000 	cmp	r0, #0
    c65c:	1a000086 	bne	c87c <_svfprintf_r+0x12b4>
    c660:	e59d503c 	ldr	r5, [sp, #60]	; 0x3c
    c664:	e2888001 	add	r8, r8, #1
    c668:	e2453001 	sub	r3, r5, #1
    c66c:	e2866001 	add	r6, r6, #1
    c670:	e0844003 	add	r4, r4, r3
    c674:	e3580007 	cmp	r8, #7
    c678:	e58d8098 	str	r8, [sp, #152]	; 0x98
    c67c:	e58d409c 	str	r4, [sp, #156]	; 0x9c
    c680:	e5876000 	str	r6, [r7]
    c684:	e5873004 	str	r3, [r7, #4]
    c688:	ca0000a6 	bgt	c928 <_svfprintf_r+0x1360>
    c68c:	e2877008 	add	r7, r7, #8
    c690:	e59d5064 	ldr	r5, [sp, #100]	; 0x64
    c694:	e2888001 	add	r8, r8, #1
    c698:	e0854004 	add	r4, r5, r4
    c69c:	e28d3084 	add	r3, sp, #132	; 0x84
    c6a0:	e3580007 	cmp	r8, #7
    c6a4:	e58d8098 	str	r8, [sp, #152]	; 0x98
    c6a8:	e58d409c 	str	r4, [sp, #156]	; 0x9c
    c6ac:	e8870028 	stm	r7, {r3, r5}
    c6b0:	dafffee6 	ble	c250 <_svfprintf_r+0xc88>
    c6b4:	e59d0038 	ldr	r0, [sp, #56]	; 0x38
    c6b8:	e59d1030 	ldr	r1, [sp, #48]	; 0x30
    c6bc:	e28d2094 	add	r2, sp, #148	; 0x94
    c6c0:	eb000dcb 	bl	fdf4 <__ssprint_r>
    c6c4:	e3500000 	cmp	r0, #0
    c6c8:	1afffc7f 	bne	b8cc <_svfprintf_r+0x304>
    c6cc:	e59d409c 	ldr	r4, [sp, #156]	; 0x9c
    c6d0:	e28d70c8 	add	r7, sp, #200	; 0xc8
    c6d4:	eafffede 	b	c254 <_svfprintf_r+0xc8c>
    c6d8:	e59d0038 	ldr	r0, [sp, #56]	; 0x38
    c6dc:	e59d1030 	ldr	r1, [sp, #48]	; 0x30
    c6e0:	e28d2094 	add	r2, sp, #148	; 0x94
    c6e4:	eb000dc2 	bl	fdf4 <__ssprint_r>
    c6e8:	e3500000 	cmp	r0, #0
    c6ec:	0affff18 	beq	c354 <_svfprintf_r+0xd8c>
    c6f0:	eafffc75 	b	b8cc <_svfprintf_r+0x304>
    c6f4:	e59d0038 	ldr	r0, [sp, #56]	; 0x38
    c6f8:	e59d1030 	ldr	r1, [sp, #48]	; 0x30
    c6fc:	e28d2094 	add	r2, sp, #148	; 0x94
    c700:	eb000dbb 	bl	fdf4 <__ssprint_r>
    c704:	e3500000 	cmp	r0, #0
    c708:	1afffc6f 	bne	b8cc <_svfprintf_r+0x304>
    c70c:	e59d409c 	ldr	r4, [sp, #156]	; 0x9c
    c710:	e28d70c8 	add	r7, sp, #200	; 0xc8
    c714:	eafffe77 	b	c0f8 <_svfprintf_r+0xb30>
    c718:	e59d0038 	ldr	r0, [sp, #56]	; 0x38
    c71c:	e59d1030 	ldr	r1, [sp, #48]	; 0x30
    c720:	e28d2094 	add	r2, sp, #148	; 0x94
    c724:	eb000db2 	bl	fdf4 <__ssprint_r>
    c728:	e3500000 	cmp	r0, #0
    c72c:	1afffc66 	bne	b8cc <_svfprintf_r+0x304>
    c730:	e59d409c 	ldr	r4, [sp, #156]	; 0x9c
    c734:	e28d70c8 	add	r7, sp, #200	; 0xc8
    c738:	eafffe7b 	b	c12c <_svfprintf_r+0xb64>
    c73c:	e3a03002 	mov	r3, #2
    c740:	eafffc76 	b	b920 <_svfprintf_r+0x358>
    c744:	e59d307c 	ldr	r3, [sp, #124]	; 0x7c
    c748:	e3530000 	cmp	r3, #0
    c74c:	da000175 	ble	cd28 <_svfprintf_r+0x1760>
    c750:	e59dc050 	ldr	r12, [sp, #80]	; 0x50
    c754:	e59d503c 	ldr	r5, [sp, #60]	; 0x3c
    c758:	e155000c 	cmp	r5, r12
    c75c:	a1a0500c 	movge	r5, r12
    c760:	e59dc03c 	ldr	r12, [sp, #60]	; 0x3c
    c764:	e3550000 	cmp	r5, #0
    c768:	e086b00c 	add	r11, r6, r12
    c76c:	da000009 	ble	c798 <_svfprintf_r+0x11d0>
    c770:	e59d3098 	ldr	r3, [sp, #152]	; 0x98
    c774:	e2833001 	add	r3, r3, #1
    c778:	e0844005 	add	r4, r4, r5
    c77c:	e3530007 	cmp	r3, #7
    c780:	e5876000 	str	r6, [r7]
    c784:	e5875004 	str	r5, [r7, #4]
    c788:	e58d409c 	str	r4, [sp, #156]	; 0x9c
    c78c:	e58d3098 	str	r3, [sp, #152]	; 0x98
    c790:	d2877008 	addle	r7, r7, #8
    c794:	ca000274 	bgt	d16c <_svfprintf_r+0x1ba4>
    c798:	e59dc050 	ldr	r12, [sp, #80]	; 0x50
    c79c:	e1c55fc5 	bic	r5, r5, r5, asr #31
    c7a0:	e065800c 	rsb	r8, r5, r12
    c7a4:	e3580000 	cmp	r8, #0
    c7a8:	da000090 	ble	c9f0 <_svfprintf_r+0x1428>
    c7ac:	e3580010 	cmp	r8, #16
    c7b0:	e59d3098 	ldr	r3, [sp, #152]	; 0x98
    c7b4:	e51f51e8 	ldr	r5, [pc, #-488]	; c5d4 <_svfprintf_r+0x100c>
    c7b8:	da00007c 	ble	c9b0 <_svfprintf_r+0x13e8>
    c7bc:	e1a02007 	mov	r2, r7
    c7c0:	e1a01004 	mov	r1, r4
    c7c4:	e1a07005 	mov	r7, r5
    c7c8:	e3a0a010 	mov	r10, #16
    c7cc:	e59d4038 	ldr	r4, [sp, #56]	; 0x38
    c7d0:	e59d5030 	ldr	r5, [sp, #48]	; 0x30
    c7d4:	ea000002 	b	c7e4 <_svfprintf_r+0x121c>
    c7d8:	e2488010 	sub	r8, r8, #16
    c7dc:	e3580010 	cmp	r8, #16
    c7e0:	da00006f 	ble	c9a4 <_svfprintf_r+0x13dc>
    c7e4:	e2833001 	add	r3, r3, #1
    c7e8:	e3530007 	cmp	r3, #7
    c7ec:	e2811010 	add	r1, r1, #16
    c7f0:	e8820600 	stm	r2, {r9, r10}
    c7f4:	e58d3098 	str	r3, [sp, #152]	; 0x98
    c7f8:	e58d109c 	str	r1, [sp, #156]	; 0x9c
    c7fc:	d2822008 	addle	r2, r2, #8
    c800:	dafffff4 	ble	c7d8 <_svfprintf_r+0x1210>
    c804:	e1a00004 	mov	r0, r4
    c808:	e1a01005 	mov	r1, r5
    c80c:	e28d2094 	add	r2, sp, #148	; 0x94
    c810:	eb000d77 	bl	fdf4 <__ssprint_r>
    c814:	e3500000 	cmp	r0, #0
    c818:	1afffc2b 	bne	b8cc <_svfprintf_r+0x304>
    c81c:	e59d109c 	ldr	r1, [sp, #156]	; 0x9c
    c820:	e59d3098 	ldr	r3, [sp, #152]	; 0x98
    c824:	e28d20c8 	add	r2, sp, #200	; 0xc8
    c828:	eaffffea 	b	c7d8 <_svfprintf_r+0x1210>
    c82c:	e3550000 	cmp	r5, #0
    c830:	03540009 	cmpeq	r4, #9
    c834:	8a0000dd 	bhi	cbb0 <_svfprintf_r+0x15e8>
    c838:	e2844030 	add	r4, r4, #48	; 0x30
    c83c:	e28d6f42 	add	r6, sp, #264	; 0x108
    c840:	e5664041 	strb	r4, [r6, #-65]!	; 0xffffffbf
    c844:	e59d501c 	ldr	r5, [sp, #28]
    c848:	e0665005 	rsb	r5, r6, r5
    c84c:	e58d5034 	str	r5, [sp, #52]	; 0x34
    c850:	eafffc56 	b	b9b0 <_svfprintf_r+0x3e8>
    c854:	e59d0038 	ldr	r0, [sp, #56]	; 0x38
    c858:	e59d1030 	ldr	r1, [sp, #48]	; 0x30
    c85c:	e28d2094 	add	r2, sp, #148	; 0x94
    c860:	eb000d63 	bl	fdf4 <__ssprint_r>
    c864:	e3500000 	cmp	r0, #0
    c868:	1afffc17 	bne	b8cc <_svfprintf_r+0x304>
    c86c:	e5dda077 	ldrb	r10, [sp, #119]	; 0x77
    c870:	e59d409c 	ldr	r4, [sp, #156]	; 0x9c
    c874:	e28d70c8 	add	r7, sp, #200	; 0xc8
    c878:	eafffe11 	b	c0c4 <_svfprintf_r+0xafc>
    c87c:	e59dc03c 	ldr	r12, [sp, #60]	; 0x3c
    c880:	e24c6001 	sub	r6, r12, #1
    c884:	e3560000 	cmp	r6, #0
    c888:	daffff80 	ble	c690 <_svfprintf_r+0x10c8>
    c88c:	e3560010 	cmp	r6, #16
    c890:	e51f52c4 	ldr	r5, [pc, #-708]	; c5d4 <_svfprintf_r+0x100c>
    c894:	da00001c 	ble	c90c <_svfprintf_r+0x1344>
    c898:	e58d5028 	str	r5, [sp, #40]	; 0x28
    c89c:	e3a0a010 	mov	r10, #16
    c8a0:	e59db038 	ldr	r11, [sp, #56]	; 0x38
    c8a4:	e59d5030 	ldr	r5, [sp, #48]	; 0x30
    c8a8:	ea000002 	b	c8b8 <_svfprintf_r+0x12f0>
    c8ac:	e2466010 	sub	r6, r6, #16
    c8b0:	e3560010 	cmp	r6, #16
    c8b4:	da000013 	ble	c908 <_svfprintf_r+0x1340>
    c8b8:	e2888001 	add	r8, r8, #1
    c8bc:	e3580007 	cmp	r8, #7
    c8c0:	e2844010 	add	r4, r4, #16
    c8c4:	e8870600 	stm	r7, {r9, r10}
    c8c8:	e58d8098 	str	r8, [sp, #152]	; 0x98
    c8cc:	e58d409c 	str	r4, [sp, #156]	; 0x9c
    c8d0:	d2877008 	addle	r7, r7, #8
    c8d4:	dafffff4 	ble	c8ac <_svfprintf_r+0x12e4>
    c8d8:	e1a0000b 	mov	r0, r11
    c8dc:	e1a01005 	mov	r1, r5
    c8e0:	e28d2094 	add	r2, sp, #148	; 0x94
    c8e4:	eb000d42 	bl	fdf4 <__ssprint_r>
    c8e8:	e3500000 	cmp	r0, #0
    c8ec:	1afffbf6 	bne	b8cc <_svfprintf_r+0x304>
    c8f0:	e2466010 	sub	r6, r6, #16
    c8f4:	e3560010 	cmp	r6, #16
    c8f8:	e59d409c 	ldr	r4, [sp, #156]	; 0x9c
    c8fc:	e59d8098 	ldr	r8, [sp, #152]	; 0x98
    c900:	e28d70c8 	add	r7, sp, #200	; 0xc8
    c904:	caffffeb 	bgt	c8b8 <_svfprintf_r+0x12f0>
    c908:	e59d5028 	ldr	r5, [sp, #40]	; 0x28
    c90c:	e2888001 	add	r8, r8, #1
    c910:	e0844006 	add	r4, r4, r6
    c914:	e3580007 	cmp	r8, #7
    c918:	e58d8098 	str	r8, [sp, #152]	; 0x98
    c91c:	e58d409c 	str	r4, [sp, #156]	; 0x9c
    c920:	e8870060 	stm	r7, {r5, r6}
    c924:	daffff58 	ble	c68c <_svfprintf_r+0x10c4>
    c928:	e59d0038 	ldr	r0, [sp, #56]	; 0x38
    c92c:	e59d1030 	ldr	r1, [sp, #48]	; 0x30
    c930:	e28d2094 	add	r2, sp, #148	; 0x94
    c934:	eb000d2e 	bl	fdf4 <__ssprint_r>
    c938:	e3500000 	cmp	r0, #0
    c93c:	1afffbe2 	bne	b8cc <_svfprintf_r+0x304>
    c940:	e59d409c 	ldr	r4, [sp, #156]	; 0x9c
    c944:	e59d8098 	ldr	r8, [sp, #152]	; 0x98
    c948:	e28d70c8 	add	r7, sp, #200	; 0xc8
    c94c:	eaffff4f 	b	c690 <_svfprintf_r+0x10c8>
    c950:	e2833001 	add	r3, r3, #1
    c954:	e0844006 	add	r4, r4, r6
    c958:	e3530007 	cmp	r3, #7
    c95c:	e58d3098 	str	r3, [sp, #152]	; 0x98
    c960:	e58d409c 	str	r4, [sp, #156]	; 0x9c
    c964:	e8870060 	stm	r7, {r5, r6}
    c968:	dafffe38 	ble	c250 <_svfprintf_r+0xc88>
    c96c:	eaffff50 	b	c6b4 <_svfprintf_r+0x10ec>
    c970:	e59dc048 	ldr	r12, [sp, #72]	; 0x48
    c974:	e59c4000 	ldr	r4, [r12]
    c978:	e28cc004 	add	r12, r12, #4
    c97c:	e3a03001 	mov	r3, #1
    c980:	e58dc048 	str	r12, [sp, #72]	; 0x48
    c984:	e3a05000 	mov	r5, #0
    c988:	eafffbe4 	b	b920 <_svfprintf_r+0x358>
    c98c:	e59dc048 	ldr	r12, [sp, #72]	; 0x48
    c990:	e59c4000 	ldr	r4, [r12]
    c994:	e28cc004 	add	r12, r12, #4
    c998:	e58dc048 	str	r12, [sp, #72]	; 0x48
    c99c:	e3a05000 	mov	r5, #0
    c9a0:	eafffd22 	b	be30 <_svfprintf_r+0x868>
    c9a4:	e1a05007 	mov	r5, r7
    c9a8:	e1a04001 	mov	r4, r1
    c9ac:	e1a07002 	mov	r7, r2
    c9b0:	e2833001 	add	r3, r3, #1
    c9b4:	e3530007 	cmp	r3, #7
    c9b8:	e0844008 	add	r4, r4, r8
    c9bc:	e8870120 	stm	r7, {r5, r8}
    c9c0:	e58d3098 	str	r3, [sp, #152]	; 0x98
    c9c4:	e58d409c 	str	r4, [sp, #156]	; 0x9c
    c9c8:	d2877008 	addle	r7, r7, #8
    c9cc:	da000007 	ble	c9f0 <_svfprintf_r+0x1428>
    c9d0:	e59d0038 	ldr	r0, [sp, #56]	; 0x38
    c9d4:	e59d1030 	ldr	r1, [sp, #48]	; 0x30
    c9d8:	e28d2094 	add	r2, sp, #148	; 0x94
    c9dc:	eb000d04 	bl	fdf4 <__ssprint_r>
    c9e0:	e3500000 	cmp	r0, #0
    c9e4:	1afffbb8 	bne	b8cc <_svfprintf_r+0x304>
    c9e8:	e59d409c 	ldr	r4, [sp, #156]	; 0x9c
    c9ec:	e28d70c8 	add	r7, sp, #200	; 0xc8
    c9f0:	e59d307c 	ldr	r3, [sp, #124]	; 0x7c
    c9f4:	e59d503c 	ldr	r5, [sp, #60]	; 0x3c
    c9f8:	e59dc050 	ldr	r12, [sp, #80]	; 0x50
    c9fc:	e1530005 	cmp	r3, r5
    ca00:	e086600c 	add	r6, r6, r12
    ca04:	ba000035 	blt	cae0 <_svfprintf_r+0x1518>
    ca08:	e59d5020 	ldr	r5, [sp, #32]
    ca0c:	e3150001 	tst	r5, #1
    ca10:	1a000032 	bne	cae0 <_svfprintf_r+0x1518>
    ca14:	e59dc03c 	ldr	r12, [sp, #60]	; 0x3c
    ca18:	e066500b 	rsb	r5, r6, r11
    ca1c:	e063300c 	rsb	r3, r3, r12
    ca20:	e1550003 	cmp	r5, r3
    ca24:	a1a05003 	movge	r5, r3
    ca28:	e3550000 	cmp	r5, #0
    ca2c:	da000009 	ble	ca58 <_svfprintf_r+0x1490>
    ca30:	e59d2098 	ldr	r2, [sp, #152]	; 0x98
    ca34:	e2822001 	add	r2, r2, #1
    ca38:	e0844005 	add	r4, r4, r5
    ca3c:	e3520007 	cmp	r2, #7
    ca40:	e5876000 	str	r6, [r7]
    ca44:	e5875004 	str	r5, [r7, #4]
    ca48:	e58d409c 	str	r4, [sp, #156]	; 0x9c
    ca4c:	e58d2098 	str	r2, [sp, #152]	; 0x98
    ca50:	d2877008 	addle	r7, r7, #8
    ca54:	ca0001cd 	bgt	d190 <_svfprintf_r+0x1bc8>
    ca58:	e1c55fc5 	bic	r5, r5, r5, asr #31
    ca5c:	e0656003 	rsb	r6, r5, r3
    ca60:	e3560000 	cmp	r6, #0
    ca64:	dafffdfa 	ble	c254 <_svfprintf_r+0xc8c>
    ca68:	e3560010 	cmp	r6, #16
    ca6c:	e59d3098 	ldr	r3, [sp, #152]	; 0x98
    ca70:	e51f54a4 	ldr	r5, [pc, #-1188]	; c5d4 <_svfprintf_r+0x100c>
    ca74:	daffffb5 	ble	c950 <_svfprintf_r+0x1388>
    ca78:	e3a08010 	mov	r8, #16
    ca7c:	e59da038 	ldr	r10, [sp, #56]	; 0x38
    ca80:	e59db030 	ldr	r11, [sp, #48]	; 0x30
    ca84:	ea000002 	b	ca94 <_svfprintf_r+0x14cc>
    ca88:	e2466010 	sub	r6, r6, #16
    ca8c:	e3560010 	cmp	r6, #16
    ca90:	daffffae 	ble	c950 <_svfprintf_r+0x1388>
    ca94:	e2833001 	add	r3, r3, #1
    ca98:	e3530007 	cmp	r3, #7
    ca9c:	e2844010 	add	r4, r4, #16
    caa0:	e5879000 	str	r9, [r7]
    caa4:	e5878004 	str	r8, [r7, #4]
    caa8:	e58d3098 	str	r3, [sp, #152]	; 0x98
    caac:	e58d409c 	str	r4, [sp, #156]	; 0x9c
    cab0:	d2877008 	addle	r7, r7, #8
    cab4:	dafffff3 	ble	ca88 <_svfprintf_r+0x14c0>
    cab8:	e1a0000a 	mov	r0, r10
    cabc:	e1a0100b 	mov	r1, r11
    cac0:	e28d2094 	add	r2, sp, #148	; 0x94
    cac4:	eb000cca 	bl	fdf4 <__ssprint_r>
    cac8:	e3500000 	cmp	r0, #0
    cacc:	1afffb7e 	bne	b8cc <_svfprintf_r+0x304>
    cad0:	e28d3098 	add	r3, sp, #152	; 0x98
    cad4:	e8930018 	ldm	r3, {r3, r4}
    cad8:	e28d70c8 	add	r7, sp, #200	; 0xc8
    cadc:	eaffffe9 	b	ca88 <_svfprintf_r+0x14c0>
    cae0:	e59d2098 	ldr	r2, [sp, #152]	; 0x98
    cae4:	e59dc060 	ldr	r12, [sp, #96]	; 0x60
    cae8:	e2822001 	add	r2, r2, #1
    caec:	e59d5054 	ldr	r5, [sp, #84]	; 0x54
    caf0:	e084400c 	add	r4, r4, r12
    caf4:	e3520007 	cmp	r2, #7
    caf8:	e8871020 	stm	r7, {r5, r12}
    cafc:	e58d409c 	str	r4, [sp, #156]	; 0x9c
    cb00:	e58d2098 	str	r2, [sp, #152]	; 0x98
    cb04:	d2877008 	addle	r7, r7, #8
    cb08:	daffffc1 	ble	ca14 <_svfprintf_r+0x144c>
    cb0c:	e59d0038 	ldr	r0, [sp, #56]	; 0x38
    cb10:	e59d1030 	ldr	r1, [sp, #48]	; 0x30
    cb14:	e28d2094 	add	r2, sp, #148	; 0x94
    cb18:	eb000cb5 	bl	fdf4 <__ssprint_r>
    cb1c:	e3500000 	cmp	r0, #0
    cb20:	1afffb69 	bne	b8cc <_svfprintf_r+0x304>
    cb24:	e59d307c 	ldr	r3, [sp, #124]	; 0x7c
    cb28:	e59d409c 	ldr	r4, [sp, #156]	; 0x9c
    cb2c:	e28d70c8 	add	r7, sp, #200	; 0xc8
    cb30:	eaffffb7 	b	ca14 <_svfprintf_r+0x144c>
    cb34:	e59dc020 	ldr	r12, [sp, #32]
    cb38:	e31c0001 	tst	r12, #1
    cb3c:	1afffead 	bne	c5f8 <_svfprintf_r+0x1030>
    cb40:	e3a03001 	mov	r3, #1
    cb44:	e3580007 	cmp	r8, #7
    cb48:	e58d409c 	str	r4, [sp, #156]	; 0x9c
    cb4c:	e58d8098 	str	r8, [sp, #152]	; 0x98
    cb50:	e5876000 	str	r6, [r7]
    cb54:	e5873004 	str	r3, [r7, #4]
    cb58:	dafffecb 	ble	c68c <_svfprintf_r+0x10c4>
    cb5c:	eaffff71 	b	c928 <_svfprintf_r+0x1360>
    cb60:	e59d0038 	ldr	r0, [sp, #56]	; 0x38
    cb64:	e59d1030 	ldr	r1, [sp, #48]	; 0x30
    cb68:	e28d2094 	add	r2, sp, #148	; 0x94
    cb6c:	eb000ca0 	bl	fdf4 <__ssprint_r>
    cb70:	e3500000 	cmp	r0, #0
    cb74:	1afffb54 	bne	b8cc <_svfprintf_r+0x304>
    cb78:	e59d409c 	ldr	r4, [sp, #156]	; 0x9c
    cb7c:	e59d8098 	ldr	r8, [sp, #152]	; 0x98
    cb80:	e28d70c8 	add	r7, sp, #200	; 0xc8
    cb84:	eafffea3 	b	c618 <_svfprintf_r+0x1050>
    cb88:	e59d0038 	ldr	r0, [sp, #56]	; 0x38
    cb8c:	e59d1030 	ldr	r1, [sp, #48]	; 0x30
    cb90:	e28d2094 	add	r2, sp, #148	; 0x94
    cb94:	eb000c96 	bl	fdf4 <__ssprint_r>
    cb98:	e3500000 	cmp	r0, #0
    cb9c:	1afffb4a 	bne	b8cc <_svfprintf_r+0x304>
    cba0:	e59d409c 	ldr	r4, [sp, #156]	; 0x9c
    cba4:	e59d8098 	ldr	r8, [sp, #152]	; 0x98
    cba8:	e28d70c8 	add	r7, sp, #200	; 0xc8
    cbac:	eafffea4 	b	c644 <_svfprintf_r+0x107c>
    cbb0:	e28db0c7 	add	r11, sp, #199	; 0xc7
    cbb4:	e1a00004 	mov	r0, r4
    cbb8:	e1a01005 	mov	r1, r5
    cbbc:	e3a0200a 	mov	r2, #10
    cbc0:	e3a03000 	mov	r3, #0
    cbc4:	eb001543 	bl	120d8 <__aeabi_uldivmod>
    cbc8:	e2822030 	add	r2, r2, #48	; 0x30
    cbcc:	e5cb2000 	strb	r2, [r11]
    cbd0:	e1a00004 	mov	r0, r4
    cbd4:	e1a01005 	mov	r1, r5
    cbd8:	e3a0200a 	mov	r2, #10
    cbdc:	e3a03000 	mov	r3, #0
    cbe0:	eb00153c 	bl	120d8 <__aeabi_uldivmod>
    cbe4:	e1a04000 	mov	r4, r0
    cbe8:	e1a05001 	mov	r5, r1
    cbec:	e194c005 	orrs	r12, r4, r5
    cbf0:	e1a0600b 	mov	r6, r11
    cbf4:	e24bb001 	sub	r11, r11, #1
    cbf8:	1affffed 	bne	cbb4 <_svfprintf_r+0x15ec>
    cbfc:	eafffb68 	b	b9a4 <_svfprintf_r+0x3dc>
    cc00:	e3a0a02d 	mov	r10, #45	; 0x2d
    cc04:	e2744000 	rsbs	r4, r4, #0
    cc08:	e2e55000 	rsc	r5, r5, #0
    cc0c:	e5cda077 	strb	r10, [sp, #119]	; 0x77
    cc10:	e3a03001 	mov	r3, #1
    cc14:	eafffb43 	b	b928 <_svfprintf_r+0x360>
    cc18:	ebfff18d 	bl	9254 <__fpclassifyd>
    cc1c:	e3500000 	cmp	r0, #0
    cc20:	1a00008a 	bne	ce50 <_svfprintf_r+0x1888>
    cc24:	e59dc020 	ldr	r12, [sp, #32]
    cc28:	e51f3668 	ldr	r3, [pc, #-1640]	; c5c8 <_svfprintf_r+0x1000>
    cc2c:	e3a05003 	mov	r5, #3
    cc30:	e3ccc080 	bic	r12, r12, #128	; 0x80
    cc34:	e3580047 	cmp	r8, #71	; 0x47
    cc38:	e51f6674 	ldr	r6, [pc, #-1652]	; c5cc <_svfprintf_r+0x1004>
    cc3c:	e58d0028 	str	r0, [sp, #40]	; 0x28
    cc40:	e58d502c 	str	r5, [sp, #44]	; 0x2c
    cc44:	e58dc020 	str	r12, [sp, #32]
    cc48:	e58d0050 	str	r0, [sp, #80]	; 0x50
    cc4c:	d1a06003 	movle	r6, r3
    cc50:	e58d5034 	str	r5, [sp, #52]	; 0x34
    cc54:	e5dda077 	ldrb	r10, [sp, #119]	; 0x77
    cc58:	eafffb5b 	b	b9cc <_svfprintf_r+0x404>
    cc5c:	e593c000 	ldr	r12, [r3]
    cc60:	e5934004 	ldr	r4, [r3, #4]
    cc64:	e2833008 	add	r3, r3, #8
    cc68:	e58dc058 	str	r12, [sp, #88]	; 0x58
    cc6c:	e58d405c 	str	r4, [sp, #92]	; 0x5c
    cc70:	e58d3048 	str	r3, [sp, #72]	; 0x48
    cc74:	eafffc0d 	b	bcb0 <_svfprintf_r+0x6e8>
    cc78:	e59dc020 	ldr	r12, [sp, #32]
    cc7c:	e31c0010 	tst	r12, #16
    cc80:	0a0000aa 	beq	cf30 <_svfprintf_r+0x1968>
    cc84:	e59d4048 	ldr	r4, [sp, #72]	; 0x48
    cc88:	e59d5040 	ldr	r5, [sp, #64]	; 0x40
    cc8c:	e5943000 	ldr	r3, [r4]
    cc90:	e2844004 	add	r4, r4, #4
    cc94:	e58d4048 	str	r4, [sp, #72]	; 0x48
    cc98:	e5835000 	str	r5, [r3]
    cc9c:	eafffa6a 	b	b64c <_svfprintf_r+0x84>
    cca0:	e59dc020 	ldr	r12, [sp, #32]
    cca4:	e21c3040 	ands	r3, r12, #64	; 0x40
    cca8:	159d5048 	ldrne	r5, [sp, #72]	; 0x48
    ccac:	059dc048 	ldreq	r12, [sp, #72]	; 0x48
    ccb0:	11d540b0 	ldrhne	r4, [r5]
    ccb4:	059c4000 	ldreq	r4, [r12]
    ccb8:	12855004 	addne	r5, r5, #4
    ccbc:	028cc004 	addeq	r12, r12, #4
    ccc0:	158d5048 	strne	r5, [sp, #72]	; 0x48
    ccc4:	11a03002 	movne	r3, r2
    ccc8:	058dc048 	streq	r12, [sp, #72]	; 0x48
    cccc:	e3a05000 	mov	r5, #0
    ccd0:	eafffb12 	b	b920 <_svfprintf_r+0x358>
    ccd4:	e59d4020 	ldr	r4, [sp, #32]
    ccd8:	e59d5048 	ldr	r5, [sp, #72]	; 0x48
    ccdc:	e3140040 	tst	r4, #64	; 0x40
    cce0:	11d540f0 	ldrshne	r4, [r5]
    cce4:	05954000 	ldreq	r4, [r5]
    cce8:	e59dc048 	ldr	r12, [sp, #72]	; 0x48
    ccec:	e1a05fc4 	asr	r5, r4, #31
    ccf0:	e28cc004 	add	r12, r12, #4
    ccf4:	e58dc048 	str	r12, [sp, #72]	; 0x48
    ccf8:	e1a02004 	mov	r2, r4
    ccfc:	e1a03005 	mov	r3, r5
    cd00:	eafffbd6 	b	bc60 <_svfprintf_r+0x698>
    cd04:	e59d0038 	ldr	r0, [sp, #56]	; 0x38
    cd08:	e59d1030 	ldr	r1, [sp, #48]	; 0x30
    cd0c:	e28d2094 	add	r2, sp, #148	; 0x94
    cd10:	eb000c37 	bl	fdf4 <__ssprint_r>
    cd14:	e3500000 	cmp	r0, #0
    cd18:	1afffaeb 	bne	b8cc <_svfprintf_r+0x304>
    cd1c:	e59d409c 	ldr	r4, [sp, #156]	; 0x9c
    cd20:	e28d70c8 	add	r7, sp, #200	; 0xc8
    cd24:	eafffda3 	b	c3b8 <_svfprintf_r+0xdf0>
    cd28:	e59d2098 	ldr	r2, [sp, #152]	; 0x98
    cd2c:	e51fc764 	ldr	r12, [pc, #-1892]	; c5d0 <_svfprintf_r+0x1008>
    cd30:	e2822001 	add	r2, r2, #1
    cd34:	e2844001 	add	r4, r4, #1
    cd38:	e3a01001 	mov	r1, #1
    cd3c:	e3520007 	cmp	r2, #7
    cd40:	e58d409c 	str	r4, [sp, #156]	; 0x9c
    cd44:	e587c000 	str	r12, [r7]
    cd48:	e58d2098 	str	r2, [sp, #152]	; 0x98
    cd4c:	e5871004 	str	r1, [r7, #4]
    cd50:	ca0000d5 	bgt	d0ac <_svfprintf_r+0x1ae4>
    cd54:	e2877008 	add	r7, r7, #8
    cd58:	e1a08003 	mov	r8, r3
    cd5c:	e3580000 	cmp	r8, #0
    cd60:	1a000005 	bne	cd7c <_svfprintf_r+0x17b4>
    cd64:	e59d503c 	ldr	r5, [sp, #60]	; 0x3c
    cd68:	e3550000 	cmp	r5, #0
    cd6c:	1a000002 	bne	cd7c <_svfprintf_r+0x17b4>
    cd70:	e59dc020 	ldr	r12, [sp, #32]
    cd74:	e31c0001 	tst	r12, #1
    cd78:	0afffd35 	beq	c254 <_svfprintf_r+0xc8c>
    cd7c:	e59d3098 	ldr	r3, [sp, #152]	; 0x98
    cd80:	e59d5060 	ldr	r5, [sp, #96]	; 0x60
    cd84:	e2833001 	add	r3, r3, #1
    cd88:	e59dc054 	ldr	r12, [sp, #84]	; 0x54
    cd8c:	e0844005 	add	r4, r4, r5
    cd90:	e3530007 	cmp	r3, #7
    cd94:	e587c000 	str	r12, [r7]
    cd98:	e5875004 	str	r5, [r7, #4]
    cd9c:	e58d409c 	str	r4, [sp, #156]	; 0x9c
    cda0:	e58d3098 	str	r3, [sp, #152]	; 0x98
    cda4:	d2877008 	addle	r7, r7, #8
    cda8:	ca00014c 	bgt	d2e0 <_svfprintf_r+0x1d18>
    cdac:	e2688000 	rsb	r8, r8, #0
    cdb0:	e3580000 	cmp	r8, #0
    cdb4:	da0000d8 	ble	d11c <_svfprintf_r+0x1b54>
    cdb8:	e3580010 	cmp	r8, #16
    cdbc:	e51f57f0 	ldr	r5, [pc, #-2032]	; c5d4 <_svfprintf_r+0x100c>
    cdc0:	da0000c4 	ble	d0d8 <_svfprintf_r+0x1b10>
    cdc4:	e1a02004 	mov	r2, r4
    cdc8:	e3a0a010 	mov	r10, #16
    cdcc:	e59db038 	ldr	r11, [sp, #56]	; 0x38
    cdd0:	e59d4030 	ldr	r4, [sp, #48]	; 0x30
    cdd4:	ea000002 	b	cde4 <_svfprintf_r+0x181c>
    cdd8:	e2488010 	sub	r8, r8, #16
    cddc:	e3580010 	cmp	r8, #16
    cde0:	da0000bb 	ble	d0d4 <_svfprintf_r+0x1b0c>
    cde4:	e2833001 	add	r3, r3, #1
    cde8:	e3530007 	cmp	r3, #7
    cdec:	e2822010 	add	r2, r2, #16
    cdf0:	e8870600 	stm	r7, {r9, r10}
    cdf4:	e58d3098 	str	r3, [sp, #152]	; 0x98
    cdf8:	e58d209c 	str	r2, [sp, #156]	; 0x9c
    cdfc:	d2877008 	addle	r7, r7, #8
    ce00:	dafffff4 	ble	cdd8 <_svfprintf_r+0x1810>
    ce04:	e1a0000b 	mov	r0, r11
    ce08:	e1a01004 	mov	r1, r4
    ce0c:	e28d2094 	add	r2, sp, #148	; 0x94
    ce10:	eb000bf7 	bl	fdf4 <__ssprint_r>
    ce14:	e3500000 	cmp	r0, #0
    ce18:	1afffaab 	bne	b8cc <_svfprintf_r+0x304>
    ce1c:	e59d209c 	ldr	r2, [sp, #156]	; 0x9c
    ce20:	e59d3098 	ldr	r3, [sp, #152]	; 0x98
    ce24:	e28d70c8 	add	r7, sp, #200	; 0xc8
    ce28:	eaffffea 	b	cdd8 <_svfprintf_r+0x1810>
    ce2c:	e59d0038 	ldr	r0, [sp, #56]	; 0x38
    ce30:	e59d1030 	ldr	r1, [sp, #48]	; 0x30
    ce34:	e28d2094 	add	r2, sp, #148	; 0x94
    ce38:	eb000bed 	bl	fdf4 <__ssprint_r>
    ce3c:	e3500000 	cmp	r0, #0
    ce40:	1afffaa1 	bne	b8cc <_svfprintf_r+0x304>
    ce44:	e59d409c 	ldr	r4, [sp, #156]	; 0x9c
    ce48:	e28d70c8 	add	r7, sp, #200	; 0xc8
    ce4c:	eafffd6c 	b	c404 <_svfprintf_r+0xe3c>
    ce50:	e59d4028 	ldr	r4, [sp, #40]	; 0x28
    ce54:	e3740001 	cmn	r4, #1
    ce58:	03a0c006 	moveq	r12, #6
    ce5c:	e3c85020 	bic	r5, r8, #32
    ce60:	058dc028 	streq	r12, [sp, #40]	; 0x28
    ce64:	0a000005 	beq	ce80 <_svfprintf_r+0x18b8>
    ce68:	e3550047 	cmp	r5, #71	; 0x47
    ce6c:	1a000003 	bne	ce80 <_svfprintf_r+0x18b8>
    ce70:	e59d4028 	ldr	r4, [sp, #40]	; 0x28
    ce74:	e3540000 	cmp	r4, #0
    ce78:	03a04001 	moveq	r4, #1
    ce7c:	e58d4028 	str	r4, [sp, #40]	; 0x28
    ce80:	e59d305c 	ldr	r3, [sp, #92]	; 0x5c
    ce84:	e59d4020 	ldr	r4, [sp, #32]
    ce88:	e3530000 	cmp	r3, #0
    ce8c:	e3844c01 	orr	r4, r4, #256	; 0x100
    ce90:	b283a102 	addlt	r10, r3, #-2147483648	; 0x80000000
    ce94:	b3a0b02d 	movlt	r11, #45	; 0x2d
    ce98:	a59da05c 	ldrge	r10, [sp, #92]	; 0x5c
    ce9c:	a3a0b000 	movge	r11, #0
    cea0:	e2553046 	subs	r3, r5, #70	; 0x46
    cea4:	e58d404c 	str	r4, [sp, #76]	; 0x4c
    cea8:	e2734000 	rsbs	r4, r3, #0
    ceac:	e0b44003 	adcs	r4, r4, r3
    ceb0:	e3540000 	cmp	r4, #0
    ceb4:	0a000032 	beq	cf84 <_svfprintf_r+0x19bc>
    ceb8:	e3a01003 	mov	r1, #3
    cebc:	e28d007c 	add	r0, sp, #124	; 0x7c
    cec0:	e59dc028 	ldr	r12, [sp, #40]	; 0x28
    cec4:	e58d1000 	str	r1, [sp]
    cec8:	e58d0008 	str	r0, [sp, #8]
    cecc:	e28d1080 	add	r1, sp, #128	; 0x80
    ced0:	e28d008c 	add	r0, sp, #140	; 0x8c
    ced4:	e58d0010 	str	r0, [sp, #16]
    ced8:	e59d2058 	ldr	r2, [sp, #88]	; 0x58
    cedc:	e1a0300a 	mov	r3, r10
    cee0:	e58dc004 	str	r12, [sp, #4]
    cee4:	e58d100c 	str	r1, [sp, #12]
    cee8:	e59d0038 	ldr	r0, [sp, #56]	; 0x38
    ceec:	ebffdd87 	bl	4510 <_dtoa_r>
    cef0:	e3550047 	cmp	r5, #71	; 0x47
    cef4:	e1a06000 	mov	r6, r0
    cef8:	1a000002 	bne	cf08 <_svfprintf_r+0x1940>
    cefc:	e59dc020 	ldr	r12, [sp, #32]
    cf00:	e31c0001 	tst	r12, #1
    cf04:	0a0000b9 	beq	d1f0 <_svfprintf_r+0x1c28>
    cf08:	e59dc028 	ldr	r12, [sp, #40]	; 0x28
    cf0c:	e3540000 	cmp	r4, #0
    cf10:	e086400c 	add	r4, r6, r12
    cf14:	0a00002c 	beq	cfcc <_svfprintf_r+0x1a04>
    cf18:	e5d63000 	ldrb	r3, [r6]
    cf1c:	e3530030 	cmp	r3, #48	; 0x30
    cf20:	0a000138 	beq	d408 <_svfprintf_r+0x1e40>
    cf24:	e59d307c 	ldr	r3, [sp, #124]	; 0x7c
    cf28:	e0844003 	add	r4, r4, r3
    cf2c:	ea000026 	b	cfcc <_svfprintf_r+0x1a04>
    cf30:	e59dc020 	ldr	r12, [sp, #32]
    cf34:	e31c0040 	tst	r12, #64	; 0x40
    cf38:	0a000054 	beq	d090 <_svfprintf_r+0x1ac8>
    cf3c:	e59d4048 	ldr	r4, [sp, #72]	; 0x48
    cf40:	e59d5040 	ldr	r5, [sp, #64]	; 0x40
    cf44:	e5943000 	ldr	r3, [r4]
    cf48:	e2844004 	add	r4, r4, #4
    cf4c:	e58d4048 	str	r4, [sp, #72]	; 0x48
    cf50:	e1c350b0 	strh	r5, [r3]
    cf54:	eafff9bc 	b	b64c <_svfprintf_r+0x84>
    cf58:	e59d0038 	ldr	r0, [sp, #56]	; 0x38
    cf5c:	e3a01040 	mov	r1, #64	; 0x40
    cf60:	ebffe844 	bl	7078 <_malloc_r>
    cf64:	e3500000 	cmp	r0, #0
    cf68:	e5840000 	str	r0, [r4]
    cf6c:	e5840010 	str	r0, [r4, #16]
    cf70:	0a00014e 	beq	d4b0 <_svfprintf_r+0x1ee8>
    cf74:	e59dc030 	ldr	r12, [sp, #48]	; 0x30
    cf78:	e3a03040 	mov	r3, #64	; 0x40
    cf7c:	e58c3014 	str	r3, [r12, #20]
    cf80:	eafff9a2 	b	b610 <_svfprintf_r+0x48>
    cf84:	e3550045 	cmp	r5, #69	; 0x45
    cf88:	1a0000e9 	bne	d334 <_svfprintf_r+0x1d6c>
    cf8c:	e59dc028 	ldr	r12, [sp, #40]	; 0x28
    cf90:	e3a00002 	mov	r0, #2
    cf94:	e28c4001 	add	r4, r12, #1
    cf98:	e28d107c 	add	r1, sp, #124	; 0x7c
    cf9c:	e88d0011 	stm	sp, {r0, r4}
    cfa0:	e58d1008 	str	r1, [sp, #8]
    cfa4:	e28d0080 	add	r0, sp, #128	; 0x80
    cfa8:	e28d108c 	add	r1, sp, #140	; 0x8c
    cfac:	e58d000c 	str	r0, [sp, #12]
    cfb0:	e59d2058 	ldr	r2, [sp, #88]	; 0x58
    cfb4:	e1a0300a 	mov	r3, r10
    cfb8:	e58d1010 	str	r1, [sp, #16]
    cfbc:	e59d0038 	ldr	r0, [sp, #56]	; 0x38
    cfc0:	ebffdd52 	bl	4510 <_dtoa_r>
    cfc4:	e1a06000 	mov	r6, r0
    cfc8:	e0804004 	add	r4, r0, r4
    cfcc:	e3a03000 	mov	r3, #0
    cfd0:	e59d0058 	ldr	r0, [sp, #88]	; 0x58
    cfd4:	e1a0100a 	mov	r1, r10
    cfd8:	e3a02000 	mov	r2, #0
    cfdc:	eb001386 	bl	11dfc <__aeabi_dcmpeq>
    cfe0:	e3500000 	cmp	r0, #0
    cfe4:	11a03004 	movne	r3, r4
    cfe8:	1a000009 	bne	d014 <_svfprintf_r+0x1a4c>
    cfec:	e59d308c 	ldr	r3, [sp, #140]	; 0x8c
    cff0:	e1540003 	cmp	r4, r3
    cff4:	9a000006 	bls	d014 <_svfprintf_r+0x1a4c>
    cff8:	e3a01030 	mov	r1, #48	; 0x30
    cffc:	e2832001 	add	r2, r3, #1
    d000:	e58d208c 	str	r2, [sp, #140]	; 0x8c
    d004:	e5c31000 	strb	r1, [r3]
    d008:	e59d308c 	ldr	r3, [sp, #140]	; 0x8c
    d00c:	e1540003 	cmp	r4, r3
    d010:	8afffff9 	bhi	cffc <_svfprintf_r+0x1a34>
    d014:	e0663003 	rsb	r3, r6, r3
    d018:	e3550047 	cmp	r5, #71	; 0x47
    d01c:	e58d303c 	str	r3, [sp, #60]	; 0x3c
    d020:	0a000075 	beq	d1fc <_svfprintf_r+0x1c34>
    d024:	e3580065 	cmp	r8, #101	; 0x65
    d028:	da000127 	ble	d4cc <_svfprintf_r+0x1f04>
    d02c:	e3580066 	cmp	r8, #102	; 0x66
    d030:	0a0000c1 	beq	d33c <_svfprintf_r+0x1d74>
    d034:	e59d507c 	ldr	r5, [sp, #124]	; 0x7c
    d038:	e58d5050 	str	r5, [sp, #80]	; 0x50
    d03c:	e59d4050 	ldr	r4, [sp, #80]	; 0x50
    d040:	e59d503c 	ldr	r5, [sp, #60]	; 0x3c
    d044:	e1540005 	cmp	r4, r5
    d048:	ba0000af 	blt	d30c <_svfprintf_r+0x1d44>
    d04c:	e59dc020 	ldr	r12, [sp, #32]
    d050:	e31c0001 	tst	r12, #1
    d054:	159d3050 	ldrne	r3, [sp, #80]	; 0x50
    d058:	058d4034 	streq	r4, [sp, #52]	; 0x34
    d05c:	12833001 	addne	r3, r3, #1
    d060:	158d3034 	strne	r3, [sp, #52]	; 0x34
    d064:	01c43fc4 	biceq	r3, r4, r4, asr #31
    d068:	11c33fc3 	bicne	r3, r3, r3, asr #31
    d06c:	e3a08067 	mov	r8, #103	; 0x67
    d070:	e35b0000 	cmp	r11, #0
    d074:	1a000068 	bne	d21c <_svfprintf_r+0x1c54>
    d078:	e59dc04c 	ldr	r12, [sp, #76]	; 0x4c
    d07c:	e58d302c 	str	r3, [sp, #44]	; 0x2c
    d080:	e58dc020 	str	r12, [sp, #32]
    d084:	e58db028 	str	r11, [sp, #40]	; 0x28
    d088:	e5dda077 	ldrb	r10, [sp, #119]	; 0x77
    d08c:	eafffa4e 	b	b9cc <_svfprintf_r+0x404>
    d090:	e59dc048 	ldr	r12, [sp, #72]	; 0x48
    d094:	e59d4040 	ldr	r4, [sp, #64]	; 0x40
    d098:	e59c3000 	ldr	r3, [r12]
    d09c:	e28cc004 	add	r12, r12, #4
    d0a0:	e58dc048 	str	r12, [sp, #72]	; 0x48
    d0a4:	e5834000 	str	r4, [r3]
    d0a8:	eafff967 	b	b64c <_svfprintf_r+0x84>
    d0ac:	e59d0038 	ldr	r0, [sp, #56]	; 0x38
    d0b0:	e59d1030 	ldr	r1, [sp, #48]	; 0x30
    d0b4:	e28d2094 	add	r2, sp, #148	; 0x94
    d0b8:	eb000b4d 	bl	fdf4 <__ssprint_r>
    d0bc:	e3500000 	cmp	r0, #0
    d0c0:	1afffa01 	bne	b8cc <_svfprintf_r+0x304>
    d0c4:	e59d807c 	ldr	r8, [sp, #124]	; 0x7c
    d0c8:	e59d409c 	ldr	r4, [sp, #156]	; 0x9c
    d0cc:	e28d70c8 	add	r7, sp, #200	; 0xc8
    d0d0:	eaffff21 	b	cd5c <_svfprintf_r+0x1794>
    d0d4:	e1a04002 	mov	r4, r2
    d0d8:	e2833001 	add	r3, r3, #1
    d0dc:	e3530007 	cmp	r3, #7
    d0e0:	e0844008 	add	r4, r4, r8
    d0e4:	e8870120 	stm	r7, {r5, r8}
    d0e8:	e58d3098 	str	r3, [sp, #152]	; 0x98
    d0ec:	e58d409c 	str	r4, [sp, #156]	; 0x9c
    d0f0:	d2877008 	addle	r7, r7, #8
    d0f4:	da000008 	ble	d11c <_svfprintf_r+0x1b54>
    d0f8:	e59d0038 	ldr	r0, [sp, #56]	; 0x38
    d0fc:	e59d1030 	ldr	r1, [sp, #48]	; 0x30
    d100:	e28d2094 	add	r2, sp, #148	; 0x94
    d104:	eb000b3a 	bl	fdf4 <__ssprint_r>
    d108:	e3500000 	cmp	r0, #0
    d10c:	1afff9ee 	bne	b8cc <_svfprintf_r+0x304>
    d110:	e28d3098 	add	r3, sp, #152	; 0x98
    d114:	e8930018 	ldm	r3, {r3, r4}
    d118:	e28d70c8 	add	r7, sp, #200	; 0xc8
    d11c:	e59d503c 	ldr	r5, [sp, #60]	; 0x3c
    d120:	e2833001 	add	r3, r3, #1
    d124:	e0854004 	add	r4, r5, r4
    d128:	e3530007 	cmp	r3, #7
    d12c:	e58d3098 	str	r3, [sp, #152]	; 0x98
    d130:	e58d409c 	str	r4, [sp, #156]	; 0x9c
    d134:	e5876000 	str	r6, [r7]
    d138:	e5875004 	str	r5, [r7, #4]
    d13c:	dafffc43 	ble	c250 <_svfprintf_r+0xc88>
    d140:	eafffd5b 	b	c6b4 <_svfprintf_r+0x10ec>
    d144:	e58d5028 	str	r5, [sp, #40]	; 0x28
    d148:	ebffcd01 	bl	554 <strlen>
    d14c:	e59dc028 	ldr	r12, [sp, #40]	; 0x28
    d150:	e1c05fc0 	bic	r5, r0, r0, asr #31
    d154:	e58d0034 	str	r0, [sp, #52]	; 0x34
    d158:	e58d4048 	str	r4, [sp, #72]	; 0x48
    d15c:	e58d502c 	str	r5, [sp, #44]	; 0x2c
    d160:	e58dc050 	str	r12, [sp, #80]	; 0x50
    d164:	e5dda077 	ldrb	r10, [sp, #119]	; 0x77
    d168:	eafffa17 	b	b9cc <_svfprintf_r+0x404>
    d16c:	e59d0038 	ldr	r0, [sp, #56]	; 0x38
    d170:	e59d1030 	ldr	r1, [sp, #48]	; 0x30
    d174:	e28d2094 	add	r2, sp, #148	; 0x94
    d178:	eb000b1d 	bl	fdf4 <__ssprint_r>
    d17c:	e3500000 	cmp	r0, #0
    d180:	1afff9d1 	bne	b8cc <_svfprintf_r+0x304>
    d184:	e59d409c 	ldr	r4, [sp, #156]	; 0x9c
    d188:	e28d70c8 	add	r7, sp, #200	; 0xc8
    d18c:	eafffd81 	b	c798 <_svfprintf_r+0x11d0>
    d190:	e59d0038 	ldr	r0, [sp, #56]	; 0x38
    d194:	e59d1030 	ldr	r1, [sp, #48]	; 0x30
    d198:	e28d2094 	add	r2, sp, #148	; 0x94
    d19c:	eb000b14 	bl	fdf4 <__ssprint_r>
    d1a0:	e3500000 	cmp	r0, #0
    d1a4:	1afff9c8 	bne	b8cc <_svfprintf_r+0x304>
    d1a8:	e59d307c 	ldr	r3, [sp, #124]	; 0x7c
    d1ac:	e59dc03c 	ldr	r12, [sp, #60]	; 0x3c
    d1b0:	e59d409c 	ldr	r4, [sp, #156]	; 0x9c
    d1b4:	e063300c 	rsb	r3, r3, r12
    d1b8:	e28d70c8 	add	r7, sp, #200	; 0xc8
    d1bc:	eafffe25 	b	ca58 <_svfprintf_r+0x1490>
    d1c0:	e59d5028 	ldr	r5, [sp, #40]	; 0x28
    d1c4:	e3550006 	cmp	r5, #6
    d1c8:	23a05006 	movcs	r5, #6
    d1cc:	e1c5cfc5 	bic	r12, r5, r5, asr #31
    d1d0:	e1a0a006 	mov	r10, r6
    d1d4:	e58d6028 	str	r6, [sp, #40]	; 0x28
    d1d8:	e58d6050 	str	r6, [sp, #80]	; 0x50
    d1dc:	e58d5034 	str	r5, [sp, #52]	; 0x34
    d1e0:	e58d4048 	str	r4, [sp, #72]	; 0x48
    d1e4:	e58dc02c 	str	r12, [sp, #44]	; 0x2c
    d1e8:	e51f6c18 	ldr	r6, [pc, #-3096]	; c5d8 <_svfprintf_r+0x1010>
    d1ec:	eafff9f6 	b	b9cc <_svfprintf_r+0x404>
    d1f0:	e59d308c 	ldr	r3, [sp, #140]	; 0x8c
    d1f4:	e0603003 	rsb	r3, r0, r3
    d1f8:	e58d303c 	str	r3, [sp, #60]	; 0x3c
    d1fc:	e59d307c 	ldr	r3, [sp, #124]	; 0x7c
    d200:	e3730003 	cmn	r3, #3
    d204:	ba000016 	blt	d264 <_svfprintf_r+0x1c9c>
    d208:	e59d4028 	ldr	r4, [sp, #40]	; 0x28
    d20c:	e1540003 	cmp	r4, r3
    d210:	ba000013 	blt	d264 <_svfprintf_r+0x1c9c>
    d214:	e58d3050 	str	r3, [sp, #80]	; 0x50
    d218:	eaffff87 	b	d03c <_svfprintf_r+0x1a74>
    d21c:	e59d404c 	ldr	r4, [sp, #76]	; 0x4c
    d220:	e3a0a02d 	mov	r10, #45	; 0x2d
    d224:	e3a05000 	mov	r5, #0
    d228:	e58d302c 	str	r3, [sp, #44]	; 0x2c
    d22c:	e58d4020 	str	r4, [sp, #32]
    d230:	e5cda077 	strb	r10, [sp, #119]	; 0x77
    d234:	e58d5028 	str	r5, [sp, #40]	; 0x28
    d238:	eafff9e5 	b	b9d4 <_svfprintf_r+0x40c>
    d23c:	e59d5028 	ldr	r5, [sp, #40]	; 0x28
    d240:	e59dc028 	ldr	r12, [sp, #40]	; 0x28
    d244:	e1c55fc5 	bic	r5, r5, r5, asr #31
    d248:	e58d502c 	str	r5, [sp, #44]	; 0x2c
    d24c:	e58dc034 	str	r12, [sp, #52]	; 0x34
    d250:	e58d0028 	str	r0, [sp, #40]	; 0x28
    d254:	e58d4048 	str	r4, [sp, #72]	; 0x48
    d258:	e58d0050 	str	r0, [sp, #80]	; 0x50
    d25c:	e5dda077 	ldrb	r10, [sp, #119]	; 0x77
    d260:	eafff9d9 	b	b9cc <_svfprintf_r+0x404>
    d264:	e2488002 	sub	r8, r8, #2
    d268:	e2431001 	sub	r1, r3, #1
    d26c:	e3510000 	cmp	r1, #0
    d270:	e58d107c 	str	r1, [sp, #124]	; 0x7c
    d274:	b2611000 	rsblt	r1, r1, #0
    d278:	b3a0302d 	movlt	r3, #45	; 0x2d
    d27c:	a3a0302b 	movge	r3, #43	; 0x2b
    d280:	e3510009 	cmp	r1, #9
    d284:	e5cd8084 	strb	r8, [sp, #132]	; 0x84
    d288:	e5cd3085 	strb	r3, [sp, #133]	; 0x85
    d28c:	ca000037 	bgt	d370 <_svfprintf_r+0x1da8>
    d290:	e2811030 	add	r1, r1, #48	; 0x30
    d294:	e3a03030 	mov	r3, #48	; 0x30
    d298:	e5cd1087 	strb	r1, [sp, #135]	; 0x87
    d29c:	e5cd3086 	strb	r3, [sp, #134]	; 0x86
    d2a0:	e28d3088 	add	r3, sp, #136	; 0x88
    d2a4:	e59d403c 	ldr	r4, [sp, #60]	; 0x3c
    d2a8:	e28d2084 	add	r2, sp, #132	; 0x84
    d2ac:	e0622003 	rsb	r2, r2, r3
    d2b0:	e0845002 	add	r5, r4, r2
    d2b4:	e3540001 	cmp	r4, #1
    d2b8:	e58d2064 	str	r2, [sp, #100]	; 0x64
    d2bc:	e58d5034 	str	r5, [sp, #52]	; 0x34
    d2c0:	da00005b 	ble	d434 <_svfprintf_r+0x1e6c>
    d2c4:	e59d3034 	ldr	r3, [sp, #52]	; 0x34
    d2c8:	e3a04000 	mov	r4, #0
    d2cc:	e2833001 	add	r3, r3, #1
    d2d0:	e58d3034 	str	r3, [sp, #52]	; 0x34
    d2d4:	e58d4050 	str	r4, [sp, #80]	; 0x50
    d2d8:	e1c33fc3 	bic	r3, r3, r3, asr #31
    d2dc:	eaffff63 	b	d070 <_svfprintf_r+0x1aa8>
    d2e0:	e59d0038 	ldr	r0, [sp, #56]	; 0x38
    d2e4:	e59d1030 	ldr	r1, [sp, #48]	; 0x30
    d2e8:	e28d2094 	add	r2, sp, #148	; 0x94
    d2ec:	eb000ac0 	bl	fdf4 <__ssprint_r>
    d2f0:	e3500000 	cmp	r0, #0
    d2f4:	1afff974 	bne	b8cc <_svfprintf_r+0x304>
    d2f8:	e28d3098 	add	r3, sp, #152	; 0x98
    d2fc:	e59d807c 	ldr	r8, [sp, #124]	; 0x7c
    d300:	e8930018 	ldm	r3, {r3, r4}
    d304:	e28d70c8 	add	r7, sp, #200	; 0xc8
    d308:	eafffea7 	b	cdac <_svfprintf_r+0x17e4>
    d30c:	e59d4050 	ldr	r4, [sp, #80]	; 0x50
    d310:	e59d503c 	ldr	r5, [sp, #60]	; 0x3c
    d314:	e3540000 	cmp	r4, #0
    d318:	d2643002 	rsble	r3, r4, #2
    d31c:	c3a03001 	movgt	r3, #1
    d320:	e0833005 	add	r3, r3, r5
    d324:	e58d3034 	str	r3, [sp, #52]	; 0x34
    d328:	e3a08067 	mov	r8, #103	; 0x67
    d32c:	e1c33fc3 	bic	r3, r3, r3, asr #31
    d330:	eaffff4e 	b	d070 <_svfprintf_r+0x1aa8>
    d334:	e3a01002 	mov	r1, #2
    d338:	eafffedf 	b	cebc <_svfprintf_r+0x18f4>
    d33c:	e59dc07c 	ldr	r12, [sp, #124]	; 0x7c
    d340:	e35c0000 	cmp	r12, #0
    d344:	e58dc050 	str	r12, [sp, #80]	; 0x50
    d348:	da00003f 	ble	d44c <_svfprintf_r+0x1e84>
    d34c:	e59d4028 	ldr	r4, [sp, #40]	; 0x28
    d350:	e3540000 	cmp	r4, #0
    d354:	1a000024 	bne	d3ec <_svfprintf_r+0x1e24>
    d358:	e59d5020 	ldr	r5, [sp, #32]
    d35c:	e3150001 	tst	r5, #1
    d360:	1a000021 	bne	d3ec <_svfprintf_r+0x1e24>
    d364:	e1cc3fcc 	bic	r3, r12, r12, asr #31
    d368:	e58dc034 	str	r12, [sp, #52]	; 0x34
    d36c:	eaffff3f 	b	d070 <_svfprintf_r+0x1aa8>
    d370:	e28d2092 	add	r2, sp, #146	; 0x92
    d374:	e51f0da0 	ldr	r0, [pc, #-3488]	; c5dc <_svfprintf_r+0x1014>
    d378:	e0c05091 	smull	r5, r0, r1, r0
    d37c:	e1a03fc1 	asr	r3, r1, #31
    d380:	e0633140 	rsb	r3, r3, r0, asr #2
    d384:	e0830103 	add	r0, r3, r3, lsl #2
    d388:	e0410080 	sub	r0, r1, r0, lsl #1
    d38c:	e1a01003 	mov	r1, r3
    d390:	e3510009 	cmp	r1, #9
    d394:	e1a03002 	mov	r3, r2
    d398:	e2802030 	add	r2, r0, #48	; 0x30
    d39c:	e5c32000 	strb	r2, [r3]
    d3a0:	e2432001 	sub	r2, r3, #1
    d3a4:	cafffff2 	bgt	d374 <_svfprintf_r+0x1dac>
    d3a8:	e2811030 	add	r1, r1, #48	; 0x30
    d3ac:	e28dc093 	add	r12, sp, #147	; 0x93
    d3b0:	e20110ff 	and	r1, r1, #255	; 0xff
    d3b4:	e15c0002 	cmp	r12, r2
    d3b8:	e5431001 	strb	r1, [r3, #-1]
    d3bc:	9a000040 	bls	d4c4 <_svfprintf_r+0x1efc>
    d3c0:	e28d0085 	add	r0, sp, #133	; 0x85
    d3c4:	e1a02003 	mov	r2, r3
    d3c8:	ea000000 	b	d3d0 <_svfprintf_r+0x1e08>
    d3cc:	e4d21001 	ldrb	r1, [r2], #1
    d3d0:	e152000c 	cmp	r2, r12
    d3d4:	e5e01001 	strb	r1, [r0, #1]!
    d3d8:	1afffffb 	bne	d3cc <_svfprintf_r+0x1e04>
    d3dc:	e28dcf42 	add	r12, sp, #264	; 0x108
    d3e0:	e063308c 	rsb	r3, r3, r12, lsl #1
    d3e4:	e24330f6 	sub	r3, r3, #246	; 0xf6
    d3e8:	eaffffad 	b	d2a4 <_svfprintf_r+0x1cdc>
    d3ec:	e59dc028 	ldr	r12, [sp, #40]	; 0x28
    d3f0:	e59d4050 	ldr	r4, [sp, #80]	; 0x50
    d3f4:	e28c3001 	add	r3, r12, #1
    d3f8:	e0843003 	add	r3, r4, r3
    d3fc:	e58d3034 	str	r3, [sp, #52]	; 0x34
    d400:	e1c33fc3 	bic	r3, r3, r3, asr #31
    d404:	eaffff19 	b	d070 <_svfprintf_r+0x1aa8>
    d408:	e59d0058 	ldr	r0, [sp, #88]	; 0x58
    d40c:	e1a0100a 	mov	r1, r10
    d410:	e3a02000 	mov	r2, #0
    d414:	e3a03000 	mov	r3, #0
    d418:	eb001277 	bl	11dfc <__aeabi_dcmpeq>
    d41c:	e3500000 	cmp	r0, #0
    d420:	1afffebf 	bne	cf24 <_svfprintf_r+0x195c>
    d424:	e59dc028 	ldr	r12, [sp, #40]	; 0x28
    d428:	e26c3001 	rsb	r3, r12, #1
    d42c:	e58d307c 	str	r3, [sp, #124]	; 0x7c
    d430:	eafffebc 	b	cf28 <_svfprintf_r+0x1960>
    d434:	e59dc020 	ldr	r12, [sp, #32]
    d438:	e21c3001 	ands	r3, r12, #1
    d43c:	1affffa0 	bne	d2c4 <_svfprintf_r+0x1cfc>
    d440:	e58d3050 	str	r3, [sp, #80]	; 0x50
    d444:	e1c53fc5 	bic	r3, r5, r5, asr #31
    d448:	eaffff08 	b	d070 <_svfprintf_r+0x1aa8>
    d44c:	e59d5028 	ldr	r5, [sp, #40]	; 0x28
    d450:	e3550000 	cmp	r5, #0
    d454:	1a000004 	bne	d46c <_svfprintf_r+0x1ea4>
    d458:	e59dc020 	ldr	r12, [sp, #32]
    d45c:	e31c0001 	tst	r12, #1
    d460:	03a03001 	moveq	r3, #1
    d464:	058d3034 	streq	r3, [sp, #52]	; 0x34
    d468:	0affff00 	beq	d070 <_svfprintf_r+0x1aa8>
    d46c:	e59d3028 	ldr	r3, [sp, #40]	; 0x28
    d470:	e2833002 	add	r3, r3, #2
    d474:	e58d3034 	str	r3, [sp, #52]	; 0x34
    d478:	e1c33fc3 	bic	r3, r3, r3, asr #31
    d47c:	eafffefb 	b	d070 <_svfprintf_r+0x1aa8>
    d480:	e59d5048 	ldr	r5, [sp, #72]	; 0x48
    d484:	e5955000 	ldr	r5, [r5]
    d488:	e59dc048 	ldr	r12, [sp, #72]	; 0x48
    d48c:	e3550000 	cmp	r5, #0
    d490:	e28c1004 	add	r1, r12, #4
    d494:	b3e04000 	mvnlt	r4, #0
    d498:	e58d5028 	str	r5, [sp, #40]	; 0x28
    d49c:	e5d38001 	ldrb	r8, [r3, #1]
    d4a0:	e58d1048 	str	r1, [sp, #72]	; 0x48
    d4a4:	e1a03000 	mov	r3, r0
    d4a8:	b58d4028 	strlt	r4, [sp, #40]	; 0x28
    d4ac:	eafff891 	b	b6f8 <_svfprintf_r+0x130>
    d4b0:	e59d5038 	ldr	r5, [sp, #56]	; 0x38
    d4b4:	e3a0300c 	mov	r3, #12
    d4b8:	e5853000 	str	r3, [r5]
    d4bc:	e3e00000 	mvn	r0, #0
    d4c0:	eafff906 	b	b8e0 <_svfprintf_r+0x318>
    d4c4:	e28d3086 	add	r3, sp, #134	; 0x86
    d4c8:	eaffff75 	b	d2a4 <_svfprintf_r+0x1cdc>
    d4cc:	e59d307c 	ldr	r3, [sp, #124]	; 0x7c
    d4d0:	eaffff64 	b	d268 <_svfprintf_r+0x1ca0>

0000d4d4 <__submore>:
    d4d4:	e92d41f0 	push	{r4, r5, r6, r7, r8, lr}
    d4d8:	e1a04001 	mov	r4, r1
    d4dc:	e5911030 	ldr	r1, [r1, #48]	; 0x30
    d4e0:	e2843040 	add	r3, r4, #64	; 0x40
    d4e4:	e1510003 	cmp	r1, r3
    d4e8:	0a000010 	beq	d530 <__submore+0x5c>
    d4ec:	e5945034 	ldr	r5, [r4, #52]	; 0x34
    d4f0:	e1a07085 	lsl	r7, r5, #1
    d4f4:	e1a02007 	mov	r2, r7
    d4f8:	ebffed77 	bl	8adc <_realloc_r>
    d4fc:	e2506000 	subs	r6, r0, #0
    d500:	0a00001d 	beq	d57c <__submore+0xa8>
    d504:	e0868005 	add	r8, r6, r5
    d508:	e1a02005 	mov	r2, r5
    d50c:	e1a00008 	mov	r0, r8
    d510:	e1a01006 	mov	r1, r6
    d514:	ebffe95d 	bl	7a90 <memcpy>
    d518:	e5848000 	str	r8, [r4]
    d51c:	e5846030 	str	r6, [r4, #48]	; 0x30
    d520:	e5847034 	str	r7, [r4, #52]	; 0x34
    d524:	e3a00000 	mov	r0, #0
    d528:	e8bd41f0 	pop	{r4, r5, r6, r7, r8, lr}
    d52c:	e12fff1e 	bx	lr
    d530:	e3a01b01 	mov	r1, #1024	; 0x400
    d534:	ebffe6cf 	bl	7078 <_malloc_r>
    d538:	e3500000 	cmp	r0, #0
    d53c:	0a00000e 	beq	d57c <__submore+0xa8>
    d540:	e5d43042 	ldrb	r3, [r4, #66]	; 0x42
    d544:	e3a02b01 	mov	r2, #1024	; 0x400
    d548:	e5840030 	str	r0, [r4, #48]	; 0x30
    d54c:	e5842034 	str	r2, [r4, #52]	; 0x34
    d550:	e5c033ff 	strb	r3, [r0, #1023]	; 0x3ff
    d554:	e5d43041 	ldrb	r3, [r4, #65]	; 0x41
    d558:	e5c033fe 	strb	r3, [r0, #1022]	; 0x3fe
    d55c:	e5d42040 	ldrb	r2, [r4, #64]	; 0x40
    d560:	e2803fff 	add	r3, r0, #1020	; 0x3fc
    d564:	e5c023fd 	strb	r2, [r0, #1021]	; 0x3fd
    d568:	e2833001 	add	r3, r3, #1
    d56c:	e3a00000 	mov	r0, #0
    d570:	e5843000 	str	r3, [r4]
    d574:	e8bd41f0 	pop	{r4, r5, r6, r7, r8, lr}
    d578:	e12fff1e 	bx	lr
    d57c:	e3e00000 	mvn	r0, #0
    d580:	eaffffe8 	b	d528 <__submore+0x54>

0000d584 <_ungetc_r>:
    d584:	e3710001 	cmn	r1, #1
    d588:	e92d4070 	push	{r4, r5, r6, lr}
    d58c:	e1a06001 	mov	r6, r1
    d590:	e1a04002 	mov	r4, r2
    d594:	e1a05000 	mov	r5, r0
    d598:	0a00002c 	beq	d650 <_ungetc_r+0xcc>
    d59c:	e3500000 	cmp	r0, #0
    d5a0:	0a000002 	beq	d5b0 <_ungetc_r+0x2c>
    d5a4:	e5903038 	ldr	r3, [r0, #56]	; 0x38
    d5a8:	e3530000 	cmp	r3, #0
    d5ac:	0a000029 	beq	d658 <_ungetc_r+0xd4>
    d5b0:	e1d420bc 	ldrh	r2, [r4, #12]
    d5b4:	e3120a02 	tst	r2, #8192	; 0x2000
    d5b8:	05943064 	ldreq	r3, [r4, #100]	; 0x64
    d5bc:	03c33a02 	biceq	r3, r3, #8192	; 0x2000
    d5c0:	05843064 	streq	r3, [r4, #100]	; 0x64
    d5c4:	e59f3130 	ldr	r3, [pc, #304]	; d6fc <_ungetc_r+0x178>
    d5c8:	03822a02 	orreq	r2, r2, #8192	; 0x2000
    d5cc:	e0023003 	and	r3, r2, r3
    d5d0:	e3130004 	tst	r3, #4
    d5d4:	e1c430bc 	strh	r3, [r4, #12]
    d5d8:	1a000005 	bne	d5f4 <_ungetc_r+0x70>
    d5dc:	e3130010 	tst	r3, #16
    d5e0:	0a00001a 	beq	d650 <_ungetc_r+0xcc>
    d5e4:	e3130008 	tst	r3, #8
    d5e8:	1a000034 	bne	d6c0 <_ungetc_r+0x13c>
    d5ec:	e3833004 	orr	r3, r3, #4
    d5f0:	e1c430bc 	strh	r3, [r4, #12]
    d5f4:	e5943030 	ldr	r3, [r4, #48]	; 0x30
    d5f8:	e3530000 	cmp	r3, #0
    d5fc:	e20660ff 	and	r6, r6, #255	; 0xff
    d600:	0a000016 	beq	d660 <_ungetc_r+0xdc>
    d604:	e5942004 	ldr	r2, [r4, #4]
    d608:	e5943034 	ldr	r3, [r4, #52]	; 0x34
    d60c:	e1520003 	cmp	r2, r3
    d610:	aa000009 	bge	d63c <_ungetc_r+0xb8>
    d614:	e5943000 	ldr	r3, [r4]
    d618:	e2432001 	sub	r2, r3, #1
    d61c:	e5842000 	str	r2, [r4]
    d620:	e5436001 	strb	r6, [r3, #-1]
    d624:	e5943004 	ldr	r3, [r4, #4]
    d628:	e2833001 	add	r3, r3, #1
    d62c:	e5843004 	str	r3, [r4, #4]
    d630:	e1a00006 	mov	r0, r6
    d634:	e8bd4070 	pop	{r4, r5, r6, lr}
    d638:	e12fff1e 	bx	lr
    d63c:	e1a00005 	mov	r0, r5
    d640:	e1a01004 	mov	r1, r4
    d644:	ebffffa2 	bl	d4d4 <__submore>
    d648:	e3500000 	cmp	r0, #0
    d64c:	0afffff0 	beq	d614 <_ungetc_r+0x90>
    d650:	e3e00000 	mvn	r0, #0
    d654:	eafffff6 	b	d634 <_ungetc_r+0xb0>
    d658:	ebffe246 	bl	5f78 <__sinit>
    d65c:	eaffffd3 	b	d5b0 <_ungetc_r+0x2c>
    d660:	e5943010 	ldr	r3, [r4, #16]
    d664:	e3530000 	cmp	r3, #0
    d668:	e5942000 	ldr	r2, [r4]
    d66c:	0a000004 	beq	d684 <_ungetc_r+0x100>
    d670:	e1530002 	cmp	r3, r2
    d674:	2a000002 	bcs	d684 <_ungetc_r+0x100>
    d678:	e5520001 	ldrb	r0, [r2, #-1]
    d67c:	e1500006 	cmp	r0, r6
    d680:	0a000018 	beq	d6e8 <_ungetc_r+0x164>
    d684:	e594c004 	ldr	r12, [r4, #4]
    d688:	e2840040 	add	r0, r4, #64	; 0x40
    d68c:	e1a03004 	mov	r3, r4
    d690:	e3a01003 	mov	r1, #3
    d694:	e5842038 	str	r2, [r4, #56]	; 0x38
    d698:	e5840030 	str	r0, [r4, #48]	; 0x30
    d69c:	e584c03c 	str	r12, [r4, #60]	; 0x3c
    d6a0:	e5841034 	str	r1, [r4, #52]	; 0x34
    d6a4:	e5e36042 	strb	r6, [r3, #66]!	; 0x42
    d6a8:	e3a02001 	mov	r2, #1
    d6ac:	e1a00006 	mov	r0, r6
    d6b0:	e5843000 	str	r3, [r4]
    d6b4:	e5842004 	str	r2, [r4, #4]
    d6b8:	e8bd4070 	pop	{r4, r5, r6, lr}
    d6bc:	e12fff1e 	bx	lr
    d6c0:	e1a00005 	mov	r0, r5
    d6c4:	e1a01004 	mov	r1, r4
    d6c8:	ebffe1df 	bl	5e4c <_fflush_r>
    d6cc:	e3500000 	cmp	r0, #0
    d6d0:	1affffde 	bne	d650 <_ungetc_r+0xcc>
    d6d4:	e1d430bc 	ldrh	r3, [r4, #12]
    d6d8:	e5840008 	str	r0, [r4, #8]
    d6dc:	e5840018 	str	r0, [r4, #24]
    d6e0:	e3c33008 	bic	r3, r3, #8
    d6e4:	eaffffc0 	b	d5ec <_ungetc_r+0x68>
    d6e8:	e5943004 	ldr	r3, [r4, #4]
    d6ec:	e2422001 	sub	r2, r2, #1
    d6f0:	e2833001 	add	r3, r3, #1
    d6f4:	e884000c 	stm	r4, {r2, r3}
    d6f8:	eaffffcd 	b	d634 <_ungetc_r+0xb0>
    d6fc:	0000ffdf 	.word	0x0000ffdf

0000d700 <ungetc>:
    d700:	e59f300c 	ldr	r3, [pc, #12]	; d714 <ungetc+0x14>
    d704:	e1a02001 	mov	r2, r1
    d708:	e1a01000 	mov	r1, r0
    d70c:	e5930000 	ldr	r0, [r3]
    d710:	eaffff9b 	b	d584 <_ungetc_r>
    d714:	00013830 	.word	0x00013830

0000d718 <__sprint_r.part.0>:
    d718:	e5913064 	ldr	r3, [r1, #100]	; 0x64
    d71c:	e3130a02 	tst	r3, #8192	; 0x2000
    d720:	e92d47f0 	push	{r4, r5, r6, r7, r8, r9, r10, lr}
    d724:	e1a06001 	mov	r6, r1
    d728:	e1a08000 	mov	r8, r0
    d72c:	e1a09002 	mov	r9, r2
    d730:	0a000021 	beq	d7bc <__sprint_r.part.0+0xa4>
    d734:	e5923008 	ldr	r3, [r2, #8]
    d738:	e592a000 	ldr	r10, [r2]
    d73c:	e3530000 	cmp	r3, #0
    d740:	128aa008 	addne	r10, r10, #8
    d744:	0a00001a 	beq	d7b4 <__sprint_r.part.0+0x9c>
    d748:	e51a7004 	ldr	r7, [r10, #-4]
    d74c:	e51a5008 	ldr	r5, [r10, #-8]
    d750:	e1b07127 	lsrs	r7, r7, #2
    d754:	12455004 	subne	r5, r5, #4
    d758:	13a04000 	movne	r4, #0
    d75c:	1a000002 	bne	d76c <__sprint_r.part.0+0x54>
    d760:	ea00000e 	b	d7a0 <__sprint_r.part.0+0x88>
    d764:	e1570004 	cmp	r7, r4
    d768:	0a00000b 	beq	d79c <__sprint_r.part.0+0x84>
    d76c:	e1a00008 	mov	r0, r8
    d770:	e5b51004 	ldr	r1, [r5, #4]!
    d774:	e1a02006 	mov	r2, r6
    d778:	eb000572 	bl	ed48 <_fputwc_r>
    d77c:	e3700001 	cmn	r0, #1
    d780:	e2844001 	add	r4, r4, #1
    d784:	1afffff6 	bne	d764 <__sprint_r.part.0+0x4c>
    d788:	e3a03000 	mov	r3, #0
    d78c:	e5893008 	str	r3, [r9, #8]
    d790:	e5893004 	str	r3, [r9, #4]
    d794:	e8bd47f0 	pop	{r4, r5, r6, r7, r8, r9, r10, lr}
    d798:	e12fff1e 	bx	lr
    d79c:	e5993008 	ldr	r3, [r9, #8]
    d7a0:	e0433107 	sub	r3, r3, r7, lsl #2
    d7a4:	e3530000 	cmp	r3, #0
    d7a8:	e5893008 	str	r3, [r9, #8]
    d7ac:	e28aa008 	add	r10, r10, #8
    d7b0:	1affffe4 	bne	d748 <__sprint_r.part.0+0x30>
    d7b4:	e3a00000 	mov	r0, #0
    d7b8:	eafffff2 	b	d788 <__sprint_r.part.0+0x70>
    d7bc:	ebffe41b 	bl	6830 <__sfvwrite_r>
    d7c0:	eafffff0 	b	d788 <__sprint_r.part.0+0x70>

0000d7c4 <__sprint_r>:
    d7c4:	e5923008 	ldr	r3, [r2, #8]
    d7c8:	e3530000 	cmp	r3, #0
    d7cc:	1affffd1 	bne	d718 <__sprint_r.part.0>
    d7d0:	e5823004 	str	r3, [r2, #4]
    d7d4:	e1a00003 	mov	r0, r3
    d7d8:	e12fff1e 	bx	lr

0000d7dc <_vfiprintf_r>:
    d7dc:	e92d4ff0 	push	{r4, r5, r6, r7, r8, r9, r10, r11, lr}
    d7e0:	e2505000 	subs	r5, r0, #0
    d7e4:	e24dd0bc 	sub	sp, sp, #188	; 0xbc
    d7e8:	e1a04003 	mov	r4, r3
    d7ec:	e58d5018 	str	r5, [sp, #24]
    d7f0:	e58d100c 	str	r1, [sp, #12]
    d7f4:	e1a07002 	mov	r7, r2
    d7f8:	e58d3020 	str	r3, [sp, #32]
    d7fc:	0a000002 	beq	d80c <_vfiprintf_r+0x30>
    d800:	e5953038 	ldr	r3, [r5, #56]	; 0x38
    d804:	e3530000 	cmp	r3, #0
    d808:	0a0000c4 	beq	db20 <_vfiprintf_r+0x344>
    d80c:	e59d500c 	ldr	r5, [sp, #12]
    d810:	e1d510bc 	ldrh	r1, [r5, #12]
    d814:	e3110a02 	tst	r1, #8192	; 0x2000
    d818:	05953064 	ldreq	r3, [r5, #100]	; 0x64
    d81c:	e1a02001 	mov	r2, r1
    d820:	03c33a02 	biceq	r3, r3, #8192	; 0x2000
    d824:	03812a02 	orreq	r2, r1, #8192	; 0x2000
    d828:	01c520bc 	strheq	r2, [r5, #12]
    d82c:	05853064 	streq	r3, [r5, #100]	; 0x64
    d830:	e3120008 	tst	r2, #8
    d834:	0a00009f 	beq	dab8 <_vfiprintf_r+0x2dc>
    d838:	e59d500c 	ldr	r5, [sp, #12]
    d83c:	e5953010 	ldr	r3, [r5, #16]
    d840:	e3530000 	cmp	r3, #0
    d844:	0a00009b 	beq	dab8 <_vfiprintf_r+0x2dc>
    d848:	e202201a 	and	r2, r2, #26
    d84c:	e352000a 	cmp	r2, #10
    d850:	0a0000a2 	beq	dae0 <_vfiprintf_r+0x304>
    d854:	e28da078 	add	r10, sp, #120	; 0x78
    d858:	e28d4077 	add	r4, sp, #119	; 0x77
    d85c:	e3a03000 	mov	r3, #0
    d860:	e064500a 	rsb	r5, r4, r10
    d864:	e59f0fd0 	ldr	r0, [pc, #4048]	; e83c <_vfiprintf_r+0x1060>
    d868:	e58d304c 	str	r3, [sp, #76]	; 0x4c
    d86c:	e58d3048 	str	r3, [sp, #72]	; 0x48
    d870:	e58d302c 	str	r3, [sp, #44]	; 0x2c
    d874:	e58da044 	str	r10, [sp, #68]	; 0x44
    d878:	e58d4004 	str	r4, [sp, #4]
    d87c:	e58d3024 	str	r3, [sp, #36]	; 0x24
    d880:	e58d5034 	str	r5, [sp, #52]	; 0x34
    d884:	e2808010 	add	r8, r0, #16
    d888:	e1a0600a 	mov	r6, r10
    d88c:	e5d73000 	ldrb	r3, [r7]
    d890:	e3530000 	cmp	r3, #0
    d894:	13530025 	cmpne	r3, #37	; 0x25
    d898:	0a0002c7 	beq	e3bc <_vfiprintf_r+0xbe0>
    d89c:	e2873001 	add	r3, r7, #1
    d8a0:	e1a04003 	mov	r4, r3
    d8a4:	e5d33000 	ldrb	r3, [r3]
    d8a8:	e3530025 	cmp	r3, #37	; 0x25
    d8ac:	13530000 	cmpne	r3, #0
    d8b0:	e2843001 	add	r3, r4, #1
    d8b4:	1afffff9 	bne	d8a0 <_vfiprintf_r+0xc4>
    d8b8:	e0545007 	subs	r5, r4, r7
    d8bc:	0a00000d 	beq	d8f8 <_vfiprintf_r+0x11c>
    d8c0:	e59d3048 	ldr	r3, [sp, #72]	; 0x48
    d8c4:	e59d204c 	ldr	r2, [sp, #76]	; 0x4c
    d8c8:	e2833001 	add	r3, r3, #1
    d8cc:	e3530007 	cmp	r3, #7
    d8d0:	e0852002 	add	r2, r5, r2
    d8d4:	e5867000 	str	r7, [r6]
    d8d8:	e5865004 	str	r5, [r6, #4]
    d8dc:	e58d3048 	str	r3, [sp, #72]	; 0x48
    d8e0:	e58d204c 	str	r2, [sp, #76]	; 0x4c
    d8e4:	d2866008 	addle	r6, r6, #8
    d8e8:	ca00006d 	bgt	daa4 <_vfiprintf_r+0x2c8>
    d8ec:	e59d1024 	ldr	r1, [sp, #36]	; 0x24
    d8f0:	e0811005 	add	r1, r1, r5
    d8f4:	e58d1024 	str	r1, [sp, #36]	; 0x24
    d8f8:	e5d43000 	ldrb	r3, [r4]
    d8fc:	e3530000 	cmp	r3, #0
    d900:	0a0002bc 	beq	e3f8 <_vfiprintf_r+0xc1c>
    d904:	e3a03000 	mov	r3, #0
    d908:	e1a01003 	mov	r1, r3
    d90c:	e5cd303f 	strb	r3, [sp, #63]	; 0x3f
    d910:	e58d3014 	str	r3, [sp, #20]
    d914:	e58d3008 	str	r3, [sp, #8]
    d918:	e2847001 	add	r7, r4, #1
    d91c:	e5d43001 	ldrb	r3, [r4, #1]
    d920:	e3e04000 	mvn	r4, #0
    d924:	e58d4010 	str	r4, [sp, #16]
    d928:	e1a00001 	mov	r0, r1
    d92c:	e2877001 	add	r7, r7, #1
    d930:	e2432020 	sub	r2, r3, #32
    d934:	e3520058 	cmp	r2, #88	; 0x58
    d938:	979ff102 	ldrls	pc, [pc, r2, lsl #2]
    d93c:	ea000218 	b	e1a4 <_vfiprintf_r+0x9c8>
    d940:	0000df50 	.word	0x0000df50
    d944:	0000e1a4 	.word	0x0000e1a4
    d948:	0000e1a4 	.word	0x0000e1a4
    d94c:	0000df60 	.word	0x0000df60
    d950:	0000e1a4 	.word	0x0000e1a4
    d954:	0000e1a4 	.word	0x0000e1a4
    d958:	0000e1a4 	.word	0x0000e1a4
    d95c:	0000e1a4 	.word	0x0000e1a4
    d960:	0000e1a4 	.word	0x0000e1a4
    d964:	0000e1a4 	.word	0x0000e1a4
    d968:	0000df74 	.word	0x0000df74
    d96c:	0000df94 	.word	0x0000df94
    d970:	0000e1a4 	.word	0x0000e1a4
    d974:	0000db30 	.word	0x0000db30
    d978:	0000dfa0 	.word	0x0000dfa0
    d97c:	0000e1a4 	.word	0x0000e1a4
    d980:	0000e058 	.word	0x0000e058
    d984:	0000e06c 	.word	0x0000e06c
    d988:	0000e06c 	.word	0x0000e06c
    d98c:	0000e06c 	.word	0x0000e06c
    d990:	0000e06c 	.word	0x0000e06c
    d994:	0000e06c 	.word	0x0000e06c
    d998:	0000e06c 	.word	0x0000e06c
    d99c:	0000e06c 	.word	0x0000e06c
    d9a0:	0000e06c 	.word	0x0000e06c
    d9a4:	0000e06c 	.word	0x0000e06c
    d9a8:	0000e1a4 	.word	0x0000e1a4
    d9ac:	0000e1a4 	.word	0x0000e1a4
    d9b0:	0000e1a4 	.word	0x0000e1a4
    d9b4:	0000e1a4 	.word	0x0000e1a4
    d9b8:	0000e1a4 	.word	0x0000e1a4
    d9bc:	0000e1a4 	.word	0x0000e1a4
    d9c0:	0000e1a4 	.word	0x0000e1a4
    d9c4:	0000e1a4 	.word	0x0000e1a4
    d9c8:	0000e1a4 	.word	0x0000e1a4
    d9cc:	0000e1a4 	.word	0x0000e1a4
    d9d0:	0000e090 	.word	0x0000e090
    d9d4:	0000e1a4 	.word	0x0000e1a4
    d9d8:	0000e1a4 	.word	0x0000e1a4
    d9dc:	0000e1a4 	.word	0x0000e1a4
    d9e0:	0000e1a4 	.word	0x0000e1a4
    d9e4:	0000e1a4 	.word	0x0000e1a4
    d9e8:	0000e1a4 	.word	0x0000e1a4
    d9ec:	0000e1a4 	.word	0x0000e1a4
    d9f0:	0000e1a4 	.word	0x0000e1a4
    d9f4:	0000e1a4 	.word	0x0000e1a4
    d9f8:	0000e1a4 	.word	0x0000e1a4
    d9fc:	0000e0e0 	.word	0x0000e0e0
    da00:	0000e1a4 	.word	0x0000e1a4
    da04:	0000e1a4 	.word	0x0000e1a4
    da08:	0000e1a4 	.word	0x0000e1a4
    da0c:	0000e1a4 	.word	0x0000e1a4
    da10:	0000e1a4 	.word	0x0000e1a4
    da14:	0000e120 	.word	0x0000e120
    da18:	0000e1a4 	.word	0x0000e1a4
    da1c:	0000e1a4 	.word	0x0000e1a4
    da20:	0000e164 	.word	0x0000e164
    da24:	0000e1a4 	.word	0x0000e1a4
    da28:	0000e1a4 	.word	0x0000e1a4
    da2c:	0000e1a4 	.word	0x0000e1a4
    da30:	0000e1a4 	.word	0x0000e1a4
    da34:	0000e1a4 	.word	0x0000e1a4
    da38:	0000e1a4 	.word	0x0000e1a4
    da3c:	0000e1a4 	.word	0x0000e1a4
    da40:	0000e1a4 	.word	0x0000e1a4
    da44:	0000e1a4 	.word	0x0000e1a4
    da48:	0000e1a4 	.word	0x0000e1a4
    da4c:	0000dec8 	.word	0x0000dec8
    da50:	0000df04 	.word	0x0000df04
    da54:	0000e1a4 	.word	0x0000e1a4
    da58:	0000e1a4 	.word	0x0000e1a4
    da5c:	0000e1a4 	.word	0x0000e1a4
    da60:	0000ddd8 	.word	0x0000ddd8
    da64:	0000df04 	.word	0x0000df04
    da68:	0000e1a4 	.word	0x0000e1a4
    da6c:	0000e1a4 	.word	0x0000e1a4
    da70:	0000ddec 	.word	0x0000ddec
    da74:	0000e1a4 	.word	0x0000e1a4
    da78:	0000de1c 	.word	0x0000de1c
    da7c:	0000db44 	.word	0x0000db44
    da80:	0000dd7c 	.word	0x0000dd7c
    da84:	0000ddc4 	.word	0x0000ddc4
    da88:	0000e1a4 	.word	0x0000e1a4
    da8c:	0000de58 	.word	0x0000de58
    da90:	0000e1a4 	.word	0x0000e1a4
    da94:	0000dd4c 	.word	0x0000dd4c
    da98:	0000e1a4 	.word	0x0000e1a4
    da9c:	0000e1a4 	.word	0x0000e1a4
    daa0:	0000dff4 	.word	0x0000dff4
    daa4:	e3520000 	cmp	r2, #0
    daa8:	1a000318 	bne	e710 <_vfiprintf_r+0xf34>
    daac:	e58d2048 	str	r2, [sp, #72]	; 0x48
    dab0:	e1a0600a 	mov	r6, r10
    dab4:	eaffff8c 	b	d8ec <_vfiprintf_r+0x110>
    dab8:	e59d0018 	ldr	r0, [sp, #24]
    dabc:	e59d100c 	ldr	r1, [sp, #12]
    dac0:	ebffd922 	bl	3f50 <__swsetup_r>
    dac4:	e3500000 	cmp	r0, #0
    dac8:	1a000010 	bne	db10 <_vfiprintf_r+0x334>
    dacc:	e59d500c 	ldr	r5, [sp, #12]
    dad0:	e1d520bc 	ldrh	r2, [r5, #12]
    dad4:	e202201a 	and	r2, r2, #26
    dad8:	e352000a 	cmp	r2, #10
    dadc:	1affff5c 	bne	d854 <_vfiprintf_r+0x78>
    dae0:	e59d500c 	ldr	r5, [sp, #12]
    dae4:	e1d530fe 	ldrsh	r3, [r5, #14]
    dae8:	e3530000 	cmp	r3, #0
    daec:	baffff58 	blt	d854 <_vfiprintf_r+0x78>
    daf0:	e59d0018 	ldr	r0, [sp, #24]
    daf4:	e1a01005 	mov	r1, r5
    daf8:	e1a02007 	mov	r2, r7
    dafc:	e1a03004 	mov	r3, r4
    db00:	eb0003d4 	bl	ea58 <__sbprintf>
    db04:	e28dd0bc 	add	sp, sp, #188	; 0xbc
    db08:	e8bd4ff0 	pop	{r4, r5, r6, r7, r8, r9, r10, r11, lr}
    db0c:	e12fff1e 	bx	lr
    db10:	e3e00000 	mvn	r0, #0
    db14:	e28dd0bc 	add	sp, sp, #188	; 0xbc
    db18:	e8bd4ff0 	pop	{r4, r5, r6, r7, r8, r9, r10, r11, lr}
    db1c:	e12fff1e 	bx	lr
    db20:	ebffe114 	bl	5f78 <__sinit>
    db24:	eaffff38 	b	d80c <_vfiprintf_r+0x30>
    db28:	e58d3020 	str	r3, [sp, #32]
    db2c:	e2600000 	rsb	r0, r0, #0
    db30:	e59d4008 	ldr	r4, [sp, #8]
    db34:	e3844004 	orr	r4, r4, #4
    db38:	e58d4008 	str	r4, [sp, #8]
    db3c:	e5d73000 	ldrb	r3, [r7]
    db40:	eaffff79 	b	d92c <_vfiprintf_r+0x150>
    db44:	e59d5008 	ldr	r5, [sp, #8]
    db48:	e2153020 	ands	r3, r5, #32
    db4c:	e58d0014 	str	r0, [sp, #20]
    db50:	0a000169 	beq	e0fc <_vfiprintf_r+0x920>
    db54:	e59d4020 	ldr	r4, [sp, #32]
    db58:	e2843007 	add	r3, r4, #7
    db5c:	e3c33007 	bic	r3, r3, #7
    db60:	e2835008 	add	r5, r3, #8
    db64:	e58d5020 	str	r5, [sp, #32]
    db68:	e8930030 	ldm	r3, {r4, r5}
    db6c:	e3a03000 	mov	r3, #0
    db70:	e3a0b000 	mov	r11, #0
    db74:	e5cdb03f 	strb	r11, [sp, #63]	; 0x3f
    db78:	e59d2010 	ldr	r2, [sp, #16]
    db7c:	e3520000 	cmp	r2, #0
    db80:	a59d0008 	ldrge	r0, [sp, #8]
    db84:	a3c00080 	bicge	r0, r0, #128	; 0x80
    db88:	a58d0008 	strge	r0, [sp, #8]
    db8c:	e1941005 	orrs	r1, r4, r5
    db90:	e59d0010 	ldr	r0, [sp, #16]
    db94:	03a02000 	moveq	r2, #0
    db98:	13a02001 	movne	r2, #1
    db9c:	e3500000 	cmp	r0, #0
    dba0:	13822001 	orrne	r2, r2, #1
    dba4:	e3520000 	cmp	r2, #0
    dba8:	0a000275 	beq	e584 <_vfiprintf_r+0xda8>
    dbac:	e3530001 	cmp	r3, #1
    dbb0:	0a0002c5 	beq	e6cc <_vfiprintf_r+0xef0>
    dbb4:	e3530002 	cmp	r3, #2
    dbb8:	e28d2077 	add	r2, sp, #119	; 0x77
    dbbc:	1a00004b 	bne	dcf0 <_vfiprintf_r+0x514>
    dbc0:	e59d002c 	ldr	r0, [sp, #44]	; 0x2c
    dbc4:	e1a03224 	lsr	r3, r4, #4
    dbc8:	e1833e05 	orr	r3, r3, r5, lsl #28
    dbcc:	e204c00f 	and	r12, r4, #15
    dbd0:	e1a01225 	lsr	r1, r5, #4
    dbd4:	e1a04003 	mov	r4, r3
    dbd8:	e1a05001 	mov	r5, r1
    dbdc:	e7d0300c 	ldrb	r3, [r0, r12]
    dbe0:	e1941005 	orrs	r1, r4, r5
    dbe4:	e1a09002 	mov	r9, r2
    dbe8:	e5c23000 	strb	r3, [r2]
    dbec:	e2422001 	sub	r2, r2, #1
    dbf0:	1afffff3 	bne	dbc4 <_vfiprintf_r+0x3e8>
    dbf4:	e069500a 	rsb	r5, r9, r10
    dbf8:	e59d4010 	ldr	r4, [sp, #16]
    dbfc:	e1540005 	cmp	r4, r5
    dc00:	b1a04005 	movlt	r4, r5
    dc04:	e35b0000 	cmp	r11, #0
    dc08:	12844001 	addne	r4, r4, #1
    dc0c:	e59d3008 	ldr	r3, [sp, #8]
    dc10:	e2133002 	ands	r3, r3, #2
    dc14:	e58d301c 	str	r3, [sp, #28]
    dc18:	e59d3008 	ldr	r3, [sp, #8]
    dc1c:	12844002 	addne	r4, r4, #2
    dc20:	e2133084 	ands	r3, r3, #132	; 0x84
    dc24:	e58d3028 	str	r3, [sp, #40]	; 0x28
    dc28:	1a000175 	bne	e204 <_vfiprintf_r+0xa28>
    dc2c:	e59d0014 	ldr	r0, [sp, #20]
    dc30:	e064b000 	rsb	r11, r4, r0
    dc34:	e35b0000 	cmp	r11, #0
    dc38:	da000171 	ble	e204 <_vfiprintf_r+0xa28>
    dc3c:	e35b0010 	cmp	r11, #16
    dc40:	da000354 	ble	e998 <_vfiprintf_r+0x11bc>
    dc44:	e59f2bf0 	ldr	r2, [pc, #3056]	; e83c <_vfiprintf_r+0x1060>
    dc48:	e28d0048 	add	r0, sp, #72	; 0x48
    dc4c:	e8900009 	ldm	r0, {r0, r3}
    dc50:	e58d2030 	str	r2, [sp, #48]	; 0x30
    dc54:	e3a0c010 	mov	r12, #16
    dc58:	ea000005 	b	dc74 <_vfiprintf_r+0x498>
    dc5c:	e2802002 	add	r2, r0, #2
    dc60:	e2866008 	add	r6, r6, #8
    dc64:	e1a00001 	mov	r0, r1
    dc68:	e24bb010 	sub	r11, r11, #16
    dc6c:	e35b0010 	cmp	r11, #16
    dc70:	da00000f 	ble	dcb4 <_vfiprintf_r+0x4d8>
    dc74:	e2801001 	add	r1, r0, #1
    dc78:	e59f2bbc 	ldr	r2, [pc, #3004]	; e83c <_vfiprintf_r+0x1060>
    dc7c:	e2833010 	add	r3, r3, #16
    dc80:	e3510007 	cmp	r1, #7
    dc84:	e58d304c 	str	r3, [sp, #76]	; 0x4c
    dc88:	e8861004 	stm	r6, {r2, r12}
    dc8c:	e58d1048 	str	r1, [sp, #72]	; 0x48
    dc90:	dafffff1 	ble	dc5c <_vfiprintf_r+0x480>
    dc94:	e3530000 	cmp	r3, #0
    dc98:	1a00014c 	bne	e1d0 <_vfiprintf_r+0x9f4>
    dc9c:	e24bb010 	sub	r11, r11, #16
    dca0:	e35b0010 	cmp	r11, #16
    dca4:	e1a00003 	mov	r0, r3
    dca8:	e3a02001 	mov	r2, #1
    dcac:	e1a0600a 	mov	r6, r10
    dcb0:	caffffef 	bgt	dc74 <_vfiprintf_r+0x498>
    dcb4:	e59d0030 	ldr	r0, [sp, #48]	; 0x30
    dcb8:	e3520007 	cmp	r2, #7
    dcbc:	e08b3003 	add	r3, r11, r3
    dcc0:	e8860801 	stm	r6, {r0, r11}
    dcc4:	e58d304c 	str	r3, [sp, #76]	; 0x4c
    dcc8:	e58d2048 	str	r2, [sp, #72]	; 0x48
    dccc:	d2866008 	addle	r6, r6, #8
    dcd0:	d2821001 	addle	r1, r2, #1
    dcd4:	da00014d 	ble	e210 <_vfiprintf_r+0xa34>
    dcd8:	e3530000 	cmp	r3, #0
    dcdc:	1a0002ff 	bne	e8e0 <_vfiprintf_r+0x1104>
    dce0:	e1a02003 	mov	r2, r3
    dce4:	e3a01001 	mov	r1, #1
    dce8:	e1a0600a 	mov	r6, r10
    dcec:	ea000147 	b	e210 <_vfiprintf_r+0xa34>
    dcf0:	e1a031a4 	lsr	r3, r4, #3
    dcf4:	e1833e85 	orr	r3, r3, r5, lsl #29
    dcf8:	e1a001a5 	lsr	r0, r5, #3
    dcfc:	e2041007 	and	r1, r4, #7
    dd00:	e1a05000 	mov	r5, r0
    dd04:	e1a04003 	mov	r4, r3
    dd08:	e2813030 	add	r3, r1, #48	; 0x30
    dd0c:	e1941005 	orrs	r1, r4, r5
    dd10:	e1a09002 	mov	r9, r2
    dd14:	e5c23000 	strb	r3, [r2]
    dd18:	e2422001 	sub	r2, r2, #1
    dd1c:	1afffff3 	bne	dcf0 <_vfiprintf_r+0x514>
    dd20:	e59d4008 	ldr	r4, [sp, #8]
    dd24:	e3140001 	tst	r4, #1
    dd28:	e1a01009 	mov	r1, r9
    dd2c:	0affffb0 	beq	dbf4 <_vfiprintf_r+0x418>
    dd30:	e3530030 	cmp	r3, #48	; 0x30
    dd34:	0affffae 	beq	dbf4 <_vfiprintf_r+0x418>
    dd38:	e3a03030 	mov	r3, #48	; 0x30
    dd3c:	e1a09002 	mov	r9, r2
    dd40:	e062500a 	rsb	r5, r2, r10
    dd44:	e5413001 	strb	r3, [r1, #-1]
    dd48:	eaffffaa 	b	dbf8 <_vfiprintf_r+0x41c>
    dd4c:	e59d5008 	ldr	r5, [sp, #8]
    dd50:	e3150020 	tst	r5, #32
    dd54:	e58d0014 	str	r0, [sp, #20]
    dd58:	0a0000f7 	beq	e13c <_vfiprintf_r+0x960>
    dd5c:	e59d4020 	ldr	r4, [sp, #32]
    dd60:	e2843007 	add	r3, r4, #7
    dd64:	e3c33007 	bic	r3, r3, #7
    dd68:	e2835008 	add	r5, r3, #8
    dd6c:	e58d5020 	str	r5, [sp, #32]
    dd70:	e8930030 	ldm	r3, {r4, r5}
    dd74:	e3a03001 	mov	r3, #1
    dd78:	eaffff7c 	b	db70 <_vfiprintf_r+0x394>
    dd7c:	e59d5008 	ldr	r5, [sp, #8]
    dd80:	e3855002 	orr	r5, r5, #2
    dd84:	e59d3020 	ldr	r3, [sp, #32]
    dd88:	e58d5008 	str	r5, [sp, #8]
    dd8c:	e59d5020 	ldr	r5, [sp, #32]
    dd90:	e58d0014 	str	r0, [sp, #20]
    dd94:	e59f0aa4 	ldr	r0, [pc, #2724]	; e840 <_vfiprintf_r+0x1064>
    dd98:	e2855004 	add	r5, r5, #4
    dd9c:	e5934000 	ldr	r4, [r3]
    dda0:	e3a02030 	mov	r2, #48	; 0x30
    dda4:	e3a03078 	mov	r3, #120	; 0x78
    dda8:	e58d5020 	str	r5, [sp, #32]
    ddac:	e5cd3041 	strb	r3, [sp, #65]	; 0x41
    ddb0:	e3a05000 	mov	r5, #0
    ddb4:	e5cd2040 	strb	r2, [sp, #64]	; 0x40
    ddb8:	e58d002c 	str	r0, [sp, #44]	; 0x2c
    ddbc:	e3a03002 	mov	r3, #2
    ddc0:	eaffff6a 	b	db70 <_vfiprintf_r+0x394>
    ddc4:	e59d5008 	ldr	r5, [sp, #8]
    ddc8:	e3855020 	orr	r5, r5, #32
    ddcc:	e58d5008 	str	r5, [sp, #8]
    ddd0:	e5d73000 	ldrb	r3, [r7]
    ddd4:	eafffed4 	b	d92c <_vfiprintf_r+0x150>
    ddd8:	e59d4008 	ldr	r4, [sp, #8]
    dddc:	e3844040 	orr	r4, r4, #64	; 0x40
    dde0:	e58d4008 	str	r4, [sp, #8]
    dde4:	e5d73000 	ldrb	r3, [r7]
    dde8:	eafffecf 	b	d92c <_vfiprintf_r+0x150>
    ddec:	e5d73000 	ldrb	r3, [r7]
    ddf0:	e353006c 	cmp	r3, #108	; 0x6c
    ddf4:	059d5008 	ldreq	r5, [sp, #8]
    ddf8:	159d4008 	ldrne	r4, [sp, #8]
    ddfc:	e1a02007 	mov	r2, r7
    de00:	03855020 	orreq	r5, r5, #32
    de04:	13844010 	orrne	r4, r4, #16
    de08:	02877001 	addeq	r7, r7, #1
    de0c:	058d5008 	streq	r5, [sp, #8]
    de10:	05d23001 	ldrbeq	r3, [r2, #1]
    de14:	158d4008 	strne	r4, [sp, #8]
    de18:	eafffec3 	b	d92c <_vfiprintf_r+0x150>
    de1c:	e59d4008 	ldr	r4, [sp, #8]
    de20:	e3140020 	tst	r4, #32
    de24:	e5cd103f 	strb	r1, [sp, #63]	; 0x3f
    de28:	0a00029c 	beq	e8a0 <_vfiprintf_r+0x10c4>
    de2c:	e59d5020 	ldr	r5, [sp, #32]
    de30:	e59d4024 	ldr	r4, [sp, #36]	; 0x24
    de34:	e5951000 	ldr	r1, [r5]
    de38:	e1a05fc4 	asr	r5, r4, #31
    de3c:	e1a03005 	mov	r3, r5
    de40:	e59d5020 	ldr	r5, [sp, #32]
    de44:	e1a02004 	mov	r2, r4
    de48:	e2855004 	add	r5, r5, #4
    de4c:	e58d5020 	str	r5, [sp, #32]
    de50:	e881000c 	stm	r1, {r2, r3}
    de54:	eafffe8c 	b	d88c <_vfiprintf_r+0xb0>
    de58:	e59d4020 	ldr	r4, [sp, #32]
    de5c:	e5949000 	ldr	r9, [r4]
    de60:	e59d5020 	ldr	r5, [sp, #32]
    de64:	e3a04000 	mov	r4, #0
    de68:	e1590004 	cmp	r9, r4
    de6c:	e2853004 	add	r3, r5, #4
    de70:	e58d0014 	str	r0, [sp, #20]
    de74:	e5cd403f 	strb	r4, [sp, #63]	; 0x3f
    de78:	e59d5010 	ldr	r5, [sp, #16]
    de7c:	0a0002cb 	beq	e9b0 <_vfiprintf_r+0x11d4>
    de80:	e3550000 	cmp	r5, #0
    de84:	e1a00009 	mov	r0, r9
    de88:	ba0002b1 	blt	e954 <_vfiprintf_r+0x1178>
    de8c:	e1a01004 	mov	r1, r4
    de90:	e1a02005 	mov	r2, r5
    de94:	e58d3000 	str	r3, [sp]
    de98:	ebffe6b7 	bl	797c <memchr>
    de9c:	e3500000 	cmp	r0, #0
    dea0:	e59d3000 	ldr	r3, [sp]
    dea4:	0a0002d0 	beq	e9ec <_vfiprintf_r+0x1210>
    dea8:	e59d5010 	ldr	r5, [sp, #16]
    deac:	e0690000 	rsb	r0, r9, r0
    deb0:	e1550000 	cmp	r5, r0
    deb4:	a1a05000 	movge	r5, r0
    deb8:	e58d3020 	str	r3, [sp, #32]
    debc:	e58d4010 	str	r4, [sp, #16]
    dec0:	e5ddb03f 	ldrb	r11, [sp, #63]	; 0x3f
    dec4:	eaffff4b 	b	dbf8 <_vfiprintf_r+0x41c>
    dec8:	e59d3020 	ldr	r3, [sp, #32]
    decc:	e59d5020 	ldr	r5, [sp, #32]
    ded0:	e5932000 	ldr	r2, [r3]
    ded4:	e3a03000 	mov	r3, #0
    ded8:	e2855004 	add	r5, r5, #4
    dedc:	e3a04001 	mov	r4, #1
    dee0:	e58d0014 	str	r0, [sp, #20]
    dee4:	e5cd2050 	strb	r2, [sp, #80]	; 0x50
    dee8:	e5cd303f 	strb	r3, [sp, #63]	; 0x3f
    deec:	e58d5020 	str	r5, [sp, #32]
    def0:	e28d9050 	add	r9, sp, #80	; 0x50
    def4:	e1a05004 	mov	r5, r4
    def8:	e3a00000 	mov	r0, #0
    defc:	e58d0010 	str	r0, [sp, #16]
    df00:	eaffff41 	b	dc0c <_vfiprintf_r+0x430>
    df04:	e59d5008 	ldr	r5, [sp, #8]
    df08:	e3150020 	tst	r5, #32
    df0c:	e58d0014 	str	r0, [sp, #20]
    df10:	e5cd103f 	strb	r1, [sp, #63]	; 0x3f
    df14:	0a000065 	beq	e0b0 <_vfiprintf_r+0x8d4>
    df18:	e59d4020 	ldr	r4, [sp, #32]
    df1c:	e2841007 	add	r1, r4, #7
    df20:	e3c11007 	bic	r1, r1, #7
    df24:	e891000c 	ldm	r1, {r2, r3}
    df28:	e2811008 	add	r1, r1, #8
    df2c:	e58d1020 	str	r1, [sp, #32]
    df30:	e1a04002 	mov	r4, r2
    df34:	e1a05003 	mov	r5, r3
    df38:	e3520000 	cmp	r2, #0
    df3c:	e2d31000 	sbcs	r1, r3, #0
    df40:	ba00022d 	blt	e7fc <_vfiprintf_r+0x1020>
    df44:	e5ddb03f 	ldrb	r11, [sp, #63]	; 0x3f
    df48:	e3a03001 	mov	r3, #1
    df4c:	eaffff09 	b	db78 <_vfiprintf_r+0x39c>
    df50:	e3510000 	cmp	r1, #0
    df54:	e5d73000 	ldrb	r3, [r7]
    df58:	03a01020 	moveq	r1, #32
    df5c:	eafffe72 	b	d92c <_vfiprintf_r+0x150>
    df60:	e59d4008 	ldr	r4, [sp, #8]
    df64:	e3844001 	orr	r4, r4, #1
    df68:	e58d4008 	str	r4, [sp, #8]
    df6c:	e5d73000 	ldrb	r3, [r7]
    df70:	eafffe6d 	b	d92c <_vfiprintf_r+0x150>
    df74:	e59d5020 	ldr	r5, [sp, #32]
    df78:	e5950000 	ldr	r0, [r5]
    df7c:	e3500000 	cmp	r0, #0
    df80:	e2853004 	add	r3, r5, #4
    df84:	bafffee7 	blt	db28 <_vfiprintf_r+0x34c>
    df88:	e58d3020 	str	r3, [sp, #32]
    df8c:	e5d73000 	ldrb	r3, [r7]
    df90:	eafffe65 	b	d92c <_vfiprintf_r+0x150>
    df94:	e5d73000 	ldrb	r3, [r7]
    df98:	e3a0102b 	mov	r1, #43	; 0x2b
    df9c:	eafffe62 	b	d92c <_vfiprintf_r+0x150>
    dfa0:	e5d73000 	ldrb	r3, [r7]
    dfa4:	e353002a 	cmp	r3, #42	; 0x2a
    dfa8:	e2874001 	add	r4, r7, #1
    dfac:	0a000293 	beq	ea00 <_vfiprintf_r+0x1224>
    dfb0:	e2432030 	sub	r2, r3, #48	; 0x30
    dfb4:	e3520009 	cmp	r2, #9
    dfb8:	83a05000 	movhi	r5, #0
    dfbc:	81a07004 	movhi	r7, r4
    dfc0:	858d5010 	strhi	r5, [sp, #16]
    dfc4:	8afffe59 	bhi	d930 <_vfiprintf_r+0x154>
    dfc8:	e3a0c000 	mov	r12, #0
    dfcc:	e4d43001 	ldrb	r3, [r4], #1
    dfd0:	e08cc10c 	add	r12, r12, r12, lsl #2
    dfd4:	e082c08c 	add	r12, r2, r12, lsl #1
    dfd8:	e2432030 	sub	r2, r3, #48	; 0x30
    dfdc:	e3520009 	cmp	r2, #9
    dfe0:	9afffff9 	bls	dfcc <_vfiprintf_r+0x7f0>
    dfe4:	e18ccfcc 	orr	r12, r12, r12, asr #31
    dfe8:	e58dc010 	str	r12, [sp, #16]
    dfec:	e1a07004 	mov	r7, r4
    dff0:	eafffe4e 	b	d930 <_vfiprintf_r+0x154>
    dff4:	e59d5008 	ldr	r5, [sp, #8]
    dff8:	e59f4840 	ldr	r4, [pc, #2112]	; e840 <_vfiprintf_r+0x1064>
    dffc:	e3150020 	tst	r5, #32
    e000:	e58d0014 	str	r0, [sp, #20]
    e004:	e5cd103f 	strb	r1, [sp, #63]	; 0x3f
    e008:	e58d402c 	str	r4, [sp, #44]	; 0x2c
    e00c:	0a00005b 	beq	e180 <_vfiprintf_r+0x9a4>
    e010:	e59d4020 	ldr	r4, [sp, #32]
    e014:	e2842007 	add	r2, r4, #7
    e018:	e3c22007 	bic	r2, r2, #7
    e01c:	e2825008 	add	r5, r2, #8
    e020:	e58d5020 	str	r5, [sp, #32]
    e024:	e8920030 	ldm	r2, {r4, r5}
    e028:	e59d0008 	ldr	r0, [sp, #8]
    e02c:	e3100001 	tst	r0, #1
    e030:	0a0001a3 	beq	e6c4 <_vfiprintf_r+0xee8>
    e034:	e1941005 	orrs	r1, r4, r5
    e038:	0a0001a1 	beq	e6c4 <_vfiprintf_r+0xee8>
    e03c:	e3a02030 	mov	r2, #48	; 0x30
    e040:	e3800002 	orr	r0, r0, #2
    e044:	e5cd3041 	strb	r3, [sp, #65]	; 0x41
    e048:	e58d0008 	str	r0, [sp, #8]
    e04c:	e5cd2040 	strb	r2, [sp, #64]	; 0x40
    e050:	e3a03002 	mov	r3, #2
    e054:	eafffec5 	b	db70 <_vfiprintf_r+0x394>
    e058:	e59d5008 	ldr	r5, [sp, #8]
    e05c:	e3855080 	orr	r5, r5, #128	; 0x80
    e060:	e58d5008 	str	r5, [sp, #8]
    e064:	e5d73000 	ldrb	r3, [r7]
    e068:	eafffe2f 	b	d92c <_vfiprintf_r+0x150>
    e06c:	e2432030 	sub	r2, r3, #48	; 0x30
    e070:	e3a00000 	mov	r0, #0
    e074:	e4d73001 	ldrb	r3, [r7], #1
    e078:	e0800100 	add	r0, r0, r0, lsl #2
    e07c:	e0820080 	add	r0, r2, r0, lsl #1
    e080:	e2432030 	sub	r2, r3, #48	; 0x30
    e084:	e3520009 	cmp	r2, #9
    e088:	9afffff9 	bls	e074 <_vfiprintf_r+0x898>
    e08c:	eafffe27 	b	d930 <_vfiprintf_r+0x154>
    e090:	e59d4008 	ldr	r4, [sp, #8]
    e094:	e3844010 	orr	r4, r4, #16
    e098:	e58d4008 	str	r4, [sp, #8]
    e09c:	e59d5008 	ldr	r5, [sp, #8]
    e0a0:	e3150020 	tst	r5, #32
    e0a4:	e58d0014 	str	r0, [sp, #20]
    e0a8:	e5cd103f 	strb	r1, [sp, #63]	; 0x3f
    e0ac:	1affff99 	bne	df18 <_vfiprintf_r+0x73c>
    e0b0:	e59d5008 	ldr	r5, [sp, #8]
    e0b4:	e3150010 	tst	r5, #16
    e0b8:	0a000202 	beq	e8c8 <_vfiprintf_r+0x10ec>
    e0bc:	e59d5020 	ldr	r5, [sp, #32]
    e0c0:	e5954000 	ldr	r4, [r5]
    e0c4:	e59d0020 	ldr	r0, [sp, #32]
    e0c8:	e1a05fc4 	asr	r5, r4, #31
    e0cc:	e2800004 	add	r0, r0, #4
    e0d0:	e58d0020 	str	r0, [sp, #32]
    e0d4:	e1a02004 	mov	r2, r4
    e0d8:	e1a03005 	mov	r3, r5
    e0dc:	eaffff95 	b	df38 <_vfiprintf_r+0x75c>
    e0e0:	e59d4008 	ldr	r4, [sp, #8]
    e0e4:	e3844010 	orr	r4, r4, #16
    e0e8:	e58d4008 	str	r4, [sp, #8]
    e0ec:	e59d5008 	ldr	r5, [sp, #8]
    e0f0:	e2153020 	ands	r3, r5, #32
    e0f4:	e58d0014 	str	r0, [sp, #20]
    e0f8:	1afffe95 	bne	db54 <_vfiprintf_r+0x378>
    e0fc:	e59d4008 	ldr	r4, [sp, #8]
    e100:	e2142010 	ands	r2, r4, #16
    e104:	0a0001db 	beq	e878 <_vfiprintf_r+0x109c>
    e108:	e59d5020 	ldr	r5, [sp, #32]
    e10c:	e5954000 	ldr	r4, [r5]
    e110:	e2855004 	add	r5, r5, #4
    e114:	e58d5020 	str	r5, [sp, #32]
    e118:	e3a05000 	mov	r5, #0
    e11c:	eafffe93 	b	db70 <_vfiprintf_r+0x394>
    e120:	e59d4008 	ldr	r4, [sp, #8]
    e124:	e3844010 	orr	r4, r4, #16
    e128:	e58d4008 	str	r4, [sp, #8]
    e12c:	e59d5008 	ldr	r5, [sp, #8]
    e130:	e3150020 	tst	r5, #32
    e134:	e58d0014 	str	r0, [sp, #20]
    e138:	1affff07 	bne	dd5c <_vfiprintf_r+0x580>
    e13c:	e59d4008 	ldr	r4, [sp, #8]
    e140:	e3140010 	tst	r4, #16
    e144:	0a0001b2 	beq	e814 <_vfiprintf_r+0x1038>
    e148:	e59d5020 	ldr	r5, [sp, #32]
    e14c:	e5954000 	ldr	r4, [r5]
    e150:	e2855004 	add	r5, r5, #4
    e154:	e58d5020 	str	r5, [sp, #32]
    e158:	e3a03001 	mov	r3, #1
    e15c:	e3a05000 	mov	r5, #0
    e160:	eafffe82 	b	db70 <_vfiprintf_r+0x394>
    e164:	e59f56d8 	ldr	r5, [pc, #1752]	; e844 <_vfiprintf_r+0x1068>
    e168:	e58d502c 	str	r5, [sp, #44]	; 0x2c
    e16c:	e59d5008 	ldr	r5, [sp, #8]
    e170:	e3150020 	tst	r5, #32
    e174:	e58d0014 	str	r0, [sp, #20]
    e178:	e5cd103f 	strb	r1, [sp, #63]	; 0x3f
    e17c:	1affffa3 	bne	e010 <_vfiprintf_r+0x834>
    e180:	e59d4008 	ldr	r4, [sp, #8]
    e184:	e3140010 	tst	r4, #16
    e188:	0a0001b1 	beq	e854 <_vfiprintf_r+0x1078>
    e18c:	e59d5020 	ldr	r5, [sp, #32]
    e190:	e5954000 	ldr	r4, [r5]
    e194:	e2855004 	add	r5, r5, #4
    e198:	e58d5020 	str	r5, [sp, #32]
    e19c:	e3a05000 	mov	r5, #0
    e1a0:	eaffffa0 	b	e028 <_vfiprintf_r+0x84c>
    e1a4:	e3530000 	cmp	r3, #0
    e1a8:	e58d0014 	str	r0, [sp, #20]
    e1ac:	e5cd103f 	strb	r1, [sp, #63]	; 0x3f
    e1b0:	0a000090 	beq	e3f8 <_vfiprintf_r+0xc1c>
    e1b4:	e3a02000 	mov	r2, #0
    e1b8:	e3a04001 	mov	r4, #1
    e1bc:	e5cd3050 	strb	r3, [sp, #80]	; 0x50
    e1c0:	e5cd203f 	strb	r2, [sp, #63]	; 0x3f
    e1c4:	e1a05004 	mov	r5, r4
    e1c8:	e28d9050 	add	r9, sp, #80	; 0x50
    e1cc:	eaffff49 	b	def8 <_vfiprintf_r+0x71c>
    e1d0:	e59d0018 	ldr	r0, [sp, #24]
    e1d4:	e59d100c 	ldr	r1, [sp, #12]
    e1d8:	e28d2044 	add	r2, sp, #68	; 0x44
    e1dc:	e58dc000 	str	r12, [sp]
    e1e0:	ebfffd4c 	bl	d718 <__sprint_r.part.0>
    e1e4:	e3500000 	cmp	r0, #0
    e1e8:	e59dc000 	ldr	r12, [sp]
    e1ec:	1a000087 	bne	e410 <_vfiprintf_r+0xc34>
    e1f0:	e28d0048 	add	r0, sp, #72	; 0x48
    e1f4:	e8900009 	ldm	r0, {r0, r3}
    e1f8:	e1a0600a 	mov	r6, r10
    e1fc:	e2802001 	add	r2, r0, #1
    e200:	eafffe98 	b	dc68 <_vfiprintf_r+0x48c>
    e204:	e28d2048 	add	r2, sp, #72	; 0x48
    e208:	e892000c 	ldm	r2, {r2, r3}
    e20c:	e2821001 	add	r1, r2, #1
    e210:	e5dd003f 	ldrb	r0, [sp, #63]	; 0x3f
    e214:	e3500000 	cmp	r0, #0
    e218:	0a00000a 	beq	e248 <_vfiprintf_r+0xa6c>
    e21c:	e2833001 	add	r3, r3, #1
    e220:	e28d003f 	add	r0, sp, #63	; 0x3f
    e224:	e3a02001 	mov	r2, #1
    e228:	e3510007 	cmp	r1, #7
    e22c:	e58d304c 	str	r3, [sp, #76]	; 0x4c
    e230:	e58d1048 	str	r1, [sp, #72]	; 0x48
    e234:	e8860005 	stm	r6, {r0, r2}
    e238:	ca000115 	bgt	e694 <_vfiprintf_r+0xeb8>
    e23c:	e1a02001 	mov	r2, r1
    e240:	e2866008 	add	r6, r6, #8
    e244:	e2811001 	add	r1, r1, #1
    e248:	e59d001c 	ldr	r0, [sp, #28]
    e24c:	e3500000 	cmp	r0, #0
    e250:	0a00000a 	beq	e280 <_vfiprintf_r+0xaa4>
    e254:	e2833002 	add	r3, r3, #2
    e258:	e28d0040 	add	r0, sp, #64	; 0x40
    e25c:	e3a02002 	mov	r2, #2
    e260:	e3510007 	cmp	r1, #7
    e264:	e58d304c 	str	r3, [sp, #76]	; 0x4c
    e268:	e58d1048 	str	r1, [sp, #72]	; 0x48
    e26c:	e8860005 	stm	r6, {r0, r2}
    e270:	ca00010d 	bgt	e6ac <_vfiprintf_r+0xed0>
    e274:	e1a02001 	mov	r2, r1
    e278:	e2866008 	add	r6, r6, #8
    e27c:	e2811001 	add	r1, r1, #1
    e280:	e59d0028 	ldr	r0, [sp, #40]	; 0x28
    e284:	e3500080 	cmp	r0, #128	; 0x80
    e288:	0a0000ca 	beq	e5b8 <_vfiprintf_r+0xddc>
    e28c:	e59d0010 	ldr	r0, [sp, #16]
    e290:	e065b000 	rsb	r11, r5, r0
    e294:	e35b0000 	cmp	r11, #0
    e298:	da00006e 	ble	e458 <_vfiprintf_r+0xc7c>
    e29c:	e35b0010 	cmp	r11, #16
    e2a0:	d59f25a8 	ldrle	r2, [pc, #1448]	; e850 <_vfiprintf_r+0x1074>
    e2a4:	d58d201c 	strle	r2, [sp, #28]
    e2a8:	da000018 	ble	e310 <_vfiprintf_r+0xb34>
    e2ac:	e59f059c 	ldr	r0, [pc, #1436]	; e850 <_vfiprintf_r+0x1074>
    e2b0:	e3a0c010 	mov	r12, #16
    e2b4:	e58d001c 	str	r0, [sp, #28]
    e2b8:	ea000005 	b	e2d4 <_vfiprintf_r+0xaf8>
    e2bc:	e2821002 	add	r1, r2, #2
    e2c0:	e2866008 	add	r6, r6, #8
    e2c4:	e1a02000 	mov	r2, r0
    e2c8:	e24bb010 	sub	r11, r11, #16
    e2cc:	e35b0010 	cmp	r11, #16
    e2d0:	da00000e 	ble	e310 <_vfiprintf_r+0xb34>
    e2d4:	e2820001 	add	r0, r2, #1
    e2d8:	e2833010 	add	r3, r3, #16
    e2dc:	e3500007 	cmp	r0, #7
    e2e0:	e58d304c 	str	r3, [sp, #76]	; 0x4c
    e2e4:	e8861100 	stm	r6, {r8, r12}
    e2e8:	e58d0048 	str	r0, [sp, #72]	; 0x48
    e2ec:	dafffff2 	ble	e2bc <_vfiprintf_r+0xae0>
    e2f0:	e3530000 	cmp	r3, #0
    e2f4:	1a000032 	bne	e3c4 <_vfiprintf_r+0xbe8>
    e2f8:	e24bb010 	sub	r11, r11, #16
    e2fc:	e35b0010 	cmp	r11, #16
    e300:	e1a02003 	mov	r2, r3
    e304:	e3a01001 	mov	r1, #1
    e308:	e1a0600a 	mov	r6, r10
    e30c:	cafffff0 	bgt	e2d4 <_vfiprintf_r+0xaf8>
    e310:	e59d201c 	ldr	r2, [sp, #28]
    e314:	e3510007 	cmp	r1, #7
    e318:	e083300b 	add	r3, r3, r11
    e31c:	e8860804 	stm	r6, {r2, r11}
    e320:	e58d1048 	str	r1, [sp, #72]	; 0x48
    e324:	e58d304c 	str	r3, [sp, #76]	; 0x4c
    e328:	d2866008 	addle	r6, r6, #8
    e32c:	d2811001 	addle	r1, r1, #1
    e330:	da000048 	ble	e458 <_vfiprintf_r+0xc7c>
    e334:	e3530000 	cmp	r3, #0
    e338:	1a00003c 	bne	e430 <_vfiprintf_r+0xc54>
    e33c:	e3a02001 	mov	r2, #1
    e340:	e58d9078 	str	r9, [sp, #120]	; 0x78
    e344:	e58d507c 	str	r5, [sp, #124]	; 0x7c
    e348:	e58d504c 	str	r5, [sp, #76]	; 0x4c
    e34c:	e58d2048 	str	r2, [sp, #72]	; 0x48
    e350:	e1a03005 	mov	r3, r5
    e354:	e1a0600a 	mov	r6, r10
    e358:	e59d5008 	ldr	r5, [sp, #8]
    e35c:	e3150004 	tst	r5, #4
    e360:	e2866008 	add	r6, r6, #8
    e364:	1a000049 	bne	e490 <_vfiprintf_r+0xcb4>
    e368:	e59d5024 	ldr	r5, [sp, #36]	; 0x24
    e36c:	e59d0014 	ldr	r0, [sp, #20]
    e370:	e1540000 	cmp	r4, r0
    e374:	a0855004 	addge	r5, r5, r4
    e378:	b0855000 	addlt	r5, r5, r0
    e37c:	e3530000 	cmp	r3, #0
    e380:	e58d5024 	str	r5, [sp, #36]	; 0x24
    e384:	0a000005 	beq	e3a0 <_vfiprintf_r+0xbc4>
    e388:	e59d0018 	ldr	r0, [sp, #24]
    e38c:	e59d100c 	ldr	r1, [sp, #12]
    e390:	e28d2044 	add	r2, sp, #68	; 0x44
    e394:	ebfffcdf 	bl	d718 <__sprint_r.part.0>
    e398:	e3500000 	cmp	r0, #0
    e39c:	1a00001b 	bne	e410 <_vfiprintf_r+0xc34>
    e3a0:	e3a03000 	mov	r3, #0
    e3a4:	e58d3048 	str	r3, [sp, #72]	; 0x48
    e3a8:	e5d73000 	ldrb	r3, [r7]
    e3ac:	e3530000 	cmp	r3, #0
    e3b0:	13530025 	cmpne	r3, #37	; 0x25
    e3b4:	e1a0600a 	mov	r6, r10
    e3b8:	1afffd37 	bne	d89c <_vfiprintf_r+0xc0>
    e3bc:	e1a04007 	mov	r4, r7
    e3c0:	eafffd4c 	b	d8f8 <_vfiprintf_r+0x11c>
    e3c4:	e59d0018 	ldr	r0, [sp, #24]
    e3c8:	e59d100c 	ldr	r1, [sp, #12]
    e3cc:	e28d2044 	add	r2, sp, #68	; 0x44
    e3d0:	e58dc000 	str	r12, [sp]
    e3d4:	ebfffccf 	bl	d718 <__sprint_r.part.0>
    e3d8:	e3500000 	cmp	r0, #0
    e3dc:	e59dc000 	ldr	r12, [sp]
    e3e0:	1a00000a 	bne	e410 <_vfiprintf_r+0xc34>
    e3e4:	e28d2048 	add	r2, sp, #72	; 0x48
    e3e8:	e892000c 	ldm	r2, {r2, r3}
    e3ec:	e1a0600a 	mov	r6, r10
    e3f0:	e2821001 	add	r1, r2, #1
    e3f4:	eaffffb3 	b	e2c8 <_vfiprintf_r+0xaec>
    e3f8:	e59d304c 	ldr	r3, [sp, #76]	; 0x4c
    e3fc:	e3530000 	cmp	r3, #0
    e400:	159d0018 	ldrne	r0, [sp, #24]
    e404:	159d100c 	ldrne	r1, [sp, #12]
    e408:	128d2044 	addne	r2, sp, #68	; 0x44
    e40c:	1bfffcc1 	blne	d718 <__sprint_r.part.0>
    e410:	e59d400c 	ldr	r4, [sp, #12]
    e414:	e1d430bc 	ldrh	r3, [r4, #12]
    e418:	e3130040 	tst	r3, #64	; 0x40
    e41c:	1afffdbb 	bne	db10 <_vfiprintf_r+0x334>
    e420:	e59d0024 	ldr	r0, [sp, #36]	; 0x24
    e424:	e28dd0bc 	add	sp, sp, #188	; 0xbc
    e428:	e8bd4ff0 	pop	{r4, r5, r6, r7, r8, r9, r10, r11, lr}
    e42c:	e12fff1e 	bx	lr
    e430:	e59d0018 	ldr	r0, [sp, #24]
    e434:	e59d100c 	ldr	r1, [sp, #12]
    e438:	e28d2044 	add	r2, sp, #68	; 0x44
    e43c:	ebfffcb5 	bl	d718 <__sprint_r.part.0>
    e440:	e3500000 	cmp	r0, #0
    e444:	1afffff1 	bne	e410 <_vfiprintf_r+0xc34>
    e448:	e28d1048 	add	r1, sp, #72	; 0x48
    e44c:	e891000a 	ldm	r1, {r1, r3}
    e450:	e1a0600a 	mov	r6, r10
    e454:	e2811001 	add	r1, r1, #1
    e458:	e0853003 	add	r3, r5, r3
    e45c:	e3510007 	cmp	r1, #7
    e460:	e58d304c 	str	r3, [sp, #76]	; 0x4c
    e464:	e5869000 	str	r9, [r6]
    e468:	e5865004 	str	r5, [r6, #4]
    e46c:	e58d1048 	str	r1, [sp, #72]	; 0x48
    e470:	daffffb8 	ble	e358 <_vfiprintf_r+0xb7c>
    e474:	e3530000 	cmp	r3, #0
    e478:	1a00009b 	bne	e6ec <_vfiprintf_r+0xf10>
    e47c:	e58d3048 	str	r3, [sp, #72]	; 0x48
    e480:	e1a0600a 	mov	r6, r10
    e484:	e59d5008 	ldr	r5, [sp, #8]
    e488:	e3150004 	tst	r5, #4
    e48c:	0affffb5 	beq	e368 <_vfiprintf_r+0xb8c>
    e490:	e59d0014 	ldr	r0, [sp, #20]
    e494:	e0645000 	rsb	r5, r4, r0
    e498:	e3550000 	cmp	r5, #0
    e49c:	daffffb1 	ble	e368 <_vfiprintf_r+0xb8c>
    e4a0:	e3550010 	cmp	r5, #16
    e4a4:	da000147 	ble	e9c8 <_vfiprintf_r+0x11ec>
    e4a8:	e59f238c 	ldr	r2, [pc, #908]	; e83c <_vfiprintf_r+0x1060>
    e4ac:	e59d1048 	ldr	r1, [sp, #72]	; 0x48
    e4b0:	e58d2030 	str	r2, [sp, #48]	; 0x30
    e4b4:	e3a09010 	mov	r9, #16
    e4b8:	e59db018 	ldr	r11, [sp, #24]
    e4bc:	ea000005 	b	e4d8 <_vfiprintf_r+0xcfc>
    e4c0:	e2810002 	add	r0, r1, #2
    e4c4:	e2866008 	add	r6, r6, #8
    e4c8:	e1a01002 	mov	r1, r2
    e4cc:	e2455010 	sub	r5, r5, #16
    e4d0:	e3550010 	cmp	r5, #16
    e4d4:	da00000f 	ble	e518 <_vfiprintf_r+0xd3c>
    e4d8:	e2812001 	add	r2, r1, #1
    e4dc:	e59f0358 	ldr	r0, [pc, #856]	; e83c <_vfiprintf_r+0x1060>
    e4e0:	e2833010 	add	r3, r3, #16
    e4e4:	e3520007 	cmp	r2, #7
    e4e8:	e58d304c 	str	r3, [sp, #76]	; 0x4c
    e4ec:	e8860201 	stm	r6, {r0, r9}
    e4f0:	e58d2048 	str	r2, [sp, #72]	; 0x48
    e4f4:	dafffff1 	ble	e4c0 <_vfiprintf_r+0xce4>
    e4f8:	e3530000 	cmp	r3, #0
    e4fc:	1a000015 	bne	e558 <_vfiprintf_r+0xd7c>
    e500:	e2455010 	sub	r5, r5, #16
    e504:	e3550010 	cmp	r5, #16
    e508:	e1a01003 	mov	r1, r3
    e50c:	e3a00001 	mov	r0, #1
    e510:	e1a0600a 	mov	r6, r10
    e514:	caffffef 	bgt	e4d8 <_vfiprintf_r+0xcfc>
    e518:	e59d1030 	ldr	r1, [sp, #48]	; 0x30
    e51c:	e0833005 	add	r3, r3, r5
    e520:	e3500007 	cmp	r0, #7
    e524:	e58d304c 	str	r3, [sp, #76]	; 0x4c
    e528:	e8860022 	stm	r6, {r1, r5}
    e52c:	e58d0048 	str	r0, [sp, #72]	; 0x48
    e530:	daffff8c 	ble	e368 <_vfiprintf_r+0xb8c>
    e534:	e3530000 	cmp	r3, #0
    e538:	1a0000fd 	bne	e934 <_vfiprintf_r+0x1158>
    e53c:	e59d5024 	ldr	r5, [sp, #36]	; 0x24
    e540:	e59d0014 	ldr	r0, [sp, #20]
    e544:	e1540000 	cmp	r4, r0
    e548:	a0855004 	addge	r5, r5, r4
    e54c:	b0855000 	addlt	r5, r5, r0
    e550:	e58d5024 	str	r5, [sp, #36]	; 0x24
    e554:	eaffff91 	b	e3a0 <_vfiprintf_r+0xbc4>
    e558:	e1a0000b 	mov	r0, r11
    e55c:	e59d100c 	ldr	r1, [sp, #12]
    e560:	e28d2044 	add	r2, sp, #68	; 0x44
    e564:	ebfffc6b 	bl	d718 <__sprint_r.part.0>
    e568:	e3500000 	cmp	r0, #0
    e56c:	1affffa7 	bne	e410 <_vfiprintf_r+0xc34>
    e570:	e28d1048 	add	r1, sp, #72	; 0x48
    e574:	e891000a 	ldm	r1, {r1, r3}
    e578:	e1a0600a 	mov	r6, r10
    e57c:	e2810001 	add	r0, r1, #1
    e580:	eaffffd1 	b	e4cc <_vfiprintf_r+0xcf0>
    e584:	e3530000 	cmp	r3, #0
    e588:	11a05002 	movne	r5, r2
    e58c:	11a0900a 	movne	r9, r10
    e590:	1afffd98 	bne	dbf8 <_vfiprintf_r+0x41c>
    e594:	e59d4008 	ldr	r4, [sp, #8]
    e598:	e3140001 	tst	r4, #1
    e59c:	13a03030 	movne	r3, #48	; 0x30
    e5a0:	15cd3077 	strbne	r3, [sp, #119]	; 0x77
    e5a4:	159d5034 	ldrne	r5, [sp, #52]	; 0x34
    e5a8:	128d9077 	addne	r9, sp, #119	; 0x77
    e5ac:	01a05003 	moveq	r5, r3
    e5b0:	01a0900a 	moveq	r9, r10
    e5b4:	eafffd8f 	b	dbf8 <_vfiprintf_r+0x41c>
    e5b8:	e59d0014 	ldr	r0, [sp, #20]
    e5bc:	e064b000 	rsb	r11, r4, r0
    e5c0:	e35b0000 	cmp	r11, #0
    e5c4:	daffff30 	ble	e28c <_vfiprintf_r+0xab0>
    e5c8:	e35b0010 	cmp	r11, #16
    e5cc:	da000102 	ble	e9dc <_vfiprintf_r+0x1200>
    e5d0:	e59f1278 	ldr	r1, [pc, #632]	; e850 <_vfiprintf_r+0x1074>
    e5d4:	e3a0c010 	mov	r12, #16
    e5d8:	e58d101c 	str	r1, [sp, #28]
    e5dc:	ea000005 	b	e5f8 <_vfiprintf_r+0xe1c>
    e5e0:	e2820002 	add	r0, r2, #2
    e5e4:	e2866008 	add	r6, r6, #8
    e5e8:	e1a02001 	mov	r2, r1
    e5ec:	e24bb010 	sub	r11, r11, #16
    e5f0:	e35b0010 	cmp	r11, #16
    e5f4:	da00000e 	ble	e634 <_vfiprintf_r+0xe58>
    e5f8:	e2821001 	add	r1, r2, #1
    e5fc:	e2833010 	add	r3, r3, #16
    e600:	e3510007 	cmp	r1, #7
    e604:	e58d304c 	str	r3, [sp, #76]	; 0x4c
    e608:	e8861100 	stm	r6, {r8, r12}
    e60c:	e58d1048 	str	r1, [sp, #72]	; 0x48
    e610:	dafffff2 	ble	e5e0 <_vfiprintf_r+0xe04>
    e614:	e3530000 	cmp	r3, #0
    e618:	1a000010 	bne	e660 <_vfiprintf_r+0xe84>
    e61c:	e24bb010 	sub	r11, r11, #16
    e620:	e35b0010 	cmp	r11, #16
    e624:	e1a02003 	mov	r2, r3
    e628:	e3a00001 	mov	r0, #1
    e62c:	e1a0600a 	mov	r6, r10
    e630:	cafffff0 	bgt	e5f8 <_vfiprintf_r+0xe1c>
    e634:	e59d101c 	ldr	r1, [sp, #28]
    e638:	e083300b 	add	r3, r3, r11
    e63c:	e3500007 	cmp	r0, #7
    e640:	e58d304c 	str	r3, [sp, #76]	; 0x4c
    e644:	e8860802 	stm	r6, {r1, r11}
    e648:	e58d0048 	str	r0, [sp, #72]	; 0x48
    e64c:	ca00004d 	bgt	e788 <_vfiprintf_r+0xfac>
    e650:	e2866008 	add	r6, r6, #8
    e654:	e2801001 	add	r1, r0, #1
    e658:	e1a02000 	mov	r2, r0
    e65c:	eaffff0a 	b	e28c <_vfiprintf_r+0xab0>
    e660:	e59d0018 	ldr	r0, [sp, #24]
    e664:	e59d100c 	ldr	r1, [sp, #12]
    e668:	e28d2044 	add	r2, sp, #68	; 0x44
    e66c:	e58dc000 	str	r12, [sp]
    e670:	ebfffc28 	bl	d718 <__sprint_r.part.0>
    e674:	e3500000 	cmp	r0, #0
    e678:	e59dc000 	ldr	r12, [sp]
    e67c:	1affff63 	bne	e410 <_vfiprintf_r+0xc34>
    e680:	e28d2048 	add	r2, sp, #72	; 0x48
    e684:	e892000c 	ldm	r2, {r2, r3}
    e688:	e1a0600a 	mov	r6, r10
    e68c:	e2820001 	add	r0, r2, #1
    e690:	eaffffd5 	b	e5ec <_vfiprintf_r+0xe10>
    e694:	e3530000 	cmp	r3, #0
    e698:	1a000024 	bne	e730 <_vfiprintf_r+0xf54>
    e69c:	e1a01002 	mov	r1, r2
    e6a0:	e1a0600a 	mov	r6, r10
    e6a4:	e1a02003 	mov	r2, r3
    e6a8:	eafffee6 	b	e248 <_vfiprintf_r+0xa6c>
    e6ac:	e3530000 	cmp	r3, #0
    e6b0:	1a000029 	bne	e75c <_vfiprintf_r+0xf80>
    e6b4:	e1a02003 	mov	r2, r3
    e6b8:	e3a01001 	mov	r1, #1
    e6bc:	e1a0600a 	mov	r6, r10
    e6c0:	eafffeee 	b	e280 <_vfiprintf_r+0xaa4>
    e6c4:	e3a03002 	mov	r3, #2
    e6c8:	eafffd28 	b	db70 <_vfiprintf_r+0x394>
    e6cc:	e3550000 	cmp	r5, #0
    e6d0:	03540009 	cmpeq	r4, #9
    e6d4:	8a000031 	bhi	e7a0 <_vfiprintf_r+0xfc4>
    e6d8:	e2844030 	add	r4, r4, #48	; 0x30
    e6dc:	e5cd4077 	strb	r4, [sp, #119]	; 0x77
    e6e0:	e59d5034 	ldr	r5, [sp, #52]	; 0x34
    e6e4:	e28d9077 	add	r9, sp, #119	; 0x77
    e6e8:	eafffd42 	b	dbf8 <_vfiprintf_r+0x41c>
    e6ec:	e59d0018 	ldr	r0, [sp, #24]
    e6f0:	e59d100c 	ldr	r1, [sp, #12]
    e6f4:	e28d2044 	add	r2, sp, #68	; 0x44
    e6f8:	ebfffc06 	bl	d718 <__sprint_r.part.0>
    e6fc:	e3500000 	cmp	r0, #0
    e700:	1affff42 	bne	e410 <_vfiprintf_r+0xc34>
    e704:	e59d304c 	ldr	r3, [sp, #76]	; 0x4c
    e708:	e1a0600a 	mov	r6, r10
    e70c:	eaffff5c 	b	e484 <_vfiprintf_r+0xca8>
    e710:	e59d0018 	ldr	r0, [sp, #24]
    e714:	e59d100c 	ldr	r1, [sp, #12]
    e718:	e28d2044 	add	r2, sp, #68	; 0x44
    e71c:	ebfffbfd 	bl	d718 <__sprint_r.part.0>
    e720:	e3500000 	cmp	r0, #0
    e724:	1affff39 	bne	e410 <_vfiprintf_r+0xc34>
    e728:	e1a0600a 	mov	r6, r10
    e72c:	eafffc6e 	b	d8ec <_vfiprintf_r+0x110>
    e730:	e59d0018 	ldr	r0, [sp, #24]
    e734:	e59d100c 	ldr	r1, [sp, #12]
    e738:	e28d2044 	add	r2, sp, #68	; 0x44
    e73c:	ebfffbf5 	bl	d718 <__sprint_r.part.0>
    e740:	e3500000 	cmp	r0, #0
    e744:	1affff31 	bne	e410 <_vfiprintf_r+0xc34>
    e748:	e28d2048 	add	r2, sp, #72	; 0x48
    e74c:	e892000c 	ldm	r2, {r2, r3}
    e750:	e1a0600a 	mov	r6, r10
    e754:	e2821001 	add	r1, r2, #1
    e758:	eafffeba 	b	e248 <_vfiprintf_r+0xa6c>
    e75c:	e59d0018 	ldr	r0, [sp, #24]
    e760:	e59d100c 	ldr	r1, [sp, #12]
    e764:	e28d2044 	add	r2, sp, #68	; 0x44
    e768:	ebfffbea 	bl	d718 <__sprint_r.part.0>
    e76c:	e3500000 	cmp	r0, #0
    e770:	1affff26 	bne	e410 <_vfiprintf_r+0xc34>
    e774:	e28d2048 	add	r2, sp, #72	; 0x48
    e778:	e892000c 	ldm	r2, {r2, r3}
    e77c:	e1a0600a 	mov	r6, r10
    e780:	e2821001 	add	r1, r2, #1
    e784:	eafffebd 	b	e280 <_vfiprintf_r+0xaa4>
    e788:	e3530000 	cmp	r3, #0
    e78c:	1a000076 	bne	e96c <_vfiprintf_r+0x1190>
    e790:	e1a02003 	mov	r2, r3
    e794:	e3a01001 	mov	r1, #1
    e798:	e1a0600a 	mov	r6, r10
    e79c:	eafffeba 	b	e28c <_vfiprintf_r+0xab0>
    e7a0:	e28dc077 	add	r12, sp, #119	; 0x77
    e7a4:	e58d601c 	str	r6, [sp, #28]
    e7a8:	e1a0600c 	mov	r6, r12
    e7ac:	e1a00004 	mov	r0, r4
    e7b0:	e1a01005 	mov	r1, r5
    e7b4:	e3a0200a 	mov	r2, #10
    e7b8:	e3a03000 	mov	r3, #0
    e7bc:	eb000e45 	bl	120d8 <__aeabi_uldivmod>
    e7c0:	e2822030 	add	r2, r2, #48	; 0x30
    e7c4:	e5c62000 	strb	r2, [r6]
    e7c8:	e1a00004 	mov	r0, r4
    e7cc:	e1a01005 	mov	r1, r5
    e7d0:	e3a0200a 	mov	r2, #10
    e7d4:	e3a03000 	mov	r3, #0
    e7d8:	eb000e3e 	bl	120d8 <__aeabi_uldivmod>
    e7dc:	e1a04000 	mov	r4, r0
    e7e0:	e1a05001 	mov	r5, r1
    e7e4:	e1940005 	orrs	r0, r4, r5
    e7e8:	e1a09006 	mov	r9, r6
    e7ec:	e2466001 	sub	r6, r6, #1
    e7f0:	1affffed 	bne	e7ac <_vfiprintf_r+0xfd0>
    e7f4:	e59d601c 	ldr	r6, [sp, #28]
    e7f8:	eafffcfd 	b	dbf4 <_vfiprintf_r+0x418>
    e7fc:	e3a0b02d 	mov	r11, #45	; 0x2d
    e800:	e2744000 	rsbs	r4, r4, #0
    e804:	e2e55000 	rsc	r5, r5, #0
    e808:	e5cdb03f 	strb	r11, [sp, #63]	; 0x3f
    e80c:	e3a03001 	mov	r3, #1
    e810:	eafffcd8 	b	db78 <_vfiprintf_r+0x39c>
    e814:	e59d4008 	ldr	r4, [sp, #8]
    e818:	e3140040 	tst	r4, #64	; 0x40
    e81c:	e59d5020 	ldr	r5, [sp, #32]
    e820:	0afffe49 	beq	e14c <_vfiprintf_r+0x970>
    e824:	e1d540b0 	ldrh	r4, [r5]
    e828:	e2855004 	add	r5, r5, #4
    e82c:	e58d5020 	str	r5, [sp, #32]
    e830:	e3a03001 	mov	r3, #1
    e834:	e3a05000 	mov	r5, #0
    e838:	eafffccc 	b	db70 <_vfiprintf_r+0x394>
    e83c:	00013688 	.word	0x00013688
    e840:	00013478 	.word	0x00013478
    e844:	00013464 	.word	0x00013464
    e848:	0001348c 	.word	0x0001348c
    e84c:	00013688 	.word	0x00013688
    e850:	00013698 	.word	0x00013698
    e854:	e59d4008 	ldr	r4, [sp, #8]
    e858:	e59d5020 	ldr	r5, [sp, #32]
    e85c:	e3140040 	tst	r4, #64	; 0x40
    e860:	11d540b0 	ldrhne	r4, [r5]
    e864:	05954000 	ldreq	r4, [r5]
    e868:	e2855004 	add	r5, r5, #4
    e86c:	e58d5020 	str	r5, [sp, #32]
    e870:	e3a05000 	mov	r5, #0
    e874:	eafffdeb 	b	e028 <_vfiprintf_r+0x84c>
    e878:	e59d4008 	ldr	r4, [sp, #8]
    e87c:	e59d5020 	ldr	r5, [sp, #32]
    e880:	e2143040 	ands	r3, r4, #64	; 0x40
    e884:	11d540b0 	ldrhne	r4, [r5]
    e888:	05954000 	ldreq	r4, [r5]
    e88c:	e2855004 	add	r5, r5, #4
    e890:	e58d5020 	str	r5, [sp, #32]
    e894:	11a03002 	movne	r3, r2
    e898:	e3a05000 	mov	r5, #0
    e89c:	eafffcb3 	b	db70 <_vfiprintf_r+0x394>
    e8a0:	e59d4008 	ldr	r4, [sp, #8]
    e8a4:	e3140010 	tst	r4, #16
    e8a8:	0a000017 	beq	e90c <_vfiprintf_r+0x1130>
    e8ac:	e59d5020 	ldr	r5, [sp, #32]
    e8b0:	e59d4024 	ldr	r4, [sp, #36]	; 0x24
    e8b4:	e5953000 	ldr	r3, [r5]
    e8b8:	e2855004 	add	r5, r5, #4
    e8bc:	e58d5020 	str	r5, [sp, #32]
    e8c0:	e5834000 	str	r4, [r3]
    e8c4:	eafffbf0 	b	d88c <_vfiprintf_r+0xb0>
    e8c8:	e59d4008 	ldr	r4, [sp, #8]
    e8cc:	e3140040 	tst	r4, #64	; 0x40
    e8d0:	e59d5020 	ldr	r5, [sp, #32]
    e8d4:	0afffdf9 	beq	e0c0 <_vfiprintf_r+0x8e4>
    e8d8:	e1d540f0 	ldrsh	r4, [r5]
    e8dc:	eafffdf8 	b	e0c4 <_vfiprintf_r+0x8e8>
    e8e0:	e59d0018 	ldr	r0, [sp, #24]
    e8e4:	e59d100c 	ldr	r1, [sp, #12]
    e8e8:	e28d2044 	add	r2, sp, #68	; 0x44
    e8ec:	ebfffb89 	bl	d718 <__sprint_r.part.0>
    e8f0:	e3500000 	cmp	r0, #0
    e8f4:	1afffec5 	bne	e410 <_vfiprintf_r+0xc34>
    e8f8:	e28d2048 	add	r2, sp, #72	; 0x48
    e8fc:	e892000c 	ldm	r2, {r2, r3}
    e900:	e1a0600a 	mov	r6, r10
    e904:	e2821001 	add	r1, r2, #1
    e908:	eafffe40 	b	e210 <_vfiprintf_r+0xa34>
    e90c:	e59d4020 	ldr	r4, [sp, #32]
    e910:	e59d5008 	ldr	r5, [sp, #8]
    e914:	e5943000 	ldr	r3, [r4]
    e918:	e3150040 	tst	r5, #64	; 0x40
    e91c:	e59d5024 	ldr	r5, [sp, #36]	; 0x24
    e920:	e2844004 	add	r4, r4, #4
    e924:	e58d4020 	str	r4, [sp, #32]
    e928:	11c350b0 	strhne	r5, [r3]
    e92c:	05835000 	streq	r5, [r3]
    e930:	eafffbd5 	b	d88c <_vfiprintf_r+0xb0>
    e934:	e59d0018 	ldr	r0, [sp, #24]
    e938:	e59d100c 	ldr	r1, [sp, #12]
    e93c:	e28d2044 	add	r2, sp, #68	; 0x44
    e940:	ebfffb74 	bl	d718 <__sprint_r.part.0>
    e944:	e3500000 	cmp	r0, #0
    e948:	1afffeb0 	bne	e410 <_vfiprintf_r+0xc34>
    e94c:	e59d304c 	ldr	r3, [sp, #76]	; 0x4c
    e950:	eafffe84 	b	e368 <_vfiprintf_r+0xb8c>
    e954:	e58d3020 	str	r3, [sp, #32]
    e958:	e58d4010 	str	r4, [sp, #16]
    e95c:	ebffc6fc 	bl	554 <strlen>
    e960:	e5ddb03f 	ldrb	r11, [sp, #63]	; 0x3f
    e964:	e1a05000 	mov	r5, r0
    e968:	eafffca2 	b	dbf8 <_vfiprintf_r+0x41c>
    e96c:	e59d0018 	ldr	r0, [sp, #24]
    e970:	e59d100c 	ldr	r1, [sp, #12]
    e974:	e28d2044 	add	r2, sp, #68	; 0x44
    e978:	ebfffb66 	bl	d718 <__sprint_r.part.0>
    e97c:	e3500000 	cmp	r0, #0
    e980:	1afffea2 	bne	e410 <_vfiprintf_r+0xc34>
    e984:	e28d2048 	add	r2, sp, #72	; 0x48
    e988:	e892000c 	ldm	r2, {r2, r3}
    e98c:	e1a0600a 	mov	r6, r10
    e990:	e2821001 	add	r1, r2, #1
    e994:	eafffe3c 	b	e28c <_vfiprintf_r+0xab0>
    e998:	e28d2048 	add	r2, sp, #72	; 0x48
    e99c:	e892000c 	ldm	r2, {r2, r3}
    e9a0:	e51f115c 	ldr	r1, [pc, #-348]	; e84c <_vfiprintf_r+0x1070>
    e9a4:	e2822001 	add	r2, r2, #1
    e9a8:	e58d1030 	str	r1, [sp, #48]	; 0x30
    e9ac:	eafffcc0 	b	dcb4 <_vfiprintf_r+0x4d8>
    e9b0:	e3550006 	cmp	r5, #6
    e9b4:	23a05006 	movcs	r5, #6
    e9b8:	e58d3020 	str	r3, [sp, #32]
    e9bc:	e1c54fc5 	bic	r4, r5, r5, asr #31
    e9c0:	e51f9180 	ldr	r9, [pc, #-384]	; e848 <_vfiprintf_r+0x106c>
    e9c4:	eafffd4b 	b	def8 <_vfiprintf_r+0x71c>
    e9c8:	e59d0048 	ldr	r0, [sp, #72]	; 0x48
    e9cc:	e51f1188 	ldr	r1, [pc, #-392]	; e84c <_vfiprintf_r+0x1070>
    e9d0:	e2800001 	add	r0, r0, #1
    e9d4:	e58d1030 	str	r1, [sp, #48]	; 0x30
    e9d8:	eafffece 	b	e518 <_vfiprintf_r+0xd3c>
    e9dc:	e51f2194 	ldr	r2, [pc, #-404]	; e850 <_vfiprintf_r+0x1074>
    e9e0:	e1a00001 	mov	r0, r1
    e9e4:	e58d201c 	str	r2, [sp, #28]
    e9e8:	eaffff11 	b	e634 <_vfiprintf_r+0xe58>
    e9ec:	e59d5010 	ldr	r5, [sp, #16]
    e9f0:	e5ddb03f 	ldrb	r11, [sp, #63]	; 0x3f
    e9f4:	e58d3020 	str	r3, [sp, #32]
    e9f8:	e58d0010 	str	r0, [sp, #16]
    e9fc:	eafffc7d 	b	dbf8 <_vfiprintf_r+0x41c>
    ea00:	e59d5020 	ldr	r5, [sp, #32]
    ea04:	e5955000 	ldr	r5, [r5]
    ea08:	e3550000 	cmp	r5, #0
    ea0c:	e58d5010 	str	r5, [sp, #16]
    ea10:	e59d5020 	ldr	r5, [sp, #32]
    ea14:	e5d73001 	ldrb	r3, [r7, #1]
    ea18:	e2852004 	add	r2, r5, #4
    ea1c:	e1a07004 	mov	r7, r4
    ea20:	b3e04000 	mvnlt	r4, #0
    ea24:	e58d2020 	str	r2, [sp, #32]
    ea28:	b58d4010 	strlt	r4, [sp, #16]
    ea2c:	eafffbbe 	b	d92c <_vfiprintf_r+0x150>

0000ea30 <vfiprintf>:
    ea30:	e59fc01c 	ldr	r12, [pc, #28]	; ea54 <vfiprintf+0x24>
    ea34:	e52d4004 	push	{r4}		; (str r4, [sp, #-4]!)
    ea38:	e1a04001 	mov	r4, r1
    ea3c:	e1a03002 	mov	r3, r2
    ea40:	e1a01000 	mov	r1, r0
    ea44:	e1a02004 	mov	r2, r4
    ea48:	e59c0000 	ldr	r0, [r12]
    ea4c:	e49d4004 	pop	{r4}		; (ldr r4, [sp], #4)
    ea50:	eafffb61 	b	d7dc <_vfiprintf_r>
    ea54:	00013830 	.word	0x00013830

0000ea58 <__sbprintf>:
    ea58:	e92d4ff0 	push	{r4, r5, r6, r7, r8, r9, r10, r11, lr}
    ea5c:	e24dde46 	sub	sp, sp, #1120	; 0x460
    ea60:	e24dd00c 	sub	sp, sp, #12
    ea64:	e1d150bc 	ldrh	r5, [r1, #12]
    ea68:	e59fc0b0 	ldr	r12, [pc, #176]	; eb20 <__sbprintf+0xc8>
    ea6c:	e28dbe46 	add	r11, sp, #1120	; 0x460
    ea70:	e5916024 	ldr	r6, [r1, #36]	; 0x24
    ea74:	e591a064 	ldr	r10, [r1, #100]	; 0x64
    ea78:	e1d190be 	ldrh	r9, [r1, #14]
    ea7c:	e591701c 	ldr	r7, [r1, #28]
    ea80:	e3c55002 	bic	r5, r5, #2
    ea84:	e28bb008 	add	r11, r11, #8
    ea88:	e59f8094 	ldr	r8, [pc, #148]	; eb24 <__sbprintf+0xcc>
    ea8c:	e28de068 	add	lr, sp, #104	; 0x68
    ea90:	e18b50bc 	strh	r5, [r11, r12]
    ea94:	e1a04001 	mov	r4, r1
    ea98:	e3a0cb01 	mov	r12, #1024	; 0x400
    ea9c:	e3a05000 	mov	r5, #0
    eaa0:	e1a0100d 	mov	r1, sp
    eaa4:	e58d6024 	str	r6, [sp, #36]	; 0x24
    eaa8:	e58d5018 	str	r5, [sp, #24]
    eaac:	e58da064 	str	r10, [sp, #100]	; 0x64
    eab0:	e18b90b8 	strh	r9, [r11, r8]
    eab4:	e58d701c 	str	r7, [sp, #28]
    eab8:	e58de000 	str	lr, [sp]
    eabc:	e58de010 	str	lr, [sp, #16]
    eac0:	e58dc008 	str	r12, [sp, #8]
    eac4:	e58dc014 	str	r12, [sp, #20]
    eac8:	e1a06000 	mov	r6, r0
    eacc:	ebfffb42 	bl	d7dc <_vfiprintf_r>
    ead0:	e2505000 	subs	r5, r0, #0
    ead4:	ba000004 	blt	eaec <__sbprintf+0x94>
    ead8:	e1a00006 	mov	r0, r6
    eadc:	e1a0100d 	mov	r1, sp
    eae0:	ebffdcd9 	bl	5e4c <_fflush_r>
    eae4:	e3500000 	cmp	r0, #0
    eae8:	13e05000 	mvnne	r5, #0
    eaec:	e28d2e46 	add	r2, sp, #1120	; 0x460
    eaf0:	e59f3028 	ldr	r3, [pc, #40]	; eb20 <__sbprintf+0xc8>
    eaf4:	e2822008 	add	r2, r2, #8
    eaf8:	e19230b3 	ldrh	r3, [r2, r3]
    eafc:	e3130040 	tst	r3, #64	; 0x40
    eb00:	11d430bc 	ldrhne	r3, [r4, #12]
    eb04:	e1a00005 	mov	r0, r5
    eb08:	13833040 	orrne	r3, r3, #64	; 0x40
    eb0c:	11c430bc 	strhne	r3, [r4, #12]
    eb10:	e28dde46 	add	sp, sp, #1120	; 0x460
    eb14:	e28dd00c 	add	sp, sp, #12
    eb18:	e8bd4ff0 	pop	{r4, r5, r6, r7, r8, r9, r10, r11, lr}
    eb1c:	e12fff1e 	bx	lr
    eb20:	fffffba4 	.word	0xfffffba4
    eb24:	fffffba6 	.word	0xfffffba6

0000eb28 <_write_r>:
    eb28:	e92d4038 	push	{r3, r4, r5, lr}
    eb2c:	e59f4034 	ldr	r4, [pc, #52]	; eb68 <_write_r+0x40>
    eb30:	e3a0c000 	mov	r12, #0
    eb34:	e1a05000 	mov	r5, r0
    eb38:	e1a00001 	mov	r0, r1
    eb3c:	e1a01002 	mov	r1, r2
    eb40:	e1a02003 	mov	r2, r3
    eb44:	e584c000 	str	r12, [r4]
    eb48:	eb001093 	bl	12d9c <_write>
    eb4c:	e3700001 	cmn	r0, #1
    eb50:	1a000002 	bne	eb60 <_write_r+0x38>
    eb54:	e5943000 	ldr	r3, [r4]
    eb58:	e3530000 	cmp	r3, #0
    eb5c:	15853000 	strne	r3, [r5]
    eb60:	e8bd4038 	pop	{r3, r4, r5, lr}
    eb64:	e12fff1e 	bx	lr
    eb68:	0001415c 	.word	0x0001415c

0000eb6c <_calloc_r>:
    eb6c:	e92d4010 	push	{r4, lr}
    eb70:	e0010192 	mul	r1, r2, r1
    eb74:	ebffe13f 	bl	7078 <_malloc_r>
    eb78:	e2504000 	subs	r4, r0, #0
    eb7c:	0a00000b 	beq	ebb0 <_calloc_r+0x44>
    eb80:	e5142004 	ldr	r2, [r4, #-4]
    eb84:	e3c22003 	bic	r2, r2, #3
    eb88:	e2422004 	sub	r2, r2, #4
    eb8c:	e3520024 	cmp	r2, #36	; 0x24
    eb90:	8a000017 	bhi	ebf4 <_calloc_r+0x88>
    eb94:	e3520013 	cmp	r2, #19
    eb98:	91a03004 	movls	r3, r4
    eb9c:	8a000006 	bhi	ebbc <_calloc_r+0x50>
    eba0:	e3a02000 	mov	r2, #0
    eba4:	e5832000 	str	r2, [r3]
    eba8:	e5832004 	str	r2, [r3, #4]
    ebac:	e5832008 	str	r2, [r3, #8]
    ebb0:	e1a00004 	mov	r0, r4
    ebb4:	e8bd4010 	pop	{r4, lr}
    ebb8:	e12fff1e 	bx	lr
    ebbc:	e3a03000 	mov	r3, #0
    ebc0:	e352001b 	cmp	r2, #27
    ebc4:	e5843000 	str	r3, [r4]
    ebc8:	e5843004 	str	r3, [r4, #4]
    ebcc:	92843008 	addls	r3, r4, #8
    ebd0:	9afffff2 	bls	eba0 <_calloc_r+0x34>
    ebd4:	e3520024 	cmp	r2, #36	; 0x24
    ebd8:	e5843008 	str	r3, [r4, #8]
    ebdc:	e584300c 	str	r3, [r4, #12]
    ebe0:	05843010 	streq	r3, [r4, #16]
    ebe4:	05843014 	streq	r3, [r4, #20]
    ebe8:	12843010 	addne	r3, r4, #16
    ebec:	02843018 	addeq	r3, r4, #24
    ebf0:	eaffffea 	b	eba0 <_calloc_r+0x34>
    ebf4:	e3a01000 	mov	r1, #0
    ebf8:	ebffe42d 	bl	7cb4 <memset>
    ebfc:	e1a00004 	mov	r0, r4
    ec00:	e8bd4010 	pop	{r4, lr}
    ec04:	e12fff1e 	bx	lr

0000ec08 <_close_r>:
    ec08:	e92d4038 	push	{r3, r4, r5, lr}
    ec0c:	e59f402c 	ldr	r4, [pc, #44]	; ec40 <_close_r+0x38>
    ec10:	e3a03000 	mov	r3, #0
    ec14:	e1a05000 	mov	r5, r0
    ec18:	e1a00001 	mov	r0, r1
    ec1c:	e5843000 	str	r3, [r4]
    ec20:	eb000fd1 	bl	12b6c <_close>
    ec24:	e3700001 	cmn	r0, #1
    ec28:	1a000002 	bne	ec38 <_close_r+0x30>
    ec2c:	e5943000 	ldr	r3, [r4]
    ec30:	e3530000 	cmp	r3, #0
    ec34:	15853000 	strne	r3, [r5]
    ec38:	e8bd4038 	pop	{r3, r4, r5, lr}
    ec3c:	e12fff1e 	bx	lr
    ec40:	0001415c 	.word	0x0001415c

0000ec44 <_fclose_r>:
    ec44:	e92d4070 	push	{r4, r5, r6, lr}
    ec48:	e2514000 	subs	r4, r1, #0
    ec4c:	e1a05000 	mov	r5, r0
    ec50:	0a000007 	beq	ec74 <_fclose_r+0x30>
    ec54:	e3500000 	cmp	r0, #0
    ec58:	0a000002 	beq	ec68 <_fclose_r+0x24>
    ec5c:	e5903038 	ldr	r3, [r0, #56]	; 0x38
    ec60:	e3530000 	cmp	r3, #0
    ec64:	0a00002c 	beq	ed1c <_fclose_r+0xd8>
    ec68:	e1d430fc 	ldrsh	r3, [r4, #12]
    ec6c:	e3530000 	cmp	r3, #0
    ec70:	1a000002 	bne	ec80 <_fclose_r+0x3c>
    ec74:	e3a00000 	mov	r0, #0
    ec78:	e8bd4070 	pop	{r4, r5, r6, lr}
    ec7c:	e12fff1e 	bx	lr
    ec80:	e1a00005 	mov	r0, r5
    ec84:	e1a01004 	mov	r1, r4
    ec88:	ebffdc6f 	bl	5e4c <_fflush_r>
    ec8c:	e594302c 	ldr	r3, [r4, #44]	; 0x2c
    ec90:	e3530000 	cmp	r3, #0
    ec94:	e1a06000 	mov	r6, r0
    ec98:	0a000005 	beq	ecb4 <_fclose_r+0x70>
    ec9c:	e1a00005 	mov	r0, r5
    eca0:	e594101c 	ldr	r1, [r4, #28]
    eca4:	e1a0e00f 	mov	lr, pc
    eca8:	e12fff13 	bx	r3
    ecac:	e3500000 	cmp	r0, #0
    ecb0:	b3e06000 	mvnlt	r6, #0
    ecb4:	e1d430bc 	ldrh	r3, [r4, #12]
    ecb8:	e3130080 	tst	r3, #128	; 0x80
    ecbc:	1a000018 	bne	ed24 <_fclose_r+0xe0>
    ecc0:	e5941030 	ldr	r1, [r4, #48]	; 0x30
    ecc4:	e3510000 	cmp	r1, #0
    ecc8:	0a000005 	beq	ece4 <_fclose_r+0xa0>
    eccc:	e2843040 	add	r3, r4, #64	; 0x40
    ecd0:	e1510003 	cmp	r1, r3
    ecd4:	11a00005 	movne	r0, r5
    ecd8:	1bffde39 	blne	65c4 <_free_r>
    ecdc:	e3a03000 	mov	r3, #0
    ece0:	e5843030 	str	r3, [r4, #48]	; 0x30
    ece4:	e5941044 	ldr	r1, [r4, #68]	; 0x44
    ece8:	e3510000 	cmp	r1, #0
    ecec:	0a000003 	beq	ed00 <_fclose_r+0xbc>
    ecf0:	e1a00005 	mov	r0, r5
    ecf4:	ebffde32 	bl	65c4 <_free_r>
    ecf8:	e3a03000 	mov	r3, #0
    ecfc:	e5843044 	str	r3, [r4, #68]	; 0x44
    ed00:	ebffdd34 	bl	61d8 <__sfp_lock_acquire>
    ed04:	e3a03000 	mov	r3, #0
    ed08:	e1c430bc 	strh	r3, [r4, #12]
    ed0c:	ebffdd32 	bl	61dc <__sfp_lock_release>
    ed10:	e1a00006 	mov	r0, r6
    ed14:	e8bd4070 	pop	{r4, r5, r6, lr}
    ed18:	e12fff1e 	bx	lr
    ed1c:	ebffdc95 	bl	5f78 <__sinit>
    ed20:	eaffffd0 	b	ec68 <_fclose_r+0x24>
    ed24:	e1a00005 	mov	r0, r5
    ed28:	e5941010 	ldr	r1, [r4, #16]
    ed2c:	ebffde24 	bl	65c4 <_free_r>
    ed30:	eaffffe2 	b	ecc0 <_fclose_r+0x7c>

0000ed34 <fclose>:
    ed34:	e59f3008 	ldr	r3, [pc, #8]	; ed44 <fclose+0x10>
    ed38:	e1a01000 	mov	r1, r0
    ed3c:	e5930000 	ldr	r0, [r3]
    ed40:	eaffffbf 	b	ec44 <_fclose_r>
    ed44:	00013830 	.word	0x00013830

0000ed48 <_fputwc_r>:
    ed48:	e1d230bc 	ldrh	r3, [r2, #12]
    ed4c:	e92d41f0 	push	{r4, r5, r6, r7, r8, lr}
    ed50:	e3130a02 	tst	r3, #8192	; 0x2000
    ed54:	e1a04002 	mov	r4, r2
    ed58:	05922064 	ldreq	r2, [r2, #100]	; 0x64
    ed5c:	03833a02 	orreq	r3, r3, #8192	; 0x2000
    ed60:	03822a02 	orreq	r2, r2, #8192	; 0x2000
    ed64:	01c430bc 	strheq	r3, [r4, #12]
    ed68:	05842064 	streq	r2, [r4, #100]	; 0x64
    ed6c:	e24dd008 	sub	sp, sp, #8
    ed70:	e1a07000 	mov	r7, r0
    ed74:	e1a06001 	mov	r6, r1
    ed78:	ebffe04c 	bl	6eb0 <__locale_mb_cur_max>
    ed7c:	e3500001 	cmp	r0, #1
    ed80:	0a000036 	beq	ee60 <_fputwc_r+0x118>
    ed84:	e1a00007 	mov	r0, r7
    ed88:	e28d1004 	add	r1, sp, #4
    ed8c:	e1a02006 	mov	r2, r6
    ed90:	e284305c 	add	r3, r4, #92	; 0x5c
    ed94:	eb000908 	bl	111bc <_wcrtomb_r>
    ed98:	e3700001 	cmn	r0, #1
    ed9c:	e1a08000 	mov	r8, r0
    eda0:	0a000028 	beq	ee48 <_fputwc_r+0x100>
    eda4:	e3500000 	cmp	r0, #0
    eda8:	15dd1004 	ldrbne	r1, [sp, #4]
    edac:	0a000032 	beq	ee7c <_fputwc_r+0x134>
    edb0:	e3a05000 	mov	r5, #0
    edb4:	ea000009 	b	ede0 <_fputwc_r+0x98>
    edb8:	e5943000 	ldr	r3, [r4]
    edbc:	e5c31000 	strb	r1, [r3]
    edc0:	e5943000 	ldr	r3, [r4]
    edc4:	e2833001 	add	r3, r3, #1
    edc8:	e5843000 	str	r3, [r4]
    edcc:	e2855001 	add	r5, r5, #1
    edd0:	e1550008 	cmp	r5, r8
    edd4:	2a000028 	bcs	ee7c <_fputwc_r+0x134>
    edd8:	e28d3004 	add	r3, sp, #4
    eddc:	e7d51003 	ldrb	r1, [r5, r3]
    ede0:	e5943008 	ldr	r3, [r4, #8]
    ede4:	e2433001 	sub	r3, r3, #1
    ede8:	e3530000 	cmp	r3, #0
    edec:	e5843008 	str	r3, [r4, #8]
    edf0:	aafffff0 	bge	edb8 <_fputwc_r+0x70>
    edf4:	e5942018 	ldr	r2, [r4, #24]
    edf8:	e1530002 	cmp	r3, r2
    edfc:	ba000005 	blt	ee18 <_fputwc_r+0xd0>
    ee00:	e5943000 	ldr	r3, [r4]
    ee04:	e5c31000 	strb	r1, [r3]
    ee08:	e5943000 	ldr	r3, [r4]
    ee0c:	e5d31000 	ldrb	r1, [r3]
    ee10:	e351000a 	cmp	r1, #10
    ee14:	1affffea 	bne	edc4 <_fputwc_r+0x7c>
    ee18:	e1a00007 	mov	r0, r7
    ee1c:	e1a02004 	mov	r2, r4
    ee20:	eb000896 	bl	11080 <__swbuf_r>
    ee24:	e3700001 	cmn	r0, #1
    ee28:	13a00000 	movne	r0, #0
    ee2c:	03a00001 	moveq	r0, #1
    ee30:	e3500000 	cmp	r0, #0
    ee34:	0affffe4 	beq	edcc <_fputwc_r+0x84>
    ee38:	e3e00000 	mvn	r0, #0
    ee3c:	e28dd008 	add	sp, sp, #8
    ee40:	e8bd41f0 	pop	{r4, r5, r6, r7, r8, lr}
    ee44:	e12fff1e 	bx	lr
    ee48:	e1d430bc 	ldrh	r3, [r4, #12]
    ee4c:	e3833040 	orr	r3, r3, #64	; 0x40
    ee50:	e1c430bc 	strh	r3, [r4, #12]
    ee54:	e28dd008 	add	sp, sp, #8
    ee58:	e8bd41f0 	pop	{r4, r5, r6, r7, r8, lr}
    ee5c:	e12fff1e 	bx	lr
    ee60:	e2463001 	sub	r3, r6, #1
    ee64:	e35300fe 	cmp	r3, #254	; 0xfe
    ee68:	8affffc5 	bhi	ed84 <_fputwc_r+0x3c>
    ee6c:	e20610ff 	and	r1, r6, #255	; 0xff
    ee70:	e5cd1004 	strb	r1, [sp, #4]
    ee74:	e1a08000 	mov	r8, r0
    ee78:	eaffffcc 	b	edb0 <_fputwc_r+0x68>
    ee7c:	e1a00006 	mov	r0, r6
    ee80:	e28dd008 	add	sp, sp, #8
    ee84:	e8bd41f0 	pop	{r4, r5, r6, r7, r8, lr}
    ee88:	e12fff1e 	bx	lr

0000ee8c <fputwc>:
    ee8c:	e59f3038 	ldr	r3, [pc, #56]	; eecc <fputwc+0x40>
    ee90:	e92d4070 	push	{r4, r5, r6, lr}
    ee94:	e5934000 	ldr	r4, [r3]
    ee98:	e3540000 	cmp	r4, #0
    ee9c:	e1a06000 	mov	r6, r0
    eea0:	e1a05001 	mov	r5, r1
    eea4:	0a000003 	beq	eeb8 <fputwc+0x2c>
    eea8:	e5943038 	ldr	r3, [r4, #56]	; 0x38
    eeac:	e3530000 	cmp	r3, #0
    eeb0:	01a00004 	moveq	r0, r4
    eeb4:	0bffdc2f 	bleq	5f78 <__sinit>
    eeb8:	e1a00004 	mov	r0, r4
    eebc:	e1a01006 	mov	r1, r6
    eec0:	e1a02005 	mov	r2, r5
    eec4:	e8bd4070 	pop	{r4, r5, r6, lr}
    eec8:	eaffff9e 	b	ed48 <_fputwc_r>
    eecc:	00013830 	.word	0x00013830

0000eed0 <_fstat_r>:
    eed0:	e92d4038 	push	{r3, r4, r5, lr}
    eed4:	e59f4030 	ldr	r4, [pc, #48]	; ef0c <_fstat_r+0x3c>
    eed8:	e3a03000 	mov	r3, #0
    eedc:	e1a05000 	mov	r5, r0
    eee0:	e1a00001 	mov	r0, r1
    eee4:	e1a01002 	mov	r1, r2
    eee8:	e5843000 	str	r3, [r4]
    eeec:	eb000f42 	bl	12bfc <_fstat>
    eef0:	e3700001 	cmn	r0, #1
    eef4:	1a000002 	bne	ef04 <_fstat_r+0x34>
    eef8:	e5943000 	ldr	r3, [r4]
    eefc:	e3530000 	cmp	r3, #0
    ef00:	15853000 	strne	r3, [r5]
    ef04:	e8bd4038 	pop	{r3, r4, r5, lr}
    ef08:	e12fff1e 	bx	lr
    ef0c:	0001415c 	.word	0x0001415c

0000ef10 <rshift>:
    ef10:	e5902010 	ldr	r2, [r0, #16]
    ef14:	e1a032c1 	asr	r3, r1, #5
    ef18:	e1530002 	cmp	r3, r2
    ef1c:	e92d01f0 	push	{r4, r5, r6, r7, r8}
    ef20:	e2808014 	add	r8, r0, #20
    ef24:	aa000020 	bge	efac <rshift+0x9c>
    ef28:	e211601f 	ands	r6, r1, #31
    ef2c:	e0882102 	add	r2, r8, r2, lsl #2
    ef30:	e0887103 	add	r7, r8, r3, lsl #2
    ef34:	0a000022 	beq	efc4 <rshift+0xb4>
    ef38:	e798c103 	ldr	r12, [r8, r3, lsl #2]
    ef3c:	e2873004 	add	r3, r7, #4
    ef40:	e1520003 	cmp	r2, r3
    ef44:	e1a0c63c 	lsr	r12, r12, r6
    ef48:	e2661020 	rsb	r1, r6, #32
    ef4c:	9a00002a 	bls	effc <rshift+0xec>
    ef50:	e1a04008 	mov	r4, r8
    ef54:	e5935000 	ldr	r5, [r3]
    ef58:	e18cc115 	orr	r12, r12, r5, lsl r1
    ef5c:	e484c004 	str	r12, [r4], #4
    ef60:	e493c004 	ldr	r12, [r3], #4
    ef64:	e1530002 	cmp	r3, r2
    ef68:	e1a0c63c 	lsr	r12, r12, r6
    ef6c:	3afffff8 	bcc	ef54 <rshift+0x44>
    ef70:	e0673002 	rsb	r3, r7, r2
    ef74:	e2433005 	sub	r3, r3, #5
    ef78:	e3c33003 	bic	r3, r3, #3
    ef7c:	e2833004 	add	r3, r3, #4
    ef80:	e0883003 	add	r3, r8, r3
    ef84:	e35c0000 	cmp	r12, #0
    ef88:	e583c000 	str	r12, [r3]
    ef8c:	12833004 	addne	r3, r3, #4
    ef90:	e0688003 	rsb	r8, r8, r3
    ef94:	e1a08148 	asr	r8, r8, #2
    ef98:	e3580000 	cmp	r8, #0
    ef9c:	e5808010 	str	r8, [r0, #16]
    efa0:	0a000003 	beq	efb4 <rshift+0xa4>
    efa4:	e8bd01f0 	pop	{r4, r5, r6, r7, r8}
    efa8:	e12fff1e 	bx	lr
    efac:	e3a03000 	mov	r3, #0
    efb0:	e5803010 	str	r3, [r0, #16]
    efb4:	e3a03000 	mov	r3, #0
    efb8:	e5803014 	str	r3, [r0, #20]
    efbc:	e8bd01f0 	pop	{r4, r5, r6, r7, r8}
    efc0:	e12fff1e 	bx	lr
    efc4:	e1520007 	cmp	r2, r7
    efc8:	81a01008 	movhi	r1, r8
    efcc:	81a03007 	movhi	r3, r7
    efd0:	9afffff5 	bls	efac <rshift+0x9c>
    efd4:	e493c004 	ldr	r12, [r3], #4
    efd8:	e1520003 	cmp	r2, r3
    efdc:	e481c004 	str	r12, [r1], #4
    efe0:	8afffffb 	bhi	efd4 <rshift+0xc4>
    efe4:	e1e08007 	mvn	r8, r7
    efe8:	e0888002 	add	r8, r8, r2
    efec:	e3c88003 	bic	r8, r8, #3
    eff0:	e2888004 	add	r8, r8, #4
    eff4:	e1a08148 	asr	r8, r8, #2
    eff8:	eaffffe6 	b	ef98 <rshift+0x88>
    effc:	e1a03008 	mov	r3, r8
    f000:	eaffffdf 	b	ef84 <rshift+0x74>

0000f004 <__gethex>:
    f004:	e92d4ff0 	push	{r4, r5, r6, r7, r8, r9, r10, r11, lr}
    f008:	e24dd02c 	sub	sp, sp, #44	; 0x2c
    f00c:	e1a08001 	mov	r8, r1
    f010:	e58d2018 	str	r2, [sp, #24]
    f014:	e58d3024 	str	r3, [sp, #36]	; 0x24
    f018:	e58d001c 	str	r0, [sp, #28]
    f01c:	ebffdfac 	bl	6ed4 <_localeconv_r>
    f020:	e5900000 	ldr	r0, [r0]
    f024:	e58d0008 	str	r0, [sp, #8]
    f028:	ebffc549 	bl	554 <strlen>
    f02c:	e5983000 	ldr	r3, [r8]
    f030:	e59dc008 	ldr	r12, [sp, #8]
    f034:	e5d32002 	ldrb	r2, [r3, #2]
    f038:	e08c1000 	add	r1, r12, r0
    f03c:	e3520030 	cmp	r2, #48	; 0x30
    f040:	e58d000c 	str	r0, [sp, #12]
    f044:	e551a001 	ldrb	r10, [r1, #-1]
    f048:	e2835002 	add	r5, r3, #2
    f04c:	1a000146 	bne	f56c <__gethex+0x568>
    f050:	e2833003 	add	r3, r3, #3
    f054:	e3a07000 	mov	r7, #0
    f058:	e1a05003 	mov	r5, r3
    f05c:	e4d32001 	ldrb	r2, [r3], #1
    f060:	e3520030 	cmp	r2, #48	; 0x30
    f064:	e2877001 	add	r7, r7, #1
    f068:	0afffffa 	beq	f058 <__gethex+0x54>
    f06c:	e59f67a0 	ldr	r6, [pc, #1952]	; f814 <__gethex+0x810>
    f070:	e7d64002 	ldrb	r4, [r6, r2]
    f074:	e3540000 	cmp	r4, #0
    f078:	0a0000c1 	beq	f384 <__gethex+0x380>
    f07c:	e5d53000 	ldrb	r3, [r5]
    f080:	e3a09000 	mov	r9, #0
    f084:	e7d63003 	ldrb	r3, [r6, r3]
    f088:	e1a0b009 	mov	r11, r9
    f08c:	e3530000 	cmp	r3, #0
    f090:	0a000137 	beq	f574 <__gethex+0x570>
    f094:	e2853001 	add	r3, r5, #1
    f098:	e5d32000 	ldrb	r2, [r3]
    f09c:	e7d62002 	ldrb	r2, [r6, r2]
    f0a0:	e3520000 	cmp	r2, #0
    f0a4:	e1a04003 	mov	r4, r3
    f0a8:	e2833001 	add	r3, r3, #1
    f0ac:	1afffff9 	bne	f098 <__gethex+0x94>
    f0b0:	e28d1008 	add	r1, sp, #8
    f0b4:	e1a00004 	mov	r0, r4
    f0b8:	e8910006 	ldm	r1, {r1, r2}
    f0bc:	eb0002f4 	bl	fc94 <strncmp>
    f0c0:	e3500000 	cmp	r0, #0
    f0c4:	0a000013 	beq	f118 <__gethex+0x114>
    f0c8:	e35b0000 	cmp	r11, #0
    f0cc:	e5d43000 	ldrb	r3, [r4]
    f0d0:	0a000001 	beq	f0dc <__gethex+0xd8>
    f0d4:	e064b00b 	rsb	r11, r4, r11
    f0d8:	e1a0b10b 	lsl	r11, r11, #2
    f0dc:	e58db010 	str	r11, [sp, #16]
    f0e0:	e3530050 	cmp	r3, #80	; 0x50
    f0e4:	0a00007a 	beq	f2d4 <__gethex+0x2d0>
    f0e8:	e3530070 	cmp	r3, #112	; 0x70
    f0ec:	0a000078 	beq	f2d4 <__gethex+0x2d0>
    f0f0:	e1a03004 	mov	r3, r4
    f0f4:	e3590000 	cmp	r9, #0
    f0f8:	e5883000 	str	r3, [r8]
    f0fc:	0a000009 	beq	f128 <__gethex+0x124>
    f100:	e3570000 	cmp	r7, #0
    f104:	03a00006 	moveq	r0, #6
    f108:	13a00000 	movne	r0, #0
    f10c:	e28dd02c 	add	sp, sp, #44	; 0x2c
    f110:	e8bd4ff0 	pop	{r4, r5, r6, r7, r8, r9, r10, r11, lr}
    f114:	e12fff1e 	bx	lr
    f118:	e35b0000 	cmp	r11, #0
    f11c:	0a000130 	beq	f5e4 <__gethex+0x5e0>
    f120:	e5d43000 	ldrb	r3, [r4]
    f124:	eaffffea 	b	f0d4 <__gethex+0xd0>
    f128:	e0653004 	rsb	r3, r5, r4
    f12c:	e2433001 	sub	r3, r3, #1
    f130:	e3530007 	cmp	r3, #7
    f134:	e1a01009 	mov	r1, r9
    f138:	da000003 	ble	f14c <__gethex+0x148>
    f13c:	e1a030c3 	asr	r3, r3, #1
    f140:	e3530007 	cmp	r3, #7
    f144:	e2811001 	add	r1, r1, #1
    f148:	cafffffb 	bgt	f13c <__gethex+0x138>
    f14c:	e59d001c 	ldr	r0, [sp, #28]
    f150:	ebffe316 	bl	7db0 <_Balloc>
    f154:	e1550004 	cmp	r5, r4
    f158:	e2803014 	add	r3, r0, #20
    f15c:	e58d0014 	str	r0, [sp, #20]
    f160:	e58d3020 	str	r3, [sp, #32]
    f164:	2a000164 	bcs	f6fc <__gethex+0x6f8>
    f168:	e1a0b003 	mov	r11, r3
    f16c:	e59d300c 	ldr	r3, [sp, #12]
    f170:	e3a09000 	mov	r9, #0
    f174:	e1a07009 	mov	r7, r9
    f178:	e263c001 	rsb	r12, r3, #1
    f17c:	ea00000a 	b	f1ac <__gethex+0x1a8>
    f180:	e3570020 	cmp	r7, #32
    f184:	11a03007 	movne	r3, r7
    f188:	12877004 	addne	r7, r7, #4
    f18c:	0a00004a 	beq	f2bc <__gethex+0x2b8>
    f190:	e5542001 	ldrb	r2, [r4, #-1]
    f194:	e7d62002 	ldrb	r2, [r6, r2]
    f198:	e1550008 	cmp	r5, r8
    f19c:	e202200f 	and	r2, r2, #15
    f1a0:	e1899312 	orr	r9, r9, r2, lsl r3
    f1a4:	2a000014 	bcs	f1fc <__gethex+0x1f8>
    f1a8:	e1a04008 	mov	r4, r8
    f1ac:	e5543001 	ldrb	r3, [r4, #-1]
    f1b0:	e153000a 	cmp	r3, r10
    f1b4:	e2448001 	sub	r8, r4, #1
    f1b8:	1afffff0 	bne	f180 <__gethex+0x17c>
    f1bc:	e088300c 	add	r3, r8, r12
    f1c0:	e1550003 	cmp	r5, r3
    f1c4:	8affffed 	bhi	f180 <__gethex+0x17c>
    f1c8:	e28d1008 	add	r1, sp, #8
    f1cc:	e8910006 	ldm	r1, {r1, r2}
    f1d0:	e1a00003 	mov	r0, r3
    f1d4:	e58d3004 	str	r3, [sp, #4]
    f1d8:	e58dc000 	str	r12, [sp]
    f1dc:	eb0002ac 	bl	fc94 <strncmp>
    f1e0:	e59d3004 	ldr	r3, [sp, #4]
    f1e4:	e3500000 	cmp	r0, #0
    f1e8:	e59dc000 	ldr	r12, [sp]
    f1ec:	01a08003 	moveq	r8, r3
    f1f0:	1affffe2 	bne	f180 <__gethex+0x17c>
    f1f4:	e1550008 	cmp	r5, r8
    f1f8:	3affffea 	bcc	f1a8 <__gethex+0x1a4>
    f1fc:	e48b9004 	str	r9, [r11], #4
    f200:	e59dc020 	ldr	r12, [sp, #32]
    f204:	e59d3014 	ldr	r3, [sp, #20]
    f208:	e06cb00b 	rsb	r11, r12, r11
    f20c:	e1a0b14b 	asr	r11, r11, #2
    f210:	e583b010 	str	r11, [r3, #16]
    f214:	e1a00009 	mov	r0, r9
    f218:	ebffe37f 	bl	801c <__hi0bits>
    f21c:	e59dc018 	ldr	r12, [sp, #24]
    f220:	e1a0b28b 	lsl	r11, r11, #5
    f224:	e59c4000 	ldr	r4, [r12]
    f228:	e060000b 	rsb	r0, r0, r11
    f22c:	e1500004 	cmp	r0, r4
    f230:	ca0000a1 	bgt	f4bc <__gethex+0x4b8>
    f234:	a3a05000 	movge	r5, #0
    f238:	ba0000be 	blt	f538 <__gethex+0x534>
    f23c:	e59dc018 	ldr	r12, [sp, #24]
    f240:	e59c3008 	ldr	r3, [r12, #8]
    f244:	e59dc010 	ldr	r12, [sp, #16]
    f248:	e15c0003 	cmp	r12, r3
    f24c:	ca000078 	bgt	f434 <__gethex+0x430>
    f250:	e59dc018 	ldr	r12, [sp, #24]
    f254:	e59c3004 	ldr	r3, [r12, #4]
    f258:	e59dc010 	ldr	r12, [sp, #16]
    f25c:	e15c0003 	cmp	r12, r3
    f260:	ba000082 	blt	f470 <__gethex+0x46c>
    f264:	e3a07001 	mov	r7, #1
    f268:	e3550000 	cmp	r5, #0
    f26c:	0a000008 	beq	f294 <__gethex+0x290>
    f270:	e59dc018 	ldr	r12, [sp, #24]
    f274:	e59c300c 	ldr	r3, [r12, #12]
    f278:	e3530002 	cmp	r3, #2
    f27c:	0a0000e6 	beq	f61c <__gethex+0x618>
    f280:	e3530003 	cmp	r3, #3
    f284:	0a0000e7 	beq	f628 <__gethex+0x624>
    f288:	e3530001 	cmp	r3, #1
    f28c:	0a000112 	beq	f6dc <__gethex+0x6d8>
    f290:	e3877010 	orr	r7, r7, #16
    f294:	e59d3014 	ldr	r3, [sp, #20]
    f298:	e59dc050 	ldr	r12, [sp, #80]	; 0x50
    f29c:	e58c3000 	str	r3, [r12]
    f2a0:	e59d3010 	ldr	r3, [sp, #16]
    f2a4:	e59dc024 	ldr	r12, [sp, #36]	; 0x24
    f2a8:	e1a00007 	mov	r0, r7
    f2ac:	e58c3000 	str	r3, [r12]
    f2b0:	e28dd02c 	add	sp, sp, #44	; 0x2c
    f2b4:	e8bd4ff0 	pop	{r4, r5, r6, r7, r8, r9, r10, r11, lr}
    f2b8:	e12fff1e 	bx	lr
    f2bc:	e58b9000 	str	r9, [r11]
    f2c0:	e3a09000 	mov	r9, #0
    f2c4:	e28bb004 	add	r11, r11, #4
    f2c8:	e1a03009 	mov	r3, r9
    f2cc:	e3a07004 	mov	r7, #4
    f2d0:	eaffffae 	b	f190 <__gethex+0x18c>
    f2d4:	e5d43001 	ldrb	r3, [r4, #1]
    f2d8:	e353002b 	cmp	r3, #43	; 0x2b
    f2dc:	0a000024 	beq	f374 <__gethex+0x370>
    f2e0:	e353002d 	cmp	r3, #45	; 0x2d
    f2e4:	12840001 	addne	r0, r4, #1
    f2e8:	13a0b000 	movne	r11, #0
    f2ec:	03a0b001 	moveq	r11, #1
    f2f0:	0a000020 	beq	f378 <__gethex+0x374>
    f2f4:	e7d62003 	ldrb	r2, [r6, r3]
    f2f8:	e2423001 	sub	r3, r2, #1
    f2fc:	e20330ff 	and	r3, r3, #255	; 0xff
    f300:	e3530018 	cmp	r3, #24
    f304:	e59f3508 	ldr	r3, [pc, #1288]	; f814 <__gethex+0x810>
    f308:	8affff78 	bhi	f0f0 <__gethex+0xec>
    f30c:	e5d01001 	ldrb	r1, [r0, #1]
    f310:	e7d31001 	ldrb	r1, [r3, r1]
    f314:	e2413001 	sub	r3, r1, #1
    f318:	e20330ff 	and	r3, r3, #255	; 0xff
    f31c:	e3530018 	cmp	r3, #24
    f320:	e2422010 	sub	r2, r2, #16
    f324:	e2803001 	add	r3, r0, #1
    f328:	8a00000b 	bhi	f35c <__gethex+0x358>
    f32c:	e2800002 	add	r0, r0, #2
    f330:	e5d0c000 	ldrb	r12, [r0]
    f334:	e0822102 	add	r2, r2, r2, lsl #2
    f338:	e0812082 	add	r2, r1, r2, lsl #1
    f33c:	e7d6100c 	ldrb	r1, [r6, r12]
    f340:	e241c001 	sub	r12, r1, #1
    f344:	e20cc0ff 	and	r12, r12, #255	; 0xff
    f348:	e35c0018 	cmp	r12, #24
    f34c:	e1a03000 	mov	r3, r0
    f350:	e2422010 	sub	r2, r2, #16
    f354:	e2800001 	add	r0, r0, #1
    f358:	9afffff4 	bls	f330 <__gethex+0x32c>
    f35c:	e59dc010 	ldr	r12, [sp, #16]
    f360:	e35b0000 	cmp	r11, #0
    f364:	12622000 	rsbne	r2, r2, #0
    f368:	e08cc002 	add	r12, r12, r2
    f36c:	e58dc010 	str	r12, [sp, #16]
    f370:	eaffff5f 	b	f0f4 <__gethex+0xf0>
    f374:	e3a0b000 	mov	r11, #0
    f378:	e5d43002 	ldrb	r3, [r4, #2]
    f37c:	e2840002 	add	r0, r4, #2
    f380:	eaffffdb 	b	f2f4 <__gethex+0x2f0>
    f384:	e28d1008 	add	r1, sp, #8
    f388:	e1a00005 	mov	r0, r5
    f38c:	e8910006 	ldm	r1, {r1, r2}
    f390:	eb00023f 	bl	fc94 <strncmp>
    f394:	e3500000 	cmp	r0, #0
    f398:	1a00002f 	bne	f45c <__gethex+0x458>
    f39c:	e59dc00c 	ldr	r12, [sp, #12]
    f3a0:	e7d5300c 	ldrb	r3, [r5, r12]
    f3a4:	e7d62003 	ldrb	r2, [r6, r3]
    f3a8:	e3520000 	cmp	r2, #0
    f3ac:	e085400c 	add	r4, r5, r12
    f3b0:	058d2010 	streq	r2, [sp, #16]
    f3b4:	03a09001 	moveq	r9, #1
    f3b8:	0affff48 	beq	f0e0 <__gethex+0xdc>
    f3bc:	e3530030 	cmp	r3, #48	; 0x30
    f3c0:	1a0000fb 	bne	f7b4 <__gethex+0x7b0>
    f3c4:	e2842001 	add	r2, r4, #1
    f3c8:	e5d23000 	ldrb	r3, [r2]
    f3cc:	e3530030 	cmp	r3, #48	; 0x30
    f3d0:	e1a05002 	mov	r5, r2
    f3d4:	e2822001 	add	r2, r2, #1
    f3d8:	0afffffa 	beq	f3c8 <__gethex+0x3c4>
    f3dc:	e7d63003 	ldrb	r3, [r6, r3]
    f3e0:	e2739001 	rsbs	r9, r3, #1
    f3e4:	e1a0b004 	mov	r11, r4
    f3e8:	33a09000 	movcc	r9, #0
    f3ec:	e3a07001 	mov	r7, #1
    f3f0:	eaffff25 	b	f08c <__gethex+0x88>
    f3f4:	e0866008 	add	r6, r6, r8
    f3f8:	e5160004 	ldr	r0, [r6, #-4]
    f3fc:	ebffe306 	bl	801c <__hi0bits>
    f400:	e2643020 	rsb	r3, r4, #32
    f404:	e1500003 	cmp	r0, r3
    f408:	aa0000a3 	bge	f69c <__gethex+0x698>
    f40c:	e59d0014 	ldr	r0, [sp, #20]
    f410:	e3a01001 	mov	r1, #1
    f414:	ebfffebd 	bl	ef10 <rshift>
    f418:	e59dc018 	ldr	r12, [sp, #24]
    f41c:	e59c3008 	ldr	r3, [r12, #8]
    f420:	e59dc010 	ldr	r12, [sp, #16]
    f424:	e28cc001 	add	r12, r12, #1
    f428:	e15c0003 	cmp	r12, r3
    f42c:	e58dc010 	str	r12, [sp, #16]
    f430:	da000099 	ble	f69c <__gethex+0x698>
    f434:	e59d001c 	ldr	r0, [sp, #28]
    f438:	e59d1014 	ldr	r1, [sp, #20]
    f43c:	ebffe27e 	bl	7e3c <_Bfree>
    f440:	e59d0050 	ldr	r0, [sp, #80]	; 0x50
    f444:	e3a03000 	mov	r3, #0
    f448:	e5803000 	str	r3, [r0]
    f44c:	e3a000a3 	mov	r0, #163	; 0xa3
    f450:	e28dd02c 	add	sp, sp, #44	; 0x2c
    f454:	e8bd4ff0 	pop	{r4, r5, r6, r7, r8, r9, r10, r11, lr}
    f458:	e12fff1e 	bx	lr
    f45c:	e58d4010 	str	r4, [sp, #16]
    f460:	e5d53000 	ldrb	r3, [r5]
    f464:	e1a04005 	mov	r4, r5
    f468:	e3a09001 	mov	r9, #1
    f46c:	eaffff1b 	b	f0e0 <__gethex+0xdc>
    f470:	e06c6003 	rsb	r6, r12, r3
    f474:	e1540006 	cmp	r4, r6
    f478:	ca00003f 	bgt	f57c <__gethex+0x578>
    f47c:	e59dc018 	ldr	r12, [sp, #24]
    f480:	e59c200c 	ldr	r2, [r12, #12]
    f484:	e3520002 	cmp	r2, #2
    f488:	0a0000aa 	beq	f738 <__gethex+0x734>
    f48c:	e3520003 	cmp	r2, #3
    f490:	0a000083 	beq	f6a4 <__gethex+0x6a0>
    f494:	e3520001 	cmp	r2, #1
    f498:	0a00009a 	beq	f708 <__gethex+0x704>
    f49c:	e59d001c 	ldr	r0, [sp, #28]
    f4a0:	e59d1014 	ldr	r1, [sp, #20]
    f4a4:	ebffe264 	bl	7e3c <_Bfree>
    f4a8:	e59d2050 	ldr	r2, [sp, #80]	; 0x50
    f4ac:	e3a03000 	mov	r3, #0
    f4b0:	e5823000 	str	r3, [r2]
    f4b4:	e3a00050 	mov	r0, #80	; 0x50
    f4b8:	eaffff13 	b	f10c <__gethex+0x108>
    f4bc:	e0646000 	rsb	r6, r4, r0
    f4c0:	e1a01006 	mov	r1, r6
    f4c4:	e59d0014 	ldr	r0, [sp, #20]
    f4c8:	ebffe564 	bl	8a60 <__any_on>
    f4cc:	e3500000 	cmp	r0, #0
    f4d0:	01a05000 	moveq	r5, r0
    f4d4:	0a000010 	beq	f51c <__gethex+0x518>
    f4d8:	e2463001 	sub	r3, r6, #1
    f4dc:	e59dc020 	ldr	r12, [sp, #32]
    f4e0:	e1a022c3 	asr	r2, r3, #5
    f4e4:	e79c2102 	ldr	r2, [r12, r2, lsl #2]
    f4e8:	e203101f 	and	r1, r3, #31
    f4ec:	e3a05001 	mov	r5, #1
    f4f0:	e0122115 	ands	r2, r2, r5, lsl r1
    f4f4:	0a000008 	beq	f51c <__gethex+0x518>
    f4f8:	e1530005 	cmp	r3, r5
    f4fc:	da000005 	ble	f518 <__gethex+0x514>
    f500:	e59d0014 	ldr	r0, [sp, #20]
    f504:	e2461002 	sub	r1, r6, #2
    f508:	ebffe554 	bl	8a60 <__any_on>
    f50c:	e3500000 	cmp	r0, #0
    f510:	13a05003 	movne	r5, #3
    f514:	1a000000 	bne	f51c <__gethex+0x518>
    f518:	e3a05002 	mov	r5, #2
    f51c:	e59d3010 	ldr	r3, [sp, #16]
    f520:	e1a01006 	mov	r1, r6
    f524:	e0833006 	add	r3, r3, r6
    f528:	e59d0014 	ldr	r0, [sp, #20]
    f52c:	e58d3010 	str	r3, [sp, #16]
    f530:	ebfffe76 	bl	ef10 <rshift>
    f534:	eaffff40 	b	f23c <__gethex+0x238>
    f538:	e0605004 	rsb	r5, r0, r4
    f53c:	e1a02005 	mov	r2, r5
    f540:	e59d1014 	ldr	r1, [sp, #20]
    f544:	e59d001c 	ldr	r0, [sp, #28]
    f548:	ebffe3b3 	bl	841c <__lshift>
    f54c:	e59dc010 	ldr	r12, [sp, #16]
    f550:	e2803014 	add	r3, r0, #20
    f554:	e065c00c 	rsb	r12, r5, r12
    f558:	e58d0014 	str	r0, [sp, #20]
    f55c:	e58dc010 	str	r12, [sp, #16]
    f560:	e58d3020 	str	r3, [sp, #32]
    f564:	e3a05000 	mov	r5, #0
    f568:	eaffff33 	b	f23c <__gethex+0x238>
    f56c:	e3a07000 	mov	r7, #0
    f570:	eafffebd 	b	f06c <__gethex+0x68>
    f574:	e1a04005 	mov	r4, r5
    f578:	eafffecc 	b	f0b0 <__gethex+0xac>
    f57c:	e3550000 	cmp	r5, #0
    f580:	e2467001 	sub	r7, r6, #1
    f584:	13a05001 	movne	r5, #1
    f588:	1a000005 	bne	f5a4 <__gethex+0x5a0>
    f58c:	e3570000 	cmp	r7, #0
    f590:	da000003 	ble	f5a4 <__gethex+0x5a0>
    f594:	e59d0014 	ldr	r0, [sp, #20]
    f598:	e1a01007 	mov	r1, r7
    f59c:	ebffe52f 	bl	8a60 <__any_on>
    f5a0:	e1a05000 	mov	r5, r0
    f5a4:	e59dc020 	ldr	r12, [sp, #32]
    f5a8:	e1a032c7 	asr	r3, r7, #5
    f5ac:	e79c3103 	ldr	r3, [r12, r3, lsl #2]
    f5b0:	e207701f 	and	r7, r7, #31
    f5b4:	e3a02001 	mov	r2, #1
    f5b8:	e0133712 	ands	r3, r3, r2, lsl r7
    f5bc:	e1a01006 	mov	r1, r6
    f5c0:	e59d0014 	ldr	r0, [sp, #20]
    f5c4:	13855002 	orrne	r5, r5, #2
    f5c8:	ebfffe50 	bl	ef10 <rshift>
    f5cc:	e59d3018 	ldr	r3, [sp, #24]
    f5d0:	e5933004 	ldr	r3, [r3, #4]
    f5d4:	e0664004 	rsb	r4, r6, r4
    f5d8:	e3a07002 	mov	r7, #2
    f5dc:	e58d3010 	str	r3, [sp, #16]
    f5e0:	eaffff20 	b	f268 <__gethex+0x264>
    f5e4:	e59dc00c 	ldr	r12, [sp, #12]
    f5e8:	e7d4300c 	ldrb	r3, [r4, r12]
    f5ec:	e7d62003 	ldrb	r2, [r6, r3]
    f5f0:	e3520000 	cmp	r2, #0
    f5f4:	e084b00c 	add	r11, r4, r12
    f5f8:	0a000070 	beq	f7c0 <__gethex+0x7bc>
    f5fc:	e28b2001 	add	r2, r11, #1
    f600:	e5d23000 	ldrb	r3, [r2]
    f604:	e1a04002 	mov	r4, r2
    f608:	e7d62003 	ldrb	r2, [r6, r3]
    f60c:	e3520000 	cmp	r2, #0
    f610:	e2842001 	add	r2, r4, #1
    f614:	1afffff9 	bne	f600 <__gethex+0x5fc>
    f618:	eafffead 	b	f0d4 <__gethex+0xd0>
    f61c:	e59d0054 	ldr	r0, [sp, #84]	; 0x54
    f620:	e2600001 	rsb	r0, r0, #1
    f624:	e58d0054 	str	r0, [sp, #84]	; 0x54
    f628:	e59d1054 	ldr	r1, [sp, #84]	; 0x54
    f62c:	e3510000 	cmp	r1, #0
    f630:	0affff16 	beq	f290 <__gethex+0x28c>
    f634:	e59d3014 	ldr	r3, [sp, #20]
    f638:	e5935010 	ldr	r5, [r3, #16]
    f63c:	e59dc020 	ldr	r12, [sp, #32]
    f640:	e1a08105 	lsl	r8, r5, #2
    f644:	e08c6008 	add	r6, r12, r8
    f648:	e1a0300c 	mov	r3, r12
    f64c:	e3a00000 	mov	r0, #0
    f650:	ea000002 	b	f660 <__gethex+0x65c>
    f654:	e1560003 	cmp	r6, r3
    f658:	e5030004 	str	r0, [r3, #-4]
    f65c:	9a000039 	bls	f748 <__gethex+0x744>
    f660:	e1a01003 	mov	r1, r3
    f664:	e4932004 	ldr	r2, [r3], #4
    f668:	e3720001 	cmn	r2, #1
    f66c:	0afffff8 	beq	f654 <__gethex+0x650>
    f670:	e2822001 	add	r2, r2, #1
    f674:	e5812000 	str	r2, [r1]
    f678:	e59d6020 	ldr	r6, [sp, #32]
    f67c:	e3570002 	cmp	r7, #2
    f680:	0a00003d 	beq	f77c <__gethex+0x778>
    f684:	e59dc014 	ldr	r12, [sp, #20]
    f688:	e59c3010 	ldr	r3, [r12, #16]
    f68c:	e1550003 	cmp	r5, r3
    f690:	baffff5d 	blt	f40c <__gethex+0x408>
    f694:	e214401f 	ands	r4, r4, #31
    f698:	1affff55 	bne	f3f4 <__gethex+0x3f0>
    f69c:	e3a07021 	mov	r7, #33	; 0x21
    f6a0:	eafffefb 	b	f294 <__gethex+0x290>
    f6a4:	e59d1054 	ldr	r1, [sp, #84]	; 0x54
    f6a8:	e3510000 	cmp	r1, #0
    f6ac:	0affff7a 	beq	f49c <__gethex+0x498>
    f6b0:	e59dc024 	ldr	r12, [sp, #36]	; 0x24
    f6b4:	e59d1050 	ldr	r1, [sp, #80]	; 0x50
    f6b8:	e58c3000 	str	r3, [r12]
    f6bc:	e59d3014 	ldr	r3, [sp, #20]
    f6c0:	e59dc020 	ldr	r12, [sp, #32]
    f6c4:	e3a02001 	mov	r2, #1
    f6c8:	e5832010 	str	r2, [r3, #16]
    f6cc:	e3a00062 	mov	r0, #98	; 0x62
    f6d0:	e58c2000 	str	r2, [r12]
    f6d4:	e5813000 	str	r3, [r1]
    f6d8:	eafffe8b 	b	f10c <__gethex+0x108>
    f6dc:	e3150002 	tst	r5, #2
    f6e0:	0afffeea 	beq	f290 <__gethex+0x28c>
    f6e4:	e59dc020 	ldr	r12, [sp, #32]
    f6e8:	e59c3000 	ldr	r3, [r12]
    f6ec:	e1855003 	orr	r5, r5, r3
    f6f0:	e3150001 	tst	r5, #1
    f6f4:	1affffce 	bne	f634 <__gethex+0x630>
    f6f8:	eafffee4 	b	f290 <__gethex+0x28c>
    f6fc:	e59db020 	ldr	r11, [sp, #32]
    f700:	e3a09000 	mov	r9, #0
    f704:	eafffebc 	b	f1fc <__gethex+0x1f8>
    f708:	e1560004 	cmp	r6, r4
    f70c:	1affff62 	bne	f49c <__gethex+0x498>
    f710:	e3540001 	cmp	r4, #1
    f714:	daffffe5 	ble	f6b0 <__gethex+0x6ac>
    f718:	e2441001 	sub	r1, r4, #1
    f71c:	e59d0014 	ldr	r0, [sp, #20]
    f720:	ebffe4ce 	bl	8a60 <__any_on>
    f724:	e3500000 	cmp	r0, #0
    f728:	0affff5b 	beq	f49c <__gethex+0x498>
    f72c:	e59dc018 	ldr	r12, [sp, #24]
    f730:	e59c3004 	ldr	r3, [r12, #4]
    f734:	eaffffdd 	b	f6b0 <__gethex+0x6ac>
    f738:	e59d0054 	ldr	r0, [sp, #84]	; 0x54
    f73c:	e3500000 	cmp	r0, #0
    f740:	0affffda 	beq	f6b0 <__gethex+0x6ac>
    f744:	eaffff54 	b	f49c <__gethex+0x498>
    f748:	e59dc014 	ldr	r12, [sp, #20]
    f74c:	e59c3008 	ldr	r3, [r12, #8]
    f750:	e1550003 	cmp	r5, r3
    f754:	aa00001b 	bge	f7c8 <__gethex+0x7c4>
    f758:	e59d6020 	ldr	r6, [sp, #32]
    f75c:	e1a03005 	mov	r3, r5
    f760:	e59dc014 	ldr	r12, [sp, #20]
    f764:	e2832001 	add	r2, r3, #1
    f768:	e3a01001 	mov	r1, #1
    f76c:	e08c3103 	add	r3, r12, r3, lsl #2
    f770:	e58c2010 	str	r2, [r12, #16]
    f774:	e5831014 	str	r1, [r3, #20]
    f778:	eaffffbf 	b	f67c <__gethex+0x678>
    f77c:	e59dc018 	ldr	r12, [sp, #24]
    f780:	e59c3000 	ldr	r3, [r12]
    f784:	e2433001 	sub	r3, r3, #1
    f788:	e1530004 	cmp	r3, r4
    f78c:	13a07022 	movne	r7, #34	; 0x22
    f790:	1afffebf 	bne	f294 <__gethex+0x290>
    f794:	e1a032c4 	asr	r3, r4, #5
    f798:	e7963103 	ldr	r3, [r6, r3, lsl #2]
    f79c:	e204401f 	and	r4, r4, #31
    f7a0:	e3a02001 	mov	r2, #1
    f7a4:	e0133412 	ands	r3, r3, r2, lsl r4
    f7a8:	13a07021 	movne	r7, #33	; 0x21
    f7ac:	03a07022 	moveq	r7, #34	; 0x22
    f7b0:	eafffeb7 	b	f294 <__gethex+0x290>
    f7b4:	e1a03002 	mov	r3, r2
    f7b8:	e1a05004 	mov	r5, r4
    f7bc:	eaffff07 	b	f3e0 <__gethex+0x3dc>
    f7c0:	e1a0400b 	mov	r4, r11
    f7c4:	eafffe42 	b	f0d4 <__gethex+0xd0>
    f7c8:	e59c1004 	ldr	r1, [r12, #4]
    f7cc:	e59d001c 	ldr	r0, [sp, #28]
    f7d0:	e2811001 	add	r1, r1, #1
    f7d4:	ebffe175 	bl	7db0 <_Balloc>
    f7d8:	e59d3014 	ldr	r3, [sp, #20]
    f7dc:	e5932010 	ldr	r2, [r3, #16]
    f7e0:	e2822002 	add	r2, r2, #2
    f7e4:	e1a06000 	mov	r6, r0
    f7e8:	e283100c 	add	r1, r3, #12
    f7ec:	e1a02102 	lsl	r2, r2, #2
    f7f0:	e280000c 	add	r0, r0, #12
    f7f4:	ebffe0a5 	bl	7a90 <memcpy>
    f7f8:	e59d001c 	ldr	r0, [sp, #28]
    f7fc:	e59d1014 	ldr	r1, [sp, #20]
    f800:	ebffe18d 	bl	7e3c <_Bfree>
    f804:	e58d6014 	str	r6, [sp, #20]
    f808:	e5963010 	ldr	r3, [r6, #16]
    f80c:	e2866014 	add	r6, r6, #20
    f810:	eaffffd2 	b	f760 <__gethex+0x75c>
    f814:	000136a8 	.word	0x000136a8

0000f818 <__hexnan>:
    f818:	e92d0ff0 	push	{r4, r5, r6, r7, r8, r9, r10, r11}
    f81c:	e5913000 	ldr	r3, [r1]
    f820:	e1a012c3 	asr	r1, r3, #5
    f824:	e24dd010 	sub	sp, sp, #16
    f828:	e213301f 	ands	r3, r3, #31
    f82c:	e0821101 	add	r1, r2, r1, lsl #2
    f830:	e58d1004 	str	r1, [sp, #4]
    f834:	12811004 	addne	r1, r1, #4
    f838:	158d1004 	strne	r1, [sp, #4]
    f83c:	e58d0008 	str	r0, [sp, #8]
    f840:	e59d1008 	ldr	r1, [sp, #8]
    f844:	e59d0004 	ldr	r0, [sp, #4]
    f848:	e58d300c 	str	r3, [sp, #12]
    f84c:	e3a03000 	mov	r3, #0
    f850:	e2407004 	sub	r7, r0, #4
    f854:	e5003004 	str	r3, [r0, #-4]
    f858:	e5910000 	ldr	r0, [r1]
    f85c:	e1a08003 	mov	r8, r3
    f860:	e1a0b003 	mov	r11, r3
    f864:	e1a06003 	mov	r6, r3
    f868:	e5d03001 	ldrb	r3, [r0, #1]
    f86c:	e3530000 	cmp	r3, #0
    f870:	e1a05007 	mov	r5, r7
    f874:	e1a0c007 	mov	r12, r7
    f878:	e59fa218 	ldr	r10, [pc, #536]	; fa98 <__hexnan+0x280>
    f87c:	0a000028 	beq	f924 <__hexnan+0x10c>
    f880:	e7da1003 	ldrb	r1, [r10, r3]
    f884:	e3510000 	cmp	r1, #0
    f888:	1a000053 	bne	f9dc <__hexnan+0x1c4>
    f88c:	e3530020 	cmp	r3, #32
    f890:	8a000062 	bhi	fa20 <__hexnan+0x208>
    f894:	e156000b 	cmp	r6, r11
    f898:	da00001d 	ble	f914 <__hexnan+0xfc>
    f89c:	e3580007 	cmp	r8, #7
    f8a0:	c3a03000 	movgt	r3, #0
    f8a4:	d3a03001 	movle	r3, #1
    f8a8:	e15c0005 	cmp	r12, r5
    f8ac:	23a03000 	movcs	r3, #0
    f8b0:	e3530000 	cmp	r3, #0
    f8b4:	0a00000d 	beq	f8f0 <__hexnan+0xd8>
    f8b8:	e2688008 	rsb	r8, r8, #8
    f8bc:	e1a08108 	lsl	r8, r8, #2
    f8c0:	e59c4000 	ldr	r4, [r12]
    f8c4:	e2689020 	rsb	r9, r8, #32
    f8c8:	e1a0300c 	mov	r3, r12
    f8cc:	ea000000 	b	f8d4 <__hexnan+0xbc>
    f8d0:	e1a04001 	mov	r4, r1
    f8d4:	e5931004 	ldr	r1, [r3, #4]
    f8d8:	e1844911 	orr	r4, r4, r1, lsl r9
    f8dc:	e1a01831 	lsr	r1, r1, r8
    f8e0:	e5834000 	str	r4, [r3]
    f8e4:	e5a31004 	str	r1, [r3, #4]!
    f8e8:	e1550003 	cmp	r5, r3
    f8ec:	8afffff7 	bhi	f8d0 <__hexnan+0xb8>
    f8f0:	e15c0002 	cmp	r12, r2
    f8f4:	93a08008 	movls	r8, #8
    f8f8:	9a000005 	bls	f914 <__hexnan+0xfc>
    f8fc:	e3a03000 	mov	r3, #0
    f900:	e24c5004 	sub	r5, r12, #4
    f904:	e50c3004 	str	r3, [r12, #-4]
    f908:	e1a0b006 	mov	r11, r6
    f90c:	e1a0c005 	mov	r12, r5
    f910:	e1a08003 	mov	r8, r3
    f914:	e2800001 	add	r0, r0, #1
    f918:	e5d03001 	ldrb	r3, [r0, #1]
    f91c:	e3530000 	cmp	r3, #0
    f920:	1affffd6 	bne	f880 <__hexnan+0x68>
    f924:	e3560000 	cmp	r6, #0
    f928:	0a00003e 	beq	fa28 <__hexnan+0x210>
    f92c:	e3580007 	cmp	r8, #7
    f930:	c3a03000 	movgt	r3, #0
    f934:	d3a03001 	movle	r3, #1
    f938:	e15c0005 	cmp	r12, r5
    f93c:	23a03000 	movcs	r3, #0
    f940:	e3530000 	cmp	r3, #0
    f944:	0a00000d 	beq	f980 <__hexnan+0x168>
    f948:	e2684008 	rsb	r4, r8, #8
    f94c:	e1a04104 	lsl	r4, r4, #2
    f950:	e59c0000 	ldr	r0, [r12]
    f954:	e2646020 	rsb	r6, r4, #32
    f958:	e1a0300c 	mov	r3, r12
    f95c:	ea000000 	b	f964 <__hexnan+0x14c>
    f960:	e1a00001 	mov	r0, r1
    f964:	e5931004 	ldr	r1, [r3, #4]
    f968:	e1800611 	orr	r0, r0, r1, lsl r6
    f96c:	e1a01431 	lsr	r1, r1, r4
    f970:	e5830000 	str	r0, [r3]
    f974:	e5a31004 	str	r1, [r3, #4]!
    f978:	e1530005 	cmp	r3, r5
    f97c:	3afffff7 	bcc	f960 <__hexnan+0x148>
    f980:	e152000c 	cmp	r2, r12
    f984:	2a00002b 	bcs	fa38 <__hexnan+0x220>
    f988:	e1a03002 	mov	r3, r2
    f98c:	e49c1004 	ldr	r1, [r12], #4
    f990:	e157000c 	cmp	r7, r12
    f994:	e4831004 	str	r1, [r3], #4
    f998:	2afffffb 	bcs	f98c <__hexnan+0x174>
    f99c:	e3a01000 	mov	r1, #0
    f9a0:	e4831004 	str	r1, [r3], #4
    f9a4:	e1570003 	cmp	r7, r3
    f9a8:	2afffffc 	bcs	f9a0 <__hexnan+0x188>
    f9ac:	e59d0004 	ldr	r0, [sp, #4]
    f9b0:	e5103004 	ldr	r3, [r0, #-4]
    f9b4:	ea000002 	b	f9c4 <__hexnan+0x1ac>
    f9b8:	e1520007 	cmp	r2, r7
    f9bc:	0a000029 	beq	fa68 <__hexnan+0x250>
    f9c0:	e5373004 	ldr	r3, [r7, #-4]!
    f9c4:	e3530000 	cmp	r3, #0
    f9c8:	0afffffa 	beq	f9b8 <__hexnan+0x1a0>
    f9cc:	e3a00005 	mov	r0, #5
    f9d0:	e28dd010 	add	sp, sp, #16
    f9d4:	e8bd0ff0 	pop	{r4, r5, r6, r7, r8, r9, r10, r11}
    f9d8:	e12fff1e 	bx	lr
    f9dc:	e2888001 	add	r8, r8, #1
    f9e0:	e3580008 	cmp	r8, #8
    f9e4:	e2866001 	add	r6, r6, #1
    f9e8:	ca000005 	bgt	fa04 <__hexnan+0x1ec>
    f9ec:	e59c3000 	ldr	r3, [r12]
    f9f0:	e1a03203 	lsl	r3, r3, #4
    f9f4:	e201100f 	and	r1, r1, #15
    f9f8:	e1831001 	orr	r1, r3, r1
    f9fc:	e58c1000 	str	r1, [r12]
    fa00:	eaffffc3 	b	f914 <__hexnan+0xfc>
    fa04:	e15c0002 	cmp	r12, r2
    fa08:	9affffc1 	bls	f914 <__hexnan+0xfc>
    fa0c:	e3a03000 	mov	r3, #0
    fa10:	e50c3004 	str	r3, [r12, #-4]
    fa14:	e3a08001 	mov	r8, #1
    fa18:	e24cc004 	sub	r12, r12, #4
    fa1c:	eafffff4 	b	f9f4 <__hexnan+0x1dc>
    fa20:	e3530029 	cmp	r3, #41	; 0x29
    fa24:	0a000015 	beq	fa80 <__hexnan+0x268>
    fa28:	e3a00004 	mov	r0, #4
    fa2c:	e28dd010 	add	sp, sp, #16
    fa30:	e8bd0ff0 	pop	{r4, r5, r6, r7, r8, r9, r10, r11}
    fa34:	e12fff1e 	bx	lr
    fa38:	e59d100c 	ldr	r1, [sp, #12]
    fa3c:	e3510000 	cmp	r1, #0
    fa40:	0affffd9 	beq	f9ac <__hexnan+0x194>
    fa44:	e59d3004 	ldr	r3, [sp, #4]
    fa48:	e59d000c 	ldr	r0, [sp, #12]
    fa4c:	e5131004 	ldr	r1, [r3, #-4]
    fa50:	e2603020 	rsb	r3, r0, #32
    fa54:	e3e00000 	mvn	r0, #0
    fa58:	e0013330 	and	r3, r1, r0, lsr r3
    fa5c:	e59d1004 	ldr	r1, [sp, #4]
    fa60:	e5013004 	str	r3, [r1, #-4]
    fa64:	eaffffd6 	b	f9c4 <__hexnan+0x1ac>
    fa68:	e3a03001 	mov	r3, #1
    fa6c:	e3a00005 	mov	r0, #5
    fa70:	e5873000 	str	r3, [r7]
    fa74:	e28dd010 	add	sp, sp, #16
    fa78:	e8bd0ff0 	pop	{r4, r5, r6, r7, r8, r9, r10, r11}
    fa7c:	e12fff1e 	bx	lr
    fa80:	e59d1008 	ldr	r1, [sp, #8]
    fa84:	e2800002 	add	r0, r0, #2
    fa88:	e3560000 	cmp	r6, #0
    fa8c:	e5810000 	str	r0, [r1]
    fa90:	1affffa5 	bne	f92c <__hexnan+0x114>
    fa94:	eaffffe3 	b	fa28 <__hexnan+0x210>
    fa98:	000136a8 	.word	0x000136a8

0000fa9c <_isatty_r>:
    fa9c:	e92d4038 	push	{r3, r4, r5, lr}
    faa0:	e59f402c 	ldr	r4, [pc, #44]	; fad4 <_isatty_r+0x38>
    faa4:	e3a03000 	mov	r3, #0
    faa8:	e1a05000 	mov	r5, r0
    faac:	e1a00001 	mov	r0, r1
    fab0:	e5843000 	str	r3, [r4]
    fab4:	eb000c68 	bl	12c5c <_isatty>
    fab8:	e3700001 	cmn	r0, #1
    fabc:	1a000002 	bne	facc <_isatty_r+0x30>
    fac0:	e5943000 	ldr	r3, [r4]
    fac4:	e3530000 	cmp	r3, #0
    fac8:	15853000 	strne	r3, [r5]
    facc:	e8bd4038 	pop	{r3, r4, r5, lr}
    fad0:	e12fff1e 	bx	lr
    fad4:	0001415c 	.word	0x0001415c

0000fad8 <_lseek_r>:
    fad8:	e92d4038 	push	{r3, r4, r5, lr}
    fadc:	e59f4034 	ldr	r4, [pc, #52]	; fb18 <_lseek_r+0x40>
    fae0:	e3a0c000 	mov	r12, #0
    fae4:	e1a05000 	mov	r5, r0
    fae8:	e1a00001 	mov	r0, r1
    faec:	e1a01002 	mov	r1, r2
    faf0:	e1a02003 	mov	r2, r3
    faf4:	e584c000 	str	r12, [r4]
    faf8:	eb000c61 	bl	12c84 <_lseek>
    fafc:	e3700001 	cmn	r0, #1
    fb00:	1a000002 	bne	fb10 <_lseek_r+0x38>
    fb04:	e5943000 	ldr	r3, [r4]
    fb08:	e3530000 	cmp	r3, #0
    fb0c:	15853000 	strne	r3, [r5]
    fb10:	e8bd4038 	pop	{r3, r4, r5, lr}
    fb14:	e12fff1e 	bx	lr
    fb18:	0001415c 	.word	0x0001415c

0000fb1c <_read_r>:
    fb1c:	e92d4038 	push	{r3, r4, r5, lr}
    fb20:	e59f4034 	ldr	r4, [pc, #52]	; fb5c <_read_r+0x40>
    fb24:	e3a0c000 	mov	r12, #0
    fb28:	e1a05000 	mov	r5, r0
    fb2c:	e1a00001 	mov	r0, r1
    fb30:	e1a01002 	mov	r1, r2
    fb34:	e1a02003 	mov	r2, r3
    fb38:	e584c000 	str	r12, [r4]
    fb3c:	eb000c7e 	bl	12d3c <_read>
    fb40:	e3700001 	cmn	r0, #1
    fb44:	1a000002 	bne	fb54 <_read_r+0x38>
    fb48:	e5943000 	ldr	r3, [r4]
    fb4c:	e3530000 	cmp	r3, #0
    fb50:	15853000 	strne	r3, [r5]
    fb54:	e8bd4038 	pop	{r3, r4, r5, lr}
    fb58:	e12fff1e 	bx	lr
    fb5c:	0001415c 	.word	0x0001415c

0000fb60 <cleanup_glue>:
    fb60:	e92d4038 	push	{r3, r4, r5, lr}
    fb64:	e1a04001 	mov	r4, r1
    fb68:	e5911000 	ldr	r1, [r1]
    fb6c:	e3510000 	cmp	r1, #0
    fb70:	e1a05000 	mov	r5, r0
    fb74:	1bfffff9 	blne	fb60 <cleanup_glue>
    fb78:	e1a00005 	mov	r0, r5
    fb7c:	e1a01004 	mov	r1, r4
    fb80:	ebffda8f 	bl	65c4 <_free_r>
    fb84:	e8bd4038 	pop	{r3, r4, r5, lr}
    fb88:	e12fff1e 	bx	lr

0000fb8c <_reclaim_reent>:
    fb8c:	e59f30fc 	ldr	r3, [pc, #252]	; fc90 <_reclaim_reent+0x104>
    fb90:	e5933000 	ldr	r3, [r3]
    fb94:	e1500003 	cmp	r0, r3
    fb98:	e92d4070 	push	{r4, r5, r6, lr}
    fb9c:	e1a05000 	mov	r5, r0
    fba0:	0a00002e 	beq	fc60 <_reclaim_reent+0xd4>
    fba4:	e590204c 	ldr	r2, [r0, #76]	; 0x4c
    fba8:	e3520000 	cmp	r2, #0
    fbac:	0a000013 	beq	fc00 <_reclaim_reent+0x74>
    fbb0:	e3a03000 	mov	r3, #0
    fbb4:	e1a06003 	mov	r6, r3
    fbb8:	e7921103 	ldr	r1, [r2, r3, lsl #2]
    fbbc:	e3510000 	cmp	r1, #0
    fbc0:	1a000001 	bne	fbcc <_reclaim_reent+0x40>
    fbc4:	ea000006 	b	fbe4 <_reclaim_reent+0x58>
    fbc8:	e1a01004 	mov	r1, r4
    fbcc:	e5914000 	ldr	r4, [r1]
    fbd0:	e1a00005 	mov	r0, r5
    fbd4:	ebffda7a 	bl	65c4 <_free_r>
    fbd8:	e3540000 	cmp	r4, #0
    fbdc:	1afffff9 	bne	fbc8 <_reclaim_reent+0x3c>
    fbe0:	e595204c 	ldr	r2, [r5, #76]	; 0x4c
    fbe4:	e2866001 	add	r6, r6, #1
    fbe8:	e3560020 	cmp	r6, #32
    fbec:	e1a03006 	mov	r3, r6
    fbf0:	1afffff0 	bne	fbb8 <_reclaim_reent+0x2c>
    fbf4:	e1a01002 	mov	r1, r2
    fbf8:	e1a00005 	mov	r0, r5
    fbfc:	ebffda70 	bl	65c4 <_free_r>
    fc00:	e5951040 	ldr	r1, [r5, #64]	; 0x40
    fc04:	e3510000 	cmp	r1, #0
    fc08:	11a00005 	movne	r0, r5
    fc0c:	1bffda6c 	blne	65c4 <_free_r>
    fc10:	e5951148 	ldr	r1, [r5, #328]	; 0x148
    fc14:	e3510000 	cmp	r1, #0
    fc18:	0a000009 	beq	fc44 <_reclaim_reent+0xb8>
    fc1c:	e2856f53 	add	r6, r5, #332	; 0x14c
    fc20:	e1510006 	cmp	r1, r6
    fc24:	1a000001 	bne	fc30 <_reclaim_reent+0xa4>
    fc28:	ea000005 	b	fc44 <_reclaim_reent+0xb8>
    fc2c:	e1a01004 	mov	r1, r4
    fc30:	e5914000 	ldr	r4, [r1]
    fc34:	e1a00005 	mov	r0, r5
    fc38:	ebffda61 	bl	65c4 <_free_r>
    fc3c:	e1560004 	cmp	r6, r4
    fc40:	1afffff9 	bne	fc2c <_reclaim_reent+0xa0>
    fc44:	e5951054 	ldr	r1, [r5, #84]	; 0x54
    fc48:	e3510000 	cmp	r1, #0
    fc4c:	11a00005 	movne	r0, r5
    fc50:	1bffda5b 	blne	65c4 <_free_r>
    fc54:	e5953038 	ldr	r3, [r5, #56]	; 0x38
    fc58:	e3530000 	cmp	r3, #0
    fc5c:	1a000001 	bne	fc68 <_reclaim_reent+0xdc>
    fc60:	e8bd4070 	pop	{r4, r5, r6, lr}
    fc64:	e12fff1e 	bx	lr
    fc68:	e1a00005 	mov	r0, r5
    fc6c:	e595c03c 	ldr	r12, [r5, #60]	; 0x3c
    fc70:	e1a0e00f 	mov	lr, pc
    fc74:	e12fff1c 	bx	r12
    fc78:	e59512e0 	ldr	r1, [r5, #736]	; 0x2e0
    fc7c:	e3510000 	cmp	r1, #0
    fc80:	0afffff6 	beq	fc60 <_reclaim_reent+0xd4>
    fc84:	e1a00005 	mov	r0, r5
    fc88:	e8bd4070 	pop	{r4, r5, r6, lr}
    fc8c:	eaffffb3 	b	fb60 <cleanup_glue>
    fc90:	00013830 	.word	0x00013830

0000fc94 <strncmp>:
    fc94:	e3520000 	cmp	r2, #0
    fc98:	e92d0030 	push	{r4, r5}
    fc9c:	0a000047 	beq	fdc0 <strncmp+0x12c>
    fca0:	e1803001 	orr	r3, r0, r1
    fca4:	e2133003 	ands	r3, r3, #3
    fca8:	1a00002c 	bne	fd60 <strncmp+0xcc>
    fcac:	e3520003 	cmp	r2, #3
    fcb0:	9a00002a 	bls	fd60 <strncmp+0xcc>
    fcb4:	e590c000 	ldr	r12, [r0]
    fcb8:	e5914000 	ldr	r4, [r1]
    fcbc:	e15c0004 	cmp	r12, r4
    fcc0:	1a000026 	bne	fd60 <strncmp+0xcc>
    fcc4:	e2522004 	subs	r2, r2, #4
    fcc8:	0a00003c 	beq	fdc0 <strncmp+0x12c>
    fccc:	e59f5118 	ldr	r5, [pc, #280]	; fdec <strncmp+0x158>
    fcd0:	e59f4118 	ldr	r4, [pc, #280]	; fdf0 <strncmp+0x15c>
    fcd4:	e08c5005 	add	r5, r12, r5
    fcd8:	e1c5c00c 	bic	r12, r5, r12
    fcdc:	e00c4004 	and	r4, r12, r4
    fce0:	e3540000 	cmp	r4, #0
    fce4:	1a00003b 	bne	fdd8 <strncmp+0x144>
    fce8:	e1a05001 	mov	r5, r1
    fcec:	e1a0c000 	mov	r12, r0
    fcf0:	ea00000c 	b	fd28 <strncmp+0x94>
    fcf4:	e59cc004 	ldr	r12, [r12, #4]
    fcf8:	e5955004 	ldr	r5, [r5, #4]
    fcfc:	e08c3003 	add	r3, r12, r3
    fd00:	e1c3300c 	bic	r3, r3, r12
    fd04:	e15c0005 	cmp	r12, r5
    fd08:	e0034004 	and	r4, r3, r4
    fd0c:	1a000013 	bne	fd60 <strncmp+0xcc>
    fd10:	e2522004 	subs	r2, r2, #4
    fd14:	0a000029 	beq	fdc0 <strncmp+0x12c>
    fd18:	e3540000 	cmp	r4, #0
    fd1c:	1a00002a 	bne	fdcc <strncmp+0x138>
    fd20:	e1a0c000 	mov	r12, r0
    fd24:	e1a05001 	mov	r5, r1
    fd28:	e3520003 	cmp	r2, #3
    fd2c:	e59f30b8 	ldr	r3, [pc, #184]	; fdec <strncmp+0x158>
    fd30:	e59f40b8 	ldr	r4, [pc, #184]	; fdf0 <strncmp+0x15c>
    fd34:	e2800004 	add	r0, r0, #4
    fd38:	e2811004 	add	r1, r1, #4
    fd3c:	8affffec 	bhi	fcf4 <strncmp+0x60>
    fd40:	e3520000 	cmp	r2, #0
    fd44:	e2422001 	sub	r2, r2, #1
    fd48:	1a000005 	bne	fd64 <strncmp+0xd0>
    fd4c:	e5dc0004 	ldrb	r0, [r12, #4]
    fd50:	e5d52004 	ldrb	r2, [r5, #4]
    fd54:	e0620000 	rsb	r0, r2, r0
    fd58:	e8bd0030 	pop	{r4, r5}
    fd5c:	e12fff1e 	bx	lr
    fd60:	e2422001 	sub	r2, r2, #1
    fd64:	e5d03000 	ldrb	r3, [r0]
    fd68:	e5d1c000 	ldrb	r12, [r1]
    fd6c:	e153000c 	cmp	r3, r12
    fd70:	1a00001a 	bne	fde0 <strncmp+0x14c>
    fd74:	e3520000 	cmp	r2, #0
    fd78:	0a000010 	beq	fdc0 <strncmp+0x12c>
    fd7c:	e3530000 	cmp	r3, #0
    fd80:	12822001 	addne	r2, r2, #1
    fd84:	1081c002 	addne	r12, r1, r2
    fd88:	12813002 	addne	r3, r1, #2
    fd8c:	11a01000 	movne	r1, r0
    fd90:	1a000005 	bne	fdac <strncmp+0x118>
    fd94:	ea00000f 	b	fdd8 <strncmp+0x144>
    fd98:	e153000c 	cmp	r3, r12
    fd9c:	0a00000a 	beq	fdcc <strncmp+0x138>
    fda0:	e3500000 	cmp	r0, #0
    fda4:	e2833001 	add	r3, r3, #1
    fda8:	0affffea 	beq	fd58 <strncmp+0xc4>
    fdac:	e5f10001 	ldrb	r0, [r1, #1]!
    fdb0:	e5532001 	ldrb	r2, [r3, #-1]
    fdb4:	e1500002 	cmp	r0, r2
    fdb8:	0afffff6 	beq	fd98 <strncmp+0x104>
    fdbc:	eaffffe4 	b	fd54 <strncmp+0xc0>
    fdc0:	e1a00002 	mov	r0, r2
    fdc4:	e8bd0030 	pop	{r4, r5}
    fdc8:	e12fff1e 	bx	lr
    fdcc:	e3a00000 	mov	r0, #0
    fdd0:	e8bd0030 	pop	{r4, r5}
    fdd4:	e12fff1e 	bx	lr
    fdd8:	e1a00003 	mov	r0, r3
    fddc:	eaffffdd 	b	fd58 <strncmp+0xc4>
    fde0:	e1a0200c 	mov	r2, r12
    fde4:	e1a00003 	mov	r0, r3
    fde8:	eaffffd9 	b	fd54 <strncmp+0xc0>
    fdec:	fefefeff 	.word	0xfefefeff
    fdf0:	80808080 	.word	0x80808080

0000fdf4 <__ssprint_r>:
    fdf4:	e92d4ff0 	push	{r4, r5, r6, r7, r8, r9, r10, r11, lr}
    fdf8:	e5924008 	ldr	r4, [r2, #8]
    fdfc:	e3540000 	cmp	r4, #0
    fe00:	e24dd00c 	sub	sp, sp, #12
    fe04:	e1a0a002 	mov	r10, r2
    fe08:	e1a08000 	mov	r8, r0
    fe0c:	e1a05001 	mov	r5, r1
    fe10:	e5926000 	ldr	r6, [r2]
    fe14:	0a00005c 	beq	ff8c <__ssprint_r+0x198>
    fe18:	e3a0b000 	mov	r11, #0
    fe1c:	e1a0400b 	mov	r4, r11
    fe20:	e3540000 	cmp	r4, #0
    fe24:	e5910000 	ldr	r0, [r1]
    fe28:	e5913008 	ldr	r3, [r1, #8]
    fe2c:	0a000037 	beq	ff10 <__ssprint_r+0x11c>
    fe30:	e1540003 	cmp	r4, r3
    fe34:	e1a07003 	mov	r7, r3
    fe38:	3a00003c 	bcc	ff30 <__ssprint_r+0x13c>
    fe3c:	e1d530bc 	ldrh	r3, [r5, #12]
    fe40:	e3130d12 	tst	r3, #1152	; 0x480
    fe44:	01a09007 	moveq	r9, r7
    fe48:	0a000022 	beq	fed8 <__ssprint_r+0xe4>
    fe4c:	e2851010 	add	r1, r5, #16
    fe50:	e8910082 	ldm	r1, {r1, r7}
    fe54:	e0877087 	add	r7, r7, r7, lsl #1
    fe58:	e0877fa7 	add	r7, r7, r7, lsr #31
    fe5c:	e0619000 	rsb	r9, r1, r0
    fe60:	e2842001 	add	r2, r4, #1
    fe64:	e1a070c7 	asr	r7, r7, #1
    fe68:	e0822009 	add	r2, r2, r9
    fe6c:	e1570002 	cmp	r7, r2
    fe70:	31a07002 	movcc	r7, r2
    fe74:	21a02007 	movcs	r2, r7
    fe78:	e3130b01 	tst	r3, #1024	; 0x400
    fe7c:	0a00002e 	beq	ff3c <__ssprint_r+0x148>
    fe80:	e1a01002 	mov	r1, r2
    fe84:	e1a00008 	mov	r0, r8
    fe88:	ebffdc7a 	bl	7078 <_malloc_r>
    fe8c:	e2503000 	subs	r3, r0, #0
    fe90:	0a000030 	beq	ff58 <__ssprint_r+0x164>
    fe94:	e5951010 	ldr	r1, [r5, #16]
    fe98:	e1a02009 	mov	r2, r9
    fe9c:	e58d3004 	str	r3, [sp, #4]
    fea0:	ebffdefa 	bl	7a90 <memcpy>
    fea4:	e1d520bc 	ldrh	r2, [r5, #12]
    fea8:	e3c22d12 	bic	r2, r2, #1152	; 0x480
    feac:	e3822080 	orr	r2, r2, #128	; 0x80
    feb0:	e1c520bc 	strh	r2, [r5, #12]
    feb4:	e59d3004 	ldr	r3, [sp, #4]
    feb8:	e0830009 	add	r0, r3, r9
    febc:	e5853010 	str	r3, [r5, #16]
    fec0:	e0699007 	rsb	r9, r9, r7
    fec4:	e5850000 	str	r0, [r5]
    fec8:	e5859008 	str	r9, [r5, #8]
    fecc:	e5857014 	str	r7, [r5, #20]
    fed0:	e1a09004 	mov	r9, r4
    fed4:	e1a07004 	mov	r7, r4
    fed8:	e1a02009 	mov	r2, r9
    fedc:	e1a0100b 	mov	r1, r11
    fee0:	ebffdf26 	bl	7b80 <memmove>
    fee4:	e59a2008 	ldr	r2, [r10, #8]
    fee8:	e5953008 	ldr	r3, [r5, #8]
    feec:	e5950000 	ldr	r0, [r5]
    fef0:	e0644002 	rsb	r4, r4, r2
    fef4:	e0673003 	rsb	r3, r7, r3
    fef8:	e0800009 	add	r0, r0, r9
    fefc:	e3540000 	cmp	r4, #0
    ff00:	e5853008 	str	r3, [r5, #8]
    ff04:	e5850000 	str	r0, [r5]
    ff08:	e58a4008 	str	r4, [r10, #8]
    ff0c:	0a00001e 	beq	ff8c <__ssprint_r+0x198>
    ff10:	e5964004 	ldr	r4, [r6, #4]
    ff14:	e3540000 	cmp	r4, #0
    ff18:	e596b000 	ldr	r11, [r6]
    ff1c:	e2866008 	add	r6, r6, #8
    ff20:	0afffffa 	beq	ff10 <__ssprint_r+0x11c>
    ff24:	e1540003 	cmp	r4, r3
    ff28:	e1a07003 	mov	r7, r3
    ff2c:	2affffc2 	bcs	fe3c <__ssprint_r+0x48>
    ff30:	e1a07004 	mov	r7, r4
    ff34:	e1a09004 	mov	r9, r4
    ff38:	eaffffe6 	b	fed8 <__ssprint_r+0xe4>
    ff3c:	e1a00008 	mov	r0, r8
    ff40:	ebffe2e5 	bl	8adc <_realloc_r>
    ff44:	e2503000 	subs	r3, r0, #0
    ff48:	1affffda 	bne	feb8 <__ssprint_r+0xc4>
    ff4c:	e1a00008 	mov	r0, r8
    ff50:	e5951010 	ldr	r1, [r5, #16]
    ff54:	ebffd99a 	bl	65c4 <_free_r>
    ff58:	e1d520bc 	ldrh	r2, [r5, #12]
    ff5c:	e3a0300c 	mov	r3, #12
    ff60:	e3e04000 	mvn	r4, #0
    ff64:	e5883000 	str	r3, [r8]
    ff68:	e3822040 	orr	r2, r2, #64	; 0x40
    ff6c:	e3a03000 	mov	r3, #0
    ff70:	e1a00004 	mov	r0, r4
    ff74:	e1c520bc 	strh	r2, [r5, #12]
    ff78:	e58a3008 	str	r3, [r10, #8]
    ff7c:	e58a3004 	str	r3, [r10, #4]
    ff80:	e28dd00c 	add	sp, sp, #12
    ff84:	e8bd4ff0 	pop	{r4, r5, r6, r7, r8, r9, r10, r11, lr}
    ff88:	e12fff1e 	bx	lr
    ff8c:	e1a00004 	mov	r0, r4
    ff90:	e58a4004 	str	r4, [r10, #4]
    ff94:	e28dd00c 	add	sp, sp, #12
    ff98:	e8bd4ff0 	pop	{r4, r5, r6, r7, r8, r9, r10, r11, lr}
    ff9c:	e12fff1e 	bx	lr

0000ffa0 <_svfiprintf_r>:
    ffa0:	e92d4ff0 	push	{r4, r5, r6, r7, r8, r9, r10, r11, lr}
    ffa4:	e24dd0c4 	sub	sp, sp, #196	; 0xc4
    ffa8:	e58d1018 	str	r1, [sp, #24]
    ffac:	e1d110bc 	ldrh	r1, [r1, #12]
    ffb0:	e3110080 	tst	r1, #128	; 0x80
    ffb4:	e1a07002 	mov	r7, r2
    ffb8:	e58d3024 	str	r3, [sp, #36]	; 0x24
    ffbc:	e58d0028 	str	r0, [sp, #40]	; 0x28
    ffc0:	0a000003 	beq	ffd4 <_svfiprintf_r+0x34>
    ffc4:	e59d4018 	ldr	r4, [sp, #24]
    ffc8:	e5943010 	ldr	r3, [r4, #16]
    ffcc:	e3530000 	cmp	r3, #0
    ffd0:	0a0003fb 	beq	10fc4 <_svfiprintf_r+0x1024>
    ffd4:	e28d4080 	add	r4, sp, #128	; 0x80
    ffd8:	e28d507f 	add	r5, sp, #127	; 0x7f
    ffdc:	e3a03000 	mov	r3, #0
    ffe0:	e1a0c004 	mov	r12, r4
    ffe4:	e58d4004 	str	r4, [sp, #4]
    ffe8:	e59fafc0 	ldr	r10, [pc, #4032]	; 10fb0 <_svfiprintf_r+0x1010>
    ffec:	e58d404c 	str	r4, [sp, #76]	; 0x4c
    fff0:	e0654004 	rsb	r4, r5, r4
    fff4:	e58d3054 	str	r3, [sp, #84]	; 0x54
    fff8:	e58d3050 	str	r3, [sp, #80]	; 0x50
    fffc:	e58d3034 	str	r3, [sp, #52]	; 0x34
   10000:	e58d5000 	str	r5, [sp]
   10004:	e58d3020 	str	r3, [sp, #32]
   10008:	e58d403c 	str	r4, [sp, #60]	; 0x3c
   1000c:	e28a8010 	add	r8, r10, #16
   10010:	e1a0600c 	mov	r6, r12
   10014:	e5d73000 	ldrb	r3, [r7]
   10018:	e3530000 	cmp	r3, #0
   1001c:	13530025 	cmpne	r3, #37	; 0x25
   10020:	0a0002f7 	beq	10c04 <_svfiprintf_r+0xc64>
   10024:	e2873001 	add	r3, r7, #1
   10028:	e1a04003 	mov	r4, r3
   1002c:	e5d33000 	ldrb	r3, [r3]
   10030:	e3530025 	cmp	r3, #37	; 0x25
   10034:	13530000 	cmpne	r3, #0
   10038:	e2843001 	add	r3, r4, #1
   1003c:	1afffff9 	bne	10028 <_svfiprintf_r+0x88>
   10040:	e0545007 	subs	r5, r4, r7
   10044:	0a00000d 	beq	10080 <_svfiprintf_r+0xe0>
   10048:	e59d3050 	ldr	r3, [sp, #80]	; 0x50
   1004c:	e59d2054 	ldr	r2, [sp, #84]	; 0x54
   10050:	e2833001 	add	r3, r3, #1
   10054:	e3530007 	cmp	r3, #7
   10058:	e0822005 	add	r2, r2, r5
   1005c:	e5867000 	str	r7, [r6]
   10060:	e5865004 	str	r5, [r6, #4]
   10064:	e58d3050 	str	r3, [sp, #80]	; 0x50
   10068:	e58d2054 	str	r2, [sp, #84]	; 0x54
   1006c:	d2866008 	addle	r6, r6, #8
   10070:	ca000350 	bgt	10db8 <_svfiprintf_r+0xe18>
   10074:	e59dc020 	ldr	r12, [sp, #32]
   10078:	e08cc005 	add	r12, r12, r5
   1007c:	e58dc020 	str	r12, [sp, #32]
   10080:	e5d43000 	ldrb	r3, [r4]
   10084:	e3530000 	cmp	r3, #0
   10088:	0a0002ec 	beq	10c40 <_svfiprintf_r+0xca0>
   1008c:	e3a03000 	mov	r3, #0
   10090:	e1a01003 	mov	r1, r3
   10094:	e5cd3047 	strb	r3, [sp, #71]	; 0x47
   10098:	e58d3014 	str	r3, [sp, #20]
   1009c:	e58d3008 	str	r3, [sp, #8]
   100a0:	e2847001 	add	r7, r4, #1
   100a4:	e5d43001 	ldrb	r3, [r4, #1]
   100a8:	e3e04000 	mvn	r4, #0
   100ac:	e58d400c 	str	r4, [sp, #12]
   100b0:	e1a00001 	mov	r0, r1
   100b4:	e2877001 	add	r7, r7, #1
   100b8:	e2432020 	sub	r2, r3, #32
   100bc:	e3520058 	cmp	r2, #88	; 0x58
   100c0:	979ff102 	ldrls	pc, [pc, r2, lsl #2]
   100c4:	ea00021b 	b	10938 <_svfiprintf_r+0x998>
   100c8:	000105ac 	.word	0x000105ac
   100cc:	00010938 	.word	0x00010938
   100d0:	00010938 	.word	0x00010938
   100d4:	000105bc 	.word	0x000105bc
   100d8:	00010938 	.word	0x00010938
   100dc:	00010938 	.word	0x00010938
   100e0:	00010938 	.word	0x00010938
   100e4:	00010938 	.word	0x00010938
   100e8:	00010938 	.word	0x00010938
   100ec:	00010938 	.word	0x00010938
   100f0:	0001022c 	.word	0x0001022c
   100f4:	0001053c 	.word	0x0001053c
   100f8:	00010938 	.word	0x00010938
   100fc:	00010248 	.word	0x00010248
   10100:	000108dc 	.word	0x000108dc
   10104:	00010938 	.word	0x00010938
   10108:	000108c8 	.word	0x000108c8
   1010c:	00010740 	.word	0x00010740
   10110:	00010740 	.word	0x00010740
   10114:	00010740 	.word	0x00010740
   10118:	00010740 	.word	0x00010740
   1011c:	00010740 	.word	0x00010740
   10120:	00010740 	.word	0x00010740
   10124:	00010740 	.word	0x00010740
   10128:	00010740 	.word	0x00010740
   1012c:	00010740 	.word	0x00010740
   10130:	00010938 	.word	0x00010938
   10134:	00010938 	.word	0x00010938
   10138:	00010938 	.word	0x00010938
   1013c:	00010938 	.word	0x00010938
   10140:	00010938 	.word	0x00010938
   10144:	00010938 	.word	0x00010938
   10148:	00010938 	.word	0x00010938
   1014c:	00010938 	.word	0x00010938
   10150:	00010938 	.word	0x00010938
   10154:	00010938 	.word	0x00010938
   10158:	000106e8 	.word	0x000106e8
   1015c:	00010938 	.word	0x00010938
   10160:	00010938 	.word	0x00010938
   10164:	00010938 	.word	0x00010938
   10168:	00010938 	.word	0x00010938
   1016c:	00010938 	.word	0x00010938
   10170:	00010938 	.word	0x00010938
   10174:	00010938 	.word	0x00010938
   10178:	00010938 	.word	0x00010938
   1017c:	00010938 	.word	0x00010938
   10180:	00010938 	.word	0x00010938
   10184:	000106a8 	.word	0x000106a8
   10188:	00010938 	.word	0x00010938
   1018c:	00010938 	.word	0x00010938
   10190:	00010938 	.word	0x00010938
   10194:	00010938 	.word	0x00010938
   10198:	00010938 	.word	0x00010938
   1019c:	00010658 	.word	0x00010658
   101a0:	00010938 	.word	0x00010938
   101a4:	00010938 	.word	0x00010938
   101a8:	0001060c 	.word	0x0001060c
   101ac:	00010938 	.word	0x00010938
   101b0:	00010938 	.word	0x00010938
   101b4:	00010938 	.word	0x00010938
   101b8:	00010938 	.word	0x00010938
   101bc:	00010938 	.word	0x00010938
   101c0:	00010938 	.word	0x00010938
   101c4:	00010938 	.word	0x00010938
   101c8:	00010938 	.word	0x00010938
   101cc:	00010938 	.word	0x00010938
   101d0:	00010938 	.word	0x00010938
   101d4:	000105d0 	.word	0x000105d0
   101d8:	000107e0 	.word	0x000107e0
   101dc:	00010938 	.word	0x00010938
   101e0:	00010938 	.word	0x00010938
   101e4:	00010938 	.word	0x00010938
   101e8:	000107cc 	.word	0x000107cc
   101ec:	000107e0 	.word	0x000107e0
   101f0:	00010938 	.word	0x00010938
   101f4:	00010938 	.word	0x00010938
   101f8:	0001079c 	.word	0x0001079c
   101fc:	00010938 	.word	0x00010938
   10200:	00010764 	.word	0x00010764
   10204:	000104c4 	.word	0x000104c4
   10208:	000104f4 	.word	0x000104f4
   1020c:	000108b4 	.word	0x000108b4
   10210:	00010938 	.word	0x00010938
   10214:	00010850 	.word	0x00010850
   10218:	00010938 	.word	0x00010938
   1021c:	0001025c 	.word	0x0001025c
   10220:	00010938 	.word	0x00010938
   10224:	00010938 	.word	0x00010938
   10228:	00010548 	.word	0x00010548
   1022c:	e59d4024 	ldr	r4, [sp, #36]	; 0x24
   10230:	e5940000 	ldr	r0, [r4]
   10234:	e3500000 	cmp	r0, #0
   10238:	e2843004 	add	r3, r4, #4
   1023c:	aa000313 	bge	10e90 <_svfiprintf_r+0xef0>
   10240:	e58d3024 	str	r3, [sp, #36]	; 0x24
   10244:	e2600000 	rsb	r0, r0, #0
   10248:	e59d5008 	ldr	r5, [sp, #8]
   1024c:	e3855004 	orr	r5, r5, #4
   10250:	e58d5008 	str	r5, [sp, #8]
   10254:	e5d73000 	ldrb	r3, [r7]
   10258:	eaffff95 	b	100b4 <_svfiprintf_r+0x114>
   1025c:	e59d5008 	ldr	r5, [sp, #8]
   10260:	e3150020 	tst	r5, #32
   10264:	e58d0014 	str	r0, [sp, #20]
   10268:	0a000101 	beq	10674 <_svfiprintf_r+0x6d4>
   1026c:	e59dc024 	ldr	r12, [sp, #36]	; 0x24
   10270:	e28c3007 	add	r3, r12, #7
   10274:	e3c33007 	bic	r3, r3, #7
   10278:	e2834008 	add	r4, r3, #8
   1027c:	e58d4024 	str	r4, [sp, #36]	; 0x24
   10280:	e8930030 	ldm	r3, {r4, r5}
   10284:	e3a03001 	mov	r3, #1
   10288:	e3a0b000 	mov	r11, #0
   1028c:	e5cdb047 	strb	r11, [sp, #71]	; 0x47
   10290:	e59dc00c 	ldr	r12, [sp, #12]
   10294:	e35c0000 	cmp	r12, #0
   10298:	a59dc008 	ldrge	r12, [sp, #8]
   1029c:	a3ccc080 	bicge	r12, r12, #128	; 0x80
   102a0:	a58dc008 	strge	r12, [sp, #8]
   102a4:	e1940005 	orrs	r0, r4, r5
   102a8:	e59dc00c 	ldr	r12, [sp, #12]
   102ac:	03a02000 	moveq	r2, #0
   102b0:	13a02001 	movne	r2, #1
   102b4:	e35c0000 	cmp	r12, #0
   102b8:	13822001 	orrne	r2, r2, #1
   102bc:	e3520000 	cmp	r2, #0
   102c0:	0a000251 	beq	10c0c <_svfiprintf_r+0xc6c>
   102c4:	e3530001 	cmp	r3, #1
   102c8:	0a0002d6 	beq	10e28 <_svfiprintf_r+0xe88>
   102cc:	e3530002 	cmp	r3, #2
   102d0:	e28d207f 	add	r2, sp, #127	; 0x7f
   102d4:	1a000061 	bne	10460 <_svfiprintf_r+0x4c0>
   102d8:	e59d0034 	ldr	r0, [sp, #52]	; 0x34
   102dc:	e1a03224 	lsr	r3, r4, #4
   102e0:	e204c00f 	and	r12, r4, #15
   102e4:	e1833e05 	orr	r3, r3, r5, lsl #28
   102e8:	e1a01225 	lsr	r1, r5, #4
   102ec:	e1a04003 	mov	r4, r3
   102f0:	e1a05001 	mov	r5, r1
   102f4:	e7d0300c 	ldrb	r3, [r0, r12]
   102f8:	e194c005 	orrs	r12, r4, r5
   102fc:	e1a09002 	mov	r9, r2
   10300:	e5c23000 	strb	r3, [r2]
   10304:	e2422001 	sub	r2, r2, #1
   10308:	1afffff3 	bne	102dc <_svfiprintf_r+0x33c>
   1030c:	e59d5004 	ldr	r5, [sp, #4]
   10310:	e0694005 	rsb	r4, r9, r5
   10314:	e59d500c 	ldr	r5, [sp, #12]
   10318:	e1550004 	cmp	r5, r4
   1031c:	b1a05004 	movlt	r5, r4
   10320:	e35b0000 	cmp	r11, #0
   10324:	e58d5010 	str	r5, [sp, #16]
   10328:	12855001 	addne	r5, r5, #1
   1032c:	158d5010 	strne	r5, [sp, #16]
   10330:	e59dc008 	ldr	r12, [sp, #8]
   10334:	e21cc002 	ands	r12, r12, #2
   10338:	159d3010 	ldrne	r3, [sp, #16]
   1033c:	e59d5008 	ldr	r5, [sp, #8]
   10340:	12833002 	addne	r3, r3, #2
   10344:	158d3010 	strne	r3, [sp, #16]
   10348:	e2155084 	ands	r5, r5, #132	; 0x84
   1034c:	e58dc01c 	str	r12, [sp, #28]
   10350:	e58d502c 	str	r5, [sp, #44]	; 0x2c
   10354:	1a000182 	bne	10964 <_svfiprintf_r+0x9c4>
   10358:	e28d3010 	add	r3, sp, #16
   1035c:	e8931008 	ldm	r3, {r3, r12}
   10360:	e063500c 	rsb	r5, r3, r12
   10364:	e3550000 	cmp	r5, #0
   10368:	da00017d 	ble	10964 <_svfiprintf_r+0x9c4>
   1036c:	e3550010 	cmp	r5, #16
   10370:	d59fcc38 	ldrle	r12, [pc, #3128]	; 10fb0 <_svfiprintf_r+0x1010>
   10374:	e59d1054 	ldr	r1, [sp, #84]	; 0x54
   10378:	e59d2050 	ldr	r2, [sp, #80]	; 0x50
   1037c:	d58dc030 	strle	r12, [sp, #48]	; 0x30
   10380:	da000022 	ble	10410 <_svfiprintf_r+0x470>
   10384:	e59f3c24 	ldr	r3, [pc, #3108]	; 10fb0 <_svfiprintf_r+0x1010>
   10388:	e58d4038 	str	r4, [sp, #56]	; 0x38
   1038c:	e1a00006 	mov	r0, r6
   10390:	e58d3030 	str	r3, [sp, #48]	; 0x30
   10394:	e1a06005 	mov	r6, r5
   10398:	e3a0b010 	mov	r11, #16
   1039c:	e59d4028 	ldr	r4, [sp, #40]	; 0x28
   103a0:	e59d5018 	ldr	r5, [sp, #24]
   103a4:	ea000002 	b	103b4 <_svfiprintf_r+0x414>
   103a8:	e2466010 	sub	r6, r6, #16
   103ac:	e3560010 	cmp	r6, #16
   103b0:	da000013 	ble	10404 <_svfiprintf_r+0x464>
   103b4:	e2822001 	add	r2, r2, #1
   103b8:	e3520007 	cmp	r2, #7
   103bc:	e2811010 	add	r1, r1, #16
   103c0:	e8800c00 	stm	r0, {r10, r11}
   103c4:	e58d2050 	str	r2, [sp, #80]	; 0x50
   103c8:	e58d1054 	str	r1, [sp, #84]	; 0x54
   103cc:	d2800008 	addle	r0, r0, #8
   103d0:	dafffff4 	ble	103a8 <_svfiprintf_r+0x408>
   103d4:	e1a00004 	mov	r0, r4
   103d8:	e1a01005 	mov	r1, r5
   103dc:	e28d204c 	add	r2, sp, #76	; 0x4c
   103e0:	ebfffe83 	bl	fdf4 <__ssprint_r>
   103e4:	e3500000 	cmp	r0, #0
   103e8:	1a00021a 	bne	10c58 <_svfiprintf_r+0xcb8>
   103ec:	e2466010 	sub	r6, r6, #16
   103f0:	e3560010 	cmp	r6, #16
   103f4:	e59d1054 	ldr	r1, [sp, #84]	; 0x54
   103f8:	e59d2050 	ldr	r2, [sp, #80]	; 0x50
   103fc:	e28d0080 	add	r0, sp, #128	; 0x80
   10400:	caffffeb 	bgt	103b4 <_svfiprintf_r+0x414>
   10404:	e59d4038 	ldr	r4, [sp, #56]	; 0x38
   10408:	e1a05006 	mov	r5, r6
   1040c:	e1a06000 	mov	r6, r0
   10410:	e2822001 	add	r2, r2, #1
   10414:	e59dc030 	ldr	r12, [sp, #48]	; 0x30
   10418:	e3520007 	cmp	r2, #7
   1041c:	e0851001 	add	r1, r5, r1
   10420:	e586c000 	str	r12, [r6]
   10424:	e5865004 	str	r5, [r6, #4]
   10428:	e58d2050 	str	r2, [sp, #80]	; 0x50
   1042c:	e58d1054 	str	r1, [sp, #84]	; 0x54
   10430:	d2866008 	addle	r6, r6, #8
   10434:	da00014c 	ble	1096c <_svfiprintf_r+0x9cc>
   10438:	e59d0028 	ldr	r0, [sp, #40]	; 0x28
   1043c:	e59d1018 	ldr	r1, [sp, #24]
   10440:	e28d204c 	add	r2, sp, #76	; 0x4c
   10444:	ebfffe6a 	bl	fdf4 <__ssprint_r>
   10448:	e3500000 	cmp	r0, #0
   1044c:	1a000201 	bne	10c58 <_svfiprintf_r+0xcb8>
   10450:	e59d1054 	ldr	r1, [sp, #84]	; 0x54
   10454:	e59d2050 	ldr	r2, [sp, #80]	; 0x50
   10458:	e28d6080 	add	r6, sp, #128	; 0x80
   1045c:	ea000142 	b	1096c <_svfiprintf_r+0x9cc>
   10460:	e1a031a4 	lsr	r3, r4, #3
   10464:	e1833e85 	orr	r3, r3, r5, lsl #29
   10468:	e1a001a5 	lsr	r0, r5, #3
   1046c:	e2041007 	and	r1, r4, #7
   10470:	e1a05000 	mov	r5, r0
   10474:	e1a04003 	mov	r4, r3
   10478:	e1940005 	orrs	r0, r4, r5
   1047c:	e2813030 	add	r3, r1, #48	; 0x30
   10480:	e1a09002 	mov	r9, r2
   10484:	e5c23000 	strb	r3, [r2]
   10488:	e2422001 	sub	r2, r2, #1
   1048c:	1afffff3 	bne	10460 <_svfiprintf_r+0x4c0>
   10490:	e59d4008 	ldr	r4, [sp, #8]
   10494:	e3140001 	tst	r4, #1
   10498:	e1a01009 	mov	r1, r9
   1049c:	0affff9a 	beq	1030c <_svfiprintf_r+0x36c>
   104a0:	e3530030 	cmp	r3, #48	; 0x30
   104a4:	059dc004 	ldreq	r12, [sp, #4]
   104a8:	159d5004 	ldrne	r5, [sp, #4]
   104ac:	11a09002 	movne	r9, r2
   104b0:	13a03030 	movne	r3, #48	; 0x30
   104b4:	0069400c 	rsbeq	r4, r9, r12
   104b8:	10694005 	rsbne	r4, r9, r5
   104bc:	15413001 	strbne	r3, [r1, #-1]
   104c0:	eaffff93 	b	10314 <_svfiprintf_r+0x374>
   104c4:	e59dc008 	ldr	r12, [sp, #8]
   104c8:	e21c3020 	ands	r3, r12, #32
   104cc:	e58d0014 	str	r0, [sp, #20]
   104d0:	0a00007b 	beq	106c4 <_svfiprintf_r+0x724>
   104d4:	e59d4024 	ldr	r4, [sp, #36]	; 0x24
   104d8:	e2843007 	add	r3, r4, #7
   104dc:	e3c33007 	bic	r3, r3, #7
   104e0:	e2835008 	add	r5, r3, #8
   104e4:	e58d5024 	str	r5, [sp, #36]	; 0x24
   104e8:	e8930030 	ldm	r3, {r4, r5}
   104ec:	e3a03000 	mov	r3, #0
   104f0:	eaffff64 	b	10288 <_svfiprintf_r+0x2e8>
   104f4:	e59dc024 	ldr	r12, [sp, #36]	; 0x24
   104f8:	e59d3024 	ldr	r3, [sp, #36]	; 0x24
   104fc:	e59d5008 	ldr	r5, [sp, #8]
   10500:	e28cc004 	add	r12, r12, #4
   10504:	e58dc024 	str	r12, [sp, #36]	; 0x24
   10508:	e59fcaa4 	ldr	r12, [pc, #2724]	; 10fb4 <_svfiprintf_r+0x1014>
   1050c:	e3855002 	orr	r5, r5, #2
   10510:	e5934000 	ldr	r4, [r3]
   10514:	e3a02030 	mov	r2, #48	; 0x30
   10518:	e3a03078 	mov	r3, #120	; 0x78
   1051c:	e58d5008 	str	r5, [sp, #8]
   10520:	e5cd3049 	strb	r3, [sp, #73]	; 0x49
   10524:	e58d0014 	str	r0, [sp, #20]
   10528:	e3a05000 	mov	r5, #0
   1052c:	e5cd2048 	strb	r2, [sp, #72]	; 0x48
   10530:	e58dc034 	str	r12, [sp, #52]	; 0x34
   10534:	e3a03002 	mov	r3, #2
   10538:	eaffff52 	b	10288 <_svfiprintf_r+0x2e8>
   1053c:	e5d73000 	ldrb	r3, [r7]
   10540:	e3a0102b 	mov	r1, #43	; 0x2b
   10544:	eafffeda 	b	100b4 <_svfiprintf_r+0x114>
   10548:	e59d5008 	ldr	r5, [sp, #8]
   1054c:	e59f4a60 	ldr	r4, [pc, #2656]	; 10fb4 <_svfiprintf_r+0x1014>
   10550:	e3150020 	tst	r5, #32
   10554:	e58d0014 	str	r0, [sp, #20]
   10558:	e5cd1047 	strb	r1, [sp, #71]	; 0x47
   1055c:	e58d4034 	str	r4, [sp, #52]	; 0x34
   10560:	0a000030 	beq	10628 <_svfiprintf_r+0x688>
   10564:	e59dc024 	ldr	r12, [sp, #36]	; 0x24
   10568:	e28c2007 	add	r2, r12, #7
   1056c:	e3c22007 	bic	r2, r2, #7
   10570:	e2824008 	add	r4, r2, #8
   10574:	e58d4024 	str	r4, [sp, #36]	; 0x24
   10578:	e8920030 	ldm	r2, {r4, r5}
   1057c:	e59dc008 	ldr	r12, [sp, #8]
   10580:	e31c0001 	tst	r12, #1
   10584:	0a0000e9 	beq	10930 <_svfiprintf_r+0x990>
   10588:	e1940005 	orrs	r0, r4, r5
   1058c:	0a0000e7 	beq	10930 <_svfiprintf_r+0x990>
   10590:	e3a02030 	mov	r2, #48	; 0x30
   10594:	e38cc002 	orr	r12, r12, #2
   10598:	e5cd3049 	strb	r3, [sp, #73]	; 0x49
   1059c:	e58dc008 	str	r12, [sp, #8]
   105a0:	e5cd2048 	strb	r2, [sp, #72]	; 0x48
   105a4:	e3a03002 	mov	r3, #2
   105a8:	eaffff36 	b	10288 <_svfiprintf_r+0x2e8>
   105ac:	e3510000 	cmp	r1, #0
   105b0:	e5d73000 	ldrb	r3, [r7]
   105b4:	03a01020 	moveq	r1, #32
   105b8:	eafffebd 	b	100b4 <_svfiprintf_r+0x114>
   105bc:	e59dc008 	ldr	r12, [sp, #8]
   105c0:	e38cc001 	orr	r12, r12, #1
   105c4:	e58dc008 	str	r12, [sp, #8]
   105c8:	e5d73000 	ldrb	r3, [r7]
   105cc:	eafffeb8 	b	100b4 <_svfiprintf_r+0x114>
   105d0:	e59d3024 	ldr	r3, [sp, #36]	; 0x24
   105d4:	e59d5024 	ldr	r5, [sp, #36]	; 0x24
   105d8:	e5932000 	ldr	r2, [r3]
   105dc:	e3a04001 	mov	r4, #1
   105e0:	e3a03000 	mov	r3, #0
   105e4:	e2855004 	add	r5, r5, #4
   105e8:	e58d0014 	str	r0, [sp, #20]
   105ec:	e58d4010 	str	r4, [sp, #16]
   105f0:	e5cd2058 	strb	r2, [sp, #88]	; 0x58
   105f4:	e58d5024 	str	r5, [sp, #36]	; 0x24
   105f8:	e5cd3047 	strb	r3, [sp, #71]	; 0x47
   105fc:	e28d9058 	add	r9, sp, #88	; 0x58
   10600:	e3a05000 	mov	r5, #0
   10604:	e58d500c 	str	r5, [sp, #12]
   10608:	eaffff48 	b	10330 <_svfiprintf_r+0x390>
   1060c:	e59f59a4 	ldr	r5, [pc, #2468]	; 10fb8 <_svfiprintf_r+0x1018>
   10610:	e58d5034 	str	r5, [sp, #52]	; 0x34
   10614:	e59d5008 	ldr	r5, [sp, #8]
   10618:	e3150020 	tst	r5, #32
   1061c:	e58d0014 	str	r0, [sp, #20]
   10620:	e5cd1047 	strb	r1, [sp, #71]	; 0x47
   10624:	1affffce 	bne	10564 <_svfiprintf_r+0x5c4>
   10628:	e59d5008 	ldr	r5, [sp, #8]
   1062c:	e3150010 	tst	r5, #16
   10630:	1a00022d 	bne	10eec <_svfiprintf_r+0xf4c>
   10634:	e59d4008 	ldr	r4, [sp, #8]
   10638:	e3140040 	tst	r4, #64	; 0x40
   1063c:	0a00022a 	beq	10eec <_svfiprintf_r+0xf4c>
   10640:	e59d5024 	ldr	r5, [sp, #36]	; 0x24
   10644:	e1d540b0 	ldrh	r4, [r5]
   10648:	e2855004 	add	r5, r5, #4
   1064c:	e58d5024 	str	r5, [sp, #36]	; 0x24
   10650:	e3a05000 	mov	r5, #0
   10654:	eaffffc8 	b	1057c <_svfiprintf_r+0x5dc>
   10658:	e59d4008 	ldr	r4, [sp, #8]
   1065c:	e3844010 	orr	r4, r4, #16
   10660:	e58d4008 	str	r4, [sp, #8]
   10664:	e59d5008 	ldr	r5, [sp, #8]
   10668:	e3150020 	tst	r5, #32
   1066c:	e58d0014 	str	r0, [sp, #20]
   10670:	1afffefd 	bne	1026c <_svfiprintf_r+0x2cc>
   10674:	e59d5008 	ldr	r5, [sp, #8]
   10678:	e3150010 	tst	r5, #16
   1067c:	1a000213 	bne	10ed0 <_svfiprintf_r+0xf30>
   10680:	e59d4008 	ldr	r4, [sp, #8]
   10684:	e3140040 	tst	r4, #64	; 0x40
   10688:	0a000210 	beq	10ed0 <_svfiprintf_r+0xf30>
   1068c:	e59d5024 	ldr	r5, [sp, #36]	; 0x24
   10690:	e1d540b0 	ldrh	r4, [r5]
   10694:	e2855004 	add	r5, r5, #4
   10698:	e58d5024 	str	r5, [sp, #36]	; 0x24
   1069c:	e3a03001 	mov	r3, #1
   106a0:	e3a05000 	mov	r5, #0
   106a4:	eafffef7 	b	10288 <_svfiprintf_r+0x2e8>
   106a8:	e59d5008 	ldr	r5, [sp, #8]
   106ac:	e3855010 	orr	r5, r5, #16
   106b0:	e58d5008 	str	r5, [sp, #8]
   106b4:	e59dc008 	ldr	r12, [sp, #8]
   106b8:	e21c3020 	ands	r3, r12, #32
   106bc:	e58d0014 	str	r0, [sp, #20]
   106c0:	1affff83 	bne	104d4 <_svfiprintf_r+0x534>
   106c4:	e59dc008 	ldr	r12, [sp, #8]
   106c8:	e21c2010 	ands	r2, r12, #16
   106cc:	0a00020c 	beq	10f04 <_svfiprintf_r+0xf64>
   106d0:	e59d5024 	ldr	r5, [sp, #36]	; 0x24
   106d4:	e5954000 	ldr	r4, [r5]
   106d8:	e2855004 	add	r5, r5, #4
   106dc:	e58d5024 	str	r5, [sp, #36]	; 0x24
   106e0:	e3a05000 	mov	r5, #0
   106e4:	eafffee7 	b	10288 <_svfiprintf_r+0x2e8>
   106e8:	e59dc008 	ldr	r12, [sp, #8]
   106ec:	e38cc010 	orr	r12, r12, #16
   106f0:	e58dc008 	str	r12, [sp, #8]
   106f4:	e59d4008 	ldr	r4, [sp, #8]
   106f8:	e3140020 	tst	r4, #32
   106fc:	e58d0014 	str	r0, [sp, #20]
   10700:	e5cd1047 	strb	r1, [sp, #71]	; 0x47
   10704:	0a00003a 	beq	107f4 <_svfiprintf_r+0x854>
   10708:	e59d5024 	ldr	r5, [sp, #36]	; 0x24
   1070c:	e2851007 	add	r1, r5, #7
   10710:	e3c11007 	bic	r1, r1, #7
   10714:	e891000c 	ldm	r1, {r2, r3}
   10718:	e2811008 	add	r1, r1, #8
   1071c:	e3520000 	cmp	r2, #0
   10720:	e2d30000 	sbcs	r0, r3, #0
   10724:	e58d1024 	str	r1, [sp, #36]	; 0x24
   10728:	e1a04002 	mov	r4, r2
   1072c:	e1a05003 	mov	r5, r3
   10730:	ba000040 	blt	10838 <_svfiprintf_r+0x898>
   10734:	e5ddb047 	ldrb	r11, [sp, #71]	; 0x47
   10738:	e3a03001 	mov	r3, #1
   1073c:	eafffed3 	b	10290 <_svfiprintf_r+0x2f0>
   10740:	e2432030 	sub	r2, r3, #48	; 0x30
   10744:	e3a00000 	mov	r0, #0
   10748:	e4d73001 	ldrb	r3, [r7], #1
   1074c:	e0800100 	add	r0, r0, r0, lsl #2
   10750:	e0820080 	add	r0, r2, r0, lsl #1
   10754:	e2432030 	sub	r2, r3, #48	; 0x30
   10758:	e3520009 	cmp	r2, #9
   1075c:	9afffff9 	bls	10748 <_svfiprintf_r+0x7a8>
   10760:	eafffe54 	b	100b8 <_svfiprintf_r+0x118>
   10764:	e59d4008 	ldr	r4, [sp, #8]
   10768:	e3140020 	tst	r4, #32
   1076c:	e5cd1047 	strb	r1, [sp, #71]	; 0x47
   10770:	1a0001f3 	bne	10f44 <_svfiprintf_r+0xfa4>
   10774:	e59dc008 	ldr	r12, [sp, #8]
   10778:	e31c0010 	tst	r12, #16
   1077c:	0a000201 	beq	10f88 <_svfiprintf_r+0xfe8>
   10780:	e59d4024 	ldr	r4, [sp, #36]	; 0x24
   10784:	e59d5020 	ldr	r5, [sp, #32]
   10788:	e5943000 	ldr	r3, [r4]
   1078c:	e2844004 	add	r4, r4, #4
   10790:	e58d4024 	str	r4, [sp, #36]	; 0x24
   10794:	e5835000 	str	r5, [r3]
   10798:	eafffe1d 	b	10014 <_svfiprintf_r+0x74>
   1079c:	e5d73000 	ldrb	r3, [r7]
   107a0:	e353006c 	cmp	r3, #108	; 0x6c
   107a4:	059d4008 	ldreq	r4, [sp, #8]
   107a8:	159d5008 	ldrne	r5, [sp, #8]
   107ac:	e1a02007 	mov	r2, r7
   107b0:	03844020 	orreq	r4, r4, #32
   107b4:	13855010 	orrne	r5, r5, #16
   107b8:	02877001 	addeq	r7, r7, #1
   107bc:	058d4008 	streq	r4, [sp, #8]
   107c0:	05d23001 	ldrbeq	r3, [r2, #1]
   107c4:	158d5008 	strne	r5, [sp, #8]
   107c8:	eafffe39 	b	100b4 <_svfiprintf_r+0x114>
   107cc:	e59dc008 	ldr	r12, [sp, #8]
   107d0:	e38cc040 	orr	r12, r12, #64	; 0x40
   107d4:	e58dc008 	str	r12, [sp, #8]
   107d8:	e5d73000 	ldrb	r3, [r7]
   107dc:	eafffe34 	b	100b4 <_svfiprintf_r+0x114>
   107e0:	e59d4008 	ldr	r4, [sp, #8]
   107e4:	e3140020 	tst	r4, #32
   107e8:	e58d0014 	str	r0, [sp, #20]
   107ec:	e5cd1047 	strb	r1, [sp, #71]	; 0x47
   107f0:	1affffc4 	bne	10708 <_svfiprintf_r+0x768>
   107f4:	e59dc008 	ldr	r12, [sp, #8]
   107f8:	e31c0010 	tst	r12, #16
   107fc:	1a0001cd 	bne	10f38 <_svfiprintf_r+0xf98>
   10800:	e59d4008 	ldr	r4, [sp, #8]
   10804:	e3140040 	tst	r4, #64	; 0x40
   10808:	e59d5024 	ldr	r5, [sp, #36]	; 0x24
   1080c:	0a0001ca 	beq	10f3c <_svfiprintf_r+0xf9c>
   10810:	e1d540f0 	ldrsh	r4, [r5]
   10814:	e59dc024 	ldr	r12, [sp, #36]	; 0x24
   10818:	e1a05fc4 	asr	r5, r4, #31
   1081c:	e1a02004 	mov	r2, r4
   10820:	e1a03005 	mov	r3, r5
   10824:	e28cc004 	add	r12, r12, #4
   10828:	e3520000 	cmp	r2, #0
   1082c:	e2d30000 	sbcs	r0, r3, #0
   10830:	e58dc024 	str	r12, [sp, #36]	; 0x24
   10834:	aaffffbe 	bge	10734 <_svfiprintf_r+0x794>
   10838:	e3a0b02d 	mov	r11, #45	; 0x2d
   1083c:	e2744000 	rsbs	r4, r4, #0
   10840:	e2e55000 	rsc	r5, r5, #0
   10844:	e5cdb047 	strb	r11, [sp, #71]	; 0x47
   10848:	e3a03001 	mov	r3, #1
   1084c:	eafffe8f 	b	10290 <_svfiprintf_r+0x2f0>
   10850:	e59d4024 	ldr	r4, [sp, #36]	; 0x24
   10854:	e5949000 	ldr	r9, [r4]
   10858:	e3a0b000 	mov	r11, #0
   1085c:	e159000b 	cmp	r9, r11
   10860:	e58d0014 	str	r0, [sp, #20]
   10864:	e2845004 	add	r5, r4, #4
   10868:	e5cdb047 	strb	r11, [sp, #71]	; 0x47
   1086c:	0a0001e5 	beq	11008 <_svfiprintf_r+0x1068>
   10870:	e59dc00c 	ldr	r12, [sp, #12]
   10874:	e35c0000 	cmp	r12, #0
   10878:	e1a00009 	mov	r0, r9
   1087c:	ba0001bb 	blt	10f70 <_svfiprintf_r+0xfd0>
   10880:	e1a0100b 	mov	r1, r11
   10884:	e1a0200c 	mov	r2, r12
   10888:	ebffdc3b 	bl	797c <memchr>
   1088c:	e3500000 	cmp	r0, #0
   10890:	0a0001e4 	beq	11028 <_svfiprintf_r+0x1088>
   10894:	e59d400c 	ldr	r4, [sp, #12]
   10898:	e0690000 	rsb	r0, r9, r0
   1089c:	e58db00c 	str	r11, [sp, #12]
   108a0:	e1540000 	cmp	r4, r0
   108a4:	a1a04000 	movge	r4, r0
   108a8:	e58d5024 	str	r5, [sp, #36]	; 0x24
   108ac:	e5ddb047 	ldrb	r11, [sp, #71]	; 0x47
   108b0:	eafffe97 	b	10314 <_svfiprintf_r+0x374>
   108b4:	e59dc008 	ldr	r12, [sp, #8]
   108b8:	e38cc020 	orr	r12, r12, #32
   108bc:	e58dc008 	str	r12, [sp, #8]
   108c0:	e5d73000 	ldrb	r3, [r7]
   108c4:	eafffdfa 	b	100b4 <_svfiprintf_r+0x114>
   108c8:	e59d5008 	ldr	r5, [sp, #8]
   108cc:	e3855080 	orr	r5, r5, #128	; 0x80
   108d0:	e58d5008 	str	r5, [sp, #8]
   108d4:	e5d73000 	ldrb	r3, [r7]
   108d8:	eafffdf5 	b	100b4 <_svfiprintf_r+0x114>
   108dc:	e5d73000 	ldrb	r3, [r7]
   108e0:	e353002a 	cmp	r3, #42	; 0x2a
   108e4:	e2874001 	add	r4, r7, #1
   108e8:	0a0001d3 	beq	1103c <_svfiprintf_r+0x109c>
   108ec:	e2432030 	sub	r2, r3, #48	; 0x30
   108f0:	e3520009 	cmp	r2, #9
   108f4:	83a0c000 	movhi	r12, #0
   108f8:	81a07004 	movhi	r7, r4
   108fc:	858dc00c 	strhi	r12, [sp, #12]
   10900:	8afffdec 	bhi	100b8 <_svfiprintf_r+0x118>
   10904:	e3a0c000 	mov	r12, #0
   10908:	e4d43001 	ldrb	r3, [r4], #1
   1090c:	e08cc10c 	add	r12, r12, r12, lsl #2
   10910:	e082c08c 	add	r12, r2, r12, lsl #1
   10914:	e2432030 	sub	r2, r3, #48	; 0x30
   10918:	e3520009 	cmp	r2, #9
   1091c:	9afffff9 	bls	10908 <_svfiprintf_r+0x968>
   10920:	e18ccfcc 	orr	r12, r12, r12, asr #31
   10924:	e58dc00c 	str	r12, [sp, #12]
   10928:	e1a07004 	mov	r7, r4
   1092c:	eafffde1 	b	100b8 <_svfiprintf_r+0x118>
   10930:	e3a03002 	mov	r3, #2
   10934:	eafffe53 	b	10288 <_svfiprintf_r+0x2e8>
   10938:	e3530000 	cmp	r3, #0
   1093c:	e58d0014 	str	r0, [sp, #20]
   10940:	e5cd1047 	strb	r1, [sp, #71]	; 0x47
   10944:	0a0000bd 	beq	10c40 <_svfiprintf_r+0xca0>
   10948:	e3a02000 	mov	r2, #0
   1094c:	e3a04001 	mov	r4, #1
   10950:	e58d4010 	str	r4, [sp, #16]
   10954:	e5cd3058 	strb	r3, [sp, #88]	; 0x58
   10958:	e5cd2047 	strb	r2, [sp, #71]	; 0x47
   1095c:	e28d9058 	add	r9, sp, #88	; 0x58
   10960:	eaffff26 	b	10600 <_svfiprintf_r+0x660>
   10964:	e59d1054 	ldr	r1, [sp, #84]	; 0x54
   10968:	e59d2050 	ldr	r2, [sp, #80]	; 0x50
   1096c:	e5dd3047 	ldrb	r3, [sp, #71]	; 0x47
   10970:	e3530000 	cmp	r3, #0
   10974:	0a000009 	beq	109a0 <_svfiprintf_r+0xa00>
   10978:	e2822001 	add	r2, r2, #1
   1097c:	e3520007 	cmp	r2, #7
   10980:	e2811001 	add	r1, r1, #1
   10984:	e28d0047 	add	r0, sp, #71	; 0x47
   10988:	e3a03001 	mov	r3, #1
   1098c:	e8860009 	stm	r6, {r0, r3}
   10990:	e58d2050 	str	r2, [sp, #80]	; 0x50
   10994:	e58d1054 	str	r1, [sp, #84]	; 0x54
   10998:	d2866008 	addle	r6, r6, #8
   1099c:	ca00010d 	bgt	10dd8 <_svfiprintf_r+0xe38>
   109a0:	e59d301c 	ldr	r3, [sp, #28]
   109a4:	e3530000 	cmp	r3, #0
   109a8:	0a000009 	beq	109d4 <_svfiprintf_r+0xa34>
   109ac:	e2822001 	add	r2, r2, #1
   109b0:	e3520007 	cmp	r2, #7
   109b4:	e2811002 	add	r1, r1, #2
   109b8:	e28d0048 	add	r0, sp, #72	; 0x48
   109bc:	e3a03002 	mov	r3, #2
   109c0:	e8860009 	stm	r6, {r0, r3}
   109c4:	e58d2050 	str	r2, [sp, #80]	; 0x50
   109c8:	e58d1054 	str	r1, [sp, #84]	; 0x54
   109cc:	d2866008 	addle	r6, r6, #8
   109d0:	ca00010a 	bgt	10e00 <_svfiprintf_r+0xe60>
   109d4:	e59d502c 	ldr	r5, [sp, #44]	; 0x2c
   109d8:	e3550080 	cmp	r5, #128	; 0x80
   109dc:	0a0000a5 	beq	10c78 <_svfiprintf_r+0xcd8>
   109e0:	e59dc00c 	ldr	r12, [sp, #12]
   109e4:	e064500c 	rsb	r5, r4, r12
   109e8:	e3550000 	cmp	r5, #0
   109ec:	da000038 	ble	10ad4 <_svfiprintf_r+0xb34>
   109f0:	e3550010 	cmp	r5, #16
   109f4:	d59f35c0 	ldrle	r3, [pc, #1472]	; 10fbc <_svfiprintf_r+0x101c>
   109f8:	d58d301c 	strle	r3, [sp, #28]
   109fc:	da000022 	ble	10a8c <_svfiprintf_r+0xaec>
   10a00:	e59fc5b4 	ldr	r12, [pc, #1460]	; 10fbc <_svfiprintf_r+0x101c>
   10a04:	e58d400c 	str	r4, [sp, #12]
   10a08:	e1a00006 	mov	r0, r6
   10a0c:	e58dc01c 	str	r12, [sp, #28]
   10a10:	e1a06005 	mov	r6, r5
   10a14:	e3a0b010 	mov	r11, #16
   10a18:	e59d4028 	ldr	r4, [sp, #40]	; 0x28
   10a1c:	e59d5018 	ldr	r5, [sp, #24]
   10a20:	ea000002 	b	10a30 <_svfiprintf_r+0xa90>
   10a24:	e2466010 	sub	r6, r6, #16
   10a28:	e3560010 	cmp	r6, #16
   10a2c:	da000013 	ble	10a80 <_svfiprintf_r+0xae0>
   10a30:	e2822001 	add	r2, r2, #1
   10a34:	e3520007 	cmp	r2, #7
   10a38:	e2811010 	add	r1, r1, #16
   10a3c:	e8800900 	stm	r0, {r8, r11}
   10a40:	e58d2050 	str	r2, [sp, #80]	; 0x50
   10a44:	e58d1054 	str	r1, [sp, #84]	; 0x54
   10a48:	d2800008 	addle	r0, r0, #8
   10a4c:	dafffff4 	ble	10a24 <_svfiprintf_r+0xa84>
   10a50:	e1a00004 	mov	r0, r4
   10a54:	e1a01005 	mov	r1, r5
   10a58:	e28d204c 	add	r2, sp, #76	; 0x4c
   10a5c:	ebfffce4 	bl	fdf4 <__ssprint_r>
   10a60:	e3500000 	cmp	r0, #0
   10a64:	1a00007b 	bne	10c58 <_svfiprintf_r+0xcb8>
   10a68:	e2466010 	sub	r6, r6, #16
   10a6c:	e3560010 	cmp	r6, #16
   10a70:	e59d1054 	ldr	r1, [sp, #84]	; 0x54
   10a74:	e59d2050 	ldr	r2, [sp, #80]	; 0x50
   10a78:	e28d0080 	add	r0, sp, #128	; 0x80
   10a7c:	caffffeb 	bgt	10a30 <_svfiprintf_r+0xa90>
   10a80:	e59d400c 	ldr	r4, [sp, #12]
   10a84:	e1a05006 	mov	r5, r6
   10a88:	e1a06000 	mov	r6, r0
   10a8c:	e2822001 	add	r2, r2, #1
   10a90:	e59d301c 	ldr	r3, [sp, #28]
   10a94:	e3520007 	cmp	r2, #7
   10a98:	e0811005 	add	r1, r1, r5
   10a9c:	e8860028 	stm	r6, {r3, r5}
   10aa0:	e58d2050 	str	r2, [sp, #80]	; 0x50
   10aa4:	e58d1054 	str	r1, [sp, #84]	; 0x54
   10aa8:	d2866008 	addle	r6, r6, #8
   10aac:	da000008 	ble	10ad4 <_svfiprintf_r+0xb34>
   10ab0:	e59d0028 	ldr	r0, [sp, #40]	; 0x28
   10ab4:	e59d1018 	ldr	r1, [sp, #24]
   10ab8:	e28d204c 	add	r2, sp, #76	; 0x4c
   10abc:	ebfffccc 	bl	fdf4 <__ssprint_r>
   10ac0:	e3500000 	cmp	r0, #0
   10ac4:	1a000063 	bne	10c58 <_svfiprintf_r+0xcb8>
   10ac8:	e59d1054 	ldr	r1, [sp, #84]	; 0x54
   10acc:	e59d2050 	ldr	r2, [sp, #80]	; 0x50
   10ad0:	e28d6080 	add	r6, sp, #128	; 0x80
   10ad4:	e2822001 	add	r2, r2, #1
   10ad8:	e3520007 	cmp	r2, #7
   10adc:	e0811004 	add	r1, r1, r4
   10ae0:	e5869000 	str	r9, [r6]
   10ae4:	e5864004 	str	r4, [r6, #4]
   10ae8:	e58d2050 	str	r2, [sp, #80]	; 0x50
   10aec:	e58d1054 	str	r1, [sp, #84]	; 0x54
   10af0:	d2866008 	addle	r6, r6, #8
   10af4:	ca00009f 	bgt	10d78 <_svfiprintf_r+0xdd8>
   10af8:	e59d4008 	ldr	r4, [sp, #8]
   10afc:	e3140004 	tst	r4, #4
   10b00:	0a00002f 	beq	10bc4 <_svfiprintf_r+0xc24>
   10b04:	e59d5014 	ldr	r5, [sp, #20]
   10b08:	e59dc010 	ldr	r12, [sp, #16]
   10b0c:	e06c4005 	rsb	r4, r12, r5
   10b10:	e3540000 	cmp	r4, #0
   10b14:	da00002a 	ble	10bc4 <_svfiprintf_r+0xc24>
   10b18:	e3540010 	cmp	r4, #16
   10b1c:	d59f548c 	ldrle	r5, [pc, #1164]	; 10fb0 <_svfiprintf_r+0x1010>
   10b20:	e59d3050 	ldr	r3, [sp, #80]	; 0x50
   10b24:	d58d5030 	strle	r5, [sp, #48]	; 0x30
   10b28:	da00001d 	ble	10ba4 <_svfiprintf_r+0xc04>
   10b2c:	e59fc47c 	ldr	r12, [pc, #1148]	; 10fb0 <_svfiprintf_r+0x1010>
   10b30:	e3a05010 	mov	r5, #16
   10b34:	e58dc030 	str	r12, [sp, #48]	; 0x30
   10b38:	e59d9028 	ldr	r9, [sp, #40]	; 0x28
   10b3c:	e59db018 	ldr	r11, [sp, #24]
   10b40:	ea000002 	b	10b50 <_svfiprintf_r+0xbb0>
   10b44:	e2444010 	sub	r4, r4, #16
   10b48:	e3540010 	cmp	r4, #16
   10b4c:	da000014 	ble	10ba4 <_svfiprintf_r+0xc04>
   10b50:	e2833001 	add	r3, r3, #1
   10b54:	e3530007 	cmp	r3, #7
   10b58:	e2811010 	add	r1, r1, #16
   10b5c:	e586a000 	str	r10, [r6]
   10b60:	e5865004 	str	r5, [r6, #4]
   10b64:	e58d3050 	str	r3, [sp, #80]	; 0x50
   10b68:	e58d1054 	str	r1, [sp, #84]	; 0x54
   10b6c:	d2866008 	addle	r6, r6, #8
   10b70:	dafffff3 	ble	10b44 <_svfiprintf_r+0xba4>
   10b74:	e1a00009 	mov	r0, r9
   10b78:	e1a0100b 	mov	r1, r11
   10b7c:	e28d204c 	add	r2, sp, #76	; 0x4c
   10b80:	ebfffc9b 	bl	fdf4 <__ssprint_r>
   10b84:	e3500000 	cmp	r0, #0
   10b88:	1a000032 	bne	10c58 <_svfiprintf_r+0xcb8>
   10b8c:	e2444010 	sub	r4, r4, #16
   10b90:	e3540010 	cmp	r4, #16
   10b94:	e59d1054 	ldr	r1, [sp, #84]	; 0x54
   10b98:	e59d3050 	ldr	r3, [sp, #80]	; 0x50
   10b9c:	e28d6080 	add	r6, sp, #128	; 0x80
   10ba0:	caffffea 	bgt	10b50 <_svfiprintf_r+0xbb0>
   10ba4:	e2833001 	add	r3, r3, #1
   10ba8:	e3530007 	cmp	r3, #7
   10bac:	e58d3050 	str	r3, [sp, #80]	; 0x50
   10bb0:	e59d3030 	ldr	r3, [sp, #48]	; 0x30
   10bb4:	e0811004 	add	r1, r1, r4
   10bb8:	e58d1054 	str	r1, [sp, #84]	; 0x54
   10bbc:	e8860018 	stm	r6, {r3, r4}
   10bc0:	ca0000b5 	bgt	10e9c <_svfiprintf_r+0xefc>
   10bc4:	e28d5010 	add	r5, sp, #16
   10bc8:	e59d4020 	ldr	r4, [sp, #32]
   10bcc:	e8951020 	ldm	r5, {r5, r12}
   10bd0:	e155000c 	cmp	r5, r12
   10bd4:	a0844005 	addge	r4, r4, r5
   10bd8:	b084400c 	addlt	r4, r4, r12
   10bdc:	e3510000 	cmp	r1, #0
   10be0:	e58d4020 	str	r4, [sp, #32]
   10be4:	1a00006c 	bne	10d9c <_svfiprintf_r+0xdfc>
   10be8:	e3a03000 	mov	r3, #0
   10bec:	e58d3050 	str	r3, [sp, #80]	; 0x50
   10bf0:	e5d73000 	ldrb	r3, [r7]
   10bf4:	e3530000 	cmp	r3, #0
   10bf8:	13530025 	cmpne	r3, #37	; 0x25
   10bfc:	e28d6080 	add	r6, sp, #128	; 0x80
   10c00:	1afffd07 	bne	10024 <_svfiprintf_r+0x84>
   10c04:	e1a04007 	mov	r4, r7
   10c08:	eafffd1c 	b	10080 <_svfiprintf_r+0xe0>
   10c0c:	e3530000 	cmp	r3, #0
   10c10:	11a04002 	movne	r4, r2
   10c14:	128d9080 	addne	r9, sp, #128	; 0x80
   10c18:	1afffdbd 	bne	10314 <_svfiprintf_r+0x374>
   10c1c:	e59dc008 	ldr	r12, [sp, #8]
   10c20:	e31c0001 	tst	r12, #1
   10c24:	13a03030 	movne	r3, #48	; 0x30
   10c28:	15cd307f 	strbne	r3, [sp, #127]	; 0x7f
   10c2c:	159d403c 	ldrne	r4, [sp, #60]	; 0x3c
   10c30:	128d907f 	addne	r9, sp, #127	; 0x7f
   10c34:	01a04003 	moveq	r4, r3
   10c38:	028d9080 	addeq	r9, sp, #128	; 0x80
   10c3c:	eafffdb4 	b	10314 <_svfiprintf_r+0x374>
   10c40:	e59d3054 	ldr	r3, [sp, #84]	; 0x54
   10c44:	e3530000 	cmp	r3, #0
   10c48:	159d0028 	ldrne	r0, [sp, #40]	; 0x28
   10c4c:	159d1018 	ldrne	r1, [sp, #24]
   10c50:	128d204c 	addne	r2, sp, #76	; 0x4c
   10c54:	1bfffc66 	blne	fdf4 <__ssprint_r>
   10c58:	e59d4018 	ldr	r4, [sp, #24]
   10c5c:	e1d430bc 	ldrh	r3, [r4, #12]
   10c60:	e59d0020 	ldr	r0, [sp, #32]
   10c64:	e3130040 	tst	r3, #64	; 0x40
   10c68:	13e00000 	mvnne	r0, #0
   10c6c:	e28dd0c4 	add	sp, sp, #196	; 0xc4
   10c70:	e8bd4ff0 	pop	{r4, r5, r6, r7, r8, r9, r10, r11, lr}
   10c74:	e12fff1e 	bx	lr
   10c78:	e28d3010 	add	r3, sp, #16
   10c7c:	e8931008 	ldm	r3, {r3, r12}
   10c80:	e063500c 	rsb	r5, r3, r12
   10c84:	e3550000 	cmp	r5, #0
   10c88:	daffff54 	ble	109e0 <_svfiprintf_r+0xa40>
   10c8c:	e3550010 	cmp	r5, #16
   10c90:	d59fc324 	ldrle	r12, [pc, #804]	; 10fbc <_svfiprintf_r+0x101c>
   10c94:	d58dc01c 	strle	r12, [sp, #28]
   10c98:	da000022 	ble	10d28 <_svfiprintf_r+0xd88>
   10c9c:	e59f3318 	ldr	r3, [pc, #792]	; 10fbc <_svfiprintf_r+0x101c>
   10ca0:	e58d402c 	str	r4, [sp, #44]	; 0x2c
   10ca4:	e1a00006 	mov	r0, r6
   10ca8:	e58d301c 	str	r3, [sp, #28]
   10cac:	e1a06005 	mov	r6, r5
   10cb0:	e3a0b010 	mov	r11, #16
   10cb4:	e59d4028 	ldr	r4, [sp, #40]	; 0x28
   10cb8:	e59d5018 	ldr	r5, [sp, #24]
   10cbc:	ea000002 	b	10ccc <_svfiprintf_r+0xd2c>
   10cc0:	e2466010 	sub	r6, r6, #16
   10cc4:	e3560010 	cmp	r6, #16
   10cc8:	da000013 	ble	10d1c <_svfiprintf_r+0xd7c>
   10ccc:	e2822001 	add	r2, r2, #1
   10cd0:	e3520007 	cmp	r2, #7
   10cd4:	e2811010 	add	r1, r1, #16
   10cd8:	e8800900 	stm	r0, {r8, r11}
   10cdc:	e58d2050 	str	r2, [sp, #80]	; 0x50
   10ce0:	e58d1054 	str	r1, [sp, #84]	; 0x54
   10ce4:	d2800008 	addle	r0, r0, #8
   10ce8:	dafffff4 	ble	10cc0 <_svfiprintf_r+0xd20>
   10cec:	e1a00004 	mov	r0, r4
   10cf0:	e1a01005 	mov	r1, r5
   10cf4:	e28d204c 	add	r2, sp, #76	; 0x4c
   10cf8:	ebfffc3d 	bl	fdf4 <__ssprint_r>
   10cfc:	e3500000 	cmp	r0, #0
   10d00:	1affffd4 	bne	10c58 <_svfiprintf_r+0xcb8>
   10d04:	e2466010 	sub	r6, r6, #16
   10d08:	e3560010 	cmp	r6, #16
   10d0c:	e59d1054 	ldr	r1, [sp, #84]	; 0x54
   10d10:	e59d2050 	ldr	r2, [sp, #80]	; 0x50
   10d14:	e28d0080 	add	r0, sp, #128	; 0x80
   10d18:	caffffeb 	bgt	10ccc <_svfiprintf_r+0xd2c>
   10d1c:	e59d402c 	ldr	r4, [sp, #44]	; 0x2c
   10d20:	e1a05006 	mov	r5, r6
   10d24:	e1a06000 	mov	r6, r0
   10d28:	e2822001 	add	r2, r2, #1
   10d2c:	e59dc01c 	ldr	r12, [sp, #28]
   10d30:	e3520007 	cmp	r2, #7
   10d34:	e0811005 	add	r1, r1, r5
   10d38:	e586c000 	str	r12, [r6]
   10d3c:	e5865004 	str	r5, [r6, #4]
   10d40:	e58d2050 	str	r2, [sp, #80]	; 0x50
   10d44:	e58d1054 	str	r1, [sp, #84]	; 0x54
   10d48:	d2866008 	addle	r6, r6, #8
   10d4c:	daffff23 	ble	109e0 <_svfiprintf_r+0xa40>
   10d50:	e59d0028 	ldr	r0, [sp, #40]	; 0x28
   10d54:	e59d1018 	ldr	r1, [sp, #24]
   10d58:	e28d204c 	add	r2, sp, #76	; 0x4c
   10d5c:	ebfffc24 	bl	fdf4 <__ssprint_r>
   10d60:	e3500000 	cmp	r0, #0
   10d64:	1affffbb 	bne	10c58 <_svfiprintf_r+0xcb8>
   10d68:	e59d1054 	ldr	r1, [sp, #84]	; 0x54
   10d6c:	e59d2050 	ldr	r2, [sp, #80]	; 0x50
   10d70:	e28d6080 	add	r6, sp, #128	; 0x80
   10d74:	eaffff19 	b	109e0 <_svfiprintf_r+0xa40>
   10d78:	e59d0028 	ldr	r0, [sp, #40]	; 0x28
   10d7c:	e59d1018 	ldr	r1, [sp, #24]
   10d80:	e28d204c 	add	r2, sp, #76	; 0x4c
   10d84:	ebfffc1a 	bl	fdf4 <__ssprint_r>
   10d88:	e3500000 	cmp	r0, #0
   10d8c:	1affffb1 	bne	10c58 <_svfiprintf_r+0xcb8>
   10d90:	e59d1054 	ldr	r1, [sp, #84]	; 0x54
   10d94:	e28d6080 	add	r6, sp, #128	; 0x80
   10d98:	eaffff56 	b	10af8 <_svfiprintf_r+0xb58>
   10d9c:	e59d0028 	ldr	r0, [sp, #40]	; 0x28
   10da0:	e59d1018 	ldr	r1, [sp, #24]
   10da4:	e28d204c 	add	r2, sp, #76	; 0x4c
   10da8:	ebfffc11 	bl	fdf4 <__ssprint_r>
   10dac:	e3500000 	cmp	r0, #0
   10db0:	0affff8c 	beq	10be8 <_svfiprintf_r+0xc48>
   10db4:	eaffffa7 	b	10c58 <_svfiprintf_r+0xcb8>
   10db8:	e59d0028 	ldr	r0, [sp, #40]	; 0x28
   10dbc:	e59d1018 	ldr	r1, [sp, #24]
   10dc0:	e28d204c 	add	r2, sp, #76	; 0x4c
   10dc4:	ebfffc0a 	bl	fdf4 <__ssprint_r>
   10dc8:	e3500000 	cmp	r0, #0
   10dcc:	1affffa1 	bne	10c58 <_svfiprintf_r+0xcb8>
   10dd0:	e28d6080 	add	r6, sp, #128	; 0x80
   10dd4:	eafffca6 	b	10074 <_svfiprintf_r+0xd4>
   10dd8:	e59d0028 	ldr	r0, [sp, #40]	; 0x28
   10ddc:	e59d1018 	ldr	r1, [sp, #24]
   10de0:	e28d204c 	add	r2, sp, #76	; 0x4c
   10de4:	ebfffc02 	bl	fdf4 <__ssprint_r>
   10de8:	e3500000 	cmp	r0, #0
   10dec:	1affff99 	bne	10c58 <_svfiprintf_r+0xcb8>
   10df0:	e59d1054 	ldr	r1, [sp, #84]	; 0x54
   10df4:	e59d2050 	ldr	r2, [sp, #80]	; 0x50
   10df8:	e28d6080 	add	r6, sp, #128	; 0x80
   10dfc:	eafffee7 	b	109a0 <_svfiprintf_r+0xa00>
   10e00:	e59d0028 	ldr	r0, [sp, #40]	; 0x28
   10e04:	e59d1018 	ldr	r1, [sp, #24]
   10e08:	e28d204c 	add	r2, sp, #76	; 0x4c
   10e0c:	ebfffbf8 	bl	fdf4 <__ssprint_r>
   10e10:	e3500000 	cmp	r0, #0
   10e14:	1affff8f 	bne	10c58 <_svfiprintf_r+0xcb8>
   10e18:	e59d1054 	ldr	r1, [sp, #84]	; 0x54
   10e1c:	e59d2050 	ldr	r2, [sp, #80]	; 0x50
   10e20:	e28d6080 	add	r6, sp, #128	; 0x80
   10e24:	eafffeea 	b	109d4 <_svfiprintf_r+0xa34>
   10e28:	e3550000 	cmp	r5, #0
   10e2c:	03540009 	cmpeq	r4, #9
   10e30:	9a000021 	bls	10ebc <_svfiprintf_r+0xf1c>
   10e34:	e28dc07f 	add	r12, sp, #127	; 0x7f
   10e38:	e58d6010 	str	r6, [sp, #16]
   10e3c:	e1a0600c 	mov	r6, r12
   10e40:	e1a00004 	mov	r0, r4
   10e44:	e1a01005 	mov	r1, r5
   10e48:	e3a0200a 	mov	r2, #10
   10e4c:	e3a03000 	mov	r3, #0
   10e50:	eb0004a0 	bl	120d8 <__aeabi_uldivmod>
   10e54:	e2822030 	add	r2, r2, #48	; 0x30
   10e58:	e5c62000 	strb	r2, [r6]
   10e5c:	e1a00004 	mov	r0, r4
   10e60:	e1a01005 	mov	r1, r5
   10e64:	e3a0200a 	mov	r2, #10
   10e68:	e3a03000 	mov	r3, #0
   10e6c:	eb000499 	bl	120d8 <__aeabi_uldivmod>
   10e70:	e1a04000 	mov	r4, r0
   10e74:	e1a05001 	mov	r5, r1
   10e78:	e194c005 	orrs	r12, r4, r5
   10e7c:	e1a09006 	mov	r9, r6
   10e80:	e2466001 	sub	r6, r6, #1
   10e84:	1affffed 	bne	10e40 <_svfiprintf_r+0xea0>
   10e88:	e59d6010 	ldr	r6, [sp, #16]
   10e8c:	eafffd1e 	b	1030c <_svfiprintf_r+0x36c>
   10e90:	e58d3024 	str	r3, [sp, #36]	; 0x24
   10e94:	e5d73000 	ldrb	r3, [r7]
   10e98:	eafffc85 	b	100b4 <_svfiprintf_r+0x114>
   10e9c:	e59d0028 	ldr	r0, [sp, #40]	; 0x28
   10ea0:	e59d1018 	ldr	r1, [sp, #24]
   10ea4:	e28d204c 	add	r2, sp, #76	; 0x4c
   10ea8:	ebfffbd1 	bl	fdf4 <__ssprint_r>
   10eac:	e3500000 	cmp	r0, #0
   10eb0:	1affff68 	bne	10c58 <_svfiprintf_r+0xcb8>
   10eb4:	e59d1054 	ldr	r1, [sp, #84]	; 0x54
   10eb8:	eaffff41 	b	10bc4 <_svfiprintf_r+0xc24>
   10ebc:	e2844030 	add	r4, r4, #48	; 0x30
   10ec0:	e5cd407f 	strb	r4, [sp, #127]	; 0x7f
   10ec4:	e28d907f 	add	r9, sp, #127	; 0x7f
   10ec8:	e59d403c 	ldr	r4, [sp, #60]	; 0x3c
   10ecc:	eafffd10 	b	10314 <_svfiprintf_r+0x374>
   10ed0:	e59dc024 	ldr	r12, [sp, #36]	; 0x24
   10ed4:	e59c4000 	ldr	r4, [r12]
   10ed8:	e28cc004 	add	r12, r12, #4
   10edc:	e3a03001 	mov	r3, #1
   10ee0:	e58dc024 	str	r12, [sp, #36]	; 0x24
   10ee4:	e3a05000 	mov	r5, #0
   10ee8:	eafffce6 	b	10288 <_svfiprintf_r+0x2e8>
   10eec:	e59dc024 	ldr	r12, [sp, #36]	; 0x24
   10ef0:	e59c4000 	ldr	r4, [r12]
   10ef4:	e28cc004 	add	r12, r12, #4
   10ef8:	e58dc024 	str	r12, [sp, #36]	; 0x24
   10efc:	e3a05000 	mov	r5, #0
   10f00:	eafffd9d 	b	1057c <_svfiprintf_r+0x5dc>
   10f04:	e59dc008 	ldr	r12, [sp, #8]
   10f08:	e21c3040 	ands	r3, r12, #64	; 0x40
   10f0c:	159d5024 	ldrne	r5, [sp, #36]	; 0x24
   10f10:	059dc024 	ldreq	r12, [sp, #36]	; 0x24
   10f14:	11d540b0 	ldrhne	r4, [r5]
   10f18:	059c4000 	ldreq	r4, [r12]
   10f1c:	12855004 	addne	r5, r5, #4
   10f20:	028cc004 	addeq	r12, r12, #4
   10f24:	158d5024 	strne	r5, [sp, #36]	; 0x24
   10f28:	11a03002 	movne	r3, r2
   10f2c:	058dc024 	streq	r12, [sp, #36]	; 0x24
   10f30:	e3a05000 	mov	r5, #0
   10f34:	eafffcd3 	b	10288 <_svfiprintf_r+0x2e8>
   10f38:	e59d5024 	ldr	r5, [sp, #36]	; 0x24
   10f3c:	e5954000 	ldr	r4, [r5]
   10f40:	eafffe33 	b	10814 <_svfiprintf_r+0x874>
   10f44:	e59d5024 	ldr	r5, [sp, #36]	; 0x24
   10f48:	e59d4020 	ldr	r4, [sp, #32]
   10f4c:	e5951000 	ldr	r1, [r5]
   10f50:	e1a05fc4 	asr	r5, r4, #31
   10f54:	e1a03005 	mov	r3, r5
   10f58:	e59d5024 	ldr	r5, [sp, #36]	; 0x24
   10f5c:	e1a02004 	mov	r2, r4
   10f60:	e2855004 	add	r5, r5, #4
   10f64:	e58d5024 	str	r5, [sp, #36]	; 0x24
   10f68:	e881000c 	stm	r1, {r2, r3}
   10f6c:	eafffc28 	b	10014 <_svfiprintf_r+0x74>
   10f70:	e58db00c 	str	r11, [sp, #12]
   10f74:	e58d5024 	str	r5, [sp, #36]	; 0x24
   10f78:	ebffbd75 	bl	554 <strlen>
   10f7c:	e5ddb047 	ldrb	r11, [sp, #71]	; 0x47
   10f80:	e1a04000 	mov	r4, r0
   10f84:	eafffce2 	b	10314 <_svfiprintf_r+0x374>
   10f88:	e59dc008 	ldr	r12, [sp, #8]
   10f8c:	e31c0040 	tst	r12, #64	; 0x40
   10f90:	0a000015 	beq	10fec <_svfiprintf_r+0x104c>
   10f94:	e59d4024 	ldr	r4, [sp, #36]	; 0x24
   10f98:	e59d5020 	ldr	r5, [sp, #32]
   10f9c:	e5943000 	ldr	r3, [r4]
   10fa0:	e2844004 	add	r4, r4, #4
   10fa4:	e58d4024 	str	r4, [sp, #36]	; 0x24
   10fa8:	e1c350b0 	strh	r5, [r3]
   10fac:	eafffc18 	b	10014 <_svfiprintf_r+0x74>
   10fb0:	000137a8 	.word	0x000137a8
   10fb4:	00013478 	.word	0x00013478
   10fb8:	00013464 	.word	0x00013464
   10fbc:	000137b8 	.word	0x000137b8
   10fc0:	0001348c 	.word	0x0001348c
   10fc4:	e3a01040 	mov	r1, #64	; 0x40
   10fc8:	ebffd82a 	bl	7078 <_malloc_r>
   10fcc:	e3500000 	cmp	r0, #0
   10fd0:	e5840000 	str	r0, [r4]
   10fd4:	e5840010 	str	r0, [r4, #16]
   10fd8:	0a000023 	beq	1106c <_svfiprintf_r+0x10cc>
   10fdc:	e59dc018 	ldr	r12, [sp, #24]
   10fe0:	e3a03040 	mov	r3, #64	; 0x40
   10fe4:	e58c3014 	str	r3, [r12, #20]
   10fe8:	eafffbf9 	b	ffd4 <_svfiprintf_r+0x34>
   10fec:	e59dc024 	ldr	r12, [sp, #36]	; 0x24
   10ff0:	e59d4020 	ldr	r4, [sp, #32]
   10ff4:	e59c3000 	ldr	r3, [r12]
   10ff8:	e28cc004 	add	r12, r12, #4
   10ffc:	e58dc024 	str	r12, [sp, #36]	; 0x24
   11000:	e5834000 	str	r4, [r3]
   11004:	eafffc02 	b	10014 <_svfiprintf_r+0x74>
   11008:	e59d400c 	ldr	r4, [sp, #12]
   1100c:	e3540006 	cmp	r4, #6
   11010:	23a04006 	movcs	r4, #6
   11014:	e58d5024 	str	r5, [sp, #36]	; 0x24
   11018:	e1c45fc4 	bic	r5, r4, r4, asr #31
   1101c:	e58d5010 	str	r5, [sp, #16]
   11020:	e51f9068 	ldr	r9, [pc, #-104]	; 10fc0 <_svfiprintf_r+0x1020>
   11024:	eafffd75 	b	10600 <_svfiprintf_r+0x660>
   11028:	e59d400c 	ldr	r4, [sp, #12]
   1102c:	e5ddb047 	ldrb	r11, [sp, #71]	; 0x47
   11030:	e58d5024 	str	r5, [sp, #36]	; 0x24
   11034:	e58d000c 	str	r0, [sp, #12]
   11038:	eafffcb5 	b	10314 <_svfiprintf_r+0x374>
   1103c:	e59d5024 	ldr	r5, [sp, #36]	; 0x24
   11040:	e5955000 	ldr	r5, [r5]
   11044:	e59dc024 	ldr	r12, [sp, #36]	; 0x24
   11048:	e3550000 	cmp	r5, #0
   1104c:	e5d73001 	ldrb	r3, [r7, #1]
   11050:	e28c2004 	add	r2, r12, #4
   11054:	e1a07004 	mov	r7, r4
   11058:	b3e04000 	mvnlt	r4, #0
   1105c:	e58d500c 	str	r5, [sp, #12]
   11060:	e58d2024 	str	r2, [sp, #36]	; 0x24
   11064:	b58d400c 	strlt	r4, [sp, #12]
   11068:	eafffc11 	b	100b4 <_svfiprintf_r+0x114>
   1106c:	e59d5028 	ldr	r5, [sp, #40]	; 0x28
   11070:	e3a0300c 	mov	r3, #12
   11074:	e5853000 	str	r3, [r5]
   11078:	e3e00000 	mvn	r0, #0
   1107c:	eafffefa 	b	10c6c <_svfiprintf_r+0xccc>

00011080 <__swbuf_r>:
   11080:	e92d4070 	push	{r4, r5, r6, lr}
   11084:	e2506000 	subs	r6, r0, #0
   11088:	e1a05001 	mov	r5, r1
   1108c:	e1a04002 	mov	r4, r2
   11090:	0a000002 	beq	110a0 <__swbuf_r+0x20>
   11094:	e5963038 	ldr	r3, [r6, #56]	; 0x38
   11098:	e3530000 	cmp	r3, #0
   1109c:	0a00003e 	beq	1119c <__swbuf_r+0x11c>
   110a0:	e1d420bc 	ldrh	r2, [r4, #12]
   110a4:	e5940018 	ldr	r0, [r4, #24]
   110a8:	e3120008 	tst	r2, #8
   110ac:	e1a03002 	mov	r3, r2
   110b0:	e5840008 	str	r0, [r4, #8]
   110b4:	0a000027 	beq	11158 <__swbuf_r+0xd8>
   110b8:	e594c010 	ldr	r12, [r4, #16]
   110bc:	e35c0000 	cmp	r12, #0
   110c0:	0a000024 	beq	11158 <__swbuf_r+0xd8>
   110c4:	e3130a02 	tst	r3, #8192	; 0x2000
   110c8:	05943064 	ldreq	r3, [r4, #100]	; 0x64
   110cc:	03c33a02 	biceq	r3, r3, #8192	; 0x2000
   110d0:	03822a02 	orreq	r2, r2, #8192	; 0x2000
   110d4:	05843064 	streq	r3, [r4, #100]	; 0x64
   110d8:	e5943000 	ldr	r3, [r4]
   110dc:	01c420bc 	strheq	r2, [r4, #12]
   110e0:	e5942014 	ldr	r2, [r4, #20]
   110e4:	e06cc003 	rsb	r12, r12, r3
   110e8:	e15c0002 	cmp	r12, r2
   110ec:	e20550ff 	and	r5, r5, #255	; 0xff
   110f0:	b28cc001 	addlt	r12, r12, #1
   110f4:	aa000020 	bge	1117c <__swbuf_r+0xfc>
   110f8:	e5941008 	ldr	r1, [r4, #8]
   110fc:	e2832001 	add	r2, r3, #1
   11100:	e2411001 	sub	r1, r1, #1
   11104:	e5841008 	str	r1, [r4, #8]
   11108:	e5842000 	str	r2, [r4]
   1110c:	e5c35000 	strb	r5, [r3]
   11110:	e5943014 	ldr	r3, [r4, #20]
   11114:	e153000c 	cmp	r3, r12
   11118:	0a000007 	beq	1113c <__swbuf_r+0xbc>
   1111c:	e1d430bc 	ldrh	r3, [r4, #12]
   11120:	e3130001 	tst	r3, #1
   11124:	1a000002 	bne	11134 <__swbuf_r+0xb4>
   11128:	e1a00005 	mov	r0, r5
   1112c:	e8bd4070 	pop	{r4, r5, r6, lr}
   11130:	e12fff1e 	bx	lr
   11134:	e355000a 	cmp	r5, #10
   11138:	1afffffa 	bne	11128 <__swbuf_r+0xa8>
   1113c:	e1a00006 	mov	r0, r6
   11140:	e1a01004 	mov	r1, r4
   11144:	ebffd340 	bl	5e4c <_fflush_r>
   11148:	e3500000 	cmp	r0, #0
   1114c:	0afffff5 	beq	11128 <__swbuf_r+0xa8>
   11150:	e3e00000 	mvn	r0, #0
   11154:	eafffff4 	b	1112c <__swbuf_r+0xac>
   11158:	e1a00006 	mov	r0, r6
   1115c:	e1a01004 	mov	r1, r4
   11160:	ebffcb7a 	bl	3f50 <__swsetup_r>
   11164:	e3500000 	cmp	r0, #0
   11168:	1afffff8 	bne	11150 <__swbuf_r+0xd0>
   1116c:	e1d420bc 	ldrh	r2, [r4, #12]
   11170:	e594c010 	ldr	r12, [r4, #16]
   11174:	e1a03002 	mov	r3, r2
   11178:	eaffffd1 	b	110c4 <__swbuf_r+0x44>
   1117c:	e1a00006 	mov	r0, r6
   11180:	e1a01004 	mov	r1, r4
   11184:	ebffd330 	bl	5e4c <_fflush_r>
   11188:	e3500000 	cmp	r0, #0
   1118c:	1affffef 	bne	11150 <__swbuf_r+0xd0>
   11190:	e5943000 	ldr	r3, [r4]
   11194:	e3a0c001 	mov	r12, #1
   11198:	eaffffd6 	b	110f8 <__swbuf_r+0x78>
   1119c:	ebffd375 	bl	5f78 <__sinit>
   111a0:	eaffffbe 	b	110a0 <__swbuf_r+0x20>

000111a4 <__swbuf>:
   111a4:	e59f300c 	ldr	r3, [pc, #12]	; 111b8 <__swbuf+0x14>
   111a8:	e1a02001 	mov	r2, r1
   111ac:	e1a01000 	mov	r1, r0
   111b0:	e5930000 	ldr	r0, [r3]
   111b4:	eaffffb1 	b	11080 <__swbuf_r>
   111b8:	00013830 	.word	0x00013830

000111bc <_wcrtomb_r>:
   111bc:	e92d41f0 	push	{r4, r5, r6, r7, r8, lr}
   111c0:	e2516000 	subs	r6, r1, #0
   111c4:	e1a05003 	mov	r5, r3
   111c8:	e24dd018 	sub	sp, sp, #24
   111cc:	e1a04000 	mov	r4, r0
   111d0:	e1a07002 	mov	r7, r2
   111d4:	e59f306c 	ldr	r3, [pc, #108]	; 11248 <_wcrtomb_r+0x8c>
   111d8:	0a000010 	beq	11220 <_wcrtomb_r+0x64>
   111dc:	e5938000 	ldr	r8, [r3]
   111e0:	ebffd72f 	bl	6ea4 <__locale_charset>
   111e4:	e58d5000 	str	r5, [sp]
   111e8:	e1a03000 	mov	r3, r0
   111ec:	e1a01006 	mov	r1, r6
   111f0:	e1a02007 	mov	r2, r7
   111f4:	e1a00004 	mov	r0, r4
   111f8:	e1a0e00f 	mov	lr, pc
   111fc:	e12fff18 	bx	r8
   11200:	e3700001 	cmn	r0, #1
   11204:	03a02000 	moveq	r2, #0
   11208:	03a0308a 	moveq	r3, #138	; 0x8a
   1120c:	05852000 	streq	r2, [r5]
   11210:	05843000 	streq	r3, [r4]
   11214:	e28dd018 	add	sp, sp, #24
   11218:	e8bd41f0 	pop	{r4, r5, r6, r7, r8, lr}
   1121c:	e12fff1e 	bx	lr
   11220:	e5937000 	ldr	r7, [r3]
   11224:	ebffd71e 	bl	6ea4 <__locale_charset>
   11228:	e58d5000 	str	r5, [sp]
   1122c:	e1a03000 	mov	r3, r0
   11230:	e1a02006 	mov	r2, r6
   11234:	e1a00004 	mov	r0, r4
   11238:	e28d100c 	add	r1, sp, #12
   1123c:	e1a0e00f 	mov	lr, pc
   11240:	e12fff17 	bx	r7
   11244:	eaffffed 	b	11200 <_wcrtomb_r+0x44>
   11248:	000140f0 	.word	0x000140f0

0001124c <wcrtomb>:
   1124c:	e92d41f0 	push	{r4, r5, r6, r7, r8, lr}
   11250:	e59f3084 	ldr	r3, [pc, #132]	; 112dc <wcrtomb+0x90>
   11254:	e2506000 	subs	r6, r0, #0
   11258:	e5934000 	ldr	r4, [r3]
   1125c:	e24dd018 	sub	sp, sp, #24
   11260:	e1a07001 	mov	r7, r1
   11264:	e1a05002 	mov	r5, r2
   11268:	e59f3070 	ldr	r3, [pc, #112]	; 112e0 <wcrtomb+0x94>
   1126c:	0a000010 	beq	112b4 <wcrtomb+0x68>
   11270:	e5938000 	ldr	r8, [r3]
   11274:	ebffd70a 	bl	6ea4 <__locale_charset>
   11278:	e58d5000 	str	r5, [sp]
   1127c:	e1a03000 	mov	r3, r0
   11280:	e1a01006 	mov	r1, r6
   11284:	e1a02007 	mov	r2, r7
   11288:	e1a00004 	mov	r0, r4
   1128c:	e1a0e00f 	mov	lr, pc
   11290:	e12fff18 	bx	r8
   11294:	e3700001 	cmn	r0, #1
   11298:	03a02000 	moveq	r2, #0
   1129c:	03a0308a 	moveq	r3, #138	; 0x8a
   112a0:	05852000 	streq	r2, [r5]
   112a4:	05843000 	streq	r3, [r4]
   112a8:	e28dd018 	add	sp, sp, #24
   112ac:	e8bd41f0 	pop	{r4, r5, r6, r7, r8, lr}
   112b0:	e12fff1e 	bx	lr
   112b4:	e5937000 	ldr	r7, [r3]
   112b8:	ebffd6f9 	bl	6ea4 <__locale_charset>
   112bc:	e58d5000 	str	r5, [sp]
   112c0:	e1a03000 	mov	r3, r0
   112c4:	e1a02006 	mov	r2, r6
   112c8:	e1a00004 	mov	r0, r4
   112cc:	e28d100c 	add	r1, sp, #12
   112d0:	e1a0e00f 	mov	lr, pc
   112d4:	e12fff17 	bx	r7
   112d8:	eaffffed 	b	11294 <wcrtomb+0x48>
   112dc:	00013830 	.word	0x00013830
   112e0:	000140f0 	.word	0x000140f0

000112e4 <__ascii_wctomb>:
   112e4:	e3510000 	cmp	r1, #0
   112e8:	0a000006 	beq	11308 <__ascii_wctomb+0x24>
   112ec:	e35200ff 	cmp	r2, #255	; 0xff
   112f0:	83a0308a 	movhi	r3, #138	; 0x8a
   112f4:	85803000 	strhi	r3, [r0]
   112f8:	95c12000 	strbls	r2, [r1]
   112fc:	83e00000 	mvnhi	r0, #0
   11300:	93a00001 	movls	r0, #1
   11304:	e12fff1e 	bx	lr
   11308:	e1a00001 	mov	r0, r1
   1130c:	e12fff1e 	bx	lr

00011310 <_wctomb_r>:
   11310:	e92d41f0 	push	{r4, r5, r6, r7, r8, lr}
   11314:	e59fc040 	ldr	r12, [pc, #64]	; 1135c <_wctomb_r+0x4c>
   11318:	e24dd008 	sub	sp, sp, #8
   1131c:	e1a08003 	mov	r8, r3
   11320:	e1a05000 	mov	r5, r0
   11324:	e1a07001 	mov	r7, r1
   11328:	e1a06002 	mov	r6, r2
   1132c:	e59c4000 	ldr	r4, [r12]
   11330:	ebffd6db 	bl	6ea4 <__locale_charset>
   11334:	e58d8000 	str	r8, [sp]
   11338:	e1a03000 	mov	r3, r0
   1133c:	e1a01007 	mov	r1, r7
   11340:	e1a02006 	mov	r2, r6
   11344:	e1a00005 	mov	r0, r5
   11348:	e1a0e00f 	mov	lr, pc
   1134c:	e12fff14 	bx	r4
   11350:	e28dd008 	add	sp, sp, #8
   11354:	e8bd41f0 	pop	{r4, r5, r6, r7, r8, lr}
   11358:	e12fff1e 	bx	lr
   1135c:	000140f0 	.word	0x000140f0

00011360 <__aeabi_uidiv>:
   11360:	e2512001 	subs	r2, r1, #1
   11364:	012fff1e 	bxeq	lr
   11368:	3a000036 	bcc	11448 <__aeabi_uidiv+0xe8>
   1136c:	e1500001 	cmp	r0, r1
   11370:	9a000022 	bls	11400 <__aeabi_uidiv+0xa0>
   11374:	e1110002 	tst	r1, r2
   11378:	0a000023 	beq	1140c <__aeabi_uidiv+0xac>
   1137c:	e311020e 	tst	r1, #-536870912	; 0xe0000000
   11380:	01a01181 	lsleq	r1, r1, #3
   11384:	03a03008 	moveq	r3, #8
   11388:	13a03001 	movne	r3, #1
   1138c:	e3510201 	cmp	r1, #268435456	; 0x10000000
   11390:	31510000 	cmpcc	r1, r0
   11394:	31a01201 	lslcc	r1, r1, #4
   11398:	31a03203 	lslcc	r3, r3, #4
   1139c:	3afffffa 	bcc	1138c <__aeabi_uidiv+0x2c>
   113a0:	e3510102 	cmp	r1, #-2147483648	; 0x80000000
   113a4:	31510000 	cmpcc	r1, r0
   113a8:	31a01081 	lslcc	r1, r1, #1
   113ac:	31a03083 	lslcc	r3, r3, #1
   113b0:	3afffffa 	bcc	113a0 <__aeabi_uidiv+0x40>
   113b4:	e3a02000 	mov	r2, #0
   113b8:	e1500001 	cmp	r0, r1
   113bc:	20400001 	subcs	r0, r0, r1
   113c0:	21822003 	orrcs	r2, r2, r3
   113c4:	e15000a1 	cmp	r0, r1, lsr #1
   113c8:	204000a1 	subcs	r0, r0, r1, lsr #1
   113cc:	218220a3 	orrcs	r2, r2, r3, lsr #1
   113d0:	e1500121 	cmp	r0, r1, lsr #2
   113d4:	20400121 	subcs	r0, r0, r1, lsr #2
   113d8:	21822123 	orrcs	r2, r2, r3, lsr #2
   113dc:	e15001a1 	cmp	r0, r1, lsr #3
   113e0:	204001a1 	subcs	r0, r0, r1, lsr #3
   113e4:	218221a3 	orrcs	r2, r2, r3, lsr #3
   113e8:	e3500000 	cmp	r0, #0
   113ec:	11b03223 	lsrsne	r3, r3, #4
   113f0:	11a01221 	lsrne	r1, r1, #4
   113f4:	1affffef 	bne	113b8 <__aeabi_uidiv+0x58>
   113f8:	e1a00002 	mov	r0, r2
   113fc:	e12fff1e 	bx	lr
   11400:	03a00001 	moveq	r0, #1
   11404:	13a00000 	movne	r0, #0
   11408:	e12fff1e 	bx	lr
   1140c:	e3510801 	cmp	r1, #65536	; 0x10000
   11410:	21a01821 	lsrcs	r1, r1, #16
   11414:	23a02010 	movcs	r2, #16
   11418:	33a02000 	movcc	r2, #0
   1141c:	e3510c01 	cmp	r1, #256	; 0x100
   11420:	21a01421 	lsrcs	r1, r1, #8
   11424:	22822008 	addcs	r2, r2, #8
   11428:	e3510010 	cmp	r1, #16
   1142c:	21a01221 	lsrcs	r1, r1, #4
   11430:	22822004 	addcs	r2, r2, #4
   11434:	e3510004 	cmp	r1, #4
   11438:	82822003 	addhi	r2, r2, #3
   1143c:	908220a1 	addls	r2, r2, r1, lsr #1
   11440:	e1a00230 	lsr	r0, r0, r2
   11444:	e12fff1e 	bx	lr
   11448:	e3500000 	cmp	r0, #0
   1144c:	13e00000 	mvnne	r0, #0
   11450:	ea000007 	b	11474 <__aeabi_idiv0>

00011454 <__aeabi_uidivmod>:
   11454:	e3510000 	cmp	r1, #0
   11458:	0afffffa 	beq	11448 <__aeabi_uidiv+0xe8>
   1145c:	e92d4003 	push	{r0, r1, lr}
   11460:	ebffffbe 	bl	11360 <__aeabi_uidiv>
   11464:	e8bd4006 	pop	{r1, r2, lr}
   11468:	e0030092 	mul	r3, r2, r0
   1146c:	e0411003 	sub	r1, r1, r3
   11470:	e12fff1e 	bx	lr

00011474 <__aeabi_idiv0>:
   11474:	e12fff1e 	bx	lr

00011478 <__aeabi_drsub>:
   11478:	e2211102 	eor	r1, r1, #-2147483648	; 0x80000000
   1147c:	ea000000 	b	11484 <__adddf3>

00011480 <__aeabi_dsub>:
   11480:	e2233102 	eor	r3, r3, #-2147483648	; 0x80000000

00011484 <__adddf3>:
   11484:	e92d4030 	push	{r4, r5, lr}
   11488:	e1a04081 	lsl	r4, r1, #1
   1148c:	e1a05083 	lsl	r5, r3, #1
   11490:	e1340005 	teq	r4, r5
   11494:	01300002 	teqeq	r0, r2
   11498:	1194c000 	orrsne	r12, r4, r0
   1149c:	1195c002 	orrsne	r12, r5, r2
   114a0:	11f0cac4 	mvnsne	r12, r4, asr #21
   114a4:	11f0cac5 	mvnsne	r12, r5, asr #21
   114a8:	0a00008c 	beq	116e0 <__adddf3+0x25c>
   114ac:	e1a04aa4 	lsr	r4, r4, #21
   114b0:	e0745aa5 	rsbs	r5, r4, r5, lsr #21
   114b4:	b2655000 	rsblt	r5, r5, #0
   114b8:	da000006 	ble	114d8 <__adddf3+0x54>
   114bc:	e0844005 	add	r4, r4, r5
   114c0:	e0202002 	eor	r2, r0, r2
   114c4:	e0213003 	eor	r3, r1, r3
   114c8:	e0220000 	eor	r0, r2, r0
   114cc:	e0231001 	eor	r1, r3, r1
   114d0:	e0202002 	eor	r2, r0, r2
   114d4:	e0213003 	eor	r3, r1, r3
   114d8:	e3550036 	cmp	r5, #54	; 0x36
   114dc:	88bd4030 	pophi	{r4, r5, lr}
   114e0:	812fff1e 	bxhi	lr
   114e4:	e3110102 	tst	r1, #-2147483648	; 0x80000000
   114e8:	e1a01601 	lsl	r1, r1, #12
   114ec:	e3a0c601 	mov	r12, #1048576	; 0x100000
   114f0:	e18c1621 	orr	r1, r12, r1, lsr #12
   114f4:	0a000001 	beq	11500 <__adddf3+0x7c>
   114f8:	e2700000 	rsbs	r0, r0, #0
   114fc:	e2e11000 	rsc	r1, r1, #0
   11500:	e3130102 	tst	r3, #-2147483648	; 0x80000000
   11504:	e1a03603 	lsl	r3, r3, #12
   11508:	e18c3623 	orr	r3, r12, r3, lsr #12
   1150c:	0a000001 	beq	11518 <__adddf3+0x94>
   11510:	e2722000 	rsbs	r2, r2, #0
   11514:	e2e33000 	rsc	r3, r3, #0
   11518:	e1340005 	teq	r4, r5
   1151c:	0a000069 	beq	116c8 <__adddf3+0x244>
   11520:	e2444001 	sub	r4, r4, #1
   11524:	e275e020 	rsbs	lr, r5, #32
   11528:	ba000005 	blt	11544 <__adddf3+0xc0>
   1152c:	e1a0ce12 	lsl	r12, r2, lr
   11530:	e0900532 	adds	r0, r0, r2, lsr r5
   11534:	e2a11000 	adc	r1, r1, #0
   11538:	e0900e13 	adds	r0, r0, r3, lsl lr
   1153c:	e0b11553 	adcs	r1, r1, r3, asr r5
   11540:	ea000006 	b	11560 <__adddf3+0xdc>
   11544:	e2455020 	sub	r5, r5, #32
   11548:	e28ee020 	add	lr, lr, #32
   1154c:	e3520001 	cmp	r2, #1
   11550:	e1a0ce13 	lsl	r12, r3, lr
   11554:	238cc002 	orrcs	r12, r12, #2
   11558:	e0900553 	adds	r0, r0, r3, asr r5
   1155c:	e0b11fc3 	adcs	r1, r1, r3, asr #31
   11560:	e2015102 	and	r5, r1, #-2147483648	; 0x80000000
   11564:	5a000002 	bpl	11574 <__adddf3+0xf0>
   11568:	e27cc000 	rsbs	r12, r12, #0
   1156c:	e2f00000 	rscs	r0, r0, #0
   11570:	e2e11000 	rsc	r1, r1, #0
   11574:	e3510601 	cmp	r1, #1048576	; 0x100000
   11578:	3a00000f 	bcc	115bc <__adddf3+0x138>
   1157c:	e3510602 	cmp	r1, #2097152	; 0x200000
   11580:	3a000006 	bcc	115a0 <__adddf3+0x11c>
   11584:	e1b010a1 	lsrs	r1, r1, #1
   11588:	e1b00060 	rrxs	r0, r0
   1158c:	e1a0c06c 	rrx	r12, r12
   11590:	e2844001 	add	r4, r4, #1
   11594:	e1a02a84 	lsl	r2, r4, #21
   11598:	e3720501 	cmn	r2, #4194304	; 0x400000
   1159c:	2a00006b 	bcs	11750 <__adddf3+0x2cc>
   115a0:	e35c0102 	cmp	r12, #-2147483648	; 0x80000000
   115a4:	01b0c0a0 	lsrseq	r12, r0, #1
   115a8:	e2b00000 	adcs	r0, r0, #0
   115ac:	e0a11a04 	adc	r1, r1, r4, lsl #20
   115b0:	e1811005 	orr	r1, r1, r5
   115b4:	e8bd4030 	pop	{r4, r5, lr}
   115b8:	e12fff1e 	bx	lr
   115bc:	e1b0c08c 	lsls	r12, r12, #1
   115c0:	e0b00000 	adcs	r0, r0, r0
   115c4:	e0a11001 	adc	r1, r1, r1
   115c8:	e3110601 	tst	r1, #1048576	; 0x100000
   115cc:	e2444001 	sub	r4, r4, #1
   115d0:	1afffff2 	bne	115a0 <__adddf3+0x11c>
   115d4:	e3310000 	teq	r1, #0
   115d8:	13a03014 	movne	r3, #20
   115dc:	03a03034 	moveq	r3, #52	; 0x34
   115e0:	01a01000 	moveq	r1, r0
   115e4:	03a00000 	moveq	r0, #0
   115e8:	e1a02001 	mov	r2, r1
   115ec:	e3520801 	cmp	r2, #65536	; 0x10000
   115f0:	21a02822 	lsrcs	r2, r2, #16
   115f4:	22433010 	subcs	r3, r3, #16
   115f8:	e3520c01 	cmp	r2, #256	; 0x100
   115fc:	21a02422 	lsrcs	r2, r2, #8
   11600:	22433008 	subcs	r3, r3, #8
   11604:	e3520010 	cmp	r2, #16
   11608:	21a02222 	lsrcs	r2, r2, #4
   1160c:	22433004 	subcs	r3, r3, #4
   11610:	e3520004 	cmp	r2, #4
   11614:	22433002 	subcs	r3, r3, #2
   11618:	304330a2 	subcc	r3, r3, r2, lsr #1
   1161c:	e04331a2 	sub	r3, r3, r2, lsr #3
   11620:	e2532020 	subs	r2, r3, #32
   11624:	aa000007 	bge	11648 <__adddf3+0x1c4>
   11628:	e292200c 	adds	r2, r2, #12
   1162c:	da000004 	ble	11644 <__adddf3+0x1c0>
   11630:	e282c014 	add	r12, r2, #20
   11634:	e262200c 	rsb	r2, r2, #12
   11638:	e1a00c11 	lsl	r0, r1, r12
   1163c:	e1a01231 	lsr	r1, r1, r2
   11640:	ea000004 	b	11658 <__adddf3+0x1d4>
   11644:	e2822014 	add	r2, r2, #20
   11648:	d262c020 	rsble	r12, r2, #32
   1164c:	e1a01211 	lsl	r1, r1, r2
   11650:	d1811c30 	orrle	r1, r1, r0, lsr r12
   11654:	d1a00210 	lslle	r0, r0, r2
   11658:	e0544003 	subs	r4, r4, r3
   1165c:	a0811a04 	addge	r1, r1, r4, lsl #20
   11660:	a1811005 	orrge	r1, r1, r5
   11664:	a8bd4030 	popge	{r4, r5, lr}
   11668:	a12fff1e 	bxge	lr
   1166c:	e1e04004 	mvn	r4, r4
   11670:	e254401f 	subs	r4, r4, #31
   11674:	aa00000f 	bge	116b8 <__adddf3+0x234>
   11678:	e294400c 	adds	r4, r4, #12
   1167c:	ca000006 	bgt	1169c <__adddf3+0x218>
   11680:	e2844014 	add	r4, r4, #20
   11684:	e2642020 	rsb	r2, r4, #32
   11688:	e1a00430 	lsr	r0, r0, r4
   1168c:	e1800211 	orr	r0, r0, r1, lsl r2
   11690:	e1851431 	orr	r1, r5, r1, lsr r4
   11694:	e8bd4030 	pop	{r4, r5, lr}
   11698:	e12fff1e 	bx	lr
   1169c:	e264400c 	rsb	r4, r4, #12
   116a0:	e2642020 	rsb	r2, r4, #32
   116a4:	e1a00230 	lsr	r0, r0, r2
   116a8:	e1800411 	orr	r0, r0, r1, lsl r4
   116ac:	e1a01005 	mov	r1, r5
   116b0:	e8bd4030 	pop	{r4, r5, lr}
   116b4:	e12fff1e 	bx	lr
   116b8:	e1a00431 	lsr	r0, r1, r4
   116bc:	e1a01005 	mov	r1, r5
   116c0:	e8bd4030 	pop	{r4, r5, lr}
   116c4:	e12fff1e 	bx	lr
   116c8:	e3340000 	teq	r4, #0
   116cc:	e2233601 	eor	r3, r3, #1048576	; 0x100000
   116d0:	02211601 	eoreq	r1, r1, #1048576	; 0x100000
   116d4:	02844001 	addeq	r4, r4, #1
   116d8:	12455001 	subne	r5, r5, #1
   116dc:	eaffff8f 	b	11520 <__adddf3+0x9c>
   116e0:	e1f0cac4 	mvns	r12, r4, asr #21
   116e4:	11f0cac5 	mvnsne	r12, r5, asr #21
   116e8:	0a00001d 	beq	11764 <__adddf3+0x2e0>
   116ec:	e1340005 	teq	r4, r5
   116f0:	01300002 	teqeq	r0, r2
   116f4:	0a000004 	beq	1170c <__adddf3+0x288>
   116f8:	e194c000 	orrs	r12, r4, r0
   116fc:	01a01003 	moveq	r1, r3
   11700:	01a00002 	moveq	r0, r2
   11704:	e8bd4030 	pop	{r4, r5, lr}
   11708:	e12fff1e 	bx	lr
   1170c:	e1310003 	teq	r1, r3
   11710:	13a01000 	movne	r1, #0
   11714:	13a00000 	movne	r0, #0
   11718:	18bd4030 	popne	{r4, r5, lr}
   1171c:	112fff1e 	bxne	lr
   11720:	e1b0caa4 	lsrs	r12, r4, #21
   11724:	1a000004 	bne	1173c <__adddf3+0x2b8>
   11728:	e1b00080 	lsls	r0, r0, #1
   1172c:	e0b11001 	adcs	r1, r1, r1
   11730:	23811102 	orrcs	r1, r1, #-2147483648	; 0x80000000
   11734:	e8bd4030 	pop	{r4, r5, lr}
   11738:	e12fff1e 	bx	lr
   1173c:	e2944501 	adds	r4, r4, #4194304	; 0x400000
   11740:	32811601 	addcc	r1, r1, #1048576	; 0x100000
   11744:	38bd4030 	popcc	{r4, r5, lr}
   11748:	312fff1e 	bxcc	lr
   1174c:	e2015102 	and	r5, r1, #-2147483648	; 0x80000000
   11750:	e385147f 	orr	r1, r5, #2130706432	; 0x7f000000
   11754:	e381160f 	orr	r1, r1, #15728640	; 0xf00000
   11758:	e3a00000 	mov	r0, #0
   1175c:	e8bd4030 	pop	{r4, r5, lr}
   11760:	e12fff1e 	bx	lr
   11764:	e1f0cac4 	mvns	r12, r4, asr #21
   11768:	11a01003 	movne	r1, r3
   1176c:	11a00002 	movne	r0, r2
   11770:	01f0cac5 	mvnseq	r12, r5, asr #21
   11774:	11a03001 	movne	r3, r1
   11778:	11a02000 	movne	r2, r0
   1177c:	e1904601 	orrs	r4, r0, r1, lsl #12
   11780:	01925603 	orrseq	r5, r2, r3, lsl #12
   11784:	01310003 	teqeq	r1, r3
   11788:	13811702 	orrne	r1, r1, #524288	; 0x80000
   1178c:	e8bd4030 	pop	{r4, r5, lr}
   11790:	e12fff1e 	bx	lr

00011794 <__aeabi_ui2d>:
   11794:	e3300000 	teq	r0, #0
   11798:	03a01000 	moveq	r1, #0
   1179c:	012fff1e 	bxeq	lr
   117a0:	e92d4030 	push	{r4, r5, lr}
   117a4:	e3a04b01 	mov	r4, #1024	; 0x400
   117a8:	e2844032 	add	r4, r4, #50	; 0x32
   117ac:	e3a05000 	mov	r5, #0
   117b0:	e3a01000 	mov	r1, #0
   117b4:	eaffff86 	b	115d4 <__adddf3+0x150>

000117b8 <__aeabi_i2d>:
   117b8:	e3300000 	teq	r0, #0
   117bc:	03a01000 	moveq	r1, #0
   117c0:	012fff1e 	bxeq	lr
   117c4:	e92d4030 	push	{r4, r5, lr}
   117c8:	e3a04b01 	mov	r4, #1024	; 0x400
   117cc:	e2844032 	add	r4, r4, #50	; 0x32
   117d0:	e2105102 	ands	r5, r0, #-2147483648	; 0x80000000
   117d4:	42600000 	rsbmi	r0, r0, #0
   117d8:	e3a01000 	mov	r1, #0
   117dc:	eaffff7c 	b	115d4 <__adddf3+0x150>

000117e0 <__aeabi_f2d>:
   117e0:	e1b02080 	lsls	r2, r0, #1
   117e4:	e1a011c2 	asr	r1, r2, #3
   117e8:	e1a01061 	rrx	r1, r1
   117ec:	e1a00e02 	lsl	r0, r2, #28
   117f0:	121234ff 	andsne	r3, r2, #-16777216	; 0xff000000
   117f4:	133304ff 	teqne	r3, #-16777216	; 0xff000000
   117f8:	1221130e 	eorne	r1, r1, #939524096	; 0x38000000
   117fc:	112fff1e 	bxne	lr
   11800:	e3320000 	teq	r2, #0
   11804:	133304ff 	teqne	r3, #-16777216	; 0xff000000
   11808:	012fff1e 	bxeq	lr
   1180c:	e92d4030 	push	{r4, r5, lr}
   11810:	e3a04d0e 	mov	r4, #896	; 0x380
   11814:	e2015102 	and	r5, r1, #-2147483648	; 0x80000000
   11818:	e3c11102 	bic	r1, r1, #-2147483648	; 0x80000000
   1181c:	eaffff6c 	b	115d4 <__adddf3+0x150>

00011820 <__aeabi_ul2d>:
   11820:	e1902001 	orrs	r2, r0, r1
   11824:	012fff1e 	bxeq	lr
   11828:	e92d4030 	push	{r4, r5, lr}
   1182c:	e3a05000 	mov	r5, #0
   11830:	ea000006 	b	11850 <__aeabi_l2d+0x1c>

00011834 <__aeabi_l2d>:
   11834:	e1902001 	orrs	r2, r0, r1
   11838:	012fff1e 	bxeq	lr
   1183c:	e92d4030 	push	{r4, r5, lr}
   11840:	e2115102 	ands	r5, r1, #-2147483648	; 0x80000000
   11844:	5a000001 	bpl	11850 <__aeabi_l2d+0x1c>
   11848:	e2700000 	rsbs	r0, r0, #0
   1184c:	e2e11000 	rsc	r1, r1, #0
   11850:	e3a04b01 	mov	r4, #1024	; 0x400
   11854:	e2844032 	add	r4, r4, #50	; 0x32
   11858:	e1b0cb21 	lsrs	r12, r1, #22
   1185c:	0affff44 	beq	11574 <__adddf3+0xf0>
   11860:	e3a02003 	mov	r2, #3
   11864:	e1b0c1ac 	lsrs	r12, r12, #3
   11868:	12822003 	addne	r2, r2, #3
   1186c:	e1b0c1ac 	lsrs	r12, r12, #3
   11870:	12822003 	addne	r2, r2, #3
   11874:	e08221ac 	add	r2, r2, r12, lsr #3
   11878:	e2623020 	rsb	r3, r2, #32
   1187c:	e1a0c310 	lsl	r12, r0, r3
   11880:	e1a00230 	lsr	r0, r0, r2
   11884:	e1800311 	orr	r0, r0, r1, lsl r3
   11888:	e1a01231 	lsr	r1, r1, r2
   1188c:	e0844002 	add	r4, r4, r2
   11890:	eaffff37 	b	11574 <__adddf3+0xf0>

00011894 <__aeabi_dmul>:
   11894:	e92d4070 	push	{r4, r5, r6, lr}
   11898:	e3a0c0ff 	mov	r12, #255	; 0xff
   1189c:	e38ccc07 	orr	r12, r12, #1792	; 0x700
   118a0:	e01c4a21 	ands	r4, r12, r1, lsr #20
   118a4:	101c5a23 	andsne	r5, r12, r3, lsr #20
   118a8:	1134000c 	teqne	r4, r12
   118ac:	1135000c 	teqne	r5, r12
   118b0:	0b000075 	bleq	11a8c <__aeabi_dmul+0x1f8>
   118b4:	e0844005 	add	r4, r4, r5
   118b8:	e0216003 	eor	r6, r1, r3
   118bc:	e1c11a8c 	bic	r1, r1, r12, lsl #21
   118c0:	e1c33a8c 	bic	r3, r3, r12, lsl #21
   118c4:	e1905601 	orrs	r5, r0, r1, lsl #12
   118c8:	11925603 	orrsne	r5, r2, r3, lsl #12
   118cc:	e3811601 	orr	r1, r1, #1048576	; 0x100000
   118d0:	e3833601 	orr	r3, r3, #1048576	; 0x100000
   118d4:	0a00001d 	beq	11950 <__aeabi_dmul+0xbc>
   118d8:	e08ec290 	umull	r12, lr, r0, r2
   118dc:	e3a05000 	mov	r5, #0
   118e0:	e0a5e291 	umlal	lr, r5, r1, r2
   118e4:	e2062102 	and	r2, r6, #-2147483648	; 0x80000000
   118e8:	e0a5e390 	umlal	lr, r5, r0, r3
   118ec:	e3a06000 	mov	r6, #0
   118f0:	e0a65391 	umlal	r5, r6, r1, r3
   118f4:	e33c0000 	teq	r12, #0
   118f8:	138ee001 	orrne	lr, lr, #1
   118fc:	e24440ff 	sub	r4, r4, #255	; 0xff
   11900:	e3560c02 	cmp	r6, #512	; 0x200
   11904:	e2c44c03 	sbc	r4, r4, #768	; 0x300
   11908:	2a000002 	bcs	11918 <__aeabi_dmul+0x84>
   1190c:	e1b0e08e 	lsls	lr, lr, #1
   11910:	e0b55005 	adcs	r5, r5, r5
   11914:	e0a66006 	adc	r6, r6, r6
   11918:	e1821586 	orr	r1, r2, r6, lsl #11
   1191c:	e1811aa5 	orr	r1, r1, r5, lsr #21
   11920:	e1a00585 	lsl	r0, r5, #11
   11924:	e1800aae 	orr	r0, r0, lr, lsr #21
   11928:	e1a0e58e 	lsl	lr, lr, #11
   1192c:	e254c0fd 	subs	r12, r4, #253	; 0xfd
   11930:	835c0c07 	cmphi	r12, #1792	; 0x700
   11934:	8a000011 	bhi	11980 <__aeabi_dmul+0xec>
   11938:	e35e0102 	cmp	lr, #-2147483648	; 0x80000000
   1193c:	01b0e0a0 	lsrseq	lr, r0, #1
   11940:	e2b00000 	adcs	r0, r0, #0
   11944:	e0a11a04 	adc	r1, r1, r4, lsl #20
   11948:	e8bd4070 	pop	{r4, r5, r6, lr}
   1194c:	e12fff1e 	bx	lr
   11950:	e2066102 	and	r6, r6, #-2147483648	; 0x80000000
   11954:	e1861001 	orr	r1, r6, r1
   11958:	e1800002 	orr	r0, r0, r2
   1195c:	e0211003 	eor	r1, r1, r3
   11960:	e05440ac 	subs	r4, r4, r12, lsr #1
   11964:	c074500c 	rsbsgt	r5, r4, r12
   11968:	c1811a04 	orrgt	r1, r1, r4, lsl #20
   1196c:	c8bd4070 	popgt	{r4, r5, r6, lr}
   11970:	c12fff1e 	bxgt	lr
   11974:	e3811601 	orr	r1, r1, #1048576	; 0x100000
   11978:	e3a0e000 	mov	lr, #0
   1197c:	e2544001 	subs	r4, r4, #1
   11980:	ca00005d 	bgt	11afc <__aeabi_dmul+0x268>
   11984:	e3740036 	cmn	r4, #54	; 0x36
   11988:	d3a00000 	movle	r0, #0
   1198c:	d2011102 	andle	r1, r1, #-2147483648	; 0x80000000
   11990:	d8bd4070 	pople	{r4, r5, r6, lr}
   11994:	d12fff1e 	bxle	lr
   11998:	e2644000 	rsb	r4, r4, #0
   1199c:	e2544020 	subs	r4, r4, #32
   119a0:	aa00001a 	bge	11a10 <__aeabi_dmul+0x17c>
   119a4:	e294400c 	adds	r4, r4, #12
   119a8:	ca00000c 	bgt	119e0 <__aeabi_dmul+0x14c>
   119ac:	e2844014 	add	r4, r4, #20
   119b0:	e2645020 	rsb	r5, r4, #32
   119b4:	e1a03510 	lsl	r3, r0, r5
   119b8:	e1a00430 	lsr	r0, r0, r4
   119bc:	e1800511 	orr	r0, r0, r1, lsl r5
   119c0:	e2012102 	and	r2, r1, #-2147483648	; 0x80000000
   119c4:	e3c11102 	bic	r1, r1, #-2147483648	; 0x80000000
   119c8:	e0900fa3 	adds	r0, r0, r3, lsr #31
   119cc:	e0a21431 	adc	r1, r2, r1, lsr r4
   119d0:	e19ee083 	orrs	lr, lr, r3, lsl #1
   119d4:	01c00fa3 	biceq	r0, r0, r3, lsr #31
   119d8:	e8bd4070 	pop	{r4, r5, r6, lr}
   119dc:	e12fff1e 	bx	lr
   119e0:	e264400c 	rsb	r4, r4, #12
   119e4:	e2645020 	rsb	r5, r4, #32
   119e8:	e1a03410 	lsl	r3, r0, r4
   119ec:	e1a00530 	lsr	r0, r0, r5
   119f0:	e1800411 	orr	r0, r0, r1, lsl r4
   119f4:	e2011102 	and	r1, r1, #-2147483648	; 0x80000000
   119f8:	e0900fa3 	adds	r0, r0, r3, lsr #31
   119fc:	e2a11000 	adc	r1, r1, #0
   11a00:	e19ee083 	orrs	lr, lr, r3, lsl #1
   11a04:	01c00fa3 	biceq	r0, r0, r3, lsr #31
   11a08:	e8bd4070 	pop	{r4, r5, r6, lr}
   11a0c:	e12fff1e 	bx	lr
   11a10:	e2645020 	rsb	r5, r4, #32
   11a14:	e18ee510 	orr	lr, lr, r0, lsl r5
   11a18:	e1a03430 	lsr	r3, r0, r4
   11a1c:	e1833511 	orr	r3, r3, r1, lsl r5
   11a20:	e1a00431 	lsr	r0, r1, r4
   11a24:	e2011102 	and	r1, r1, #-2147483648	; 0x80000000
   11a28:	e1c00431 	bic	r0, r0, r1, lsr r4
   11a2c:	e0800fa3 	add	r0, r0, r3, lsr #31
   11a30:	e19ee083 	orrs	lr, lr, r3, lsl #1
   11a34:	01c00fa3 	biceq	r0, r0, r3, lsr #31
   11a38:	e8bd4070 	pop	{r4, r5, r6, lr}
   11a3c:	e12fff1e 	bx	lr
   11a40:	e3340000 	teq	r4, #0
   11a44:	1a000008 	bne	11a6c <__aeabi_dmul+0x1d8>
   11a48:	e2016102 	and	r6, r1, #-2147483648	; 0x80000000
   11a4c:	e1b00080 	lsls	r0, r0, #1
   11a50:	e0a11001 	adc	r1, r1, r1
   11a54:	e3110601 	tst	r1, #1048576	; 0x100000
   11a58:	02444001 	subeq	r4, r4, #1
   11a5c:	0afffffa 	beq	11a4c <__aeabi_dmul+0x1b8>
   11a60:	e1811006 	orr	r1, r1, r6
   11a64:	e3350000 	teq	r5, #0
   11a68:	112fff1e 	bxne	lr
   11a6c:	e2036102 	and	r6, r3, #-2147483648	; 0x80000000
   11a70:	e1b02082 	lsls	r2, r2, #1
   11a74:	e0a33003 	adc	r3, r3, r3
   11a78:	e3130601 	tst	r3, #1048576	; 0x100000
   11a7c:	02455001 	subeq	r5, r5, #1
   11a80:	0afffffa 	beq	11a70 <__aeabi_dmul+0x1dc>
   11a84:	e1833006 	orr	r3, r3, r6
   11a88:	e12fff1e 	bx	lr
   11a8c:	e134000c 	teq	r4, r12
   11a90:	e00c5a23 	and	r5, r12, r3, lsr #20
   11a94:	1135000c 	teqne	r5, r12
   11a98:	0a000007 	beq	11abc <__aeabi_dmul+0x228>
   11a9c:	e1906081 	orrs	r6, r0, r1, lsl #1
   11aa0:	11926083 	orrsne	r6, r2, r3, lsl #1
   11aa4:	1affffe5 	bne	11a40 <__aeabi_dmul+0x1ac>
   11aa8:	e0211003 	eor	r1, r1, r3
   11aac:	e2011102 	and	r1, r1, #-2147483648	; 0x80000000
   11ab0:	e3a00000 	mov	r0, #0
   11ab4:	e8bd4070 	pop	{r4, r5, r6, lr}
   11ab8:	e12fff1e 	bx	lr
   11abc:	e1906081 	orrs	r6, r0, r1, lsl #1
   11ac0:	01a00002 	moveq	r0, r2
   11ac4:	01a01003 	moveq	r1, r3
   11ac8:	11926083 	orrsne	r6, r2, r3, lsl #1
   11acc:	0a000010 	beq	11b14 <__aeabi_dmul+0x280>
   11ad0:	e134000c 	teq	r4, r12
   11ad4:	1a000001 	bne	11ae0 <__aeabi_dmul+0x24c>
   11ad8:	e1906601 	orrs	r6, r0, r1, lsl #12
   11adc:	1a00000c 	bne	11b14 <__aeabi_dmul+0x280>
   11ae0:	e135000c 	teq	r5, r12
   11ae4:	1a000003 	bne	11af8 <__aeabi_dmul+0x264>
   11ae8:	e1926603 	orrs	r6, r2, r3, lsl #12
   11aec:	11a00002 	movne	r0, r2
   11af0:	11a01003 	movne	r1, r3
   11af4:	1a000006 	bne	11b14 <__aeabi_dmul+0x280>
   11af8:	e0211003 	eor	r1, r1, r3
   11afc:	e2011102 	and	r1, r1, #-2147483648	; 0x80000000
   11b00:	e381147f 	orr	r1, r1, #2130706432	; 0x7f000000
   11b04:	e381160f 	orr	r1, r1, #15728640	; 0xf00000
   11b08:	e3a00000 	mov	r0, #0
   11b0c:	e8bd4070 	pop	{r4, r5, r6, lr}
   11b10:	e12fff1e 	bx	lr
   11b14:	e381147f 	orr	r1, r1, #2130706432	; 0x7f000000
   11b18:	e381173e 	orr	r1, r1, #16252928	; 0xf80000
   11b1c:	e8bd4070 	pop	{r4, r5, r6, lr}
   11b20:	e12fff1e 	bx	lr

00011b24 <__aeabi_ddiv>:
   11b24:	e92d4070 	push	{r4, r5, r6, lr}
   11b28:	e3a0c0ff 	mov	r12, #255	; 0xff
   11b2c:	e38ccc07 	orr	r12, r12, #1792	; 0x700
   11b30:	e01c4a21 	ands	r4, r12, r1, lsr #20
   11b34:	101c5a23 	andsne	r5, r12, r3, lsr #20
   11b38:	1134000c 	teqne	r4, r12
   11b3c:	1135000c 	teqne	r5, r12
   11b40:	0b00005e 	bleq	11cc0 <__aeabi_ddiv+0x19c>
   11b44:	e0444005 	sub	r4, r4, r5
   11b48:	e021e003 	eor	lr, r1, r3
   11b4c:	e1925603 	orrs	r5, r2, r3, lsl #12
   11b50:	e1a01601 	lsl	r1, r1, #12
   11b54:	0a00004c 	beq	11c8c <__aeabi_ddiv+0x168>
   11b58:	e1a03603 	lsl	r3, r3, #12
   11b5c:	e3a05201 	mov	r5, #268435456	; 0x10000000
   11b60:	e1853223 	orr	r3, r5, r3, lsr #4
   11b64:	e1833c22 	orr	r3, r3, r2, lsr #24
   11b68:	e1a02402 	lsl	r2, r2, #8
   11b6c:	e1855221 	orr	r5, r5, r1, lsr #4
   11b70:	e1855c20 	orr	r5, r5, r0, lsr #24
   11b74:	e1a06400 	lsl	r6, r0, #8
   11b78:	e20e1102 	and	r1, lr, #-2147483648	; 0x80000000
   11b7c:	e1550003 	cmp	r5, r3
   11b80:	01560002 	cmpeq	r6, r2
   11b84:	e2a440fd 	adc	r4, r4, #253	; 0xfd
   11b88:	e2844c03 	add	r4, r4, #768	; 0x300
   11b8c:	2a000001 	bcs	11b98 <__aeabi_ddiv+0x74>
   11b90:	e1b030a3 	lsrs	r3, r3, #1
   11b94:	e1a02062 	rrx	r2, r2
   11b98:	e0566002 	subs	r6, r6, r2
   11b9c:	e0c55003 	sbc	r5, r5, r3
   11ba0:	e1b030a3 	lsrs	r3, r3, #1
   11ba4:	e1a02062 	rrx	r2, r2
   11ba8:	e3a00601 	mov	r0, #1048576	; 0x100000
   11bac:	e3a0c702 	mov	r12, #524288	; 0x80000
   11bb0:	e056e002 	subs	lr, r6, r2
   11bb4:	e0d5e003 	sbcs	lr, r5, r3
   11bb8:	20466002 	subcs	r6, r6, r2
   11bbc:	21a0500e 	movcs	r5, lr
   11bc0:	2180000c 	orrcs	r0, r0, r12
   11bc4:	e1b030a3 	lsrs	r3, r3, #1
   11bc8:	e1a02062 	rrx	r2, r2
   11bcc:	e056e002 	subs	lr, r6, r2
   11bd0:	e0d5e003 	sbcs	lr, r5, r3
   11bd4:	20466002 	subcs	r6, r6, r2
   11bd8:	21a0500e 	movcs	r5, lr
   11bdc:	218000ac 	orrcs	r0, r0, r12, lsr #1
   11be0:	e1b030a3 	lsrs	r3, r3, #1
   11be4:	e1a02062 	rrx	r2, r2
   11be8:	e056e002 	subs	lr, r6, r2
   11bec:	e0d5e003 	sbcs	lr, r5, r3
   11bf0:	20466002 	subcs	r6, r6, r2
   11bf4:	21a0500e 	movcs	r5, lr
   11bf8:	2180012c 	orrcs	r0, r0, r12, lsr #2
   11bfc:	e1b030a3 	lsrs	r3, r3, #1
   11c00:	e1a02062 	rrx	r2, r2
   11c04:	e056e002 	subs	lr, r6, r2
   11c08:	e0d5e003 	sbcs	lr, r5, r3
   11c0c:	20466002 	subcs	r6, r6, r2
   11c10:	21a0500e 	movcs	r5, lr
   11c14:	218001ac 	orrcs	r0, r0, r12, lsr #3
   11c18:	e195e006 	orrs	lr, r5, r6
   11c1c:	0a00000d 	beq	11c58 <__aeabi_ddiv+0x134>
   11c20:	e1a05205 	lsl	r5, r5, #4
   11c24:	e1855e26 	orr	r5, r5, r6, lsr #28
   11c28:	e1a06206 	lsl	r6, r6, #4
   11c2c:	e1a03183 	lsl	r3, r3, #3
   11c30:	e1833ea2 	orr	r3, r3, r2, lsr #29
   11c34:	e1a02182 	lsl	r2, r2, #3
   11c38:	e1b0c22c 	lsrs	r12, r12, #4
   11c3c:	1affffdb 	bne	11bb0 <__aeabi_ddiv+0x8c>
   11c40:	e3110601 	tst	r1, #1048576	; 0x100000
   11c44:	1a000006 	bne	11c64 <__aeabi_ddiv+0x140>
   11c48:	e1811000 	orr	r1, r1, r0
   11c4c:	e3a00000 	mov	r0, #0
   11c50:	e3a0c102 	mov	r12, #-2147483648	; 0x80000000
   11c54:	eaffffd5 	b	11bb0 <__aeabi_ddiv+0x8c>
   11c58:	e3110601 	tst	r1, #1048576	; 0x100000
   11c5c:	01811000 	orreq	r1, r1, r0
   11c60:	03a00000 	moveq	r0, #0
   11c64:	e254c0fd 	subs	r12, r4, #253	; 0xfd
   11c68:	835c0c07 	cmphi	r12, #1792	; 0x700
   11c6c:	8affff43 	bhi	11980 <__aeabi_dmul+0xec>
   11c70:	e055c003 	subs	r12, r5, r3
   11c74:	0056c002 	subseq	r12, r6, r2
   11c78:	01b0c0a0 	lsrseq	r12, r0, #1
   11c7c:	e2b00000 	adcs	r0, r0, #0
   11c80:	e0a11a04 	adc	r1, r1, r4, lsl #20
   11c84:	e8bd4070 	pop	{r4, r5, r6, lr}
   11c88:	e12fff1e 	bx	lr
   11c8c:	e20ee102 	and	lr, lr, #-2147483648	; 0x80000000
   11c90:	e18e1621 	orr	r1, lr, r1, lsr #12
   11c94:	e09440ac 	adds	r4, r4, r12, lsr #1
   11c98:	c074500c 	rsbsgt	r5, r4, r12
   11c9c:	c1811a04 	orrgt	r1, r1, r4, lsl #20
   11ca0:	c8bd4070 	popgt	{r4, r5, r6, lr}
   11ca4:	c12fff1e 	bxgt	lr
   11ca8:	e3811601 	orr	r1, r1, #1048576	; 0x100000
   11cac:	e3a0e000 	mov	lr, #0
   11cb0:	e2544001 	subs	r4, r4, #1
   11cb4:	eaffff31 	b	11980 <__aeabi_dmul+0xec>
   11cb8:	e185e006 	orr	lr, r5, r6
   11cbc:	eaffff2f 	b	11980 <__aeabi_dmul+0xec>
   11cc0:	e00c5a23 	and	r5, r12, r3, lsr #20
   11cc4:	e134000c 	teq	r4, r12
   11cc8:	0135000c 	teqeq	r5, r12
   11ccc:	0affff90 	beq	11b14 <__aeabi_dmul+0x280>
   11cd0:	e134000c 	teq	r4, r12
   11cd4:	1a000006 	bne	11cf4 <__aeabi_ddiv+0x1d0>
   11cd8:	e1904601 	orrs	r4, r0, r1, lsl #12
   11cdc:	1affff8c 	bne	11b14 <__aeabi_dmul+0x280>
   11ce0:	e135000c 	teq	r5, r12
   11ce4:	1affff83 	bne	11af8 <__aeabi_dmul+0x264>
   11ce8:	e1a00002 	mov	r0, r2
   11cec:	e1a01003 	mov	r1, r3
   11cf0:	eaffff87 	b	11b14 <__aeabi_dmul+0x280>
   11cf4:	e135000c 	teq	r5, r12
   11cf8:	1a000004 	bne	11d10 <__aeabi_ddiv+0x1ec>
   11cfc:	e1925603 	orrs	r5, r2, r3, lsl #12
   11d00:	0affff68 	beq	11aa8 <__aeabi_dmul+0x214>
   11d04:	e1a00002 	mov	r0, r2
   11d08:	e1a01003 	mov	r1, r3
   11d0c:	eaffff80 	b	11b14 <__aeabi_dmul+0x280>
   11d10:	e1906081 	orrs	r6, r0, r1, lsl #1
   11d14:	11926083 	orrsne	r6, r2, r3, lsl #1
   11d18:	1affff48 	bne	11a40 <__aeabi_dmul+0x1ac>
   11d1c:	e1904081 	orrs	r4, r0, r1, lsl #1
   11d20:	1affff74 	bne	11af8 <__aeabi_dmul+0x264>
   11d24:	e1925083 	orrs	r5, r2, r3, lsl #1
   11d28:	1affff5e 	bne	11aa8 <__aeabi_dmul+0x214>
   11d2c:	eaffff78 	b	11b14 <__aeabi_dmul+0x280>

00011d30 <__gedf2>:
   11d30:	e3e0c000 	mvn	r12, #0
   11d34:	ea000002 	b	11d44 <__cmpdf2+0x4>

00011d38 <__ledf2>:
   11d38:	e3a0c001 	mov	r12, #1
   11d3c:	ea000000 	b	11d44 <__cmpdf2+0x4>

00011d40 <__cmpdf2>:
   11d40:	e3a0c001 	mov	r12, #1
   11d44:	e52dc004 	push	{r12}		; (str r12, [sp, #-4]!)
   11d48:	e1a0c081 	lsl	r12, r1, #1
   11d4c:	e1f0cacc 	mvns	r12, r12, asr #21
   11d50:	e1a0c083 	lsl	r12, r3, #1
   11d54:	11f0cacc 	mvnsne	r12, r12, asr #21
   11d58:	0a00000e 	beq	11d98 <__cmpdf2+0x58>
   11d5c:	e28dd004 	add	sp, sp, #4
   11d60:	e190c081 	orrs	r12, r0, r1, lsl #1
   11d64:	0192c083 	orrseq	r12, r2, r3, lsl #1
   11d68:	11310003 	teqne	r1, r3
   11d6c:	01300002 	teqeq	r0, r2
   11d70:	03a00000 	moveq	r0, #0
   11d74:	012fff1e 	bxeq	lr
   11d78:	e3700000 	cmn	r0, #0
   11d7c:	e1310003 	teq	r1, r3
   11d80:	51510003 	cmppl	r1, r3
   11d84:	01500002 	cmpeq	r0, r2
   11d88:	21a00fc3 	asrcs	r0, r3, #31
   11d8c:	31e00fc3 	mvncc	r0, r3, asr #31
   11d90:	e3800001 	orr	r0, r0, #1
   11d94:	e12fff1e 	bx	lr
   11d98:	e1a0c081 	lsl	r12, r1, #1
   11d9c:	e1f0cacc 	mvns	r12, r12, asr #21
   11da0:	1a000001 	bne	11dac <__cmpdf2+0x6c>
   11da4:	e190c601 	orrs	r12, r0, r1, lsl #12
   11da8:	1a000004 	bne	11dc0 <__cmpdf2+0x80>
   11dac:	e1a0c083 	lsl	r12, r3, #1
   11db0:	e1f0cacc 	mvns	r12, r12, asr #21
   11db4:	1affffe8 	bne	11d5c <__cmpdf2+0x1c>
   11db8:	e192c603 	orrs	r12, r2, r3, lsl #12
   11dbc:	0affffe6 	beq	11d5c <__cmpdf2+0x1c>
   11dc0:	e49d0004 	pop	{r0}		; (ldr r0, [sp], #4)
   11dc4:	e12fff1e 	bx	lr

00011dc8 <__aeabi_cdrcmple>:
   11dc8:	e1a0c000 	mov	r12, r0
   11dcc:	e1a00002 	mov	r0, r2
   11dd0:	e1a0200c 	mov	r2, r12
   11dd4:	e1a0c001 	mov	r12, r1
   11dd8:	e1a01003 	mov	r1, r3
   11ddc:	e1a0300c 	mov	r3, r12
   11de0:	eaffffff 	b	11de4 <__aeabi_cdcmpeq>

00011de4 <__aeabi_cdcmpeq>:
   11de4:	e92d4001 	push	{r0, lr}
   11de8:	ebffffd4 	bl	11d40 <__cmpdf2>
   11dec:	e3500000 	cmp	r0, #0
   11df0:	43700000 	cmnmi	r0, #0
   11df4:	e8bd4001 	pop	{r0, lr}
   11df8:	e12fff1e 	bx	lr

00011dfc <__aeabi_dcmpeq>:
   11dfc:	e52de008 	str	lr, [sp, #-8]!
   11e00:	ebfffff7 	bl	11de4 <__aeabi_cdcmpeq>
   11e04:	03a00001 	moveq	r0, #1
   11e08:	13a00000 	movne	r0, #0
   11e0c:	e49de008 	ldr	lr, [sp], #8
   11e10:	e12fff1e 	bx	lr

00011e14 <__aeabi_dcmplt>:
   11e14:	e52de008 	str	lr, [sp, #-8]!
   11e18:	ebfffff1 	bl	11de4 <__aeabi_cdcmpeq>
   11e1c:	33a00001 	movcc	r0, #1
   11e20:	23a00000 	movcs	r0, #0
   11e24:	e49de008 	ldr	lr, [sp], #8
   11e28:	e12fff1e 	bx	lr

00011e2c <__aeabi_dcmple>:
   11e2c:	e52de008 	str	lr, [sp, #-8]!
   11e30:	ebffffeb 	bl	11de4 <__aeabi_cdcmpeq>
   11e34:	93a00001 	movls	r0, #1
   11e38:	83a00000 	movhi	r0, #0
   11e3c:	e49de008 	ldr	lr, [sp], #8
   11e40:	e12fff1e 	bx	lr

00011e44 <__aeabi_dcmpge>:
   11e44:	e52de008 	str	lr, [sp, #-8]!
   11e48:	ebffffde 	bl	11dc8 <__aeabi_cdrcmple>
   11e4c:	93a00001 	movls	r0, #1
   11e50:	83a00000 	movhi	r0, #0
   11e54:	e49de008 	ldr	lr, [sp], #8
   11e58:	e12fff1e 	bx	lr

00011e5c <__aeabi_dcmpgt>:
   11e5c:	e52de008 	str	lr, [sp, #-8]!
   11e60:	ebffffd8 	bl	11dc8 <__aeabi_cdrcmple>
   11e64:	33a00001 	movcc	r0, #1
   11e68:	23a00000 	movcs	r0, #0
   11e6c:	e49de008 	ldr	lr, [sp], #8
   11e70:	e12fff1e 	bx	lr

00011e74 <__aeabi_d2iz>:
   11e74:	e1a02081 	lsl	r2, r1, #1
   11e78:	e2922602 	adds	r2, r2, #2097152	; 0x200000
   11e7c:	2a00000c 	bcs	11eb4 <__aeabi_d2iz+0x40>
   11e80:	5a000009 	bpl	11eac <__aeabi_d2iz+0x38>
   11e84:	e3e03e3e 	mvn	r3, #992	; 0x3e0
   11e88:	e0532ac2 	subs	r2, r3, r2, asr #21
   11e8c:	9a00000a 	bls	11ebc <__aeabi_d2iz+0x48>
   11e90:	e1a03581 	lsl	r3, r1, #11
   11e94:	e3833102 	orr	r3, r3, #-2147483648	; 0x80000000
   11e98:	e1833aa0 	orr	r3, r3, r0, lsr #21
   11e9c:	e3110102 	tst	r1, #-2147483648	; 0x80000000
   11ea0:	e1a00233 	lsr	r0, r3, r2
   11ea4:	12600000 	rsbne	r0, r0, #0
   11ea8:	e12fff1e 	bx	lr
   11eac:	e3a00000 	mov	r0, #0
   11eb0:	e12fff1e 	bx	lr
   11eb4:	e1900601 	orrs	r0, r0, r1, lsl #12
   11eb8:	1a000002 	bne	11ec8 <__aeabi_d2iz+0x54>
   11ebc:	e2110102 	ands	r0, r1, #-2147483648	; 0x80000000
   11ec0:	03e00102 	mvneq	r0, #-2147483648	; 0x80000000
   11ec4:	e12fff1e 	bx	lr
   11ec8:	e3a00000 	mov	r0, #0
   11ecc:	e12fff1e 	bx	lr

00011ed0 <__aeabi_d2uiz>:
   11ed0:	e1b02081 	lsls	r2, r1, #1
   11ed4:	2a00000a 	bcs	11f04 <__aeabi_d2uiz+0x34>
   11ed8:	e2922602 	adds	r2, r2, #2097152	; 0x200000
   11edc:	2a00000a 	bcs	11f0c <__aeabi_d2uiz+0x3c>
   11ee0:	5a000007 	bpl	11f04 <__aeabi_d2uiz+0x34>
   11ee4:	e3e03e3e 	mvn	r3, #992	; 0x3e0
   11ee8:	e0532ac2 	subs	r2, r3, r2, asr #21
   11eec:	4a000008 	bmi	11f14 <__aeabi_d2uiz+0x44>
   11ef0:	e1a03581 	lsl	r3, r1, #11
   11ef4:	e3833102 	orr	r3, r3, #-2147483648	; 0x80000000
   11ef8:	e1833aa0 	orr	r3, r3, r0, lsr #21
   11efc:	e1a00233 	lsr	r0, r3, r2
   11f00:	e12fff1e 	bx	lr
   11f04:	e3a00000 	mov	r0, #0
   11f08:	e12fff1e 	bx	lr
   11f0c:	e1900601 	orrs	r0, r0, r1, lsl #12
   11f10:	1a000001 	bne	11f1c <__aeabi_d2uiz+0x4c>
   11f14:	e3e00000 	mvn	r0, #0
   11f18:	e12fff1e 	bx	lr
   11f1c:	e3a00000 	mov	r0, #0
   11f20:	e12fff1e 	bx	lr

00011f24 <__aeabi_d2f>:
   11f24:	e1a02081 	lsl	r2, r1, #1
   11f28:	e2523207 	subs	r3, r2, #1879048192	; 0x70000000
   11f2c:	2253c602 	subscs	r12, r3, #2097152	; 0x200000
   11f30:	227cc57f 	rsbscs	r12, r12, #532676608	; 0x1fc00000
   11f34:	9a000006 	bls	11f54 <__aeabi_d2f+0x30>
   11f38:	e201c102 	and	r12, r1, #-2147483648	; 0x80000000
   11f3c:	e1a02180 	lsl	r2, r0, #3
   11f40:	e18c0ea0 	orr	r0, r12, r0, lsr #29
   11f44:	e3520102 	cmp	r2, #-2147483648	; 0x80000000
   11f48:	e0a00103 	adc	r0, r0, r3, lsl #2
   11f4c:	03c00001 	biceq	r0, r0, #1
   11f50:	e12fff1e 	bx	lr
   11f54:	e3110101 	tst	r1, #1073741824	; 0x40000000
   11f58:	1a00000f 	bne	11f9c <__aeabi_d2f+0x78>
   11f5c:	e293262e 	adds	r2, r3, #48234496	; 0x2e00000
   11f60:	b2010102 	andlt	r0, r1, #-2147483648	; 0x80000000
   11f64:	b12fff1e 	bxlt	lr
   11f68:	e3811601 	orr	r1, r1, #1048576	; 0x100000
   11f6c:	e1a02aa2 	lsr	r2, r2, #21
   11f70:	e2622018 	rsb	r2, r2, #24
   11f74:	e262c020 	rsb	r12, r2, #32
   11f78:	e1b03c10 	lsls	r3, r0, r12
   11f7c:	e1a00230 	lsr	r0, r0, r2
   11f80:	13800001 	orrne	r0, r0, #1
   11f84:	e1a03581 	lsl	r3, r1, #11
   11f88:	e1a035a3 	lsr	r3, r3, #11
   11f8c:	e1800c13 	orr	r0, r0, r3, lsl r12
   11f90:	e1a03233 	lsr	r3, r3, r2
   11f94:	e1a03083 	lsl	r3, r3, #1
   11f98:	eaffffe6 	b	11f38 <__aeabi_d2f+0x14>
   11f9c:	e1f03ac2 	mvns	r3, r2, asr #21
   11fa0:	1a000003 	bne	11fb4 <__aeabi_d2f+0x90>
   11fa4:	e1903601 	orrs	r3, r0, r1, lsl #12
   11fa8:	13a0047f 	movne	r0, #2130706432	; 0x7f000000
   11fac:	13800503 	orrne	r0, r0, #12582912	; 0xc00000
   11fb0:	112fff1e 	bxne	lr
   11fb4:	e2010102 	and	r0, r1, #-2147483648	; 0x80000000
   11fb8:	e380047f 	orr	r0, r0, #2130706432	; 0x7f000000
   11fbc:	e3800502 	orr	r0, r0, #8388608	; 0x800000
   11fc0:	e12fff1e 	bx	lr

00011fc4 <__gesf2>:
   11fc4:	e3e0c000 	mvn	r12, #0
   11fc8:	ea000002 	b	11fd8 <__cmpsf2+0x4>

00011fcc <__lesf2>:
   11fcc:	e3a0c001 	mov	r12, #1
   11fd0:	ea000000 	b	11fd8 <__cmpsf2+0x4>

00011fd4 <__cmpsf2>:
   11fd4:	e3a0c001 	mov	r12, #1
   11fd8:	e52dc004 	push	{r12}		; (str r12, [sp, #-4]!)
   11fdc:	e1a02080 	lsl	r2, r0, #1
   11fe0:	e1a03081 	lsl	r3, r1, #1
   11fe4:	e1f0cc42 	mvns	r12, r2, asr #24
   11fe8:	11f0cc43 	mvnsne	r12, r3, asr #24
   11fec:	0a000007 	beq	12010 <__cmpsf2+0x3c>
   11ff0:	e28dd004 	add	sp, sp, #4
   11ff4:	e192c0a3 	orrs	r12, r2, r3, lsr #1
   11ff8:	11300001 	teqne	r0, r1
   11ffc:	50520003 	subspl	r0, r2, r3
   12000:	81a00fc1 	asrhi	r0, r1, #31
   12004:	31e00fc1 	mvncc	r0, r1, asr #31
   12008:	13800001 	orrne	r0, r0, #1
   1200c:	e12fff1e 	bx	lr
   12010:	e1f0cc42 	mvns	r12, r2, asr #24
   12014:	1a000001 	bne	12020 <__cmpsf2+0x4c>
   12018:	e1b0c480 	lsls	r12, r0, #9
   1201c:	1a000003 	bne	12030 <__cmpsf2+0x5c>
   12020:	e1f0cc43 	mvns	r12, r3, asr #24
   12024:	1afffff1 	bne	11ff0 <__cmpsf2+0x1c>
   12028:	e1b0c481 	lsls	r12, r1, #9
   1202c:	0affffef 	beq	11ff0 <__cmpsf2+0x1c>
   12030:	e49d0004 	pop	{r0}		; (ldr r0, [sp], #4)
   12034:	e12fff1e 	bx	lr

00012038 <__aeabi_cfrcmple>:
   12038:	e1a0c000 	mov	r12, r0
   1203c:	e1a00001 	mov	r0, r1
   12040:	e1a0100c 	mov	r1, r12
   12044:	eaffffff 	b	12048 <__aeabi_cfcmpeq>

00012048 <__aeabi_cfcmpeq>:
   12048:	e92d400f 	push	{r0, r1, r2, r3, lr}
   1204c:	ebffffe0 	bl	11fd4 <__cmpsf2>
   12050:	e3500000 	cmp	r0, #0
   12054:	43700000 	cmnmi	r0, #0
   12058:	e8bd400f 	pop	{r0, r1, r2, r3, lr}
   1205c:	e12fff1e 	bx	lr

00012060 <__aeabi_fcmpeq>:
   12060:	e52de008 	str	lr, [sp, #-8]!
   12064:	ebfffff7 	bl	12048 <__aeabi_cfcmpeq>
   12068:	03a00001 	moveq	r0, #1
   1206c:	13a00000 	movne	r0, #0
   12070:	e49de008 	ldr	lr, [sp], #8
   12074:	e12fff1e 	bx	lr

00012078 <__aeabi_fcmplt>:
   12078:	e52de008 	str	lr, [sp, #-8]!
   1207c:	ebfffff1 	bl	12048 <__aeabi_cfcmpeq>
   12080:	33a00001 	movcc	r0, #1
   12084:	23a00000 	movcs	r0, #0
   12088:	e49de008 	ldr	lr, [sp], #8
   1208c:	e12fff1e 	bx	lr

00012090 <__aeabi_fcmple>:
   12090:	e52de008 	str	lr, [sp, #-8]!
   12094:	ebffffeb 	bl	12048 <__aeabi_cfcmpeq>
   12098:	93a00001 	movls	r0, #1
   1209c:	83a00000 	movhi	r0, #0
   120a0:	e49de008 	ldr	lr, [sp], #8
   120a4:	e12fff1e 	bx	lr

000120a8 <__aeabi_fcmpge>:
   120a8:	e52de008 	str	lr, [sp, #-8]!
   120ac:	ebffffe1 	bl	12038 <__aeabi_cfrcmple>
   120b0:	93a00001 	movls	r0, #1
   120b4:	83a00000 	movhi	r0, #0
   120b8:	e49de008 	ldr	lr, [sp], #8
   120bc:	e12fff1e 	bx	lr

000120c0 <__aeabi_fcmpgt>:
   120c0:	e52de008 	str	lr, [sp, #-8]!
   120c4:	ebffffdb 	bl	12038 <__aeabi_cfrcmple>
   120c8:	33a00001 	movcc	r0, #1
   120cc:	23a00000 	movcs	r0, #0
   120d0:	e49de008 	ldr	lr, [sp], #8
   120d4:	e12fff1e 	bx	lr

000120d8 <__aeabi_uldivmod>:
   120d8:	e3530000 	cmp	r3, #0
   120dc:	03520000 	cmpeq	r2, #0
   120e0:	1a000004 	bne	120f8 <__aeabi_uldivmod+0x20>
   120e4:	e3510000 	cmp	r1, #0
   120e8:	03500000 	cmpeq	r0, #0
   120ec:	13e01000 	mvnne	r1, #0
   120f0:	13e00000 	mvnne	r0, #0
   120f4:	eafffcde 	b	11474 <__aeabi_idiv0>
   120f8:	e24dd008 	sub	sp, sp, #8
   120fc:	e92d6000 	push	{sp, lr}
   12100:	eb000014 	bl	12158 <__gnu_uldivmod_helper>
   12104:	e59de004 	ldr	lr, [sp, #4]
   12108:	e28dd008 	add	sp, sp, #8
   1210c:	e8bd000c 	pop	{r2, r3}
   12110:	e12fff1e 	bx	lr

00012114 <__gnu_ldivmod_helper>:
   12114:	e92d47f0 	push	{r4, r5, r6, r7, r8, r9, r10, lr}
   12118:	e59d9020 	ldr	r9, [sp, #32]
   1211c:	e1a08002 	mov	r8, r2
   12120:	e1a0a003 	mov	r10, r3
   12124:	e1a06000 	mov	r6, r0
   12128:	e1a07001 	mov	r7, r1
   1212c:	eb000019 	bl	12198 <__divdi3>
   12130:	e0030198 	mul	r3, r8, r1
   12134:	e1a02000 	mov	r2, r0
   12138:	e0854098 	umull	r4, r5, r8, r0
   1213c:	e022329a 	mla	r2, r10, r2, r3
   12140:	e0825005 	add	r5, r2, r5
   12144:	e0564004 	subs	r4, r6, r4
   12148:	e0c75005 	sbc	r5, r7, r5
   1214c:	e8890030 	stm	r9, {r4, r5}
   12150:	e8bd47f0 	pop	{r4, r5, r6, r7, r8, r9, r10, lr}
   12154:	e12fff1e 	bx	lr

00012158 <__gnu_uldivmod_helper>:
   12158:	e92d43f8 	push	{r3, r4, r5, r6, r7, r8, r9, lr}
   1215c:	e59d9020 	ldr	r9, [sp, #32]
   12160:	e1a06000 	mov	r6, r0
   12164:	e1a07001 	mov	r7, r1
   12168:	e1a08002 	mov	r8, r2
   1216c:	e1a04003 	mov	r4, r3
   12170:	eb00013c 	bl	12668 <__udivdi3>
   12174:	e0030490 	mul	r3, r0, r4
   12178:	e0854890 	umull	r4, r5, r0, r8
   1217c:	e0283891 	mla	r8, r1, r8, r3
   12180:	e0885005 	add	r5, r8, r5
   12184:	e0564004 	subs	r4, r6, r4
   12188:	e0c75005 	sbc	r5, r7, r5
   1218c:	e8890030 	stm	r9, {r4, r5}
   12190:	e8bd43f8 	pop	{r3, r4, r5, r6, r7, r8, r9, lr}
   12194:	e12fff1e 	bx	lr

00012198 <__divdi3>:
   12198:	e92d4ff0 	push	{r4, r5, r6, r7, r8, r9, r10, r11, lr}
   1219c:	e2704000 	rsbs	r4, r0, #0
   121a0:	e2e15000 	rsc	r5, r1, #0
   121a4:	e3510000 	cmp	r1, #0
   121a8:	e3e06000 	mvn	r6, #0
   121ac:	a1a04000 	movge	r4, r0
   121b0:	a1a05001 	movge	r5, r1
   121b4:	a3a06000 	movge	r6, #0
   121b8:	e3530000 	cmp	r3, #0
   121bc:	e24dd014 	sub	sp, sp, #20
   121c0:	ba000098 	blt	12428 <__divdi3+0x290>
   121c4:	e3530000 	cmp	r3, #0
   121c8:	e1a0c004 	mov	r12, r4
   121cc:	e1a0b005 	mov	r11, r5
   121d0:	e1a0a002 	mov	r10, r2
   121d4:	e1a01003 	mov	r1, r3
   121d8:	e1a08002 	mov	r8, r2
   121dc:	e1a07004 	mov	r7, r4
   121e0:	e1a09005 	mov	r9, r5
   121e4:	1a000040 	bne	122ec <__divdi3+0x154>
   121e8:	e1520005 	cmp	r2, r5
   121ec:	9a000052 	bls	1233c <__divdi3+0x1a4>
   121f0:	e1a00002 	mov	r0, r2
   121f4:	eb000237 	bl	12ad8 <__clzsi2>
   121f8:	e3500000 	cmp	r0, #0
   121fc:	12603020 	rsbne	r3, r0, #32
   12200:	11a03334 	lsrne	r3, r4, r3
   12204:	11a0801a 	lslne	r8, r10, r0
   12208:	11839015 	orrne	r9, r3, r5, lsl r0
   1220c:	11a07014 	lslne	r7, r4, r0
   12210:	e1a04828 	lsr	r4, r8, #16
   12214:	e1a01004 	mov	r1, r4
   12218:	e1a00009 	mov	r0, r9
   1221c:	ebfffc4f 	bl	11360 <__aeabi_uidiv>
   12220:	e1a01004 	mov	r1, r4
   12224:	e1a0b000 	mov	r11, r0
   12228:	e1a00009 	mov	r0, r9
   1222c:	ebfffc88 	bl	11454 <__aeabi_uidivmod>
   12230:	e1a0a808 	lsl	r10, r8, #16
   12234:	e1a0a82a 	lsr	r10, r10, #16
   12238:	e0000b9a 	mul	r0, r10, r11
   1223c:	e1a02827 	lsr	r2, r7, #16
   12240:	e1821801 	orr	r1, r2, r1, lsl #16
   12244:	e1500001 	cmp	r0, r1
   12248:	9a000007 	bls	1226c <__divdi3+0xd4>
   1224c:	e0911008 	adds	r1, r1, r8
   12250:	e24b3001 	sub	r3, r11, #1
   12254:	2a000003 	bcs	12268 <__divdi3+0xd0>
   12258:	e1500001 	cmp	r0, r1
   1225c:	824bb002 	subhi	r11, r11, #2
   12260:	80811008 	addhi	r1, r1, r8
   12264:	8a000000 	bhi	1226c <__divdi3+0xd4>
   12268:	e1a0b003 	mov	r11, r3
   1226c:	e0609001 	rsb	r9, r0, r1
   12270:	e1a00009 	mov	r0, r9
   12274:	e1a01004 	mov	r1, r4
   12278:	ebfffc38 	bl	11360 <__aeabi_uidiv>
   1227c:	e1a01004 	mov	r1, r4
   12280:	e1a05000 	mov	r5, r0
   12284:	e1a00009 	mov	r0, r9
   12288:	ebfffc71 	bl	11454 <__aeabi_uidivmod>
   1228c:	e00a0a95 	mul	r10, r5, r10
   12290:	e1a07807 	lsl	r7, r7, #16
   12294:	e1a07827 	lsr	r7, r7, #16
   12298:	e1871801 	orr	r1, r7, r1, lsl #16
   1229c:	e15a0001 	cmp	r10, r1
   122a0:	9a000006 	bls	122c0 <__divdi3+0x128>
   122a4:	e0918008 	adds	r8, r1, r8
   122a8:	e2453001 	sub	r3, r5, #1
   122ac:	2a000002 	bcs	122bc <__divdi3+0x124>
   122b0:	e15a0008 	cmp	r10, r8
   122b4:	82455002 	subhi	r5, r5, #2
   122b8:	8a000000 	bhi	122c0 <__divdi3+0x128>
   122bc:	e1a05003 	mov	r5, r3
   122c0:	e185380b 	orr	r3, r5, r11, lsl #16
   122c4:	e3a04000 	mov	r4, #0
   122c8:	e3560000 	cmp	r6, #0
   122cc:	e1a00003 	mov	r0, r3
   122d0:	e1a01004 	mov	r1, r4
   122d4:	0a000001 	beq	122e0 <__divdi3+0x148>
   122d8:	e2700000 	rsbs	r0, r0, #0
   122dc:	e2e11000 	rsc	r1, r1, #0
   122e0:	e28dd014 	add	sp, sp, #20
   122e4:	e8bd4ff0 	pop	{r4, r5, r6, r7, r8, r9, r10, r11, lr}
   122e8:	e12fff1e 	bx	lr
   122ec:	e1530005 	cmp	r3, r5
   122f0:	83a04000 	movhi	r4, #0
   122f4:	81a03004 	movhi	r3, r4
   122f8:	8afffff2 	bhi	122c8 <__divdi3+0x130>
   122fc:	e1a00003 	mov	r0, r3
   12300:	e58d100c 	str	r1, [sp, #12]
   12304:	e58dc008 	str	r12, [sp, #8]
   12308:	eb0001f2 	bl	12ad8 <__clzsi2>
   1230c:	e2505000 	subs	r5, r0, #0
   12310:	e59d100c 	ldr	r1, [sp, #12]
   12314:	e59dc008 	ldr	r12, [sp, #8]
   12318:	1a00007f 	bne	1251c <__divdi3+0x384>
   1231c:	e151000b 	cmp	r1, r11
   12320:	215a000c 	cmpcs	r10, r12
   12324:	83a04000 	movhi	r4, #0
   12328:	93a04001 	movls	r4, #1
   1232c:	93a03001 	movls	r3, #1
   12330:	91a04005 	movls	r4, r5
   12334:	81a03004 	movhi	r3, r4
   12338:	eaffffe2 	b	122c8 <__divdi3+0x130>
   1233c:	e3520000 	cmp	r2, #0
   12340:	1a000003 	bne	12354 <__divdi3+0x1bc>
   12344:	e1a01002 	mov	r1, r2
   12348:	e3a00001 	mov	r0, #1
   1234c:	ebfffc03 	bl	11360 <__aeabi_uidiv>
   12350:	e1a08000 	mov	r8, r0
   12354:	e1a00008 	mov	r0, r8
   12358:	eb0001de 	bl	12ad8 <__clzsi2>
   1235c:	e2503000 	subs	r3, r0, #0
   12360:	1a000034 	bne	12438 <__divdi3+0x2a0>
   12364:	e1a0a808 	lsl	r10, r8, #16
   12368:	e0689009 	rsb	r9, r8, r9
   1236c:	e1a0a82a 	lsr	r10, r10, #16
   12370:	e1a05828 	lsr	r5, r8, #16
   12374:	e3a04001 	mov	r4, #1
   12378:	e1a01005 	mov	r1, r5
   1237c:	e1a00009 	mov	r0, r9
   12380:	ebfffbf6 	bl	11360 <__aeabi_uidiv>
   12384:	e1a01005 	mov	r1, r5
   12388:	e1a0b000 	mov	r11, r0
   1238c:	e1a00009 	mov	r0, r9
   12390:	ebfffc2f 	bl	11454 <__aeabi_uidivmod>
   12394:	e0000b9a 	mul	r0, r10, r11
   12398:	e1a02827 	lsr	r2, r7, #16
   1239c:	e1821801 	orr	r1, r2, r1, lsl #16
   123a0:	e1500001 	cmp	r0, r1
   123a4:	9a000006 	bls	123c4 <__divdi3+0x22c>
   123a8:	e0911008 	adds	r1, r1, r8
   123ac:	e24b3001 	sub	r3, r11, #1
   123b0:	2a0000a4 	bcs	12648 <__divdi3+0x4b0>
   123b4:	e1500001 	cmp	r0, r1
   123b8:	824bb002 	subhi	r11, r11, #2
   123bc:	80811008 	addhi	r1, r1, r8
   123c0:	9a0000a0 	bls	12648 <__divdi3+0x4b0>
   123c4:	e0602001 	rsb	r2, r0, r1
   123c8:	e1a00002 	mov	r0, r2
   123cc:	e1a01005 	mov	r1, r5
   123d0:	e58d200c 	str	r2, [sp, #12]
   123d4:	ebfffbe1 	bl	11360 <__aeabi_uidiv>
   123d8:	e59d200c 	ldr	r2, [sp, #12]
   123dc:	e1a09000 	mov	r9, r0
   123e0:	e1a01005 	mov	r1, r5
   123e4:	e1a00002 	mov	r0, r2
   123e8:	ebfffc19 	bl	11454 <__aeabi_uidivmod>
   123ec:	e00a0a99 	mul	r10, r9, r10
   123f0:	e1a07807 	lsl	r7, r7, #16
   123f4:	e1a07827 	lsr	r7, r7, #16
   123f8:	e1871801 	orr	r1, r7, r1, lsl #16
   123fc:	e15a0001 	cmp	r10, r1
   12400:	9a000006 	bls	12420 <__divdi3+0x288>
   12404:	e0918008 	adds	r8, r1, r8
   12408:	e2493001 	sub	r3, r9, #1
   1240c:	2a000002 	bcs	1241c <__divdi3+0x284>
   12410:	e15a0008 	cmp	r10, r8
   12414:	82499002 	subhi	r9, r9, #2
   12418:	8a000000 	bhi	12420 <__divdi3+0x288>
   1241c:	e1a09003 	mov	r9, r3
   12420:	e189380b 	orr	r3, r9, r11, lsl #16
   12424:	eaffffa7 	b	122c8 <__divdi3+0x130>
   12428:	e1e06006 	mvn	r6, r6
   1242c:	e2722000 	rsbs	r2, r2, #0
   12430:	e2e33000 	rsc	r3, r3, #0
   12434:	eaffff62 	b	121c4 <__divdi3+0x2c>
   12438:	e1a08318 	lsl	r8, r8, r3
   1243c:	e263b020 	rsb	r11, r3, #32
   12440:	e1a04b39 	lsr	r4, r9, r11
   12444:	e1a0bb37 	lsr	r11, r7, r11
   12448:	e1a05828 	lsr	r5, r8, #16
   1244c:	e1a01005 	mov	r1, r5
   12450:	e1a00004 	mov	r0, r4
   12454:	e18bb319 	orr	r11, r11, r9, lsl r3
   12458:	e1a07317 	lsl	r7, r7, r3
   1245c:	ebfffbbf 	bl	11360 <__aeabi_uidiv>
   12460:	e1a01005 	mov	r1, r5
   12464:	e1a03000 	mov	r3, r0
   12468:	e1a00004 	mov	r0, r4
   1246c:	e58d3004 	str	r3, [sp, #4]
   12470:	ebfffbf7 	bl	11454 <__aeabi_uidivmod>
   12474:	e1a0a808 	lsl	r10, r8, #16
   12478:	e59d3004 	ldr	r3, [sp, #4]
   1247c:	e1a0a82a 	lsr	r10, r10, #16
   12480:	e000039a 	mul	r0, r10, r3
   12484:	e1a0282b 	lsr	r2, r11, #16
   12488:	e1821801 	orr	r1, r2, r1, lsl #16
   1248c:	e1500001 	cmp	r0, r1
   12490:	9a000006 	bls	124b0 <__divdi3+0x318>
   12494:	e0911008 	adds	r1, r1, r8
   12498:	e2432001 	sub	r2, r3, #1
   1249c:	2a00006f 	bcs	12660 <__divdi3+0x4c8>
   124a0:	e1500001 	cmp	r0, r1
   124a4:	82433002 	subhi	r3, r3, #2
   124a8:	80811008 	addhi	r1, r1, r8
   124ac:	9a00006b 	bls	12660 <__divdi3+0x4c8>
   124b0:	e0609001 	rsb	r9, r0, r1
   124b4:	e1a00009 	mov	r0, r9
   124b8:	e1a01005 	mov	r1, r5
   124bc:	e58d3004 	str	r3, [sp, #4]
   124c0:	ebfffba6 	bl	11360 <__aeabi_uidiv>
   124c4:	e1a01005 	mov	r1, r5
   124c8:	e1a04000 	mov	r4, r0
   124cc:	e1a00009 	mov	r0, r9
   124d0:	ebfffbdf 	bl	11454 <__aeabi_uidivmod>
   124d4:	e009049a 	mul	r9, r10, r4
   124d8:	e1a0b80b 	lsl	r11, r11, #16
   124dc:	e1a0b82b 	lsr	r11, r11, #16
   124e0:	e18b1801 	orr	r1, r11, r1, lsl #16
   124e4:	e1590001 	cmp	r9, r1
   124e8:	e59d3004 	ldr	r3, [sp, #4]
   124ec:	9a000007 	bls	12510 <__divdi3+0x378>
   124f0:	e0911008 	adds	r1, r1, r8
   124f4:	e2442001 	sub	r2, r4, #1
   124f8:	2a000003 	bcs	1250c <__divdi3+0x374>
   124fc:	e1590001 	cmp	r9, r1
   12500:	82444002 	subhi	r4, r4, #2
   12504:	80811008 	addhi	r1, r1, r8
   12508:	8a000000 	bhi	12510 <__divdi3+0x378>
   1250c:	e1a04002 	mov	r4, r2
   12510:	e0699001 	rsb	r9, r9, r1
   12514:	e1844803 	orr	r4, r4, r3, lsl #16
   12518:	eaffff96 	b	12378 <__divdi3+0x1e0>
   1251c:	e2653020 	rsb	r3, r5, #32
   12520:	e1a0833a 	lsr	r8, r10, r3
   12524:	e1888511 	orr	r8, r8, r1, lsl r5
   12528:	e1a0233b 	lsr	r2, r11, r3
   1252c:	e1a03337 	lsr	r3, r7, r3
   12530:	e1a09828 	lsr	r9, r8, #16
   12534:	e1a01009 	mov	r1, r9
   12538:	e1a00002 	mov	r0, r2
   1253c:	e183b51b 	orr	r11, r3, r11, lsl r5
   12540:	e58d200c 	str	r2, [sp, #12]
   12544:	ebfffb85 	bl	11360 <__aeabi_uidiv>
   12548:	e59d200c 	ldr	r2, [sp, #12]
   1254c:	e1a03000 	mov	r3, r0
   12550:	e1a01009 	mov	r1, r9
   12554:	e1a00002 	mov	r0, r2
   12558:	e58d3004 	str	r3, [sp, #4]
   1255c:	ebfffbbc 	bl	11454 <__aeabi_uidivmod>
   12560:	e1a04808 	lsl	r4, r8, #16
   12564:	e59d3004 	ldr	r3, [sp, #4]
   12568:	e1a04824 	lsr	r4, r4, #16
   1256c:	e0000394 	mul	r0, r4, r3
   12570:	e1a0282b 	lsr	r2, r11, #16
   12574:	e1821801 	orr	r1, r2, r1, lsl #16
   12578:	e1500001 	cmp	r0, r1
   1257c:	e1a0a51a 	lsl	r10, r10, r5
   12580:	9a000006 	bls	125a0 <__divdi3+0x408>
   12584:	e0911008 	adds	r1, r1, r8
   12588:	e2432001 	sub	r2, r3, #1
   1258c:	2a000031 	bcs	12658 <__divdi3+0x4c0>
   12590:	e1500001 	cmp	r0, r1
   12594:	82433002 	subhi	r3, r3, #2
   12598:	80811008 	addhi	r1, r1, r8
   1259c:	9a00002d 	bls	12658 <__divdi3+0x4c0>
   125a0:	e060c001 	rsb	r12, r0, r1
   125a4:	e1a0000c 	mov	r0, r12
   125a8:	e1a01009 	mov	r1, r9
   125ac:	e98d1008 	stmib	sp, {r3, r12}
   125b0:	ebfffb6a 	bl	11360 <__aeabi_uidiv>
   125b4:	e59dc008 	ldr	r12, [sp, #8]
   125b8:	e1a02000 	mov	r2, r0
   125bc:	e1a01009 	mov	r1, r9
   125c0:	e1a0000c 	mov	r0, r12
   125c4:	e58d200c 	str	r2, [sp, #12]
   125c8:	ebfffba1 	bl	11454 <__aeabi_uidivmod>
   125cc:	e59d200c 	ldr	r2, [sp, #12]
   125d0:	e0040492 	mul	r4, r2, r4
   125d4:	e1a0b80b 	lsl	r11, r11, #16
   125d8:	e1a0c82b 	lsr	r12, r11, #16
   125dc:	e18cc801 	orr	r12, r12, r1, lsl #16
   125e0:	e154000c 	cmp	r4, r12
   125e4:	e59d3004 	ldr	r3, [sp, #4]
   125e8:	9a000006 	bls	12608 <__divdi3+0x470>
   125ec:	e09cc008 	adds	r12, r12, r8
   125f0:	e2421001 	sub	r1, r2, #1
   125f4:	2a000015 	bcs	12650 <__divdi3+0x4b8>
   125f8:	e154000c 	cmp	r4, r12
   125fc:	82422002 	subhi	r2, r2, #2
   12600:	808cc008 	addhi	r12, r12, r8
   12604:	9a000011 	bls	12650 <__divdi3+0x4b8>
   12608:	e1821803 	orr	r1, r2, r3, lsl #16
   1260c:	e0832a91 	umull	r2, r3, r1, r10
   12610:	e064400c 	rsb	r4, r4, r12
   12614:	e1540003 	cmp	r4, r3
   12618:	3a000007 	bcc	1263c <__divdi3+0x4a4>
   1261c:	13a04000 	movne	r4, #0
   12620:	03a04001 	moveq	r4, #1
   12624:	e1520517 	cmp	r2, r7, lsl r5
   12628:	93a04000 	movls	r4, #0
   1262c:	82044001 	andhi	r4, r4, #1
   12630:	e3540000 	cmp	r4, #0
   12634:	01a03001 	moveq	r3, r1
   12638:	0affff22 	beq	122c8 <__divdi3+0x130>
   1263c:	e2413001 	sub	r3, r1, #1
   12640:	e3a04000 	mov	r4, #0
   12644:	eaffff1f 	b	122c8 <__divdi3+0x130>
   12648:	e1a0b003 	mov	r11, r3
   1264c:	eaffff5c 	b	123c4 <__divdi3+0x22c>
   12650:	e1a02001 	mov	r2, r1
   12654:	eaffffeb 	b	12608 <__divdi3+0x470>
   12658:	e1a03002 	mov	r3, r2
   1265c:	eaffffcf 	b	125a0 <__divdi3+0x408>
   12660:	e1a03002 	mov	r3, r2
   12664:	eaffff91 	b	124b0 <__divdi3+0x318>

00012668 <__udivdi3>:
   12668:	e92d4ff0 	push	{r4, r5, r6, r7, r8, r9, r10, r11, lr}
   1266c:	e3530000 	cmp	r3, #0
   12670:	e24dd00c 	sub	sp, sp, #12
   12674:	e1a07003 	mov	r7, r3
   12678:	e1a08000 	mov	r8, r0
   1267c:	e1a05001 	mov	r5, r1
   12680:	e1a06002 	mov	r6, r2
   12684:	e1a04002 	mov	r4, r2
   12688:	e1a09000 	mov	r9, r0
   1268c:	e1a0a001 	mov	r10, r1
   12690:	1a00003a 	bne	12780 <__udivdi3+0x118>
   12694:	e1520001 	cmp	r2, r1
   12698:	9a000048 	bls	127c0 <__udivdi3+0x158>
   1269c:	e1a00002 	mov	r0, r2
   126a0:	eb00010c 	bl	12ad8 <__clzsi2>
   126a4:	e3500000 	cmp	r0, #0
   126a8:	1260a020 	rsbne	r10, r0, #32
   126ac:	11a0aa38 	lsrne	r10, r8, r10
   126b0:	11a04016 	lslne	r4, r6, r0
   126b4:	118aa015 	orrne	r10, r10, r5, lsl r0
   126b8:	e1a05824 	lsr	r5, r4, #16
   126bc:	11a09018 	lslne	r9, r8, r0
   126c0:	e1a01005 	mov	r1, r5
   126c4:	e1a0000a 	mov	r0, r10
   126c8:	ebfffb24 	bl	11360 <__aeabi_uidiv>
   126cc:	e1a01005 	mov	r1, r5
   126d0:	e1a07000 	mov	r7, r0
   126d4:	e1a0000a 	mov	r0, r10
   126d8:	ebfffb5d 	bl	11454 <__aeabi_uidivmod>
   126dc:	e1a08804 	lsl	r8, r4, #16
   126e0:	e1a08828 	lsr	r8, r8, #16
   126e4:	e0000798 	mul	r0, r8, r7
   126e8:	e1a03829 	lsr	r3, r9, #16
   126ec:	e1831801 	orr	r1, r3, r1, lsl #16
   126f0:	e1500001 	cmp	r0, r1
   126f4:	9a000007 	bls	12718 <__udivdi3+0xb0>
   126f8:	e0911004 	adds	r1, r1, r4
   126fc:	e2472001 	sub	r2, r7, #1
   12700:	2a000003 	bcs	12714 <__udivdi3+0xac>
   12704:	e1500001 	cmp	r0, r1
   12708:	82477002 	subhi	r7, r7, #2
   1270c:	80811004 	addhi	r1, r1, r4
   12710:	8a000000 	bhi	12718 <__udivdi3+0xb0>
   12714:	e1a07002 	mov	r7, r2
   12718:	e060a001 	rsb	r10, r0, r1
   1271c:	e1a0000a 	mov	r0, r10
   12720:	e1a01005 	mov	r1, r5
   12724:	ebfffb0d 	bl	11360 <__aeabi_uidiv>
   12728:	e1a01005 	mov	r1, r5
   1272c:	e1a06000 	mov	r6, r0
   12730:	e1a0000a 	mov	r0, r10
   12734:	ebfffb46 	bl	11454 <__aeabi_uidivmod>
   12738:	e0080896 	mul	r8, r6, r8
   1273c:	e1a09809 	lsl	r9, r9, #16
   12740:	e1a09829 	lsr	r9, r9, #16
   12744:	e1891801 	orr	r1, r9, r1, lsl #16
   12748:	e1580001 	cmp	r8, r1
   1274c:	9a000005 	bls	12768 <__udivdi3+0x100>
   12750:	e0914004 	adds	r4, r1, r4
   12754:	e2463001 	sub	r3, r6, #1
   12758:	2a0000cc 	bcs	12a90 <__udivdi3+0x428>
   1275c:	e1580004 	cmp	r8, r4
   12760:	82466002 	subhi	r6, r6, #2
   12764:	9a0000c9 	bls	12a90 <__udivdi3+0x428>
   12768:	e1860807 	orr	r0, r6, r7, lsl #16
   1276c:	e3a06000 	mov	r6, #0
   12770:	e1a01006 	mov	r1, r6
   12774:	e28dd00c 	add	sp, sp, #12
   12778:	e8bd4ff0 	pop	{r4, r5, r6, r7, r8, r9, r10, r11, lr}
   1277c:	e12fff1e 	bx	lr
   12780:	e1530001 	cmp	r3, r1
   12784:	83a06000 	movhi	r6, #0
   12788:	81a00006 	movhi	r0, r6
   1278c:	8afffff7 	bhi	12770 <__udivdi3+0x108>
   12790:	e1a00003 	mov	r0, r3
   12794:	eb0000cf 	bl	12ad8 <__clzsi2>
   12798:	e2509000 	subs	r9, r0, #0
   1279c:	1a000042 	bne	128ac <__udivdi3+0x244>
   127a0:	e1570005 	cmp	r7, r5
   127a4:	21560008 	cmpcs	r6, r8
   127a8:	83a06000 	movhi	r6, #0
   127ac:	93a06001 	movls	r6, #1
   127b0:	93a00001 	movls	r0, #1
   127b4:	91a06009 	movls	r6, r9
   127b8:	81a00006 	movhi	r0, r6
   127bc:	eaffffeb 	b	12770 <__udivdi3+0x108>
   127c0:	e3520000 	cmp	r2, #0
   127c4:	1a000003 	bne	127d8 <__udivdi3+0x170>
   127c8:	e1a01002 	mov	r1, r2
   127cc:	e3a00001 	mov	r0, #1
   127d0:	ebfffae2 	bl	11360 <__aeabi_uidiv>
   127d4:	e1a04000 	mov	r4, r0
   127d8:	e1a00004 	mov	r0, r4
   127dc:	eb0000bd 	bl	12ad8 <__clzsi2>
   127e0:	e2503000 	subs	r3, r0, #0
   127e4:	1a000074 	bne	129bc <__udivdi3+0x354>
   127e8:	e1a0a804 	lsl	r10, r4, #16
   127ec:	e0645005 	rsb	r5, r4, r5
   127f0:	e1a0a82a 	lsr	r10, r10, #16
   127f4:	e1a07824 	lsr	r7, r4, #16
   127f8:	e3a06001 	mov	r6, #1
   127fc:	e1a01007 	mov	r1, r7
   12800:	e1a00005 	mov	r0, r5
   12804:	ebfffad5 	bl	11360 <__aeabi_uidiv>
   12808:	e1a01007 	mov	r1, r7
   1280c:	e1a08000 	mov	r8, r0
   12810:	e1a00005 	mov	r0, r5
   12814:	ebfffb0e 	bl	11454 <__aeabi_uidivmod>
   12818:	e000089a 	mul	r0, r10, r8
   1281c:	e1a03829 	lsr	r3, r9, #16
   12820:	e1831801 	orr	r1, r3, r1, lsl #16
   12824:	e1500001 	cmp	r0, r1
   12828:	9a000006 	bls	12848 <__udivdi3+0x1e0>
   1282c:	e0911004 	adds	r1, r1, r4
   12830:	e2482001 	sub	r2, r8, #1
   12834:	2a000097 	bcs	12a98 <__udivdi3+0x430>
   12838:	e1500001 	cmp	r0, r1
   1283c:	82488002 	subhi	r8, r8, #2
   12840:	80811004 	addhi	r1, r1, r4
   12844:	9a000093 	bls	12a98 <__udivdi3+0x430>
   12848:	e060b001 	rsb	r11, r0, r1
   1284c:	e1a0000b 	mov	r0, r11
   12850:	e1a01007 	mov	r1, r7
   12854:	ebfffac1 	bl	11360 <__aeabi_uidiv>
   12858:	e1a01007 	mov	r1, r7
   1285c:	e1a05000 	mov	r5, r0
   12860:	e1a0000b 	mov	r0, r11
   12864:	ebfffafa 	bl	11454 <__aeabi_uidivmod>
   12868:	e00a0a95 	mul	r10, r5, r10
   1286c:	e1a09809 	lsl	r9, r9, #16
   12870:	e1a09829 	lsr	r9, r9, #16
   12874:	e1891801 	orr	r1, r9, r1, lsl #16
   12878:	e15a0001 	cmp	r10, r1
   1287c:	9a000005 	bls	12898 <__udivdi3+0x230>
   12880:	e0914004 	adds	r4, r1, r4
   12884:	e2453001 	sub	r3, r5, #1
   12888:	2a000084 	bcs	12aa0 <__udivdi3+0x438>
   1288c:	e15a0004 	cmp	r10, r4
   12890:	82455002 	subhi	r5, r5, #2
   12894:	9a000081 	bls	12aa0 <__udivdi3+0x438>
   12898:	e1850808 	orr	r0, r5, r8, lsl #16
   1289c:	e1a01006 	mov	r1, r6
   128a0:	e28dd00c 	add	sp, sp, #12
   128a4:	e8bd4ff0 	pop	{r4, r5, r6, r7, r8, r9, r10, r11, lr}
   128a8:	e12fff1e 	bx	lr
   128ac:	e2693020 	rsb	r3, r9, #32
   128b0:	e1a02336 	lsr	r2, r6, r3
   128b4:	e1827917 	orr	r7, r2, r7, lsl r9
   128b8:	e1a02335 	lsr	r2, r5, r3
   128bc:	e1a03338 	lsr	r3, r8, r3
   128c0:	e1a04827 	lsr	r4, r7, #16
   128c4:	e1a01004 	mov	r1, r4
   128c8:	e1a00002 	mov	r0, r2
   128cc:	e1835915 	orr	r5, r3, r5, lsl r9
   128d0:	e58d2004 	str	r2, [sp, #4]
   128d4:	ebfffaa1 	bl	11360 <__aeabi_uidiv>
   128d8:	e59d2004 	ldr	r2, [sp, #4]
   128dc:	e1a0b000 	mov	r11, r0
   128e0:	e1a01004 	mov	r1, r4
   128e4:	e1a00002 	mov	r0, r2
   128e8:	ebfffad9 	bl	11454 <__aeabi_uidivmod>
   128ec:	e1a0a807 	lsl	r10, r7, #16
   128f0:	e1a0a82a 	lsr	r10, r10, #16
   128f4:	e0000b9a 	mul	r0, r10, r11
   128f8:	e1a03825 	lsr	r3, r5, #16
   128fc:	e1831801 	orr	r1, r3, r1, lsl #16
   12900:	e1500001 	cmp	r0, r1
   12904:	e1a06916 	lsl	r6, r6, r9
   12908:	9a000003 	bls	1291c <__udivdi3+0x2b4>
   1290c:	e0911007 	adds	r1, r1, r7
   12910:	e24b2001 	sub	r2, r11, #1
   12914:	3a000068 	bcc	12abc <__udivdi3+0x454>
   12918:	e1a0b002 	mov	r11, r2
   1291c:	e0603001 	rsb	r3, r0, r1
   12920:	e1a00003 	mov	r0, r3
   12924:	e1a01004 	mov	r1, r4
   12928:	e58d3004 	str	r3, [sp, #4]
   1292c:	ebfffa8b 	bl	11360 <__aeabi_uidiv>
   12930:	e59d3004 	ldr	r3, [sp, #4]
   12934:	e1a02000 	mov	r2, r0
   12938:	e1a01004 	mov	r1, r4
   1293c:	e1a00003 	mov	r0, r3
   12940:	e58d2004 	str	r2, [sp, #4]
   12944:	ebfffac2 	bl	11454 <__aeabi_uidivmod>
   12948:	e59d2004 	ldr	r2, [sp, #4]
   1294c:	e00a0a92 	mul	r10, r2, r10
   12950:	e1a05805 	lsl	r5, r5, #16
   12954:	e1a05825 	lsr	r5, r5, #16
   12958:	e1851801 	orr	r1, r5, r1, lsl #16
   1295c:	e15a0001 	cmp	r10, r1
   12960:	9a000003 	bls	12974 <__udivdi3+0x30c>
   12964:	e0911007 	adds	r1, r1, r7
   12968:	e2423001 	sub	r3, r2, #1
   1296c:	3a00004d 	bcc	12aa8 <__udivdi3+0x440>
   12970:	e1a02003 	mov	r2, r3
   12974:	e182080b 	orr	r0, r2, r11, lsl #16
   12978:	e0854690 	umull	r4, r5, r0, r6
   1297c:	e06aa001 	rsb	r10, r10, r1
   12980:	e15a0005 	cmp	r10, r5
   12984:	3a000006 	bcc	129a4 <__udivdi3+0x33c>
   12988:	13a06000 	movne	r6, #0
   1298c:	03a06001 	moveq	r6, #1
   12990:	e1540918 	cmp	r4, r8, lsl r9
   12994:	93a06000 	movls	r6, #0
   12998:	82066001 	andhi	r6, r6, #1
   1299c:	e3560000 	cmp	r6, #0
   129a0:	0affff72 	beq	12770 <__udivdi3+0x108>
   129a4:	e3a06000 	mov	r6, #0
   129a8:	e2400001 	sub	r0, r0, #1
   129ac:	e1a01006 	mov	r1, r6
   129b0:	e28dd00c 	add	sp, sp, #12
   129b4:	e8bd4ff0 	pop	{r4, r5, r6, r7, r8, r9, r10, r11, lr}
   129b8:	e12fff1e 	bx	lr
   129bc:	e1a04314 	lsl	r4, r4, r3
   129c0:	e263b020 	rsb	r11, r3, #32
   129c4:	e1a06b35 	lsr	r6, r5, r11
   129c8:	e1a0bb38 	lsr	r11, r8, r11
   129cc:	e1a07824 	lsr	r7, r4, #16
   129d0:	e1a01007 	mov	r1, r7
   129d4:	e1a00006 	mov	r0, r6
   129d8:	e1a09318 	lsl	r9, r8, r3
   129dc:	e18bb315 	orr	r11, r11, r5, lsl r3
   129e0:	ebfffa5e 	bl	11360 <__aeabi_uidiv>
   129e4:	e1a01007 	mov	r1, r7
   129e8:	e1a08000 	mov	r8, r0
   129ec:	e1a00006 	mov	r0, r6
   129f0:	ebfffa97 	bl	11454 <__aeabi_uidivmod>
   129f4:	e1a0a804 	lsl	r10, r4, #16
   129f8:	e1a0a82a 	lsr	r10, r10, #16
   129fc:	e000089a 	mul	r0, r10, r8
   12a00:	e1a0382b 	lsr	r3, r11, #16
   12a04:	e1831801 	orr	r1, r3, r1, lsl #16
   12a08:	e1500001 	cmp	r0, r1
   12a0c:	9a000006 	bls	12a2c <__udivdi3+0x3c4>
   12a10:	e0911004 	adds	r1, r1, r4
   12a14:	e2483001 	sub	r3, r8, #1
   12a18:	2a00002c 	bcs	12ad0 <__udivdi3+0x468>
   12a1c:	e1500001 	cmp	r0, r1
   12a20:	82488002 	subhi	r8, r8, #2
   12a24:	80811004 	addhi	r1, r1, r4
   12a28:	9a000028 	bls	12ad0 <__udivdi3+0x468>
   12a2c:	e0605001 	rsb	r5, r0, r1
   12a30:	e1a00005 	mov	r0, r5
   12a34:	e1a01007 	mov	r1, r7
   12a38:	ebfffa48 	bl	11360 <__aeabi_uidiv>
   12a3c:	e1a01007 	mov	r1, r7
   12a40:	e1a06000 	mov	r6, r0
   12a44:	e1a00005 	mov	r0, r5
   12a48:	ebfffa81 	bl	11454 <__aeabi_uidivmod>
   12a4c:	e005069a 	mul	r5, r10, r6
   12a50:	e1a0b80b 	lsl	r11, r11, #16
   12a54:	e1a0b82b 	lsr	r11, r11, #16
   12a58:	e18b1801 	orr	r1, r11, r1, lsl #16
   12a5c:	e1550001 	cmp	r5, r1
   12a60:	9a000007 	bls	12a84 <__udivdi3+0x41c>
   12a64:	e0911004 	adds	r1, r1, r4
   12a68:	e2463001 	sub	r3, r6, #1
   12a6c:	2a000003 	bcs	12a80 <__udivdi3+0x418>
   12a70:	e1550001 	cmp	r5, r1
   12a74:	82466002 	subhi	r6, r6, #2
   12a78:	80811004 	addhi	r1, r1, r4
   12a7c:	8a000000 	bhi	12a84 <__udivdi3+0x41c>
   12a80:	e1a06003 	mov	r6, r3
   12a84:	e0655001 	rsb	r5, r5, r1
   12a88:	e1866808 	orr	r6, r6, r8, lsl #16
   12a8c:	eaffff5a 	b	127fc <__udivdi3+0x194>
   12a90:	e1a06003 	mov	r6, r3
   12a94:	eaffff33 	b	12768 <__udivdi3+0x100>
   12a98:	e1a08002 	mov	r8, r2
   12a9c:	eaffff69 	b	12848 <__udivdi3+0x1e0>
   12aa0:	e1a05003 	mov	r5, r3
   12aa4:	eaffff7b 	b	12898 <__udivdi3+0x230>
   12aa8:	e15a0001 	cmp	r10, r1
   12aac:	82422002 	subhi	r2, r2, #2
   12ab0:	80811007 	addhi	r1, r1, r7
   12ab4:	8affffae 	bhi	12974 <__udivdi3+0x30c>
   12ab8:	eaffffac 	b	12970 <__udivdi3+0x308>
   12abc:	e1500001 	cmp	r0, r1
   12ac0:	824bb002 	subhi	r11, r11, #2
   12ac4:	80811007 	addhi	r1, r1, r7
   12ac8:	8affff93 	bhi	1291c <__udivdi3+0x2b4>
   12acc:	eaffff91 	b	12918 <__udivdi3+0x2b0>
   12ad0:	e1a08003 	mov	r8, r3
   12ad4:	eaffffd4 	b	12a2c <__udivdi3+0x3c4>

00012ad8 <__clzsi2>:
   12ad8:	e3a0101c 	mov	r1, #28
   12adc:	e3500801 	cmp	r0, #65536	; 0x10000
   12ae0:	21a00820 	lsrcs	r0, r0, #16
   12ae4:	22411010 	subcs	r1, r1, #16
   12ae8:	e3500c01 	cmp	r0, #256	; 0x100
   12aec:	21a00420 	lsrcs	r0, r0, #8
   12af0:	22411008 	subcs	r1, r1, #8
   12af4:	e3500010 	cmp	r0, #16
   12af8:	21a00220 	lsrcs	r0, r0, #4
   12afc:	22411004 	subcs	r1, r1, #4
   12b00:	e28f2008 	add	r2, pc, #8
   12b04:	e7d20000 	ldrb	r0, [r2, r0]
   12b08:	e0800001 	add	r0, r0, r1
   12b0c:	e12fff1e 	bx	lr
   12b10:	02020304 	.word	0x02020304
   12b14:	01010101 	.word	0x01010101
	...

00012b20 <__cs3_premain>:
   12b20:	e92d4008 	push	{r3, lr}
   12b24:	eb0001b9 	bl	13210 <__libc_init_array>
   12b28:	e59f3030 	ldr	r3, [pc, #48]	; 12b60 <__cs3_premain+0x40>
   12b2c:	e3530000 	cmp	r3, #0
   12b30:	15930000 	ldrne	r0, [r3]
   12b34:	01a00003 	moveq	r0, r3
   12b38:	e59f3024 	ldr	r3, [pc, #36]	; 12b64 <__cs3_premain+0x44>
   12b3c:	e3530000 	cmp	r3, #0
   12b40:	15931000 	ldrne	r1, [r3]
   12b44:	01a01003 	moveq	r1, r3
   12b48:	e3a02000 	mov	r2, #0
   12b4c:	ebffb5c0 	bl	254 <main>
   12b50:	e59f3010 	ldr	r3, [pc, #16]	; 12b68 <__cs3_premain+0x48>
   12b54:	e3530000 	cmp	r3, #0
   12b58:	1bffb60c 	blne	390 <exit>
   12b5c:	eafffffe 	b	12b5c <__cs3_premain+0x3c>
   12b60:	00014208 	.word	0x00014208
   12b64:	00014204 	.word	0x00014204
   12b68:	00000390 	.word	0x00000390

00012b6c <_close>:
   12b6c:	e92d4038 	push	{r3, r4, r5, lr}
   12b70:	e1a05000 	mov	r5, r0
   12b74:	eb0000ed 	bl	12f30 <__cs3_openslot>
   12b78:	e2504000 	subs	r4, r0, #0
   12b7c:	0a000016 	beq	12bdc <_close+0x70>
   12b80:	e2453001 	sub	r3, r5, #1
   12b84:	e3530001 	cmp	r3, #1
   12b88:	9a000008 	bls	12bb0 <_close+0x44>
   12b8c:	e3a00002 	mov	r0, #2
   12b90:	e1a01004 	mov	r1, r4
   12b94:	ef123456 	svc	0x00123456
   12b98:	e3500000 	cmp	r0, #0
   12b9c:	03e03000 	mvneq	r3, #0
   12ba0:	05843000 	streq	r3, [r4]
   12ba4:	eb000114 	bl	12ffc <__cs3_checkerror>
   12ba8:	e8bd4038 	pop	{r3, r4, r5, lr}
   12bac:	e12fff1e 	bx	lr
   12bb0:	e3550001 	cmp	r5, #1
   12bb4:	13e03007 	mvnne	r3, #7
   12bb8:	03a03008 	moveq	r3, #8
   12bbc:	e7943003 	ldr	r3, [r4, r3]
   12bc0:	e5942000 	ldr	r2, [r4]
   12bc4:	e1520003 	cmp	r2, r3
   12bc8:	03e03000 	mvneq	r3, #0
   12bcc:	05843000 	streq	r3, [r4]
   12bd0:	03a00000 	moveq	r0, #0
   12bd4:	1affffec 	bne	12b8c <_close+0x20>
   12bd8:	eafffff2 	b	12ba8 <_close+0x3c>
   12bdc:	e3e00000 	mvn	r0, #0
   12be0:	eafffff0 	b	12ba8 <_close+0x3c>

00012be4 <_exit>:
   12be4:	e52de004 	push	{lr}		; (str lr, [sp, #-4]!)
   12be8:	e3a00018 	mov	r0, #24
   12bec:	e59f1004 	ldr	r1, [pc, #4]	; 12bf8 <_exit+0x14>
   12bf0:	ef123456 	svc	0x00123456
   12bf4:	eafffffe 	b	12bf4 <_exit+0x10>
   12bf8:	00020026 	.word	0x00020026

00012bfc <_fstat>:
   12bfc:	e92d4038 	push	{r3, r4, r5, lr}
   12c00:	e1a04001 	mov	r4, r1
   12c04:	eb0000c9 	bl	12f30 <__cs3_openslot>
   12c08:	e2505000 	subs	r5, r0, #0
   12c0c:	0a000010 	beq	12c54 <_fstat+0x58>
   12c10:	e1a00004 	mov	r0, r4
   12c14:	e3a01000 	mov	r1, #0
   12c18:	e3a0203c 	mov	r2, #60	; 0x3c
   12c1c:	ebffd424 	bl	7cb4 <memset>
   12c20:	e3a02a02 	mov	r2, #8192	; 0x2000
   12c24:	e3a03b01 	mov	r3, #1024	; 0x400
   12c28:	e1a01005 	mov	r1, r5
   12c2c:	e5842004 	str	r2, [r4, #4]
   12c30:	e584302c 	str	r3, [r4, #44]	; 0x2c
   12c34:	e3a0000c 	mov	r0, #12
   12c38:	ef123456 	svc	0x00123456
   12c3c:	e3700001 	cmn	r0, #1
   12c40:	15840010 	strne	r0, [r4, #16]
   12c44:	13a00000 	movne	r0, #0
   12c48:	eb0000eb 	bl	12ffc <__cs3_checkerror>
   12c4c:	e8bd4038 	pop	{r3, r4, r5, lr}
   12c50:	e12fff1e 	bx	lr
   12c54:	e3e00000 	mvn	r0, #0
   12c58:	eafffffb 	b	12c4c <_fstat+0x50>

00012c5c <_isatty>:
   12c5c:	e92d4008 	push	{r3, lr}
   12c60:	eb0000b2 	bl	12f30 <__cs3_openslot>
   12c64:	e2501000 	subs	r1, r0, #0
   12c68:	01a00001 	moveq	r0, r1
   12c6c:	0a000002 	beq	12c7c <_isatty+0x20>
   12c70:	e3a00009 	mov	r0, #9
   12c74:	ef123456 	svc	0x00123456
   12c78:	eb0000df 	bl	12ffc <__cs3_checkerror>
   12c7c:	e8bd4008 	pop	{r3, lr}
   12c80:	e12fff1e 	bx	lr

00012c84 <_lseek>:
   12c84:	e92d4070 	push	{r4, r5, r6, lr}
   12c88:	e24dd008 	sub	sp, sp, #8
   12c8c:	e1a04001 	mov	r4, r1
   12c90:	e1a05002 	mov	r5, r2
   12c94:	eb0000a5 	bl	12f30 <__cs3_openslot>
   12c98:	e2506000 	subs	r6, r0, #0
   12c9c:	0a000024 	beq	12d34 <_lseek+0xb0>
   12ca0:	e3550001 	cmp	r5, #1
   12ca4:	0a00001f 	beq	12d28 <_lseek+0xa4>
   12ca8:	e3550002 	cmp	r5, #2
   12cac:	0a000008 	beq	12cd4 <_lseek+0x50>
   12cb0:	e3550000 	cmp	r5, #0
   12cb4:	0a00000c 	beq	12cec <_lseek+0x68>
   12cb8:	eb000150 	bl	13200 <__errno>
   12cbc:	e3a03016 	mov	r3, #22
   12cc0:	e5803000 	str	r3, [r0]
   12cc4:	e3e00000 	mvn	r0, #0
   12cc8:	e28dd008 	add	sp, sp, #8
   12ccc:	e8bd4070 	pop	{r4, r5, r6, lr}
   12cd0:	e12fff1e 	bx	lr
   12cd4:	e3a0000c 	mov	r0, #12
   12cd8:	e1a01006 	mov	r1, r6
   12cdc:	ef123456 	svc	0x00123456
   12ce0:	e3700001 	cmn	r0, #1
   12ce4:	10844000 	addne	r4, r4, r0
   12ce8:	0a00000a 	beq	12d18 <_lseek+0x94>
   12cec:	e5963000 	ldr	r3, [r6]
   12cf0:	e3540000 	cmp	r4, #0
   12cf4:	e88d0018 	stm	sp, {r3, r4}
   12cf8:	baffffee 	blt	12cb8 <_lseek+0x34>
   12cfc:	e3a0000a 	mov	r0, #10
   12d00:	e1a0100d 	mov	r1, sp
   12d04:	ef123456 	svc	0x00123456
   12d08:	e3700001 	cmn	r0, #1
   12d0c:	01a04000 	moveq	r4, r0
   12d10:	15864004 	strne	r4, [r6, #4]
   12d14:	e1a00004 	mov	r0, r4
   12d18:	eb0000b7 	bl	12ffc <__cs3_checkerror>
   12d1c:	e28dd008 	add	sp, sp, #8
   12d20:	e8bd4070 	pop	{r4, r5, r6, lr}
   12d24:	e12fff1e 	bx	lr
   12d28:	e5963004 	ldr	r3, [r6, #4]
   12d2c:	e0844003 	add	r4, r4, r3
   12d30:	eaffffed 	b	12cec <_lseek+0x68>
   12d34:	e3e00000 	mvn	r0, #0
   12d38:	eaffffe2 	b	12cc8 <_lseek+0x44>

00012d3c <_read>:
   12d3c:	e92d4070 	push	{r4, r5, r6, lr}
   12d40:	e24dd010 	sub	sp, sp, #16
   12d44:	e1a06001 	mov	r6, r1
   12d48:	e1a05002 	mov	r5, r2
   12d4c:	eb000077 	bl	12f30 <__cs3_openslot>
   12d50:	e2504000 	subs	r4, r0, #0
   12d54:	0a00000e 	beq	12d94 <_read+0x58>
   12d58:	e5943000 	ldr	r3, [r4]
   12d5c:	e3a00006 	mov	r0, #6
   12d60:	e98d0048 	stmib	sp, {r3, r6}
   12d64:	e58d500c 	str	r5, [sp, #12]
   12d68:	e28d1004 	add	r1, sp, #4
   12d6c:	ef123456 	svc	0x00123456
   12d70:	e3700001 	cmn	r0, #1
   12d74:	15943004 	ldrne	r3, [r4, #4]
   12d78:	10600005 	rsbne	r0, r0, r5
   12d7c:	10833000 	addne	r3, r3, r0
   12d80:	15843004 	strne	r3, [r4, #4]
   12d84:	eb00009c 	bl	12ffc <__cs3_checkerror>
   12d88:	e28dd010 	add	sp, sp, #16
   12d8c:	e8bd4070 	pop	{r4, r5, r6, lr}
   12d90:	e12fff1e 	bx	lr
   12d94:	e3e00000 	mvn	r0, #0
   12d98:	eafffffa 	b	12d88 <_read+0x4c>

00012d9c <_write>:
   12d9c:	e92d4070 	push	{r4, r5, r6, lr}
   12da0:	e24dd010 	sub	sp, sp, #16
   12da4:	e1a06001 	mov	r6, r1
   12da8:	e1a05002 	mov	r5, r2
   12dac:	eb00005f 	bl	12f30 <__cs3_openslot>
   12db0:	e2504000 	subs	r4, r0, #0
   12db4:	0a00000e 	beq	12df4 <_write+0x58>
   12db8:	e5943000 	ldr	r3, [r4]
   12dbc:	e3a00005 	mov	r0, #5
   12dc0:	e98d0048 	stmib	sp, {r3, r6}
   12dc4:	e58d500c 	str	r5, [sp, #12]
   12dc8:	e28d1004 	add	r1, sp, #4
   12dcc:	ef123456 	svc	0x00123456
   12dd0:	e3700001 	cmn	r0, #1
   12dd4:	15943004 	ldrne	r3, [r4, #4]
   12dd8:	10600005 	rsbne	r0, r0, r5
   12ddc:	10833000 	addne	r3, r3, r0
   12de0:	15843004 	strne	r3, [r4, #4]
   12de4:	eb000084 	bl	12ffc <__cs3_checkerror>
   12de8:	e28dd010 	add	sp, sp, #16
   12dec:	e8bd4070 	pop	{r4, r5, r6, lr}
   12df0:	e12fff1e 	bx	lr
   12df4:	e3e00000 	mvn	r0, #0
   12df8:	eafffffa 	b	12de8 <_write+0x4c>

00012dfc <_sbrk>:
   12dfc:	e59f1060 	ldr	r1, [pc, #96]	; 12e64 <_sbrk+0x68>
   12e00:	e59f2060 	ldr	r2, [pc, #96]	; 12e68 <_sbrk+0x6c>
   12e04:	e92d4008 	push	{r3, lr}
   12e08:	e5913000 	ldr	r3, [r1]
   12e0c:	e5922000 	ldr	r2, [r2]
   12e10:	e0830000 	add	r0, r3, r0
   12e14:	e3520000 	cmp	r2, #0
   12e18:	11520000 	cmpne	r2, r0
   12e1c:	3a00000a 	bcc	12e4c <_sbrk+0x50>
   12e20:	e1a0200d 	mov	r2, sp
   12e24:	e1530002 	cmp	r3, r2
   12e28:	9a000003 	bls	12e3c <_sbrk+0x40>
   12e2c:	e5810000 	str	r0, [r1]
   12e30:	e1a00003 	mov	r0, r3
   12e34:	e8bd4008 	pop	{r3, lr}
   12e38:	e12fff1e 	bx	lr
   12e3c:	e2802c01 	add	r2, r0, #256	; 0x100
   12e40:	e1a0c00d 	mov	r12, sp
   12e44:	e15c0002 	cmp	r12, r2
   12e48:	2afffff7 	bcs	12e2c <_sbrk+0x30>
   12e4c:	eb0000eb 	bl	13200 <__errno>
   12e50:	e3a0300c 	mov	r3, #12
   12e54:	e5803000 	str	r3, [r0]
   12e58:	e3e00000 	mvn	r0, #0
   12e5c:	e8bd4008 	pop	{r3, lr}
   12e60:	e12fff1e 	bx	lr
   12e64:	000140f8 	.word	0x000140f8
   12e68:	000140f4 	.word	0x000140f4

00012e6c <initialize_monitor_handles.part.0>:
   12e6c:	e92d4030 	push	{r4, r5, lr}
   12e70:	e59f40b0 	ldr	r4, [pc, #176]	; 12f28 <initialize_monitor_handles.part.0+0xbc>
   12e74:	e24dd014 	sub	sp, sp, #20
   12e78:	e3a03000 	mov	r3, #0
   12e7c:	e3e02000 	mvn	r2, #0
   12e80:	e7842003 	str	r2, [r4, r3]
   12e84:	e2833008 	add	r3, r3, #8
   12e88:	e35300a0 	cmp	r3, #160	; 0xa0
   12e8c:	1afffffb 	bne	12e80 <initialize_monitor_handles.part.0+0x14>
   12e90:	e59f5094 	ldr	r5, [pc, #148]	; 12f2c <initialize_monitor_handles.part.0+0xc0>
   12e94:	e3a02003 	mov	r2, #3
   12e98:	e3a03000 	mov	r3, #0
   12e9c:	e58d5004 	str	r5, [sp, #4]
   12ea0:	e58d200c 	str	r2, [sp, #12]
   12ea4:	e58d3008 	str	r3, [sp, #8]
   12ea8:	e28d1004 	add	r1, sp, #4
   12eac:	e3a00001 	mov	r0, #1
   12eb0:	ef123456 	svc	0x00123456
   12eb4:	e3a03004 	mov	r3, #4
   12eb8:	e3a02003 	mov	r2, #3
   12ebc:	e5840000 	str	r0, [r4]
   12ec0:	e58d5004 	str	r5, [sp, #4]
   12ec4:	e58d200c 	str	r2, [sp, #12]
   12ec8:	e58d3008 	str	r3, [sp, #8]
   12ecc:	e08d1003 	add	r1, sp, r3
   12ed0:	e3a00001 	mov	r0, #1
   12ed4:	ef123456 	svc	0x00123456
   12ed8:	e59fc048 	ldr	r12, [pc, #72]	; 12f28 <initialize_monitor_handles.part.0+0xbc>
   12edc:	e3a02003 	mov	r2, #3
   12ee0:	e3a03008 	mov	r3, #8
   12ee4:	e58c0008 	str	r0, [r12, #8]
   12ee8:	e58d5004 	str	r5, [sp, #4]
   12eec:	e28d1004 	add	r1, sp, #4
   12ef0:	e58d200c 	str	r2, [sp, #12]
   12ef4:	e58d3008 	str	r3, [sp, #8]
   12ef8:	e3a00001 	mov	r0, #1
   12efc:	ef123456 	svc	0x00123456
   12f00:	e59f4020 	ldr	r4, [pc, #32]	; 12f28 <initialize_monitor_handles.part.0+0xbc>
   12f04:	e3700001 	cmn	r0, #1
   12f08:	05943008 	ldreq	r3, [r4, #8]
   12f0c:	e5840010 	str	r0, [r4, #16]
   12f10:	05843010 	streq	r3, [r4, #16]
   12f14:	e3a03001 	mov	r3, #1
   12f18:	e58430a0 	str	r3, [r4, #160]	; 0xa0
   12f1c:	e28dd014 	add	sp, sp, #20
   12f20:	e8bd4030 	pop	{r4, r5, lr}
   12f24:	e12fff1e 	bx	lr
   12f28:	00014160 	.word	0x00014160
   12f2c:	000137c8 	.word	0x000137c8

00012f30 <__cs3_openslot>:
   12f30:	e92d4038 	push	{r3, r4, r5, lr}
   12f34:	e59f504c 	ldr	r5, [pc, #76]	; 12f88 <__cs3_openslot+0x58>
   12f38:	e59530a0 	ldr	r3, [r5, #160]	; 0xa0
   12f3c:	e3530000 	cmp	r3, #0
   12f40:	e1a04000 	mov	r4, r0
   12f44:	0a000008 	beq	12f6c <__cs3_openslot+0x3c>
   12f48:	e3540013 	cmp	r4, #19
   12f4c:	8a000008 	bhi	12f74 <__cs3_openslot+0x44>
   12f50:	e7953184 	ldr	r3, [r5, r4, lsl #3]
   12f54:	e59f002c 	ldr	r0, [pc, #44]	; 12f88 <__cs3_openslot+0x58>
   12f58:	e3730001 	cmn	r3, #1
   12f5c:	10800184 	addne	r0, r0, r4, lsl #3
   12f60:	0a000003 	beq	12f74 <__cs3_openslot+0x44>
   12f64:	e8bd4038 	pop	{r3, r4, r5, lr}
   12f68:	e12fff1e 	bx	lr
   12f6c:	ebffffbe 	bl	12e6c <initialize_monitor_handles.part.0>
   12f70:	eafffff4 	b	12f48 <__cs3_openslot+0x18>
   12f74:	eb0000a1 	bl	13200 <__errno>
   12f78:	e3a03009 	mov	r3, #9
   12f7c:	e5803000 	str	r3, [r0]
   12f80:	e3a00000 	mov	r0, #0
   12f84:	eafffff6 	b	12f64 <__cs3_openslot+0x34>
   12f88:	00014160 	.word	0x00014160

00012f8c <__cs3_newslot>:
   12f8c:	e92d4038 	push	{r3, r4, r5, lr}
   12f90:	e59f4060 	ldr	r4, [pc, #96]	; 12ff8 <__cs3_newslot+0x6c>
   12f94:	e59430a0 	ldr	r3, [r4, #160]	; 0xa0
   12f98:	e3530000 	cmp	r3, #0
   12f9c:	e1a05000 	mov	r5, r0
   12fa0:	0a000012 	beq	12ff0 <__cs3_newslot+0x64>
   12fa4:	e3a03000 	mov	r3, #0
   12fa8:	e7942183 	ldr	r2, [r4, r3, lsl #3]
   12fac:	e3720001 	cmn	r2, #1
   12fb0:	e59f1040 	ldr	r1, [pc, #64]	; 12ff8 <__cs3_newslot+0x6c>
   12fb4:	e1a02183 	lsl	r2, r3, #3
   12fb8:	0a000008 	beq	12fe0 <__cs3_newslot+0x54>
   12fbc:	e2833001 	add	r3, r3, #1
   12fc0:	e3530014 	cmp	r3, #20
   12fc4:	1afffff7 	bne	12fa8 <__cs3_newslot+0x1c>
   12fc8:	eb00008c 	bl	13200 <__errno>
   12fcc:	e3a03018 	mov	r3, #24
   12fd0:	e5803000 	str	r3, [r0]
   12fd4:	e3a00000 	mov	r0, #0
   12fd8:	e8bd4038 	pop	{r3, r4, r5, lr}
   12fdc:	e12fff1e 	bx	lr
   12fe0:	e5853000 	str	r3, [r5]
   12fe4:	e0810002 	add	r0, r1, r2
   12fe8:	e8bd4038 	pop	{r3, r4, r5, lr}
   12fec:	e12fff1e 	bx	lr
   12ff0:	ebffff9d 	bl	12e6c <initialize_monitor_handles.part.0>
   12ff4:	eaffffea 	b	12fa4 <__cs3_newslot+0x18>
   12ff8:	00014160 	.word	0x00014160

00012ffc <__cs3_checkerror>:
   12ffc:	e3700001 	cmn	r0, #1
   13000:	e92d4038 	push	{r3, r4, r5, lr}
   13004:	e1a04000 	mov	r4, r0
   13008:	0a000002 	beq	13018 <__cs3_checkerror+0x1c>
   1300c:	e1a00004 	mov	r0, r4
   13010:	e8bd4038 	pop	{r3, r4, r5, lr}
   13014:	e12fff1e 	bx	lr
   13018:	eb000078 	bl	13200 <__errno>
   1301c:	e3a01000 	mov	r1, #0
   13020:	e1a05000 	mov	r5, r0
   13024:	e3a00013 	mov	r0, #19
   13028:	ef123456 	svc	0x00123456
   1302c:	e5850000 	str	r0, [r5]
   13030:	e1a00004 	mov	r0, r4
   13034:	e8bd4038 	pop	{r3, r4, r5, lr}
   13038:	e12fff1e 	bx	lr

0001303c <__cs3_init_args>:
   1303c:	e92d47d0 	push	{r4, r6, r7, r8, r9, r10, lr}
   13040:	e3a00c01 	mov	r0, #256	; 0x100
   13044:	e24dd00c 	sub	sp, sp, #12
   13048:	ebffff6b 	bl	12dfc <_sbrk>
   1304c:	e3700001 	cmn	r0, #1
   13050:	e1a07000 	mov	r7, r0
   13054:	0a00003a 	beq	13144 <__cs3_init_args+0x108>
   13058:	e3a02000 	mov	r2, #0
   1305c:	e3a03c01 	mov	r3, #256	; 0x100
   13060:	e5c02000 	strb	r2, [r0]
   13064:	e1a0100d 	mov	r1, sp
   13068:	e3a00015 	mov	r0, #21
   1306c:	e58d7000 	str	r7, [sp]
   13070:	e58d3004 	str	r3, [sp, #4]
   13074:	ef123456 	svc	0x00123456
   13078:	e3a00000 	mov	r0, #0
   1307c:	e59f8158 	ldr	r8, [pc, #344]	; 131dc <__cs3_init_args+0x1a0>
   13080:	e1a09000 	mov	r9, r0
   13084:	e3a0a001 	mov	r10, #1
   13088:	e5889000 	str	r9, [r8]
   1308c:	e1a02007 	mov	r2, r7
   13090:	e1a04007 	mov	r4, r7
   13094:	e3a06000 	mov	r6, #0
   13098:	e5d4c000 	ldrb	r12, [r4]
   1309c:	e35c0000 	cmp	r12, #0
   130a0:	0a00001d 	beq	1311c <__cs3_init_args+0xe0>
   130a4:	e3560000 	cmp	r6, #0
   130a8:	e2841001 	add	r1, r4, #1
   130ac:	1a000005 	bne	130c8 <__cs3_init_args+0x8c>
   130b0:	e5983000 	ldr	r3, [r8]
   130b4:	e3500000 	cmp	r0, #0
   130b8:	17802103 	strne	r2, [r0, r3, lsl #2]
   130bc:	e2833001 	add	r3, r3, #1
   130c0:	e5883000 	str	r3, [r8]
   130c4:	e3a06001 	mov	r6, #1
   130c8:	e35c0020 	cmp	r12, #32
   130cc:	0a000025 	beq	13168 <__cs3_init_args+0x12c>
   130d0:	e35c0022 	cmp	r12, #34	; 0x22
   130d4:	135c0027 	cmpne	r12, #39	; 0x27
   130d8:	1a00001c 	bne	13150 <__cs3_init_args+0x114>
   130dc:	e5d43001 	ldrb	r3, [r4, #1]
   130e0:	e3530000 	cmp	r3, #0
   130e4:	0a00003a 	beq	131d4 <__cs3_init_args+0x198>
   130e8:	e15c0003 	cmp	r12, r3
   130ec:	0a000024 	beq	13184 <__cs3_init_args+0x148>
   130f0:	e2841002 	add	r1, r4, #2
   130f4:	ea000001 	b	13100 <__cs3_init_args+0xc4>
   130f8:	e15c0003 	cmp	r12, r3
   130fc:	0a000021 	beq	13188 <__cs3_init_args+0x14c>
   13100:	e3500000 	cmp	r0, #0
   13104:	15c23000 	strbne	r3, [r2]
   13108:	e1a04001 	mov	r4, r1
   1310c:	e4d13001 	ldrb	r3, [r1], #1
   13110:	12822001 	addne	r2, r2, #1
   13114:	e3530000 	cmp	r3, #0
   13118:	1afffff6 	bne	130f8 <__cs3_init_args+0xbc>
   1311c:	e35a0001 	cmp	r10, #1
   13120:	0a00001d 	beq	1319c <__cs3_init_args+0x160>
   13124:	e35a0002 	cmp	r10, #2
   13128:	1a000027 	bne	131cc <__cs3_init_args+0x190>
   1312c:	e3a03000 	mov	r3, #0
   13130:	e5c23000 	strb	r3, [r2]
   13134:	e59f20a4 	ldr	r2, [pc, #164]	; 131e0 <__cs3_init_args+0x1a4>
   13138:	e5981000 	ldr	r1, [r8]
   1313c:	e7803101 	str	r3, [r0, r1, lsl #2]
   13140:	e5820000 	str	r0, [r2]
   13144:	e28dd00c 	add	sp, sp, #12
   13148:	e8bd47d0 	pop	{r4, r6, r7, r8, r9, r10, lr}
   1314c:	e12fff1e 	bx	lr
   13150:	e3500000 	cmp	r0, #0
   13154:	01a04001 	moveq	r4, r1
   13158:	15c2c000 	strbne	r12, [r2]
   1315c:	11a04001 	movne	r4, r1
   13160:	12822001 	addne	r2, r2, #1
   13164:	eaffffcb 	b	13098 <__cs3_init_args+0x5c>
   13168:	e3500000 	cmp	r0, #0
   1316c:	0a000007 	beq	13190 <__cs3_init_args+0x154>
   13170:	e5c29000 	strb	r9, [r2]
   13174:	e1a04001 	mov	r4, r1
   13178:	e2822001 	add	r2, r2, #1
   1317c:	e3a06000 	mov	r6, #0
   13180:	eaffffc4 	b	13098 <__cs3_init_args+0x5c>
   13184:	e1a04001 	mov	r4, r1
   13188:	e2844001 	add	r4, r4, #1
   1318c:	eaffffc1 	b	13098 <__cs3_init_args+0x5c>
   13190:	e1a04001 	mov	r4, r1
   13194:	e1a06000 	mov	r6, r0
   13198:	eaffffbe 	b	13098 <__cs3_init_args+0x5c>
   1319c:	e0670004 	rsb	r0, r7, r4
   131a0:	e2800010 	add	r0, r0, #16
   131a4:	e3c0000f 	bic	r0, r0, #15
   131a8:	e2400c01 	sub	r0, r0, #256	; 0x100
   131ac:	ebffff12 	bl	12dfc <_sbrk>
   131b0:	e5980000 	ldr	r0, [r8]
   131b4:	e2800004 	add	r0, r0, #4
   131b8:	e3c00003 	bic	r0, r0, #3
   131bc:	e1a00100 	lsl	r0, r0, #2
   131c0:	ebffff0d 	bl	12dfc <_sbrk>
   131c4:	e3700001 	cmn	r0, #1
   131c8:	0affffdd 	beq	13144 <__cs3_init_args+0x108>
   131cc:	e28aa001 	add	r10, r10, #1
   131d0:	eaffffac 	b	13088 <__cs3_init_args+0x4c>
   131d4:	e1a04001 	mov	r4, r1
   131d8:	eaffffcf 	b	1311c <__cs3_init_args+0xe0>
   131dc:	00014208 	.word	0x00014208
   131e0:	00014204 	.word	0x00014204

000131e4 <__cs3_isr_interrupt>:
   131e4:	eafffffe 	b	131e4 <__cs3_isr_interrupt>

000131e8 <__cs3_isr_undef>:
   131e8:	eafffffe 	b	131e8 <__cs3_isr_undef>

000131ec <__cs3_isr_swi>:
   131ec:	eafffffe 	b	131ec <__cs3_isr_swi>

000131f0 <__cs3_isr_pabort>:
   131f0:	eafffffe 	b	131f0 <__cs3_isr_pabort>

000131f4 <__cs3_isr_dabort>:
   131f4:	eafffffe 	b	131f4 <__cs3_isr_dabort>

000131f8 <__cs3_isr_irq>:
   131f8:	eafffffe 	b	131f8 <__cs3_isr_irq>

000131fc <__cs3_isr_fiq>:
   131fc:	eafffffe 	b	131fc <__cs3_isr_fiq>

00013200 <__errno>:
   13200:	e59f3004 	ldr	r3, [pc, #4]	; 1320c <__errno+0xc>
   13204:	e5930000 	ldr	r0, [r3]
   13208:	e12fff1e 	bx	lr
   1320c:	00013830 	.word	0x00013830

00013210 <__libc_init_array>:
   13210:	e92d4070 	push	{r4, r5, r6, lr}
   13214:	e59f506c 	ldr	r5, [pc, #108]	; 13288 <__libc_init_array+0x78>
   13218:	e59f606c 	ldr	r6, [pc, #108]	; 1328c <__libc_init_array+0x7c>
   1321c:	e0656006 	rsb	r6, r5, r6
   13220:	e1b06146 	asrs	r6, r6, #2
   13224:	12455004 	subne	r5, r5, #4
   13228:	13a04000 	movne	r4, #0
   1322c:	0a000005 	beq	13248 <__libc_init_array+0x38>
   13230:	e2844001 	add	r4, r4, #1
   13234:	e5b53004 	ldr	r3, [r5, #4]!
   13238:	e1a0e00f 	mov	lr, pc
   1323c:	e12fff13 	bx	r3
   13240:	e1560004 	cmp	r6, r4
   13244:	1afffff9 	bne	13230 <__libc_init_array+0x20>
   13248:	e59f5040 	ldr	r5, [pc, #64]	; 13290 <__libc_init_array+0x80>
   1324c:	e59f6040 	ldr	r6, [pc, #64]	; 13294 <__libc_init_array+0x84>
   13250:	e0656006 	rsb	r6, r5, r6
   13254:	eb00015c 	bl	137cc <_init>
   13258:	e1b06146 	asrs	r6, r6, #2
   1325c:	12455004 	subne	r5, r5, #4
   13260:	13a04000 	movne	r4, #0
   13264:	0a000005 	beq	13280 <__libc_init_array+0x70>
   13268:	e2844001 	add	r4, r4, #1
   1326c:	e5b53004 	ldr	r3, [r5, #4]!
   13270:	e1a0e00f 	mov	lr, pc
   13274:	e12fff13 	bx	r3
   13278:	e1560004 	cmp	r6, r4
   1327c:	1afffff9 	bne	13268 <__libc_init_array+0x58>
   13280:	e8bd4070 	pop	{r4, r5, r6, lr}
   13284:	e12fff1e 	bx	lr
   13288:	000137e4 	.word	0x000137e4
   1328c:	000137e4 	.word	0x000137e4
   13290:	000137e4 	.word	0x000137e4
   13294:	000137f0 	.word	0x000137f0

Disassembly of section .rodata:

000132a8 <_ctype_-0x7c>:
   132a8:	65657247 	.word	0x65657247
   132ac:	676e6974 	.word	0x676e6974
   132b0:	6e612073 	.word	0x6e612073
   132b4:	61732064 	.word	0x61732064
   132b8:	6174756c 	.word	0x6174756c
   132bc:	6e6f6974 	.word	0x6e6f6974
   132c0:	00000073 	.word	0x00000073
   132c4:	61656c50 	.word	0x61656c50
   132c8:	65206573 	.word	0x65206573
   132cc:	7265746e 	.word	0x7265746e
   132d0:	33206120 	.word	0x33206120
   132d4:	69622032 	.word	0x69622032
   132d8:	6e692074 	.word	0x6e692074
   132dc:	65676574 	.word	0x65676574
   132e0:	71282072 	.word	0x71282072
   132e4:	206f7420 	.word	0x206f7420
   132e8:	74697571 	.word	0x74697571
   132ec:	00003a29 	.word	0x00003a29
   132f0:	00007325 	.word	0x00007325
   132f4:	626d754e 	.word	0x626d754e
   132f8:	74207265 	.word	0x74207265
   132fc:	62206f6f 	.word	0x62206f6f
   13300:	00006769 	.word	0x00006769
   13304:	61766e49 	.word	0x61766e49
   13308:	2064696c 	.word	0x2064696c
   1330c:	72616863 	.word	0x72616863
   13310:	65746361 	.word	0x65746361
   13314:	54202e72 	.word	0x54202e72
   13318:	61207972 	.word	0x61207972
   1331c:	6e696167 	.word	0x6e696167
   13320:	00000000 	.word	0x00000000

00013324 <_ctype_>:
   13324:	20202000 20202020 28282020 20282828     .         ((((( 
   13334:	20202020 20202020 20202020 20202020                     
   13344:	10108820 10101010 10101010 10101010      ...............
   13354:	04040410 04040404 10040404 10101010     ................
   13364:	41411010 41414141 01010101 01010101     ..AAAAAA........
   13374:	01010101 01010101 01010101 10101010     ................
   13384:	42421010 42424242 02020202 02020202     ..BBBBBB........
   13394:	02020202 02020202 02020202 10101010     ................
   133a4:	00000020 00000000 00000000 00000000      ...............
	...

00013428 <_global_impure_ptr>:
   13428:	00013838 00000043 0000000a              88..C.......

00013434 <blanks.6759>:
   13434:	20202020 20202020 20202020 20202020                     

00013444 <zeroes.6760>:
   13444:	30303030 30303030 30303030 30303030     0000000000000000
   13454:	00464e49 00666e69 004e414e 006e616e     INF.inf.NAN.nan.
   13464:	33323130 37363534 42413938 46454443     0123456789ABCDEF
   13474:	00000000 33323130 37363534 62613938     ....0123456789ab
   13484:	66656463 00000000 6c756e28 0000296c     cdef....(null)..
   13494:	00000030                                0...

00013498 <basefix.6679>:
   13498:	0001000a 00030002 00050004 00070006     ................
   134a8:	00090008 000b000a 000d000c 000f000e     ................
   134b8:	00000010 646c2565 00000000 69666e49     ....e%ld....Infi
   134c8:	7974696e 00000000 004e614e 49534f50     nity....NaN.POSI
   134d8:	00000058 0000002e                       X.......

000134e0 <p05.5289>:
   134e0:	00000005 00000019 0000007d 00000000     ........}.......

000134f0 <__mprec_tens>:
   134f0:	00000000 3ff00000 00000000 40240000     .......?......$@
   13500:	00000000 40590000 00000000 408f4000     ......Y@.....@.@
   13510:	00000000 40c38800 00000000 40f86a00     .......@.....j.@
   13520:	00000000 412e8480 00000000 416312d0     .......A......cA
   13530:	00000000 4197d784 00000000 41cdcd65     .......A....e..A
   13540:	20000000 4202a05f e8000000 42374876     ... _..B....vH7B
   13550:	a2000000 426d1a94 e5400000 42a2309c     ......mB..@..0.B
   13560:	1e900000 42d6bcc4 26340000 430c6bf5     .......B..4&.k.C
   13570:	37e08000 4341c379 85d8a000 43763457     ...7y.AC....W4vC
   13580:	674ec800 43abc16d 60913d00 43e158e4     ..Ngm..C.=.`.X.C
   13590:	78b58c40 4415af1d d6e2ef50 444b1ae4     @..x...DP.....KD
   135a0:	064dd592 4480f0cf c7e14af6 44b52d02     ..M....D.J...-.D
   135b0:	79d99db4 44ea7843                       ...yCx.D

000135b8 <__mprec_tinytens>:
   135b8:	97d889bc 3c9cd2b2 d5a8a733 3949f623     .......<3...#.I9
   135c8:	44f4a73d 32a50ffd cf8c979d 255bba08     =..D...2......[%
   135d8:	64ac6f43 0ac80628                       Co.d(...

000135e0 <__mprec_bigtens>:
   135e0:	37e08000 4341c379 b5056e17 4693b8b5     ...7y.AC.n.....F
   135f0:	e93ff9f5 4d384f03 f9301d32 5a827748     ..?..O8M2.0.Hw.Z
   13600:	7f73bf3c 75154fdd                       <.s..O.u

00013608 <fpi.5258>:
   13608:	00000035 fffffbce 000003cb 00000001     5...............
   13618:	00000000                                ....

0001361c <fpinan.5294>:
   1361c:	00000034 fffffbce 000003cb 00000001     4...............
   1362c:	00000000                                ....

00013630 <tinytens>:
   13630:	97d889bc 3c9cd2b2 d5a8a733 3949f623     .......<3...#.I9
   13640:	44f4a73d 32a50ffd cf8c979d 255bba08     =..D...2......[%
   13650:	64ac6f43 11680628 0000666e 74696e69     Co.d(.h.nf..init
   13660:	00000079 00006e61                       y...an..

00013668 <blanks.6744>:
   13668:	20202020 20202020 20202020 20202020                     

00013678 <zeroes.6745>:
   13678:	30303030 30303030 30303030 30303030     0000000000000000

00013688 <blanks.6702>:
   13688:	20202020 20202020 20202020 20202020                     

00013698 <zeroes.6703>:
   13698:	30303030 30303030 30303030 30303030     0000000000000000

000136a8 <__hexdig>:
	...
   136d8:	13121110 17161514 00001918 00000000     ................
   136e8:	1c1b1a00 001f1e1d 00000000 00000000     ................
	...
   13708:	1c1b1a00 001f1e1d 00000000 00000000     ................
	...

000137a8 <blanks.6688>:
   137a8:	20202020 20202020 20202020 20202020                     

000137b8 <zeroes.6689>:
   137b8:	30303030 30303030 30303030 30303030     0000000000000000
   137c8:	0074743a                                :tt.

000137cc <_init>:
   137cc:	e1a0c00d 	mov	r12, sp
   137d0:	e92ddff8 	push	{r3, r4, r5, r6, r7, r8, r9, r10, r11, r12, lr, pc}
   137d4:	e24cb004 	sub	r11, r12, #4
   137d8:	e24bd028 	sub	sp, r11, #40	; 0x28
   137dc:	e89d6ff0 	ldm	sp, {r4, r5, r6, r7, r8, r9, r10, r11, sp, lr}
   137e0:	e12fff1e 	bx	lr

000137e4 <__init_array_start>:
   137e4:	0000430c 	.word	0x0000430c

000137e8 <__frame_dummy_init_array_entry>:
   137e8:	00000200 0001303c                       ....<0..

000137f0 <__libc_fini>:
   137f0:	e1a0c00d 	mov	r12, sp
   137f4:	e92ddff8 	push	{r3, r4, r5, r6, r7, r8, r9, r10, r11, r12, lr, pc}
   137f8:	e24cb004 	sub	r11, r12, #4
   137fc:	e24bd028 	sub	sp, r11, #40	; 0x28
   13800:	e89d6ff0 	ldm	sp, {r4, r5, r6, r7, r8, r9, r10, r11, sp, lr}
   13804:	e12fff1e 	bx	lr

00013808 <__fini_array_start>:
   13808:	000001bc 	.word	0x000001bc

0001380c <__cs3_regions>:
	...
   13818:	00014100 	.word	0x00014100
   1381c:	00000110 	.word	0x00000110
