
/home/camey/Desktop/lab2/lab2.axf:     file format elf32-littlearm


Disassembly of section .text:

00000000 <__cs3_interrupt_vector>:
       0:	18 f0 9f e5 18 f0 9f e5 18 f0 9f e5 18 f0 9f e5     ................
      10:	18 f0 9f e5 18 f0 9f e5 18 f0 9f e5 18 f0 9f e5     ................
      20:	40 00 00 00 e8 31 01 00 ec 31 01 00 f0 31 01 00     @....1...1...1..
      30:	f4 31 01 00 e4 31 01 00 f8 31 01 00 fc 31 01 00     .1...1...1...1..

00000040 <__cs3_reset>:
      40:	ea000024 	b	d8 <__cs3_start_asm_sim>

00000044 <__cs3_start_c>:
      44:	e59f8084 	ldr	r8, [pc, #132]	; d0 <__cs3_start_c+0x8c>
      48:	e3580000 	cmp	r8, #0
      4c:	e92d4080 	push	{r7, lr}
      50:	e2488001 	sub	r8, r8, #1
      54:	0a00001c 	beq	cc <__cs3_start_c+0x88>
      58:	e59f7074 	ldr	r7, [pc, #116]	; d4 <__cs3_start_c+0x90>
      5c:	e3a00000 	mov	r0, #0
      60:	e3a01000 	mov	r1, #0
      64:	e2475010 	sub	r5, r7, #16
      68:	e8951020 	ldm	r5, {r5, r12}
      6c:	e5176008 	ldr	r6, [r7, #-8]
      70:	e155000c 	cmp	r5, r12
      74:	008cc006 	addeq	r12, r12, r6
      78:	0a000007 	beq	9c <__cs3_start_c+0x58>
      7c:	e3560000 	cmp	r6, #0
      80:	0a000005 	beq	9c <__cs3_start_c+0x58>
      84:	e1a0e005 	mov	lr, r5
      88:	e8be000c 	ldm	lr!, {r2, r3}
      8c:	e065400e 	rsb	r4, r5, lr
      90:	e1560004 	cmp	r6, r4
      94:	e8ac000c 	stmia	r12!, {r2, r3}
      98:	1afffffa 	bne	88 <__cs3_start_c+0x44>
      9c:	e517e004 	ldr	lr, [r7, #-4]
      a0:	e35e0000 	cmp	lr, #0
      a4:	11a0300c 	movne	r3, r12
      a8:	0a000003 	beq	bc <__cs3_start_c+0x78>
      ac:	e8a30003 	stmia	r3!, {r0, r1}
      b0:	e06c2003 	rsb	r2, r12, r3
      b4:	e15e0002 	cmp	lr, r2
      b8:	1afffffb 	bne	ac <__cs3_start_c+0x68>
      bc:	e2488001 	sub	r8, r8, #1
      c0:	e3780001 	cmn	r8, #1
      c4:	e2877014 	add	r7, r7, #20
      c8:	1affffe5 	bne	64 <__cs3_start_c+0x20>
      cc:	eb004a93 	bl	12b20 <__cs3_premain>
      d0:	00000001 	.word	0x00000001
      d4:	00013820 	.word	0x00013820

000000d8 <__cs3_start_asm_sim>:
      d8:	e28f103c 	add	r1, pc, #60	; 0x3c
      dc:	e3a00016 	mov	r0, #22
      e0:	ef123456 	svc	0x00123456
      e4:	e3500000 	cmp	r0, #0
      e8:	ba000008 	blt	110 <__cs3_region_zero_size_ram>
      ec:	e59f2028 	ldr	r2, [pc, #40]	; 11c <__cs3_heap_start_ptr>
      f0:	e59fd01c 	ldr	sp, [pc, #28]	; 114 <__cs3_region_zero_size_ram+0x4>
      f4:	e5920008 	ldr	r0, [r2, #8]
      f8:	e3500000 	cmp	r0, #0
      fc:	11a0d000 	movne	sp, r0
     100:	e59f1010 	ldr	r1, [pc, #16]	; 118 <__cs3_region_zero_size_ram+0x8>
     104:	e5920004 	ldr	r0, [r2, #4]
     108:	e3500000 	cmp	r0, #0
     10c:	15810000 	strne	r0, [r1]
     110:	eaffffcb 	b	44 <__cs3_start_c>
     114:	3ffffffc 	.word	0x3ffffffc
     118:	000140f4 	.word	0x000140f4

0000011c <__cs3_heap_start_ptr>:
     11c:	00014210 	.word	0x00014210

00000120 <_start>:
     120:	e51fd000 	ldr	sp, [pc, #-0]	; 128 <_start+0x8>
     124:	eaffffc6 	b	44 <__cs3_start_c>
     128:	3ffffffc 	.word	0x3ffffffc

0000012c <deregister_tm_clones>:
     12c:	e92d4008 	push	{r3, lr}
     130:	e59f002c 	ldr	r0, [pc, #44]	; 164 <deregister_tm_clones+0x38>
     134:	e59f302c 	ldr	r3, [pc, #44]	; 168 <deregister_tm_clones+0x3c>
     138:	e0603003 	rsb	r3, r0, r3
     13c:	e3530006 	cmp	r3, #6
     140:	8a000001 	bhi	14c <deregister_tm_clones+0x20>
     144:	e8bd4008 	pop	{r3, lr}
     148:	e12fff1e 	bx	lr
     14c:	e59f3018 	ldr	r3, [pc, #24]	; 16c <deregister_tm_clones+0x40>
     150:	e3530000 	cmp	r3, #0
     154:	0afffffa 	beq	144 <deregister_tm_clones+0x18>
     158:	e1a0e00f 	mov	lr, pc
     15c:	e12fff13 	bx	r3
     160:	eafffff7 	b	144 <deregister_tm_clones+0x18>
     164:	00014100 	.word	0x00014100
     168:	00014103 	.word	0x00014103
     16c:	00000000 	.word	0x00000000

00000170 <register_tm_clones>:
     170:	e92d4008 	push	{r3, lr}
     174:	e59f0034 	ldr	r0, [pc, #52]	; 1b0 <register_tm_clones+0x40>
     178:	e59f3034 	ldr	r3, [pc, #52]	; 1b4 <register_tm_clones+0x44>
     17c:	e0603003 	rsb	r3, r0, r3
     180:	e1a03143 	asr	r3, r3, #2
     184:	e0833fa3 	add	r3, r3, r3, lsr #31
     188:	e1b010c3 	asrs	r1, r3, #1
     18c:	1a000001 	bne	198 <register_tm_clones+0x28>
     190:	e8bd4008 	pop	{r3, lr}
     194:	e12fff1e 	bx	lr
     198:	e59f2018 	ldr	r2, [pc, #24]	; 1b8 <register_tm_clones+0x48>
     19c:	e3520000 	cmp	r2, #0
     1a0:	0afffffa 	beq	190 <register_tm_clones+0x20>
     1a4:	e1a0e00f 	mov	lr, pc
     1a8:	e12fff12 	bx	r2
     1ac:	eafffff7 	b	190 <register_tm_clones+0x20>
     1b0:	00014100 	.word	0x00014100
     1b4:	00014100 	.word	0x00014100
     1b8:	00000000 	.word	0x00000000

000001bc <__do_global_dtors_aux>:
     1bc:	e92d4010 	push	{r4, lr}
     1c0:	e59f402c 	ldr	r4, [pc, #44]	; 1f4 <__do_global_dtors_aux+0x38>
     1c4:	e5d43000 	ldrb	r3, [r4]
     1c8:	e3530000 	cmp	r3, #0
     1cc:	1a000006 	bne	1ec <__do_global_dtors_aux+0x30>
     1d0:	ebffffd5 	bl	12c <deregister_tm_clones>
     1d4:	e59f301c 	ldr	r3, [pc, #28]	; 1f8 <__do_global_dtors_aux+0x3c>
     1d8:	e3530000 	cmp	r3, #0
     1dc:	159f0018 	ldrne	r0, [pc, #24]	; 1fc <__do_global_dtors_aux+0x40>
     1e0:	1320f000 	nopne	{0}
     1e4:	e3a03001 	mov	r3, #1
     1e8:	e5c43000 	strb	r3, [r4]
     1ec:	e8bd4010 	pop	{r4, lr}
     1f0:	e12fff1e 	bx	lr
     1f4:	00014100 	.word	0x00014100
     1f8:	00000000 	.word	0x00000000
     1fc:	00013298 	.word	0x00013298

00000200 <frame_dummy>:
     200:	e92d4008 	push	{r3, lr}
     204:	e59f3034 	ldr	r3, [pc, #52]	; 240 <frame_dummy+0x40>
     208:	e3530000 	cmp	r3, #0
     20c:	159f0030 	ldrne	r0, [pc, #48]	; 244 <frame_dummy+0x44>
     210:	159f1030 	ldrne	r1, [pc, #48]	; 248 <frame_dummy+0x48>
     214:	1320f000 	nopne	{0}
     218:	e59f002c 	ldr	r0, [pc, #44]	; 24c <frame_dummy+0x4c>
     21c:	e5903000 	ldr	r3, [r0]
     220:	e3530000 	cmp	r3, #0
     224:	0a000003 	beq	238 <frame_dummy+0x38>
     228:	e59f3020 	ldr	r3, [pc, #32]	; 250 <frame_dummy+0x50>
     22c:	e3530000 	cmp	r3, #0
     230:	11a0e00f 	movne	lr, pc
     234:	112fff13 	bxne	r3
     238:	e8bd4008 	pop	{r3, lr}
     23c:	eaffffcb 	b	170 <register_tm_clones>
     240:	00000000 	.word	0x00000000
     244:	00013298 	.word	0x00013298
     248:	00014104 	.word	0x00014104
     24c:	00013820 	.word	0x00013820
     250:	00000000 	.word	0x00000000

00000254 <main>:
#include <ctype.h>
#include <string.h>
#include <stdlib.h>
#include <stdint.h>

int main(){
     254:	e92d43f0 	push	{r4, r5, r6, r7, r8, r9, lr}
     258:	e24dd014 	sub	sp, sp, #20
  
	//volatile uint32_t * reg = (uint32_t *) 0xFF200028; // reg base addr
	volatile int * reg = (int *) 0xFF200028; // reg base addr

	printf("Greetings and salutations\n");
     25c:	e30302a8 	movw	r0, #12968	; 0x32a8
     260:	e3400001 	movt	r0, #1
     264:	eb000098 	bl	4cc <puts>
	char buffer[16];
	int i;
	int valid = 1;
	unsigned long long int num;
	while(1){
		printf("Please enter a 32 bit integer (q to quit):");
     268:	e30352c4 	movw	r5, #12996	; 0x32c4
     26c:	e3405001 	movt	r5, #1
		scanf("%s", buffer);
     270:	e30342f0 	movw	r4, #13040	; 0x32f0
     274:	e3404001 	movt	r4, #1
		
		if(buffer[0] == 'q')
			break;	
		for(i = 0; i < strlen(buffer); i++)
		{
			if(!isdigit(buffer[i]))
     278:	e3036828 	movw	r6, #14376	; 0x3828
     27c:	e3406001 	movt	r6, #1
		{	
			num = atoll(buffer);
			if(num <= 4294967295)
				*(reg) = num;
			else
				printf("Number too big\n");
     280:	e30392f4 	movw	r9, #13044	; 0x32f4
     284:	e3409001 	movt	r9, #1
			printf("Invalid character. Try again\n");
		else	// convert to int
		{	
			num = atoll(buffer);
			if(num <= 4294967295)
				*(reg) = num;
     288:	e3a08000 	mov	r8, #0
     28c:	e34f8f20 	movt	r8, #65312	; 0xff20
				valid = 0;
				break;
			}	
		}
		if(valid == 0)
			printf("Invalid character. Try again\n");
     290:	e3037304 	movw	r7, #13060	; 0x3304
     294:	e3407001 	movt	r7, #1
	char buffer[16];
	int i;
	int valid = 1;
	unsigned long long int num;
	while(1){
		printf("Please enter a 32 bit integer (q to quit):");
     298:	e1a00005 	mov	r0, r5
     29c:	eb000055 	bl	3f8 <printf>
		scanf("%s", buffer);
     2a0:	e1a00004 	mov	r0, r4
     2a4:	e1a0100d 	mov	r1, sp
     2a8:	eb00008c 	bl	4e0 <scanf>
		//gets(buffer);
		
		if(buffer[0] == 'q')
     2ac:	e5dd3000 	ldrb	r3, [sp]
     2b0:	e3530071 	cmp	r3, #113	; 0x71
     2b4:	0a00001e 	beq	334 <main+0xe0>
			break;	
		for(i = 0; i < strlen(buffer); i++)
     2b8:	e1a0000d 	mov	r0, sp
     2bc:	eb0000a4 	bl	554 <strlen>
		{
			if(!isdigit(buffer[i]))
     2c0:	e5961000 	ldr	r1, [r6]
     2c4:	e24d3001 	sub	r3, sp, #1
     2c8:	e0830000 	add	r0, r3, r0
     2cc:	ea000004 	b	2e4 <main+0x90>
     2d0:	e5f32001 	ldrb	r2, [r3, #1]!
     2d4:	e0812002 	add	r2, r1, r2
     2d8:	e5d22001 	ldrb	r2, [r2, #1]
     2dc:	e3120004 	tst	r2, #4
     2e0:	0a000005 	beq	2fc <main+0xa8>
		scanf("%s", buffer);
		//gets(buffer);
		
		if(buffer[0] == 'q')
			break;	
		for(i = 0; i < strlen(buffer); i++)
     2e4:	e1530000 	cmp	r3, r0
     2e8:	1afffff8 	bne	2d0 <main+0x7c>
     2ec:	ea000005 	b	308 <main+0xb4>
		{	
			num = atoll(buffer);
			if(num <= 4294967295)
				*(reg) = num;
			else
				printf("Number too big\n");
     2f0:	e1a00009 	mov	r0, r9
     2f4:	eb000074 	bl	4cc <puts>
     2f8:	eaffffe6 	b	298 <main+0x44>
				valid = 0;
				break;
			}	
		}
		if(valid == 0)
			printf("Invalid character. Try again\n");
     2fc:	e1a00007 	mov	r0, r7
     300:	eb000071 	bl	4cc <puts>
     304:	eaffffe3 	b	298 <main+0x44>
		else	// convert to int
		{	
			num = atoll(buffer);
     308:	e1a0000d 	mov	r0, sp
     30c:	eb000013 	bl	360 <atoll>
     310:	e1a02000 	mov	r2, r0
     314:	e1a03001 	mov	r3, r1
			if(num <= 4294967295)
     318:	e3e00000 	mvn	r0, #0
     31c:	e3a01000 	mov	r1, #0
     320:	e1530001 	cmp	r3, r1
     324:	01520000 	cmpeq	r2, r0
				*(reg) = num;
     328:	95882028 	strls	r2, [r8, #40]	; 0x28
		if(valid == 0)
			printf("Invalid character. Try again\n");
		else	// convert to int
		{	
			num = atoll(buffer);
			if(num <= 4294967295)
     32c:	9affffd9 	bls	298 <main+0x44>
     330:	eaffffee 	b	2f0 <main+0x9c>
				printf("Number too big\n");
		}
		valid = 1;
		}
	return 0;
}
     334:	e3a00000 	mov	r0, #0
     338:	e28dd014 	add	sp, sp, #20
     33c:	e8bd83f0 	pop	{r4, r5, r6, r7, r8, r9, pc}

00000340 <atexit>:
     340:	e92d4008 	push	{r3, lr}
     344:	e1a01000 	mov	r1, r0
     348:	e3a00000 	mov	r0, #0
     34c:	e1a03000 	mov	r3, r0
     350:	e1a02000 	mov	r2, r0
     354:	eb000f54 	bl	40ac <__register_exitproc>
     358:	e8bd4008 	pop	{r3, lr}
     35c:	e12fff1e 	bx	lr

00000360 <atoll>:
     360:	e92d4008 	push	{r3, lr}
     364:	e3a01000 	mov	r1, #0
     368:	e3a0200a 	mov	r2, #10
     36c:	eb000090 	bl	5b4 <strtoll>
     370:	e8bd4008 	pop	{r3, lr}
     374:	e12fff1e 	bx	lr

00000378 <_atoll_r>:
     378:	e92d4008 	push	{r3, lr}
     37c:	e3a02000 	mov	r2, #0
     380:	e3a0300a 	mov	r3, #10
     384:	eb000095 	bl	5e0 <_strtoll_r>
     388:	e8bd4008 	pop	{r3, lr}
     38c:	e12fff1e 	bx	lr

00000390 <exit>:
     390:	e92d4008 	push	{r3, lr}
     394:	e3a01000 	mov	r1, #0
     398:	e1a04000 	mov	r4, r0
     39c:	eb000f7e 	bl	419c <__call_exitprocs>
     3a0:	e59f3018 	ldr	r3, [pc, #24]	; 3c0 <exit+0x30>
     3a4:	e5930000 	ldr	r0, [r3]
     3a8:	e590303c 	ldr	r3, [r0, #60]	; 0x3c
     3ac:	e3530000 	cmp	r3, #0
     3b0:	11a0e00f 	movne	lr, pc
     3b4:	112fff13 	bxne	r3
     3b8:	e1a00004 	mov	r0, r4
     3bc:	eb004a08 	bl	12be4 <_exit>
     3c0:	00013428 	.word	0x00013428

000003c4 <_printf_r>:
     3c4:	e92d000e 	push	{r1, r2, r3}
     3c8:	e52de004 	push	{lr}		; (str lr, [sp, #-4]!)
     3cc:	e24dd008 	sub	sp, sp, #8
     3d0:	e28dc010 	add	r12, sp, #16
     3d4:	e1a0300c 	mov	r3, r12
     3d8:	e5901008 	ldr	r1, [r0, #8]
     3dc:	e59d200c 	ldr	r2, [sp, #12]
     3e0:	e58dc004 	str	r12, [sp, #4]
     3e4:	eb000128 	bl	88c <_vfprintf_r>
     3e8:	e28dd008 	add	sp, sp, #8
     3ec:	e49de004 	pop	{lr}		; (ldr lr, [sp], #4)
     3f0:	e28dd00c 	add	sp, sp, #12
     3f4:	e12fff1e 	bx	lr

000003f8 <printf>:
     3f8:	e92d000f 	push	{r0, r1, r2, r3}
     3fc:	e52de004 	push	{lr}		; (str lr, [sp, #-4]!)
     400:	e59f302c 	ldr	r3, [pc, #44]	; 434 <printf+0x3c>
     404:	e24dd00c 	sub	sp, sp, #12
     408:	e5930000 	ldr	r0, [r3]
     40c:	e28dc014 	add	r12, sp, #20
     410:	e5901008 	ldr	r1, [r0, #8]
     414:	e1a0300c 	mov	r3, r12
     418:	e59d2010 	ldr	r2, [sp, #16]
     41c:	e58dc004 	str	r12, [sp, #4]
     420:	eb000119 	bl	88c <_vfprintf_r>
     424:	e28dd00c 	add	sp, sp, #12
     428:	e49de004 	pop	{lr}		; (ldr lr, [sp], #4)
     42c:	e28dd010 	add	sp, sp, #16
     430:	e12fff1e 	bx	lr
     434:	00013830 	.word	0x00013830

00000438 <_puts_r>:
     438:	e92d40f0 	push	{r4, r5, r6, r7, lr}
     43c:	e1a04000 	mov	r4, r0
     440:	e24dd024 	sub	sp, sp, #36	; 0x24
     444:	e1a00001 	mov	r0, r1
     448:	e1a05001 	mov	r5, r1
     44c:	eb000040 	bl	554 <strlen>
     450:	e5943008 	ldr	r3, [r4, #8]
     454:	e1d320bc 	ldrh	r2, [r3, #12]
     458:	e3a01002 	mov	r1, #2
     45c:	e3120a02 	tst	r2, #8192	; 0x2000
     460:	e58d1008 	str	r1, [sp, #8]
     464:	05931064 	ldreq	r1, [r3, #100]	; 0x64
     468:	03822a02 	orreq	r2, r2, #8192	; 0x2000
     46c:	03c11a02 	biceq	r1, r1, #8192	; 0x2000
     470:	e3a0e001 	mov	lr, #1
     474:	e59f604c 	ldr	r6, [pc, #76]	; 4c8 <_puts_r+0x90>
     478:	05831064 	streq	r1, [r3, #100]	; 0x64
     47c:	e2807001 	add	r7, r0, #1
     480:	e28dc010 	add	r12, sp, #16
     484:	e58d0014 	str	r0, [sp, #20]
     488:	e58de01c 	str	lr, [sp, #28]
     48c:	e1a00004 	mov	r0, r4
     490:	01c320bc 	strheq	r2, [r3, #12]
     494:	e1a01003 	mov	r1, r3
     498:	e28d2004 	add	r2, sp, #4
     49c:	e58d5010 	str	r5, [sp, #16]
     4a0:	e58d700c 	str	r7, [sp, #12]
     4a4:	e58d6018 	str	r6, [sp, #24]
     4a8:	e58dc004 	str	r12, [sp, #4]
     4ac:	eb0018df 	bl	6830 <__sfvwrite_r>
     4b0:	e3500000 	cmp	r0, #0
     4b4:	03a0000a 	moveq	r0, #10
     4b8:	13e00000 	mvnne	r0, #0
     4bc:	e28dd024 	add	sp, sp, #36	; 0x24
     4c0:	e8bd40f0 	pop	{r4, r5, r6, r7, lr}
     4c4:	e12fff1e 	bx	lr
     4c8:	00013430 	.word	0x00013430

000004cc <puts>:
     4cc:	e59f3008 	ldr	r3, [pc, #8]	; 4dc <puts+0x10>
     4d0:	e1a01000 	mov	r1, r0
     4d4:	e5930000 	ldr	r0, [r3]
     4d8:	eaffffd6 	b	438 <_puts_r>
     4dc:	00013830 	.word	0x00013830

000004e0 <scanf>:
     4e0:	e92d000f 	push	{r0, r1, r2, r3}
     4e4:	e52de004 	push	{lr}		; (str lr, [sp, #-4]!)
     4e8:	e59f302c 	ldr	r3, [pc, #44]	; 51c <scanf+0x3c>
     4ec:	e24dd00c 	sub	sp, sp, #12
     4f0:	e5930000 	ldr	r0, [r3]
     4f4:	e28dc014 	add	r12, sp, #20
     4f8:	e5901004 	ldr	r1, [r0, #4]
     4fc:	e1a0300c 	mov	r3, r12
     500:	e59d2010 	ldr	r2, [sp, #16]
     504:	e58dc004 	str	r12, [sp, #4]
     508:	eb000e7e 	bl	3f08 <_vfscanf_r>
     50c:	e28dd00c 	add	sp, sp, #12
     510:	e49de004 	pop	{lr}		; (ldr lr, [sp], #4)
     514:	e28dd010 	add	sp, sp, #16
     518:	e12fff1e 	bx	lr
     51c:	00013830 	.word	0x00013830

00000520 <_scanf_r>:
     520:	e92d000e 	push	{r1, r2, r3}
     524:	e52de004 	push	{lr}		; (str lr, [sp, #-4]!)
     528:	e24dd008 	sub	sp, sp, #8
     52c:	e28dc010 	add	r12, sp, #16
     530:	e1a0300c 	mov	r3, r12
     534:	e5901004 	ldr	r1, [r0, #4]
     538:	e59d200c 	ldr	r2, [sp, #12]
     53c:	e58dc004 	str	r12, [sp, #4]
     540:	eb000e70 	bl	3f08 <_vfscanf_r>
     544:	e28dd008 	add	sp, sp, #8
     548:	e49de004 	pop	{lr}		; (ldr lr, [sp], #4)
     54c:	e28dd00c 	add	sp, sp, #12
     550:	e12fff1e 	bx	lr

00000554 <strlen>:
     554:	e3c01003 	bic	r1, r0, #3
     558:	e2100003 	ands	r0, r0, #3
     55c:	e2600000 	rsb	r0, r0, #0
     560:	e4913004 	ldr	r3, [r1], #4
     564:	e280c004 	add	r12, r0, #4
     568:	e1a0c18c 	lsl	r12, r12, #3
     56c:	e3e02000 	mvn	r2, #0
     570:	11833c32 	orrne	r3, r3, r2, lsr r12
     574:	e3a0c001 	mov	r12, #1
     578:	e18cc40c 	orr	r12, r12, r12, lsl #8
     57c:	e18cc80c 	orr	r12, r12, r12, lsl #16
     580:	e043200c 	sub	r2, r3, r12
     584:	e1c22003 	bic	r2, r2, r3
     588:	e012238c 	ands	r2, r2, r12, lsl #7
     58c:	04913004 	ldreq	r3, [r1], #4
     590:	02800004 	addeq	r0, r0, #4
     594:	0afffff9 	beq	580 <strlen+0x2c>
     598:	e31300ff 	tst	r3, #255	; 0xff
     59c:	12800001 	addne	r0, r0, #1
     5a0:	13130cff 	tstne	r3, #65280	; 0xff00
     5a4:	12800001 	addne	r0, r0, #1
     5a8:	131308ff 	tstne	r3, #16711680	; 0xff0000
     5ac:	12800001 	addne	r0, r0, #1
     5b0:	e12fff1e 	bx	lr

000005b4 <strtoll>:
     5b4:	e92d4008 	push	{r3, lr}
     5b8:	e59fc01c 	ldr	r12, [pc, #28]	; 5dc <strtoll+0x28>
     5bc:	e1a0e001 	mov	lr, r1
     5c0:	e1a03002 	mov	r3, r2
     5c4:	e1a01000 	mov	r1, r0
     5c8:	e1a0200e 	mov	r2, lr
     5cc:	e59c0000 	ldr	r0, [r12]
     5d0:	eb000002 	bl	5e0 <_strtoll_r>
     5d4:	e8bd4008 	pop	{r3, lr}
     5d8:	e12fff1e 	bx	lr
     5dc:	00013830 	.word	0x00013830

000005e0 <_strtoll_r>:
     5e0:	e92d4ff0 	push	{r4, r5, r6, r7, r8, r9, r10, r11, lr}
     5e4:	e59fc29c 	ldr	r12, [pc, #668]	; 888 <_strtoll_r+0x2a8>
     5e8:	e24dd024 	sub	sp, sp, #36	; 0x24
     5ec:	e58d2008 	str	r2, [sp, #8]
     5f0:	e58d1018 	str	r1, [sp, #24]
     5f4:	e59c7000 	ldr	r7, [r12]
     5f8:	e58d001c 	str	r0, [sp, #28]
     5fc:	e1a08003 	mov	r8, r3
     600:	e1a02001 	mov	r2, r1
     604:	ea000000 	b	60c <_strtoll_r+0x2c>
     608:	e1a02006 	mov	r2, r6
     60c:	e1a06002 	mov	r6, r2
     610:	e4d6a001 	ldrb	r10, [r6], #1
     614:	e087300a 	add	r3, r7, r10
     618:	e5d33001 	ldrb	r3, [r3, #1]
     61c:	e2133008 	ands	r3, r3, #8
     620:	1afffff8 	bne	608 <_strtoll_r+0x28>
     624:	e35a002d 	cmp	r10, #45	; 0x2d
     628:	0a000074 	beq	800 <_strtoll_r+0x220>
     62c:	e35a002b 	cmp	r10, #43	; 0x2b
     630:	e58d300c 	str	r3, [sp, #12]
     634:	05d2a001 	ldrbeq	r10, [r2, #1]
     638:	02826002 	addeq	r6, r2, #2
     63c:	e3d83010 	bics	r3, r8, #16
     640:	1a000008 	bne	668 <_strtoll_r+0x88>
     644:	e2783001 	rsbs	r3, r8, #1
     648:	33a03000 	movcc	r3, #0
     64c:	e35a0030 	cmp	r10, #48	; 0x30
     650:	0a00007c 	beq	848 <_strtoll_r+0x268>
     654:	e3530000 	cmp	r3, #0
     658:	13a0b00a 	movne	r11, #10
     65c:	13a0c000 	movne	r12, #0
     660:	13a0800a 	movne	r8, #10
     664:	1a000001 	bne	670 <_strtoll_r+0x90>
     668:	e1a0b008 	mov	r11, r8
     66c:	e1a0cfc8 	asr	r12, r8, #31
     670:	e59d200c 	ldr	r2, [sp, #12]
     674:	e3520000 	cmp	r2, #0
     678:	13a04000 	movne	r4, #0
     67c:	13a05102 	movne	r5, #-2147483648	; 0x80000000
     680:	03e04000 	mvneq	r4, #0
     684:	03e05102 	mvneq	r5, #-2147483648	; 0x80000000
     688:	e1a00004 	mov	r0, r4
     68c:	e1a01005 	mov	r1, r5
     690:	e1a0200b 	mov	r2, r11
     694:	e1a0300c 	mov	r3, r12
     698:	e58dc004 	str	r12, [sp, #4]
     69c:	eb00468d 	bl	120d8 <__aeabi_uldivmod>
     6a0:	e59dc004 	ldr	r12, [sp, #4]
     6a4:	e1a09002 	mov	r9, r2
     6a8:	e1a0300c 	mov	r3, r12
     6ac:	e1a0200b 	mov	r2, r11
     6b0:	e1a00004 	mov	r0, r4
     6b4:	e1a01005 	mov	r1, r5
     6b8:	eb004686 	bl	120d8 <__aeabi_uldivmod>
     6bc:	e59dc004 	ldr	r12, [sp, #4]
     6c0:	e1a02008 	mov	r2, r8
     6c4:	e58db010 	str	r11, [sp, #16]
     6c8:	e58dc014 	str	r12, [sp, #20]
     6cc:	e3a03000 	mov	r3, #0
     6d0:	e1a0b009 	mov	r11, r9
     6d4:	e3a04000 	mov	r4, #0
     6d8:	e3a05000 	mov	r5, #0
     6dc:	e28d9010 	add	r9, sp, #16
     6e0:	e8990300 	ldm	r9, {r8, r9}
     6e4:	e1a0c002 	mov	r12, r2
     6e8:	ea000010 	b	730 <_strtoll_r+0x150>
     6ec:	e1550001 	cmp	r5, r1
     6f0:	01540000 	cmpeq	r4, r0
     6f4:	13a03000 	movne	r3, #0
     6f8:	03a03001 	moveq	r3, #1
     6fc:	e15a000b 	cmp	r10, r11
     700:	d3a03000 	movle	r3, #0
     704:	c2033001 	andgt	r3, r3, #1
     708:	e3530000 	cmp	r3, #0
     70c:	1a00001a 	bne	77c <_strtoll_r+0x19c>
     710:	e0030994 	mul	r3, r4, r9
     714:	e0253598 	mla	r5, r8, r5, r3
     718:	e0832894 	umull	r2, r3, r4, r8
     71c:	e0853003 	add	r3, r5, r3
     720:	e092400a 	adds	r4, r2, r10
     724:	e0a35fca 	adc	r5, r3, r10, asr #31
     728:	e3a03001 	mov	r3, #1
     72c:	e4d6a001 	ldrb	r10, [r6], #1
     730:	e087200a 	add	r2, r7, r10
     734:	e5d22001 	ldrb	r2, [r2, #1]
     738:	e3120004 	tst	r2, #4
     73c:	124aa030 	subne	r10, r10, #48	; 0x30
     740:	1a000005 	bne	75c <_strtoll_r+0x17c>
     744:	e2122003 	ands	r2, r2, #3
     748:	0a00000d 	beq	784 <_strtoll_r+0x1a4>
     74c:	e3520001 	cmp	r2, #1
     750:	13a02057 	movne	r2, #87	; 0x57
     754:	03a02037 	moveq	r2, #55	; 0x37
     758:	e062a00a 	rsb	r10, r2, r10
     75c:	e15c000a 	cmp	r12, r10
     760:	da000007 	ble	784 <_strtoll_r+0x1a4>
     764:	e1550001 	cmp	r5, r1
     768:	01540000 	cmpeq	r4, r0
     76c:	93a02000 	movls	r2, #0
     770:	83a02001 	movhi	r2, #1
     774:	e1923fa3 	orrs	r3, r2, r3, lsr #31
     778:	0affffdb 	beq	6ec <_strtoll_r+0x10c>
     77c:	e3e03000 	mvn	r3, #0
     780:	eaffffe9 	b	72c <_strtoll_r+0x14c>
     784:	e3730001 	cmn	r3, #1
     788:	0a000021 	beq	814 <_strtoll_r+0x234>
     78c:	e59d200c 	ldr	r2, [sp, #12]
     790:	e3520000 	cmp	r2, #0
     794:	1a000016 	bne	7f4 <_strtoll_r+0x214>
     798:	e59d2008 	ldr	r2, [sp, #8]
     79c:	e3520000 	cmp	r2, #0
     7a0:	01a00004 	moveq	r0, r4
     7a4:	01a01005 	moveq	r1, r5
     7a8:	0a000006 	beq	7c8 <_strtoll_r+0x1e8>
     7ac:	e3530000 	cmp	r3, #0
     7b0:	0a000007 	beq	7d4 <_strtoll_r+0x1f4>
     7b4:	e1a00004 	mov	r0, r4
     7b8:	e1a01005 	mov	r1, r5
     7bc:	e59d3008 	ldr	r3, [sp, #8]
     7c0:	e2466001 	sub	r6, r6, #1
     7c4:	e5836000 	str	r6, [r3]
     7c8:	e28dd024 	add	sp, sp, #36	; 0x24
     7cc:	e8bd4ff0 	pop	{r4, r5, r6, r7, r8, r9, r10, r11, lr}
     7d0:	e12fff1e 	bx	lr
     7d4:	e59d6018 	ldr	r6, [sp, #24]
     7d8:	e59d3008 	ldr	r3, [sp, #8]
     7dc:	e1a00004 	mov	r0, r4
     7e0:	e1a01005 	mov	r1, r5
     7e4:	e5836000 	str	r6, [r3]
     7e8:	e28dd024 	add	sp, sp, #36	; 0x24
     7ec:	e8bd4ff0 	pop	{r4, r5, r6, r7, r8, r9, r10, r11, lr}
     7f0:	e12fff1e 	bx	lr
     7f4:	e2744000 	rsbs	r4, r4, #0
     7f8:	e2e55000 	rsc	r5, r5, #0
     7fc:	eaffffe5 	b	798 <_strtoll_r+0x1b8>
     800:	e2826002 	add	r6, r2, #2
     804:	e5d2a001 	ldrb	r10, [r2, #1]
     808:	e3a02001 	mov	r2, #1
     80c:	e58d200c 	str	r2, [sp, #12]
     810:	eaffff89 	b	63c <_strtoll_r+0x5c>
     814:	e59d300c 	ldr	r3, [sp, #12]
     818:	e59d2008 	ldr	r2, [sp, #8]
     81c:	e3530000 	cmp	r3, #0
     820:	13a00000 	movne	r0, #0
     824:	13a01102 	movne	r1, #-2147483648	; 0x80000000
     828:	03e00000 	mvneq	r0, #0
     82c:	03e01102 	mvneq	r1, #-2147483648	; 0x80000000
     830:	e3520000 	cmp	r2, #0
     834:	e59d201c 	ldr	r2, [sp, #28]
     838:	e3a03022 	mov	r3, #34	; 0x22
     83c:	e5823000 	str	r3, [r2]
     840:	1affffdd 	bne	7bc <_strtoll_r+0x1dc>
     844:	eaffffdf 	b	7c8 <_strtoll_r+0x1e8>
     848:	e5d62000 	ldrb	r2, [r6]
     84c:	e20220df 	and	r2, r2, #223	; 0xdf
     850:	e3520058 	cmp	r2, #88	; 0x58
     854:	0a000005 	beq	870 <_strtoll_r+0x290>
     858:	e3530000 	cmp	r3, #0
     85c:	13a0b008 	movne	r11, #8
     860:	13a0c000 	movne	r12, #0
     864:	13a08008 	movne	r8, #8
     868:	1affff80 	bne	670 <_strtoll_r+0x90>
     86c:	eaffff7d 	b	668 <_strtoll_r+0x88>
     870:	e5d6a001 	ldrb	r10, [r6, #1]
     874:	e3a0b010 	mov	r11, #16
     878:	e3a0c000 	mov	r12, #0
     87c:	e2866002 	add	r6, r6, #2
     880:	e3a08010 	mov	r8, #16
     884:	eaffff79 	b	670 <_strtoll_r+0x90>
     888:	00013828 	.word	0x00013828

0000088c <_vfprintf_r>:
     88c:	e92d4ff0 	push	{r4, r5, r6, r7, r8, r9, r10, r11, lr}
     890:	e24ddf43 	sub	sp, sp, #268	; 0x10c
     894:	e1a04003 	mov	r4, r3
     898:	e58d1028 	str	r1, [sp, #40]	; 0x28
     89c:	e58d2024 	str	r2, [sp, #36]	; 0x24
     8a0:	e58d0034 	str	r0, [sp, #52]	; 0x34
     8a4:	eb00198a 	bl	6ed4 <_localeconv_r>
     8a8:	e5900000 	ldr	r0, [r0]
     8ac:	e58d0054 	str	r0, [sp, #84]	; 0x54
     8b0:	ebffff27 	bl	554 <strlen>
     8b4:	e59d5034 	ldr	r5, [sp, #52]	; 0x34
     8b8:	e3550000 	cmp	r5, #0
     8bc:	e58d005c 	str	r0, [sp, #92]	; 0x5c
     8c0:	e58d4044 	str	r4, [sp, #68]	; 0x44
     8c4:	0a000002 	beq	8d4 <_vfprintf_r+0x48>
     8c8:	e5953038 	ldr	r3, [r5, #56]	; 0x38
     8cc:	e3530000 	cmp	r3, #0
     8d0:	0a0000e2 	beq	c60 <_vfprintf_r+0x3d4>
     8d4:	e59dc028 	ldr	r12, [sp, #40]	; 0x28
     8d8:	e1dc30bc 	ldrh	r3, [r12, #12]
     8dc:	e3130a02 	tst	r3, #8192	; 0x2000
     8e0:	059c1064 	ldreq	r1, [r12, #100]	; 0x64
     8e4:	e1a02003 	mov	r2, r3
     8e8:	03832a02 	orreq	r2, r3, #8192	; 0x2000
     8ec:	03c13a02 	biceq	r3, r1, #8192	; 0x2000
     8f0:	01cc20bc 	strheq	r2, [r12, #12]
     8f4:	058c3064 	streq	r3, [r12, #100]	; 0x64
     8f8:	e3120008 	tst	r2, #8
     8fc:	0a0000a7 	beq	ba0 <_vfprintf_r+0x314>
     900:	e59d5028 	ldr	r5, [sp, #40]	; 0x28
     904:	e5953010 	ldr	r3, [r5, #16]
     908:	e3530000 	cmp	r3, #0
     90c:	0a0000a3 	beq	ba0 <_vfprintf_r+0x314>
     910:	e202201a 	and	r2, r2, #26
     914:	e352000a 	cmp	r2, #10
     918:	0a0000aa 	beq	bc8 <_vfprintf_r+0x33c>
     91c:	e3a03000 	mov	r3, #0
     920:	e28dc0c8 	add	r12, sp, #200	; 0xc8
     924:	e59f5f5c 	ldr	r5, [pc, #3932]	; 1888 <_vfprintf_r+0xffc>
     928:	e58dc01c 	str	r12, [sp, #28]
     92c:	e58d309c 	str	r3, [sp, #156]	; 0x9c
     930:	e58d3098 	str	r3, [sp, #152]	; 0x98
     934:	e58d303c 	str	r3, [sp, #60]	; 0x3c
     938:	e58dc094 	str	r12, [sp, #148]	; 0x94
     93c:	e58d3058 	str	r3, [sp, #88]	; 0x58
     940:	e58d3060 	str	r3, [sp, #96]	; 0x60
     944:	e58d3068 	str	r3, [sp, #104]	; 0x68
     948:	e58d3064 	str	r3, [sp, #100]	; 0x64
     94c:	e58d3048 	str	r3, [sp, #72]	; 0x48
     950:	e1a0700c 	mov	r7, r12
     954:	e2859010 	add	r9, r5, #16
     958:	e59dc024 	ldr	r12, [sp, #36]	; 0x24
     95c:	e5dc3000 	ldrb	r3, [r12]
     960:	e3530025 	cmp	r3, #37	; 0x25
     964:	13530000 	cmpne	r3, #0
     968:	0a0000bf 	beq	c6c <_vfprintf_r+0x3e0>
     96c:	e28c3001 	add	r3, r12, #1
     970:	e1a04003 	mov	r4, r3
     974:	e5d33000 	ldrb	r3, [r3]
     978:	e3530025 	cmp	r3, #37	; 0x25
     97c:	13530000 	cmpne	r3, #0
     980:	e2843001 	add	r3, r4, #1
     984:	1afffff9 	bne	970 <_vfprintf_r+0xe4>
     988:	e59dc024 	ldr	r12, [sp, #36]	; 0x24
     98c:	e054500c 	subs	r5, r4, r12
     990:	0a00000d 	beq	9cc <_vfprintf_r+0x140>
     994:	e59d3098 	ldr	r3, [sp, #152]	; 0x98
     998:	e59d209c 	ldr	r2, [sp, #156]	; 0x9c
     99c:	e2833001 	add	r3, r3, #1
     9a0:	e3530007 	cmp	r3, #7
     9a4:	e0822005 	add	r2, r2, r5
     9a8:	e587c000 	str	r12, [r7]
     9ac:	e5875004 	str	r5, [r7, #4]
     9b0:	e58d3098 	str	r3, [sp, #152]	; 0x98
     9b4:	e58d209c 	str	r2, [sp, #156]	; 0x9c
     9b8:	d2877008 	addle	r7, r7, #8
     9bc:	ca000091 	bgt	c08 <_vfprintf_r+0x37c>
     9c0:	e59dc048 	ldr	r12, [sp, #72]	; 0x48
     9c4:	e08cc005 	add	r12, r12, r5
     9c8:	e58dc048 	str	r12, [sp, #72]	; 0x48
     9cc:	e5d43000 	ldrb	r3, [r4]
     9d0:	e3530000 	cmp	r3, #0
     9d4:	0a000093 	beq	c28 <_vfprintf_r+0x39c>
     9d8:	e2845001 	add	r5, r4, #1
     9dc:	e3e0c000 	mvn	r12, #0
     9e0:	e3a03000 	mov	r3, #0
     9e4:	e58d5024 	str	r5, [sp, #36]	; 0x24
     9e8:	e5d48001 	ldrb	r8, [r4, #1]
     9ec:	e58dc02c 	str	r12, [sp, #44]	; 0x2c
     9f0:	e1a02003 	mov	r2, r3
     9f4:	e5cd3077 	strb	r3, [sp, #119]	; 0x77
     9f8:	e58d3040 	str	r3, [sp, #64]	; 0x40
     9fc:	e58d3020 	str	r3, [sp, #32]
     a00:	e1a03005 	mov	r3, r5
     a04:	e2833001 	add	r3, r3, #1
     a08:	e2481020 	sub	r1, r8, #32
     a0c:	e3510058 	cmp	r1, #88	; 0x58
     a10:	979ff101 	ldrls	pc, [pc, r1, lsl #2]
     a14:	ea00027f 	b	1418 <_vfprintf_r+0xb8c>
     a18:	00001214 	.word	0x00001214
     a1c:	00001418 	.word	0x00001418
     a20:	00001418 	.word	0x00001418
     a24:	000012f0 	.word	0x000012f0
     a28:	00001418 	.word	0x00001418
     a2c:	00001418 	.word	0x00001418
     a30:	00001418 	.word	0x00001418
     a34:	00001418 	.word	0x00001418
     a38:	00001418 	.word	0x00001418
     a3c:	00001418 	.word	0x00001418
     a40:	000010f4 	.word	0x000010f4
     a44:	00001208 	.word	0x00001208
     a48:	00001418 	.word	0x00001418
     a4c:	00000b8c 	.word	0x00000b8c
     a50:	00000efc 	.word	0x00000efc
     a54:	00001418 	.word	0x00001418
     a58:	000013d4 	.word	0x000013d4
     a5c:	000013e8 	.word	0x000013e8
     a60:	000013e8 	.word	0x000013e8
     a64:	000013e8 	.word	0x000013e8
     a68:	000013e8 	.word	0x000013e8
     a6c:	000013e8 	.word	0x000013e8
     a70:	000013e8 	.word	0x000013e8
     a74:	000013e8 	.word	0x000013e8
     a78:	000013e8 	.word	0x000013e8
     a7c:	000013e8 	.word	0x000013e8
     a80:	00001418 	.word	0x00001418
     a84:	00001418 	.word	0x00001418
     a88:	00001418 	.word	0x00001418
     a8c:	00001418 	.word	0x00001418
     a90:	00001418 	.word	0x00001418
     a94:	00001418 	.word	0x00001418
     a98:	00001418 	.word	0x00001418
     a9c:	00001418 	.word	0x00001418
     aa0:	00001418 	.word	0x00001418
     aa4:	00001418 	.word	0x00001418
     aa8:	00000fa0 	.word	0x00000fa0
     aac:	00000ff8 	.word	0x00000ff8
     ab0:	00001418 	.word	0x00001418
     ab4:	00000ff8 	.word	0x00000ff8
     ab8:	00001418 	.word	0x00001418
     abc:	00001418 	.word	0x00001418
     ac0:	00001418 	.word	0x00001418
     ac4:	00001418 	.word	0x00001418
     ac8:	000010a0 	.word	0x000010a0
     acc:	00001418 	.word	0x00001418
     ad0:	00001418 	.word	0x00001418
     ad4:	000010b4 	.word	0x000010b4
     ad8:	00001418 	.word	0x00001418
     adc:	00001418 	.word	0x00001418
     ae0:	00001418 	.word	0x00001418
     ae4:	00001418 	.word	0x00001418
     ae8:	00001418 	.word	0x00001418
     aec:	00000f50 	.word	0x00000f50
     af0:	00001418 	.word	0x00001418
     af4:	00001418 	.word	0x00001418
     af8:	00001388 	.word	0x00001388
     afc:	00001418 	.word	0x00001418
     b00:	00001418 	.word	0x00001418
     b04:	00001418 	.word	0x00001418
     b08:	00001418 	.word	0x00001418
     b0c:	00001418 	.word	0x00001418
     b10:	00001418 	.word	0x00001418
     b14:	00001418 	.word	0x00001418
     b18:	00001418 	.word	0x00001418
     b1c:	00001418 	.word	0x00001418
     b20:	00001418 	.word	0x00001418
     b24:	00001304 	.word	0x00001304
     b28:	00001348 	.word	0x00001348
     b2c:	00000ff8 	.word	0x00000ff8
     b30:	00000ff8 	.word	0x00000ff8
     b34:	00000ff8 	.word	0x00000ff8
     b38:	0000126c 	.word	0x0000126c
     b3c:	00001348 	.word	0x00001348
     b40:	00001418 	.word	0x00001418
     b44:	00001418 	.word	0x00001418
     b48:	00001280 	.word	0x00001280
     b4c:	00001418 	.word	0x00001418
     b50:	000012b0 	.word	0x000012b0
     b54:	00000ecc 	.word	0x00000ecc
     b58:	00001224 	.word	0x00001224
     b5c:	0000111c 	.word	0x0000111c
     b60:	00001418 	.word	0x00001418
     b64:	00001130 	.word	0x00001130
     b68:	00001418 	.word	0x00001418
     b6c:	00000c74 	.word	0x00000c74
     b70:	00001418 	.word	0x00001418
     b74:	00001418 	.word	0x00001418
     b78:	000011a4 	.word	0x000011a4
     b7c:	e59d5040 	ldr	r5, [sp, #64]	; 0x40
     b80:	e2655000 	rsb	r5, r5, #0
     b84:	e58d5040 	str	r5, [sp, #64]	; 0x40
     b88:	e58d1044 	str	r1, [sp, #68]	; 0x44
     b8c:	e59dc020 	ldr	r12, [sp, #32]
     b90:	e38cc004 	orr	r12, r12, #4
     b94:	e58dc020 	str	r12, [sp, #32]
     b98:	e5d38000 	ldrb	r8, [r3]
     b9c:	eaffff98 	b	a04 <_vfprintf_r+0x178>
     ba0:	e59d0034 	ldr	r0, [sp, #52]	; 0x34
     ba4:	e59d1028 	ldr	r1, [sp, #40]	; 0x28
     ba8:	eb000ce8 	bl	3f50 <__swsetup_r>
     bac:	e3500000 	cmp	r0, #0
     bb0:	1a000010 	bne	bf8 <_vfprintf_r+0x36c>
     bb4:	e59dc028 	ldr	r12, [sp, #40]	; 0x28
     bb8:	e1dc20bc 	ldrh	r2, [r12, #12]
     bbc:	e202201a 	and	r2, r2, #26
     bc0:	e352000a 	cmp	r2, #10
     bc4:	1affff54 	bne	91c <_vfprintf_r+0x90>
     bc8:	e59d5028 	ldr	r5, [sp, #40]	; 0x28
     bcc:	e1d530fe 	ldrsh	r3, [r5, #14]
     bd0:	e3530000 	cmp	r3, #0
     bd4:	baffff50 	blt	91c <_vfprintf_r+0x90>
     bd8:	e59d0034 	ldr	r0, [sp, #52]	; 0x34
     bdc:	e1a01005 	mov	r1, r5
     be0:	e59d2024 	ldr	r2, [sp, #36]	; 0x24
     be4:	e1a03004 	mov	r3, r4
     be8:	eb000711 	bl	2834 <__sbprintf>
     bec:	e28ddf43 	add	sp, sp, #268	; 0x10c
     bf0:	e8bd4ff0 	pop	{r4, r5, r6, r7, r8, r9, r10, r11, lr}
     bf4:	e12fff1e 	bx	lr
     bf8:	e3e00000 	mvn	r0, #0
     bfc:	e28ddf43 	add	sp, sp, #268	; 0x10c
     c00:	e8bd4ff0 	pop	{r4, r5, r6, r7, r8, r9, r10, r11, lr}
     c04:	e12fff1e 	bx	lr
     c08:	e59d0034 	ldr	r0, [sp, #52]	; 0x34
     c0c:	e59d1028 	ldr	r1, [sp, #40]	; 0x28
     c10:	e28d2094 	add	r2, sp, #148	; 0x94
     c14:	eb0032ea 	bl	d7c4 <__sprint_r>
     c18:	e3500000 	cmp	r0, #0
     c1c:	1a000007 	bne	c40 <_vfprintf_r+0x3b4>
     c20:	e28d70c8 	add	r7, sp, #200	; 0xc8
     c24:	eaffff65 	b	9c0 <_vfprintf_r+0x134>
     c28:	e59d309c 	ldr	r3, [sp, #156]	; 0x9c
     c2c:	e3530000 	cmp	r3, #0
     c30:	159d0034 	ldrne	r0, [sp, #52]	; 0x34
     c34:	159d1028 	ldrne	r1, [sp, #40]	; 0x28
     c38:	128d2094 	addne	r2, sp, #148	; 0x94
     c3c:	1b0032e0 	blne	d7c4 <__sprint_r>
     c40:	e59d4028 	ldr	r4, [sp, #40]	; 0x28
     c44:	e1d430bc 	ldrh	r3, [r4, #12]
     c48:	e3130040 	tst	r3, #64	; 0x40
     c4c:	1affffe9 	bne	bf8 <_vfprintf_r+0x36c>
     c50:	e59d0048 	ldr	r0, [sp, #72]	; 0x48
     c54:	e28ddf43 	add	sp, sp, #268	; 0x10c
     c58:	e8bd4ff0 	pop	{r4, r5, r6, r7, r8, r9, r10, r11, lr}
     c5c:	e12fff1e 	bx	lr
     c60:	e1a00005 	mov	r0, r5
     c64:	eb0014c3 	bl	5f78 <__sinit>
     c68:	eaffff19 	b	8d4 <_vfprintf_r+0x48>
     c6c:	e59d4024 	ldr	r4, [sp, #36]	; 0x24
     c70:	eaffff55 	b	9cc <_vfprintf_r+0x140>
     c74:	e59d5020 	ldr	r5, [sp, #32]
     c78:	e3150020 	tst	r5, #32
     c7c:	e58d3024 	str	r3, [sp, #36]	; 0x24
     c80:	0a0000b9 	beq	f6c <_vfprintf_r+0x6e0>
     c84:	e59dc044 	ldr	r12, [sp, #68]	; 0x44
     c88:	e28c3007 	add	r3, r12, #7
     c8c:	e3c33007 	bic	r3, r3, #7
     c90:	e2834008 	add	r4, r3, #8
     c94:	e58d4044 	str	r4, [sp, #68]	; 0x44
     c98:	e8930030 	ldm	r3, {r4, r5}
     c9c:	e3a03001 	mov	r3, #1
     ca0:	e3a0a000 	mov	r10, #0
     ca4:	e5cda077 	strb	r10, [sp, #119]	; 0x77
     ca8:	e59dc02c 	ldr	r12, [sp, #44]	; 0x2c
     cac:	e35c0000 	cmp	r12, #0
     cb0:	a59dc020 	ldrge	r12, [sp, #32]
     cb4:	a3ccc080 	bicge	r12, r12, #128	; 0x80
     cb8:	a58dc020 	strge	r12, [sp, #32]
     cbc:	e1940005 	orrs	r0, r4, r5
     cc0:	e59dc02c 	ldr	r12, [sp, #44]	; 0x2c
     cc4:	03a02000 	moveq	r2, #0
     cc8:	13a02001 	movne	r2, #1
     ccc:	e35c0000 	cmp	r12, #0
     cd0:	13822001 	orrne	r2, r2, #1
     cd4:	e3520000 	cmp	r2, #0
     cd8:	0a0002cb 	beq	180c <_vfprintf_r+0xf80>
     cdc:	e3530001 	cmp	r3, #1
     ce0:	0a0003b1 	beq	1bac <_vfprintf_r+0x1320>
     ce4:	e3530002 	cmp	r3, #2
     ce8:	e28d20c7 	add	r2, sp, #199	; 0xc7
     cec:	1a00005b 	bne	e60 <_vfprintf_r+0x5d4>
     cf0:	e59dc068 	ldr	r12, [sp, #104]	; 0x68
     cf4:	e1a03224 	lsr	r3, r4, #4
     cf8:	e204000f 	and	r0, r4, #15
     cfc:	e1833e05 	orr	r3, r3, r5, lsl #28
     d00:	e1a01225 	lsr	r1, r5, #4
     d04:	e1a04003 	mov	r4, r3
     d08:	e1a05001 	mov	r5, r1
     d0c:	e7dc3000 	ldrb	r3, [r12, r0]
     d10:	e1940005 	orrs	r0, r4, r5
     d14:	e1a06002 	mov	r6, r2
     d18:	e5c23000 	strb	r3, [r2]
     d1c:	e2422001 	sub	r2, r2, #1
     d20:	1afffff3 	bne	cf4 <_vfprintf_r+0x468>
     d24:	e59d301c 	ldr	r3, [sp, #28]
     d28:	e0663003 	rsb	r3, r6, r3
     d2c:	e58d3038 	str	r3, [sp, #56]	; 0x38
     d30:	e59dc038 	ldr	r12, [sp, #56]	; 0x38
     d34:	e59d402c 	ldr	r4, [sp, #44]	; 0x2c
     d38:	e3a05000 	mov	r5, #0
     d3c:	e15c0004 	cmp	r12, r4
     d40:	b1a0c004 	movlt	r12, r4
     d44:	e58dc030 	str	r12, [sp, #48]	; 0x30
     d48:	e58d5050 	str	r5, [sp, #80]	; 0x50
     d4c:	e35a0000 	cmp	r10, #0
     d50:	0a000002 	beq	d60 <_vfprintf_r+0x4d4>
     d54:	e59d4030 	ldr	r4, [sp, #48]	; 0x30
     d58:	e2844001 	add	r4, r4, #1
     d5c:	e58d4030 	str	r4, [sp, #48]	; 0x30
     d60:	e59d5020 	ldr	r5, [sp, #32]
     d64:	e215b002 	ands	r11, r5, #2
     d68:	159dc030 	ldrne	r12, [sp, #48]	; 0x30
     d6c:	e59d3020 	ldr	r3, [sp, #32]
     d70:	128cc002 	addne	r12, r12, #2
     d74:	158dc030 	strne	r12, [sp, #48]	; 0x30
     d78:	e2133084 	ands	r3, r3, #132	; 0x84
     d7c:	e58d304c 	str	r3, [sp, #76]	; 0x4c
     d80:	1a0001ae 	bne	1440 <_vfprintf_r+0xbb4>
     d84:	e59d4040 	ldr	r4, [sp, #64]	; 0x40
     d88:	e59dc030 	ldr	r12, [sp, #48]	; 0x30
     d8c:	e06c5004 	rsb	r5, r12, r4
     d90:	e3550000 	cmp	r5, #0
     d94:	da0001a9 	ble	1440 <_vfprintf_r+0xbb4>
     d98:	e3550010 	cmp	r5, #16
     d9c:	e59d109c 	ldr	r1, [sp, #156]	; 0x9c
     da0:	e59d2098 	ldr	r2, [sp, #152]	; 0x98
     da4:	e59faadc 	ldr	r10, [pc, #2780]	; 1888 <_vfprintf_r+0xffc>
     da8:	da000021 	ble	e34 <_vfprintf_r+0x5a8>
     dac:	e58d606c 	str	r6, [sp, #108]	; 0x6c
     db0:	e1a00007 	mov	r0, r7
     db4:	e3a04010 	mov	r4, #16
     db8:	e1a07005 	mov	r7, r5
     dbc:	e59d6028 	ldr	r6, [sp, #40]	; 0x28
     dc0:	e59d5034 	ldr	r5, [sp, #52]	; 0x34
     dc4:	ea000002 	b	dd4 <_vfprintf_r+0x548>
     dc8:	e2477010 	sub	r7, r7, #16
     dcc:	e3570010 	cmp	r7, #16
     dd0:	da000014 	ble	e28 <_vfprintf_r+0x59c>
     dd4:	e2822001 	add	r2, r2, #1
     dd8:	e59f3aa8 	ldr	r3, [pc, #2728]	; 1888 <_vfprintf_r+0xffc>
     ddc:	e3520007 	cmp	r2, #7
     de0:	e2811010 	add	r1, r1, #16
     de4:	e8800018 	stm	r0, {r3, r4}
     de8:	e58d2098 	str	r2, [sp, #152]	; 0x98
     dec:	e58d109c 	str	r1, [sp, #156]	; 0x9c
     df0:	d2800008 	addle	r0, r0, #8
     df4:	dafffff3 	ble	dc8 <_vfprintf_r+0x53c>
     df8:	e1a00005 	mov	r0, r5
     dfc:	e1a01006 	mov	r1, r6
     e00:	e28d2094 	add	r2, sp, #148	; 0x94
     e04:	eb00326e 	bl	d7c4 <__sprint_r>
     e08:	e3500000 	cmp	r0, #0
     e0c:	1affff8b 	bne	c40 <_vfprintf_r+0x3b4>
     e10:	e2477010 	sub	r7, r7, #16
     e14:	e3570010 	cmp	r7, #16
     e18:	e59d109c 	ldr	r1, [sp, #156]	; 0x9c
     e1c:	e59d2098 	ldr	r2, [sp, #152]	; 0x98
     e20:	e28d00c8 	add	r0, sp, #200	; 0xc8
     e24:	caffffea 	bgt	dd4 <_vfprintf_r+0x548>
     e28:	e59d606c 	ldr	r6, [sp, #108]	; 0x6c
     e2c:	e1a05007 	mov	r5, r7
     e30:	e1a07000 	mov	r7, r0
     e34:	e2822001 	add	r2, r2, #1
     e38:	e0854001 	add	r4, r5, r1
     e3c:	e3520007 	cmp	r2, #7
     e40:	e58d2098 	str	r2, [sp, #152]	; 0x98
     e44:	e58d409c 	str	r4, [sp, #156]	; 0x9c
     e48:	e587a000 	str	r10, [r7]
     e4c:	e5875004 	str	r5, [r7, #4]
     e50:	ca00035f 	bgt	1bd4 <_vfprintf_r+0x1348>
     e54:	e2877008 	add	r7, r7, #8
     e58:	e5dda077 	ldrb	r10, [sp, #119]	; 0x77
     e5c:	ea000178 	b	1444 <_vfprintf_r+0xbb8>
     e60:	e1a031a4 	lsr	r3, r4, #3
     e64:	e1833e85 	orr	r3, r3, r5, lsl #29
     e68:	e1a001a5 	lsr	r0, r5, #3
     e6c:	e2041007 	and	r1, r4, #7
     e70:	e1a05000 	mov	r5, r0
     e74:	e1a04003 	mov	r4, r3
     e78:	e1940005 	orrs	r0, r4, r5
     e7c:	e2813030 	add	r3, r1, #48	; 0x30
     e80:	e1a06002 	mov	r6, r2
     e84:	e5c23000 	strb	r3, [r2]
     e88:	e2422001 	sub	r2, r2, #1
     e8c:	1afffff3 	bne	e60 <_vfprintf_r+0x5d4>
     e90:	e59d4020 	ldr	r4, [sp, #32]
     e94:	e3140001 	tst	r4, #1
     e98:	e1a01006 	mov	r1, r6
     e9c:	0a000348 	beq	1bc4 <_vfprintf_r+0x1338>
     ea0:	e3530030 	cmp	r3, #48	; 0x30
     ea4:	059dc01c 	ldreq	r12, [sp, #28]
     ea8:	159d401c 	ldrne	r4, [sp, #28]
     eac:	11a06002 	movne	r6, r2
     eb0:	0066c00c 	rsbeq	r12, r6, r12
     eb4:	13a03030 	movne	r3, #48	; 0x30
     eb8:	10664004 	rsbne	r4, r6, r4
     ebc:	058dc038 	streq	r12, [sp, #56]	; 0x38
     ec0:	158d4038 	strne	r4, [sp, #56]	; 0x38
     ec4:	15413001 	strbne	r3, [r1, #-1]
     ec8:	eaffff98 	b	d30 <_vfprintf_r+0x4a4>
     ecc:	e59dc020 	ldr	r12, [sp, #32]
     ed0:	e58d3024 	str	r3, [sp, #36]	; 0x24
     ed4:	e21c3020 	ands	r3, r12, #32
     ed8:	0a00007c 	beq	10d0 <_vfprintf_r+0x844>
     edc:	e59d4044 	ldr	r4, [sp, #68]	; 0x44
     ee0:	e2843007 	add	r3, r4, #7
     ee4:	e3c33007 	bic	r3, r3, #7
     ee8:	e2835008 	add	r5, r3, #8
     eec:	e58d5044 	str	r5, [sp, #68]	; 0x44
     ef0:	e8930030 	ldm	r3, {r4, r5}
     ef4:	e3a03000 	mov	r3, #0
     ef8:	eaffff68 	b	ca0 <_vfprintf_r+0x414>
     efc:	e5d38000 	ldrb	r8, [r3]
     f00:	e358002a 	cmp	r8, #42	; 0x2a
     f04:	e2830001 	add	r0, r3, #1
     f08:	0a000629 	beq	27b4 <_vfprintf_r+0x1f28>
     f0c:	e2481030 	sub	r1, r8, #48	; 0x30
     f10:	e3510009 	cmp	r1, #9
     f14:	83a04000 	movhi	r4, #0
     f18:	81a03000 	movhi	r3, r0
     f1c:	858d402c 	strhi	r4, [sp, #44]	; 0x2c
     f20:	8afffeb8 	bhi	a08 <_vfprintf_r+0x17c>
     f24:	e3a03000 	mov	r3, #0
     f28:	e4d08001 	ldrb	r8, [r0], #1
     f2c:	e0833103 	add	r3, r3, r3, lsl #2
     f30:	e0813083 	add	r3, r1, r3, lsl #1
     f34:	e2481030 	sub	r1, r8, #48	; 0x30
     f38:	e3510009 	cmp	r1, #9
     f3c:	9afffff9 	bls	f28 <_vfprintf_r+0x69c>
     f40:	e1833fc3 	orr	r3, r3, r3, asr #31
     f44:	e58d302c 	str	r3, [sp, #44]	; 0x2c
     f48:	e1a03000 	mov	r3, r0
     f4c:	eafffead 	b	a08 <_vfprintf_r+0x17c>
     f50:	e59d4020 	ldr	r4, [sp, #32]
     f54:	e3844010 	orr	r4, r4, #16
     f58:	e58d4020 	str	r4, [sp, #32]
     f5c:	e59d5020 	ldr	r5, [sp, #32]
     f60:	e3150020 	tst	r5, #32
     f64:	e58d3024 	str	r3, [sp, #36]	; 0x24
     f68:	1affff45 	bne	c84 <_vfprintf_r+0x3f8>
     f6c:	e59d5020 	ldr	r5, [sp, #32]
     f70:	e3150010 	tst	r5, #16
     f74:	1a000341 	bne	1c80 <_vfprintf_r+0x13f4>
     f78:	e59d4020 	ldr	r4, [sp, #32]
     f7c:	e3140040 	tst	r4, #64	; 0x40
     f80:	0a00033e 	beq	1c80 <_vfprintf_r+0x13f4>
     f84:	e59d5044 	ldr	r5, [sp, #68]	; 0x44
     f88:	e1d540b0 	ldrh	r4, [r5]
     f8c:	e2855004 	add	r5, r5, #4
     f90:	e58d5044 	str	r5, [sp, #68]	; 0x44
     f94:	e3a03001 	mov	r3, #1
     f98:	e3a05000 	mov	r5, #0
     f9c:	eaffff3f 	b	ca0 <_vfprintf_r+0x414>
     fa0:	e59d5020 	ldr	r5, [sp, #32]
     fa4:	e3855010 	orr	r5, r5, #16
     fa8:	e58d5020 	str	r5, [sp, #32]
     fac:	e59dc020 	ldr	r12, [sp, #32]
     fb0:	e31c0020 	tst	r12, #32
     fb4:	e58d3024 	str	r3, [sp, #36]	; 0x24
     fb8:	e5cd2077 	strb	r2, [sp, #119]	; 0x77
     fbc:	0a0000e6 	beq	135c <_vfprintf_r+0xad0>
     fc0:	e59d4044 	ldr	r4, [sp, #68]	; 0x44
     fc4:	e2841007 	add	r1, r4, #7
     fc8:	e3c11007 	bic	r1, r1, #7
     fcc:	e891000c 	ldm	r1, {r2, r3}
     fd0:	e2811008 	add	r1, r1, #8
     fd4:	e58d1044 	str	r1, [sp, #68]	; 0x44
     fd8:	e1a04002 	mov	r4, r2
     fdc:	e1a05003 	mov	r5, r3
     fe0:	e3520000 	cmp	r2, #0
     fe4:	e2d30000 	sbcs	r0, r3, #0
     fe8:	ba0003e2 	blt	1f78 <_vfprintf_r+0x16ec>
     fec:	e5dda077 	ldrb	r10, [sp, #119]	; 0x77
     ff0:	e3a03001 	mov	r3, #1
     ff4:	eaffff2b 	b	ca8 <_vfprintf_r+0x41c>
     ff8:	e59d4020 	ldr	r4, [sp, #32]
     ffc:	e59d5044 	ldr	r5, [sp, #68]	; 0x44
    1000:	e58d3024 	str	r3, [sp, #36]	; 0x24
    1004:	e3140008 	tst	r4, #8
    1008:	e2853007 	add	r3, r5, #7
    100c:	e5cd2077 	strb	r2, [sp, #119]	; 0x77
    1010:	e3c33007 	bic	r3, r3, #7
    1014:	0a00043d 	beq	2110 <_vfprintf_r+0x1884>
    1018:	e283c008 	add	r12, r3, #8
    101c:	e5934000 	ldr	r4, [r3]
    1020:	e5933004 	ldr	r3, [r3, #4]
    1024:	e58dc044 	str	r12, [sp, #68]	; 0x44
    1028:	e58d4058 	str	r4, [sp, #88]	; 0x58
    102c:	e58d3060 	str	r3, [sp, #96]	; 0x60
    1030:	e59d1060 	ldr	r1, [sp, #96]	; 0x60
    1034:	e59d0058 	ldr	r0, [sp, #88]	; 0x58
    1038:	eb002085 	bl	9254 <__fpclassifyd>
    103c:	e3500001 	cmp	r0, #1
    1040:	e59d1060 	ldr	r1, [sp, #96]	; 0x60
    1044:	e59d0058 	ldr	r0, [sp, #88]	; 0x58
    1048:	1a0003d0 	bne	1f90 <_vfprintf_r+0x1704>
    104c:	e3a03000 	mov	r3, #0
    1050:	e3a02000 	mov	r2, #0
    1054:	eb00436e 	bl	11e14 <__aeabi_dcmplt>
    1058:	e59d4020 	ldr	r4, [sp, #32]
    105c:	e3500000 	cmp	r0, #0
    1060:	13a0a02d 	movne	r10, #45	; 0x2d
    1064:	e59f3820 	ldr	r3, [pc, #2080]	; 188c <_vfprintf_r+0x1000>
    1068:	e3a05003 	mov	r5, #3
    106c:	e3a0c000 	mov	r12, #0
    1070:	05dda077 	ldrbeq	r10, [sp, #119]	; 0x77
    1074:	15cda077 	strbne	r10, [sp, #119]	; 0x77
    1078:	e3c44080 	bic	r4, r4, #128	; 0x80
    107c:	e3580047 	cmp	r8, #71	; 0x47
    1080:	e59f6808 	ldr	r6, [pc, #2056]	; 1890 <_vfprintf_r+0x1004>
    1084:	e58d5030 	str	r5, [sp, #48]	; 0x30
    1088:	e58dc02c 	str	r12, [sp, #44]	; 0x2c
    108c:	e58d4020 	str	r4, [sp, #32]
    1090:	d1a06003 	movle	r6, r3
    1094:	e58d5038 	str	r5, [sp, #56]	; 0x38
    1098:	e58dc050 	str	r12, [sp, #80]	; 0x50
    109c:	eaffff2a 	b	d4c <_vfprintf_r+0x4c0>
    10a0:	e59d4020 	ldr	r4, [sp, #32]
    10a4:	e3844008 	orr	r4, r4, #8
    10a8:	e58d4020 	str	r4, [sp, #32]
    10ac:	e5d38000 	ldrb	r8, [r3]
    10b0:	eafffe53 	b	a04 <_vfprintf_r+0x178>
    10b4:	e59d5020 	ldr	r5, [sp, #32]
    10b8:	e3855010 	orr	r5, r5, #16
    10bc:	e58d5020 	str	r5, [sp, #32]
    10c0:	e59dc020 	ldr	r12, [sp, #32]
    10c4:	e58d3024 	str	r3, [sp, #36]	; 0x24
    10c8:	e21c3020 	ands	r3, r12, #32
    10cc:	1affff82 	bne	edc <_vfprintf_r+0x650>
    10d0:	e59dc020 	ldr	r12, [sp, #32]
    10d4:	e21c2010 	ands	r2, r12, #16
    10d8:	0a00042c 	beq	2190 <_vfprintf_r+0x1904>
    10dc:	e59d5044 	ldr	r5, [sp, #68]	; 0x44
    10e0:	e5954000 	ldr	r4, [r5]
    10e4:	e2855004 	add	r5, r5, #4
    10e8:	e58d5044 	str	r5, [sp, #68]	; 0x44
    10ec:	e3a05000 	mov	r5, #0
    10f0:	eafffeea 	b	ca0 <_vfprintf_r+0x414>
    10f4:	e59dc044 	ldr	r12, [sp, #68]	; 0x44
    10f8:	e59cc000 	ldr	r12, [r12]
    10fc:	e59d4044 	ldr	r4, [sp, #68]	; 0x44
    1100:	e35c0000 	cmp	r12, #0
    1104:	e58dc040 	str	r12, [sp, #64]	; 0x40
    1108:	e2841004 	add	r1, r4, #4
    110c:	bafffe9a 	blt	b7c <_vfprintf_r+0x2f0>
    1110:	e58d1044 	str	r1, [sp, #68]	; 0x44
    1114:	e5d38000 	ldrb	r8, [r3]
    1118:	eafffe39 	b	a04 <_vfprintf_r+0x178>
    111c:	e59d5020 	ldr	r5, [sp, #32]
    1120:	e3855020 	orr	r5, r5, #32
    1124:	e58d5020 	str	r5, [sp, #32]
    1128:	e5d38000 	ldrb	r8, [r3]
    112c:	eafffe34 	b	a04 <_vfprintf_r+0x178>
    1130:	e59d4044 	ldr	r4, [sp, #68]	; 0x44
    1134:	e5946000 	ldr	r6, [r4]
    1138:	e3a05000 	mov	r5, #0
    113c:	e1560005 	cmp	r6, r5
    1140:	e58d3024 	str	r3, [sp, #36]	; 0x24
    1144:	e2844004 	add	r4, r4, #4
    1148:	e5cd5077 	strb	r5, [sp, #119]	; 0x77
    114c:	0a0004c9 	beq	2478 <_vfprintf_r+0x1bec>
    1150:	e59dc02c 	ldr	r12, [sp, #44]	; 0x2c
    1154:	e35c0000 	cmp	r12, #0
    1158:	e1a00006 	mov	r0, r6
    115c:	ba0004a6 	blt	23fc <_vfprintf_r+0x1b70>
    1160:	e1a01005 	mov	r1, r5
    1164:	e1a0200c 	mov	r2, r12
    1168:	eb001a03 	bl	797c <memchr>
    116c:	e3500000 	cmp	r0, #0
    1170:	0a000504 	beq	2588 <_vfprintf_r+0x1cfc>
    1174:	e59dc02c 	ldr	r12, [sp, #44]	; 0x2c
    1178:	e0660000 	rsb	r0, r6, r0
    117c:	e15c0000 	cmp	r12, r0
    1180:	a1a0c000 	movge	r12, r0
    1184:	e58d4044 	str	r4, [sp, #68]	; 0x44
    1188:	e1cc4fcc 	bic	r4, r12, r12, asr #31
    118c:	e58dc038 	str	r12, [sp, #56]	; 0x38
    1190:	e58d502c 	str	r5, [sp, #44]	; 0x2c
    1194:	e58d4030 	str	r4, [sp, #48]	; 0x30
    1198:	e58d5050 	str	r5, [sp, #80]	; 0x50
    119c:	e5dda077 	ldrb	r10, [sp, #119]	; 0x77
    11a0:	eafffee9 	b	d4c <_vfprintf_r+0x4c0>
    11a4:	e59d5020 	ldr	r5, [sp, #32]
    11a8:	e59f46e4 	ldr	r4, [pc, #1764]	; 1894 <_vfprintf_r+0x1008>
    11ac:	e3150020 	tst	r5, #32
    11b0:	e58d3024 	str	r3, [sp, #36]	; 0x24
    11b4:	e5cd2077 	strb	r2, [sp, #119]	; 0x77
    11b8:	e58d4068 	str	r4, [sp, #104]	; 0x68
    11bc:	0a000078 	beq	13a4 <_vfprintf_r+0xb18>
    11c0:	e59dc044 	ldr	r12, [sp, #68]	; 0x44
    11c4:	e28c3007 	add	r3, r12, #7
    11c8:	e3c33007 	bic	r3, r3, #7
    11cc:	e2834008 	add	r4, r3, #8
    11d0:	e58d4044 	str	r4, [sp, #68]	; 0x44
    11d4:	e8930030 	ldm	r3, {r4, r5}
    11d8:	e59dc020 	ldr	r12, [sp, #32]
    11dc:	e31c0001 	tst	r12, #1
    11e0:	0a000235 	beq	1abc <_vfprintf_r+0x1230>
    11e4:	e1940005 	orrs	r0, r4, r5
    11e8:	0a000233 	beq	1abc <_vfprintf_r+0x1230>
    11ec:	e3a03030 	mov	r3, #48	; 0x30
    11f0:	e38cc002 	orr	r12, r12, #2
    11f4:	e5cd3078 	strb	r3, [sp, #120]	; 0x78
    11f8:	e5cd8079 	strb	r8, [sp, #121]	; 0x79
    11fc:	e58dc020 	str	r12, [sp, #32]
    1200:	e3a03002 	mov	r3, #2
    1204:	eafffea5 	b	ca0 <_vfprintf_r+0x414>
    1208:	e5d38000 	ldrb	r8, [r3]
    120c:	e3a0202b 	mov	r2, #43	; 0x2b
    1210:	eafffdfb 	b	a04 <_vfprintf_r+0x178>
    1214:	e3520000 	cmp	r2, #0
    1218:	e5d38000 	ldrb	r8, [r3]
    121c:	03a02020 	moveq	r2, #32
    1220:	eafffdf7 	b	a04 <_vfprintf_r+0x178>
    1224:	e59dc044 	ldr	r12, [sp, #68]	; 0x44
    1228:	e59d5020 	ldr	r5, [sp, #32]
    122c:	e28cc004 	add	r12, r12, #4
    1230:	e58d3024 	str	r3, [sp, #36]	; 0x24
    1234:	e59d3044 	ldr	r3, [sp, #68]	; 0x44
    1238:	e58dc044 	str	r12, [sp, #68]	; 0x44
    123c:	e59fc650 	ldr	r12, [pc, #1616]	; 1894 <_vfprintf_r+0x1008>
    1240:	e3855002 	orr	r5, r5, #2
    1244:	e5934000 	ldr	r4, [r3]
    1248:	e3a08078 	mov	r8, #120	; 0x78
    124c:	e3a03030 	mov	r3, #48	; 0x30
    1250:	e58d5020 	str	r5, [sp, #32]
    1254:	e5cd3078 	strb	r3, [sp, #120]	; 0x78
    1258:	e3a05000 	mov	r5, #0
    125c:	e5cd8079 	strb	r8, [sp, #121]	; 0x79
    1260:	e58dc068 	str	r12, [sp, #104]	; 0x68
    1264:	e3a03002 	mov	r3, #2
    1268:	eafffe8c 	b	ca0 <_vfprintf_r+0x414>
    126c:	e59d5020 	ldr	r5, [sp, #32]
    1270:	e3855040 	orr	r5, r5, #64	; 0x40
    1274:	e58d5020 	str	r5, [sp, #32]
    1278:	e5d38000 	ldrb	r8, [r3]
    127c:	eafffde0 	b	a04 <_vfprintf_r+0x178>
    1280:	e5d38000 	ldrb	r8, [r3]
    1284:	e358006c 	cmp	r8, #108	; 0x6c
    1288:	059dc020 	ldreq	r12, [sp, #32]
    128c:	159d4020 	ldrne	r4, [sp, #32]
    1290:	e1a01003 	mov	r1, r3
    1294:	038cc020 	orreq	r12, r12, #32
    1298:	13844010 	orrne	r4, r4, #16
    129c:	02833001 	addeq	r3, r3, #1
    12a0:	058dc020 	streq	r12, [sp, #32]
    12a4:	05d18001 	ldrbeq	r8, [r1, #1]
    12a8:	158d4020 	strne	r4, [sp, #32]
    12ac:	eafffdd4 	b	a04 <_vfprintf_r+0x178>
    12b0:	e59dc020 	ldr	r12, [sp, #32]
    12b4:	e31c0020 	tst	r12, #32
    12b8:	e58d3024 	str	r3, [sp, #36]	; 0x24
    12bc:	e5cd2077 	strb	r2, [sp, #119]	; 0x77
    12c0:	0a000399 	beq	212c <_vfprintf_r+0x18a0>
    12c4:	e59d4044 	ldr	r4, [sp, #68]	; 0x44
    12c8:	e5941000 	ldr	r1, [r4]
    12cc:	e59d4048 	ldr	r4, [sp, #72]	; 0x48
    12d0:	e1a05fc4 	asr	r5, r4, #31
    12d4:	e1a03005 	mov	r3, r5
    12d8:	e59d5044 	ldr	r5, [sp, #68]	; 0x44
    12dc:	e1a02004 	mov	r2, r4
    12e0:	e2855004 	add	r5, r5, #4
    12e4:	e58d5044 	str	r5, [sp, #68]	; 0x44
    12e8:	e881000c 	stm	r1, {r2, r3}
    12ec:	eafffd99 	b	958 <_vfprintf_r+0xcc>
    12f0:	e59d5020 	ldr	r5, [sp, #32]
    12f4:	e3855001 	orr	r5, r5, #1
    12f8:	e58d5020 	str	r5, [sp, #32]
    12fc:	e5d38000 	ldrb	r8, [r3]
    1300:	eafffdbf 	b	a04 <_vfprintf_r+0x178>
    1304:	e58d3024 	str	r3, [sp, #36]	; 0x24
    1308:	e59d3044 	ldr	r3, [sp, #68]	; 0x44
    130c:	e59d4044 	ldr	r4, [sp, #68]	; 0x44
    1310:	e5932000 	ldr	r2, [r3]
    1314:	e3a0c001 	mov	r12, #1
    1318:	e2844004 	add	r4, r4, #4
    131c:	e3a03000 	mov	r3, #0
    1320:	e58dc030 	str	r12, [sp, #48]	; 0x30
    1324:	e5cd20a0 	strb	r2, [sp, #160]	; 0xa0
    1328:	e58d4044 	str	r4, [sp, #68]	; 0x44
    132c:	e1a0a003 	mov	r10, r3
    1330:	e5cd3077 	strb	r3, [sp, #119]	; 0x77
    1334:	e58da02c 	str	r10, [sp, #44]	; 0x2c
    1338:	e58da050 	str	r10, [sp, #80]	; 0x50
    133c:	e58dc038 	str	r12, [sp, #56]	; 0x38
    1340:	e28d60a0 	add	r6, sp, #160	; 0xa0
    1344:	eafffe85 	b	d60 <_vfprintf_r+0x4d4>
    1348:	e59dc020 	ldr	r12, [sp, #32]
    134c:	e31c0020 	tst	r12, #32
    1350:	e58d3024 	str	r3, [sp, #36]	; 0x24
    1354:	e5cd2077 	strb	r2, [sp, #119]	; 0x77
    1358:	1affff18 	bne	fc0 <_vfprintf_r+0x734>
    135c:	e59d5020 	ldr	r5, [sp, #32]
    1360:	e3150010 	tst	r5, #16
    1364:	0a00037d 	beq	2160 <_vfprintf_r+0x18d4>
    1368:	e59dc044 	ldr	r12, [sp, #68]	; 0x44
    136c:	e59c4000 	ldr	r4, [r12]
    1370:	e28cc004 	add	r12, r12, #4
    1374:	e1a05fc4 	asr	r5, r4, #31
    1378:	e58dc044 	str	r12, [sp, #68]	; 0x44
    137c:	e1a02004 	mov	r2, r4
    1380:	e1a03005 	mov	r3, r5
    1384:	eaffff15 	b	fe0 <_vfprintf_r+0x754>
    1388:	e59d5020 	ldr	r5, [sp, #32]
    138c:	e59f4504 	ldr	r4, [pc, #1284]	; 1898 <_vfprintf_r+0x100c>
    1390:	e3150020 	tst	r5, #32
    1394:	e58d3024 	str	r3, [sp, #36]	; 0x24
    1398:	e5cd2077 	strb	r2, [sp, #119]	; 0x77
    139c:	e58d4068 	str	r4, [sp, #104]	; 0x68
    13a0:	1affff86 	bne	11c0 <_vfprintf_r+0x934>
    13a4:	e59d5020 	ldr	r5, [sp, #32]
    13a8:	e3150010 	tst	r5, #16
    13ac:	1a00023a 	bne	1c9c <_vfprintf_r+0x1410>
    13b0:	e59d4020 	ldr	r4, [sp, #32]
    13b4:	e3140040 	tst	r4, #64	; 0x40
    13b8:	0a000237 	beq	1c9c <_vfprintf_r+0x1410>
    13bc:	e59d5044 	ldr	r5, [sp, #68]	; 0x44
    13c0:	e1d540b0 	ldrh	r4, [r5]
    13c4:	e2855004 	add	r5, r5, #4
    13c8:	e58d5044 	str	r5, [sp, #68]	; 0x44
    13cc:	e3a05000 	mov	r5, #0
    13d0:	eaffff80 	b	11d8 <_vfprintf_r+0x94c>
    13d4:	e59d5020 	ldr	r5, [sp, #32]
    13d8:	e3855080 	orr	r5, r5, #128	; 0x80
    13dc:	e58d5020 	str	r5, [sp, #32]
    13e0:	e5d38000 	ldrb	r8, [r3]
    13e4:	eafffd86 	b	a04 <_vfprintf_r+0x178>
    13e8:	e3a0c000 	mov	r12, #0
    13ec:	e58dc040 	str	r12, [sp, #64]	; 0x40
    13f0:	e2481030 	sub	r1, r8, #48	; 0x30
    13f4:	e1a0000c 	mov	r0, r12
    13f8:	e4d38001 	ldrb	r8, [r3], #1
    13fc:	e0800100 	add	r0, r0, r0, lsl #2
    1400:	e0810080 	add	r0, r1, r0, lsl #1
    1404:	e2481030 	sub	r1, r8, #48	; 0x30
    1408:	e3510009 	cmp	r1, #9
    140c:	9afffff9 	bls	13f8 <_vfprintf_r+0xb6c>
    1410:	e58d0040 	str	r0, [sp, #64]	; 0x40
    1414:	eafffd7b 	b	a08 <_vfprintf_r+0x17c>
    1418:	e3580000 	cmp	r8, #0
    141c:	e58d3024 	str	r3, [sp, #36]	; 0x24
    1420:	e5cd2077 	strb	r2, [sp, #119]	; 0x77
    1424:	0afffdff 	beq	c28 <_vfprintf_r+0x39c>
    1428:	e3a03000 	mov	r3, #0
    142c:	e3a0c001 	mov	r12, #1
    1430:	e1a0a003 	mov	r10, r3
    1434:	e58dc030 	str	r12, [sp, #48]	; 0x30
    1438:	e5cd80a0 	strb	r8, [sp, #160]	; 0xa0
    143c:	eaffffbb 	b	1330 <_vfprintf_r+0xaa4>
    1440:	e59d409c 	ldr	r4, [sp, #156]	; 0x9c
    1444:	e35a0000 	cmp	r10, #0
    1448:	0a00000a 	beq	1478 <_vfprintf_r+0xbec>
    144c:	e59d3098 	ldr	r3, [sp, #152]	; 0x98
    1450:	e2833001 	add	r3, r3, #1
    1454:	e3530007 	cmp	r3, #7
    1458:	e2844001 	add	r4, r4, #1
    145c:	e28d2077 	add	r2, sp, #119	; 0x77
    1460:	e58d3098 	str	r3, [sp, #152]	; 0x98
    1464:	e3a03001 	mov	r3, #1
    1468:	e887000c 	stm	r7, {r2, r3}
    146c:	e58d409c 	str	r4, [sp, #156]	; 0x9c
    1470:	d2877008 	addle	r7, r7, #8
    1474:	ca00017e 	bgt	1a74 <_vfprintf_r+0x11e8>
    1478:	e35b0000 	cmp	r11, #0
    147c:	0a00000a 	beq	14ac <_vfprintf_r+0xc20>
    1480:	e59d3098 	ldr	r3, [sp, #152]	; 0x98
    1484:	e2833001 	add	r3, r3, #1
    1488:	e3530007 	cmp	r3, #7
    148c:	e2844002 	add	r4, r4, #2
    1490:	e28d2078 	add	r2, sp, #120	; 0x78
    1494:	e58d3098 	str	r3, [sp, #152]	; 0x98
    1498:	e3a03002 	mov	r3, #2
    149c:	e887000c 	stm	r7, {r2, r3}
    14a0:	e58d409c 	str	r4, [sp, #156]	; 0x9c
    14a4:	d2877008 	addle	r7, r7, #8
    14a8:	ca00017a 	bgt	1a98 <_vfprintf_r+0x120c>
    14ac:	e59d504c 	ldr	r5, [sp, #76]	; 0x4c
    14b0:	e3550080 	cmp	r5, #128	; 0x80
    14b4:	0a0000e3 	beq	1848 <_vfprintf_r+0xfbc>
    14b8:	e59dc02c 	ldr	r12, [sp, #44]	; 0x2c
    14bc:	e59d3038 	ldr	r3, [sp, #56]	; 0x38
    14c0:	e063a00c 	rsb	r10, r3, r12
    14c4:	e35a0000 	cmp	r10, #0
    14c8:	da000034 	ble	15a0 <_vfprintf_r+0xd14>
    14cc:	e35a0010 	cmp	r10, #16
    14d0:	e59d3098 	ldr	r3, [sp, #152]	; 0x98
    14d4:	e59f53c4 	ldr	r5, [pc, #964]	; 18a0 <_vfprintf_r+0x1014>
    14d8:	da000020 	ble	1560 <_vfprintf_r+0xcd4>
    14dc:	e1a02007 	mov	r2, r7
    14e0:	e1a01004 	mov	r1, r4
    14e4:	e1a07005 	mov	r7, r5
    14e8:	e3a0b010 	mov	r11, #16
    14ec:	e59d4034 	ldr	r4, [sp, #52]	; 0x34
    14f0:	e59d5028 	ldr	r5, [sp, #40]	; 0x28
    14f4:	ea000002 	b	1504 <_vfprintf_r+0xc78>
    14f8:	e24aa010 	sub	r10, r10, #16
    14fc:	e35a0010 	cmp	r10, #16
    1500:	da000013 	ble	1554 <_vfprintf_r+0xcc8>
    1504:	e2833001 	add	r3, r3, #1
    1508:	e3530007 	cmp	r3, #7
    150c:	e2811010 	add	r1, r1, #16
    1510:	e8820a00 	stm	r2, {r9, r11}
    1514:	e58d3098 	str	r3, [sp, #152]	; 0x98
    1518:	e58d109c 	str	r1, [sp, #156]	; 0x9c
    151c:	d2822008 	addle	r2, r2, #8
    1520:	dafffff4 	ble	14f8 <_vfprintf_r+0xc6c>
    1524:	e1a00004 	mov	r0, r4
    1528:	e1a01005 	mov	r1, r5
    152c:	e28d2094 	add	r2, sp, #148	; 0x94
    1530:	eb0030a3 	bl	d7c4 <__sprint_r>
    1534:	e3500000 	cmp	r0, #0
    1538:	1afffdc0 	bne	c40 <_vfprintf_r+0x3b4>
    153c:	e24aa010 	sub	r10, r10, #16
    1540:	e35a0010 	cmp	r10, #16
    1544:	e59d109c 	ldr	r1, [sp, #156]	; 0x9c
    1548:	e59d3098 	ldr	r3, [sp, #152]	; 0x98
    154c:	e28d20c8 	add	r2, sp, #200	; 0xc8
    1550:	caffffeb 	bgt	1504 <_vfprintf_r+0xc78>
    1554:	e1a05007 	mov	r5, r7
    1558:	e1a04001 	mov	r4, r1
    155c:	e1a07002 	mov	r7, r2
    1560:	e2833001 	add	r3, r3, #1
    1564:	e3530007 	cmp	r3, #7
    1568:	e084400a 	add	r4, r4, r10
    156c:	e8870420 	stm	r7, {r5, r10}
    1570:	e58d3098 	str	r3, [sp, #152]	; 0x98
    1574:	e58d409c 	str	r4, [sp, #156]	; 0x9c
    1578:	d2877008 	addle	r7, r7, #8
    157c:	da000007 	ble	15a0 <_vfprintf_r+0xd14>
    1580:	e59d0034 	ldr	r0, [sp, #52]	; 0x34
    1584:	e59d1028 	ldr	r1, [sp, #40]	; 0x28
    1588:	e28d2094 	add	r2, sp, #148	; 0x94
    158c:	eb00308c 	bl	d7c4 <__sprint_r>
    1590:	e3500000 	cmp	r0, #0
    1594:	1afffda9 	bne	c40 <_vfprintf_r+0x3b4>
    1598:	e59d409c 	ldr	r4, [sp, #156]	; 0x9c
    159c:	e28d70c8 	add	r7, sp, #200	; 0xc8
    15a0:	e59d5020 	ldr	r5, [sp, #32]
    15a4:	e3150c01 	tst	r5, #256	; 0x100
    15a8:	1a00004d 	bne	16e4 <_vfprintf_r+0xe58>
    15ac:	e59d3098 	ldr	r3, [sp, #152]	; 0x98
    15b0:	e59dc038 	ldr	r12, [sp, #56]	; 0x38
    15b4:	e2833001 	add	r3, r3, #1
    15b8:	e084400c 	add	r4, r4, r12
    15bc:	e3530007 	cmp	r3, #7
    15c0:	e58d409c 	str	r4, [sp, #156]	; 0x9c
    15c4:	e8871040 	stm	r7, {r6, r12}
    15c8:	e58d3098 	str	r3, [sp, #152]	; 0x98
    15cc:	ca000118 	bgt	1a34 <_vfprintf_r+0x11a8>
    15d0:	e2877008 	add	r7, r7, #8
    15d4:	e59dc020 	ldr	r12, [sp, #32]
    15d8:	e31c0004 	tst	r12, #4
    15dc:	0a000033 	beq	16b0 <_vfprintf_r+0xe24>
    15e0:	e59dc040 	ldr	r12, [sp, #64]	; 0x40
    15e4:	e59d0030 	ldr	r0, [sp, #48]	; 0x30
    15e8:	e060500c 	rsb	r5, r0, r12
    15ec:	e3550000 	cmp	r5, #0
    15f0:	da00002e 	ble	16b0 <_vfprintf_r+0xe24>
    15f4:	e3550010 	cmp	r5, #16
    15f8:	e59d3098 	ldr	r3, [sp, #152]	; 0x98
    15fc:	e59fa284 	ldr	r10, [pc, #644]	; 1888 <_vfprintf_r+0xffc>
    1600:	da00001b 	ble	1674 <_vfprintf_r+0xde8>
    1604:	e3a06010 	mov	r6, #16
    1608:	e59d8034 	ldr	r8, [sp, #52]	; 0x34
    160c:	e59db028 	ldr	r11, [sp, #40]	; 0x28
    1610:	ea000002 	b	1620 <_vfprintf_r+0xd94>
    1614:	e2455010 	sub	r5, r5, #16
    1618:	e3550010 	cmp	r5, #16
    161c:	da000014 	ble	1674 <_vfprintf_r+0xde8>
    1620:	e2833001 	add	r3, r3, #1
    1624:	e59f125c 	ldr	r1, [pc, #604]	; 1888 <_vfprintf_r+0xffc>
    1628:	e3530007 	cmp	r3, #7
    162c:	e2844010 	add	r4, r4, #16
    1630:	e8870042 	stm	r7, {r1, r6}
    1634:	e58d3098 	str	r3, [sp, #152]	; 0x98
    1638:	e58d409c 	str	r4, [sp, #156]	; 0x9c
    163c:	d2877008 	addle	r7, r7, #8
    1640:	dafffff3 	ble	1614 <_vfprintf_r+0xd88>
    1644:	e1a00008 	mov	r0, r8
    1648:	e1a0100b 	mov	r1, r11
    164c:	e28d2094 	add	r2, sp, #148	; 0x94
    1650:	eb00305b 	bl	d7c4 <__sprint_r>
    1654:	e3500000 	cmp	r0, #0
    1658:	1afffd78 	bne	c40 <_vfprintf_r+0x3b4>
    165c:	e2455010 	sub	r5, r5, #16
    1660:	e28d3098 	add	r3, sp, #152	; 0x98
    1664:	e3550010 	cmp	r5, #16
    1668:	e8930018 	ldm	r3, {r3, r4}
    166c:	e28d70c8 	add	r7, sp, #200	; 0xc8
    1670:	caffffea 	bgt	1620 <_vfprintf_r+0xd94>
    1674:	e2833001 	add	r3, r3, #1
    1678:	e0844005 	add	r4, r4, r5
    167c:	e3530007 	cmp	r3, #7
    1680:	e58d3098 	str	r3, [sp, #152]	; 0x98
    1684:	e58d409c 	str	r4, [sp, #156]	; 0x9c
    1688:	e587a000 	str	r10, [r7]
    168c:	e5875004 	str	r5, [r7, #4]
    1690:	da000006 	ble	16b0 <_vfprintf_r+0xe24>
    1694:	e59d0034 	ldr	r0, [sp, #52]	; 0x34
    1698:	e59d1028 	ldr	r1, [sp, #40]	; 0x28
    169c:	e28d2094 	add	r2, sp, #148	; 0x94
    16a0:	eb003047 	bl	d7c4 <__sprint_r>
    16a4:	e3500000 	cmp	r0, #0
    16a8:	1afffd64 	bne	c40 <_vfprintf_r+0x3b4>
    16ac:	e59d409c 	ldr	r4, [sp, #156]	; 0x9c
    16b0:	e59d5048 	ldr	r5, [sp, #72]	; 0x48
    16b4:	e59dc030 	ldr	r12, [sp, #48]	; 0x30
    16b8:	e59d0040 	ldr	r0, [sp, #64]	; 0x40
    16bc:	e15c0000 	cmp	r12, r0
    16c0:	a085500c 	addge	r5, r5, r12
    16c4:	b0855000 	addlt	r5, r5, r0
    16c8:	e3540000 	cmp	r4, #0
    16cc:	e58d5048 	str	r5, [sp, #72]	; 0x48
    16d0:	1a0000e0 	bne	1a58 <_vfprintf_r+0x11cc>
    16d4:	e3a03000 	mov	r3, #0
    16d8:	e58d3098 	str	r3, [sp, #152]	; 0x98
    16dc:	e28d70c8 	add	r7, sp, #200	; 0xc8
    16e0:	eafffc9c 	b	958 <_vfprintf_r+0xcc>
    16e4:	e3580065 	cmp	r8, #101	; 0x65
    16e8:	da00009c 	ble	1960 <_vfprintf_r+0x10d4>
    16ec:	e59d0058 	ldr	r0, [sp, #88]	; 0x58
    16f0:	e59d1060 	ldr	r1, [sp, #96]	; 0x60
    16f4:	e3a02000 	mov	r2, #0
    16f8:	e3a03000 	mov	r3, #0
    16fc:	eb0041be 	bl	11dfc <__aeabi_dcmpeq>
    1700:	e3500000 	cmp	r0, #0
    1704:	0a0000ee 	beq	1ac4 <_vfprintf_r+0x1238>
    1708:	e59d3098 	ldr	r3, [sp, #152]	; 0x98
    170c:	e59f0188 	ldr	r0, [pc, #392]	; 189c <_vfprintf_r+0x1010>
    1710:	e2833001 	add	r3, r3, #1
    1714:	e2844001 	add	r4, r4, #1
    1718:	e3530007 	cmp	r3, #7
    171c:	e3a02001 	mov	r2, #1
    1720:	e5870000 	str	r0, [r7]
    1724:	e5872004 	str	r2, [r7, #4]
    1728:	e58d409c 	str	r4, [sp, #156]	; 0x9c
    172c:	e58d3098 	str	r3, [sp, #152]	; 0x98
    1730:	d2877008 	addle	r7, r7, #8
    1734:	ca0002a2 	bgt	21c4 <_vfprintf_r+0x1938>
    1738:	e59d307c 	ldr	r3, [sp, #124]	; 0x7c
    173c:	e59d503c 	ldr	r5, [sp, #60]	; 0x3c
    1740:	e1530005 	cmp	r3, r5
    1744:	ba000002 	blt	1754 <_vfprintf_r+0xec8>
    1748:	e59dc020 	ldr	r12, [sp, #32]
    174c:	e31c0001 	tst	r12, #1
    1750:	0affff9f 	beq	15d4 <_vfprintf_r+0xd48>
    1754:	e59d3098 	ldr	r3, [sp, #152]	; 0x98
    1758:	e59d505c 	ldr	r5, [sp, #92]	; 0x5c
    175c:	e2833001 	add	r3, r3, #1
    1760:	e59dc054 	ldr	r12, [sp, #84]	; 0x54
    1764:	e0844005 	add	r4, r4, r5
    1768:	e3530007 	cmp	r3, #7
    176c:	e587c000 	str	r12, [r7]
    1770:	e5875004 	str	r5, [r7, #4]
    1774:	e58d409c 	str	r4, [sp, #156]	; 0x9c
    1778:	e58d3098 	str	r3, [sp, #152]	; 0x98
    177c:	d2877008 	addle	r7, r7, #8
    1780:	ca0002f8 	bgt	2368 <_vfprintf_r+0x1adc>
    1784:	e59d503c 	ldr	r5, [sp, #60]	; 0x3c
    1788:	e2456001 	sub	r6, r5, #1
    178c:	e3560000 	cmp	r6, #0
    1790:	daffff8f 	ble	15d4 <_vfprintf_r+0xd48>
    1794:	e3560010 	cmp	r6, #16
    1798:	e59d3098 	ldr	r3, [sp, #152]	; 0x98
    179c:	e59f50fc 	ldr	r5, [pc, #252]	; 18a0 <_vfprintf_r+0x1014>
    17a0:	da000143 	ble	1cb4 <_vfprintf_r+0x1428>
    17a4:	e3a08010 	mov	r8, #16
    17a8:	e59da034 	ldr	r10, [sp, #52]	; 0x34
    17ac:	e59db028 	ldr	r11, [sp, #40]	; 0x28
    17b0:	ea000002 	b	17c0 <_vfprintf_r+0xf34>
    17b4:	e2466010 	sub	r6, r6, #16
    17b8:	e3560010 	cmp	r6, #16
    17bc:	da00013c 	ble	1cb4 <_vfprintf_r+0x1428>
    17c0:	e2833001 	add	r3, r3, #1
    17c4:	e3530007 	cmp	r3, #7
    17c8:	e2844010 	add	r4, r4, #16
    17cc:	e5879000 	str	r9, [r7]
    17d0:	e5878004 	str	r8, [r7, #4]
    17d4:	e58d3098 	str	r3, [sp, #152]	; 0x98
    17d8:	e58d409c 	str	r4, [sp, #156]	; 0x9c
    17dc:	d2877008 	addle	r7, r7, #8
    17e0:	dafffff3 	ble	17b4 <_vfprintf_r+0xf28>
    17e4:	e1a0000a 	mov	r0, r10
    17e8:	e1a0100b 	mov	r1, r11
    17ec:	e28d2094 	add	r2, sp, #148	; 0x94
    17f0:	eb002ff3 	bl	d7c4 <__sprint_r>
    17f4:	e3500000 	cmp	r0, #0
    17f8:	1afffd10 	bne	c40 <_vfprintf_r+0x3b4>
    17fc:	e28d3098 	add	r3, sp, #152	; 0x98
    1800:	e8930018 	ldm	r3, {r3, r4}
    1804:	e28d70c8 	add	r7, sp, #200	; 0xc8
    1808:	eaffffe9 	b	17b4 <_vfprintf_r+0xf28>
    180c:	e3530000 	cmp	r3, #0
    1810:	158d2038 	strne	r2, [sp, #56]	; 0x38
    1814:	128d60c8 	addne	r6, sp, #200	; 0xc8
    1818:	1afffd44 	bne	d30 <_vfprintf_r+0x4a4>
    181c:	e59d4020 	ldr	r4, [sp, #32]
    1820:	e3140001 	tst	r4, #1
    1824:	128d6f42 	addne	r6, sp, #264	; 0x108
    1828:	13a03030 	movne	r3, #48	; 0x30
    182c:	159d501c 	ldrne	r5, [sp, #28]
    1830:	15663041 	strbne	r3, [r6, #-65]!	; 0xffffffbf
    1834:	10665005 	rsbne	r5, r6, r5
    1838:	158d5038 	strne	r5, [sp, #56]	; 0x38
    183c:	058d3038 	streq	r3, [sp, #56]	; 0x38
    1840:	028d60c8 	addeq	r6, sp, #200	; 0xc8
    1844:	eafffd39 	b	d30 <_vfprintf_r+0x4a4>
    1848:	e59dc040 	ldr	r12, [sp, #64]	; 0x40
    184c:	e59d5030 	ldr	r5, [sp, #48]	; 0x30
    1850:	e065a00c 	rsb	r10, r5, r12
    1854:	e35a0000 	cmp	r10, #0
    1858:	daffff16 	ble	14b8 <_vfprintf_r+0xc2c>
    185c:	e35a0010 	cmp	r10, #16
    1860:	e59d3098 	ldr	r3, [sp, #152]	; 0x98
    1864:	e59f5034 	ldr	r5, [pc, #52]	; 18a0 <_vfprintf_r+0x1014>
    1868:	da00002b 	ble	191c <_vfprintf_r+0x1090>
    186c:	e1a02007 	mov	r2, r7
    1870:	e1a01004 	mov	r1, r4
    1874:	e1a07005 	mov	r7, r5
    1878:	e3a0b010 	mov	r11, #16
    187c:	e59d4034 	ldr	r4, [sp, #52]	; 0x34
    1880:	e59d5028 	ldr	r5, [sp, #40]	; 0x28
    1884:	ea00000d 	b	18c0 <_vfprintf_r+0x1034>
    1888:	00013434 	.word	0x00013434
    188c:	00013454 	.word	0x00013454
    1890:	00013458 	.word	0x00013458
    1894:	00013478 	.word	0x00013478
    1898:	00013464 	.word	0x00013464
    189c:	00013494 	.word	0x00013494
    18a0:	00013444 	.word	0x00013444
    18a4:	0001345c 	.word	0x0001345c
    18a8:	00013460 	.word	0x00013460
    18ac:	0001348c 	.word	0x0001348c
    18b0:	66666667 	.word	0x66666667
    18b4:	e24aa010 	sub	r10, r10, #16
    18b8:	e35a0010 	cmp	r10, #16
    18bc:	da000013 	ble	1910 <_vfprintf_r+0x1084>
    18c0:	e2833001 	add	r3, r3, #1
    18c4:	e3530007 	cmp	r3, #7
    18c8:	e2811010 	add	r1, r1, #16
    18cc:	e8820a00 	stm	r2, {r9, r11}
    18d0:	e58d3098 	str	r3, [sp, #152]	; 0x98
    18d4:	e58d109c 	str	r1, [sp, #156]	; 0x9c
    18d8:	d2822008 	addle	r2, r2, #8
    18dc:	dafffff4 	ble	18b4 <_vfprintf_r+0x1028>
    18e0:	e1a00004 	mov	r0, r4
    18e4:	e1a01005 	mov	r1, r5
    18e8:	e28d2094 	add	r2, sp, #148	; 0x94
    18ec:	eb002fb4 	bl	d7c4 <__sprint_r>
    18f0:	e3500000 	cmp	r0, #0
    18f4:	1afffcd1 	bne	c40 <_vfprintf_r+0x3b4>
    18f8:	e24aa010 	sub	r10, r10, #16
    18fc:	e35a0010 	cmp	r10, #16
    1900:	e59d109c 	ldr	r1, [sp, #156]	; 0x9c
    1904:	e59d3098 	ldr	r3, [sp, #152]	; 0x98
    1908:	e28d20c8 	add	r2, sp, #200	; 0xc8
    190c:	caffffeb 	bgt	18c0 <_vfprintf_r+0x1034>
    1910:	e1a05007 	mov	r5, r7
    1914:	e1a04001 	mov	r4, r1
    1918:	e1a07002 	mov	r7, r2
    191c:	e2833001 	add	r3, r3, #1
    1920:	e3530007 	cmp	r3, #7
    1924:	e084400a 	add	r4, r4, r10
    1928:	e8870420 	stm	r7, {r5, r10}
    192c:	e58d3098 	str	r3, [sp, #152]	; 0x98
    1930:	e58d409c 	str	r4, [sp, #156]	; 0x9c
    1934:	d2877008 	addle	r7, r7, #8
    1938:	dafffede 	ble	14b8 <_vfprintf_r+0xc2c>
    193c:	e59d0034 	ldr	r0, [sp, #52]	; 0x34
    1940:	e59d1028 	ldr	r1, [sp, #40]	; 0x28
    1944:	e28d2094 	add	r2, sp, #148	; 0x94
    1948:	eb002f9d 	bl	d7c4 <__sprint_r>
    194c:	e3500000 	cmp	r0, #0
    1950:	1afffcba 	bne	c40 <_vfprintf_r+0x3b4>
    1954:	e59d409c 	ldr	r4, [sp, #156]	; 0x9c
    1958:	e28d70c8 	add	r7, sp, #200	; 0xc8
    195c:	eafffed5 	b	14b8 <_vfprintf_r+0xc2c>
    1960:	e59d503c 	ldr	r5, [sp, #60]	; 0x3c
    1964:	e59d8098 	ldr	r8, [sp, #152]	; 0x98
    1968:	e3550001 	cmp	r5, #1
    196c:	e2888001 	add	r8, r8, #1
    1970:	e2844001 	add	r4, r4, #1
    1974:	da00013a 	ble	1e64 <_vfprintf_r+0x15d8>
    1978:	e3580007 	cmp	r8, #7
    197c:	e3a03001 	mov	r3, #1
    1980:	e58d409c 	str	r4, [sp, #156]	; 0x9c
    1984:	e5876000 	str	r6, [r7]
    1988:	e58d8098 	str	r8, [sp, #152]	; 0x98
    198c:	e5873004 	str	r3, [r7, #4]
    1990:	d2877008 	addle	r7, r7, #8
    1994:	ca000146 	bgt	1eb4 <_vfprintf_r+0x1628>
    1998:	e59d505c 	ldr	r5, [sp, #92]	; 0x5c
    199c:	e2888001 	add	r8, r8, #1
    19a0:	e59dc054 	ldr	r12, [sp, #84]	; 0x54
    19a4:	e3580007 	cmp	r8, #7
    19a8:	e0844005 	add	r4, r4, r5
    19ac:	e587c000 	str	r12, [r7]
    19b0:	e5875004 	str	r5, [r7, #4]
    19b4:	e58d8098 	str	r8, [sp, #152]	; 0x98
    19b8:	e58d409c 	str	r4, [sp, #156]	; 0x9c
    19bc:	d2877008 	addle	r7, r7, #8
    19c0:	ca000145 	bgt	1edc <_vfprintf_r+0x1650>
    19c4:	e59d0058 	ldr	r0, [sp, #88]	; 0x58
    19c8:	e59d1060 	ldr	r1, [sp, #96]	; 0x60
    19cc:	e3a02000 	mov	r2, #0
    19d0:	e3a03000 	mov	r3, #0
    19d4:	eb004108 	bl	11dfc <__aeabi_dcmpeq>
    19d8:	e3500000 	cmp	r0, #0
    19dc:	1a000086 	bne	1bfc <_vfprintf_r+0x1370>
    19e0:	e59d503c 	ldr	r5, [sp, #60]	; 0x3c
    19e4:	e2888001 	add	r8, r8, #1
    19e8:	e2453001 	sub	r3, r5, #1
    19ec:	e2866001 	add	r6, r6, #1
    19f0:	e0844003 	add	r4, r4, r3
    19f4:	e3580007 	cmp	r8, #7
    19f8:	e58d8098 	str	r8, [sp, #152]	; 0x98
    19fc:	e58d409c 	str	r4, [sp, #156]	; 0x9c
    1a00:	e5876000 	str	r6, [r7]
    1a04:	e5873004 	str	r3, [r7, #4]
    1a08:	ca00011f 	bgt	1e8c <_vfprintf_r+0x1600>
    1a0c:	e2877008 	add	r7, r7, #8
    1a10:	e59d5064 	ldr	r5, [sp, #100]	; 0x64
    1a14:	e2888001 	add	r8, r8, #1
    1a18:	e0854004 	add	r4, r5, r4
    1a1c:	e28d3084 	add	r3, sp, #132	; 0x84
    1a20:	e3580007 	cmp	r8, #7
    1a24:	e58d8098 	str	r8, [sp, #152]	; 0x98
    1a28:	e58d409c 	str	r4, [sp, #156]	; 0x9c
    1a2c:	e8870028 	stm	r7, {r3, r5}
    1a30:	dafffee6 	ble	15d0 <_vfprintf_r+0xd44>
    1a34:	e59d0034 	ldr	r0, [sp, #52]	; 0x34
    1a38:	e59d1028 	ldr	r1, [sp, #40]	; 0x28
    1a3c:	e28d2094 	add	r2, sp, #148	; 0x94
    1a40:	eb002f5f 	bl	d7c4 <__sprint_r>
    1a44:	e3500000 	cmp	r0, #0
    1a48:	1afffc7c 	bne	c40 <_vfprintf_r+0x3b4>
    1a4c:	e59d409c 	ldr	r4, [sp, #156]	; 0x9c
    1a50:	e28d70c8 	add	r7, sp, #200	; 0xc8
    1a54:	eafffede 	b	15d4 <_vfprintf_r+0xd48>
    1a58:	e59d0034 	ldr	r0, [sp, #52]	; 0x34
    1a5c:	e59d1028 	ldr	r1, [sp, #40]	; 0x28
    1a60:	e28d2094 	add	r2, sp, #148	; 0x94
    1a64:	eb002f56 	bl	d7c4 <__sprint_r>
    1a68:	e3500000 	cmp	r0, #0
    1a6c:	0affff18 	beq	16d4 <_vfprintf_r+0xe48>
    1a70:	eafffc72 	b	c40 <_vfprintf_r+0x3b4>
    1a74:	e59d0034 	ldr	r0, [sp, #52]	; 0x34
    1a78:	e59d1028 	ldr	r1, [sp, #40]	; 0x28
    1a7c:	e28d2094 	add	r2, sp, #148	; 0x94
    1a80:	eb002f4f 	bl	d7c4 <__sprint_r>
    1a84:	e3500000 	cmp	r0, #0
    1a88:	1afffc6c 	bne	c40 <_vfprintf_r+0x3b4>
    1a8c:	e59d409c 	ldr	r4, [sp, #156]	; 0x9c
    1a90:	e28d70c8 	add	r7, sp, #200	; 0xc8
    1a94:	eafffe77 	b	1478 <_vfprintf_r+0xbec>
    1a98:	e59d0034 	ldr	r0, [sp, #52]	; 0x34
    1a9c:	e59d1028 	ldr	r1, [sp, #40]	; 0x28
    1aa0:	e28d2094 	add	r2, sp, #148	; 0x94
    1aa4:	eb002f46 	bl	d7c4 <__sprint_r>
    1aa8:	e3500000 	cmp	r0, #0
    1aac:	1afffc63 	bne	c40 <_vfprintf_r+0x3b4>
    1ab0:	e59d409c 	ldr	r4, [sp, #156]	; 0x9c
    1ab4:	e28d70c8 	add	r7, sp, #200	; 0xc8
    1ab8:	eafffe7b 	b	14ac <_vfprintf_r+0xc20>
    1abc:	e3a03002 	mov	r3, #2
    1ac0:	eafffc76 	b	ca0 <_vfprintf_r+0x414>
    1ac4:	e59d307c 	ldr	r3, [sp, #124]	; 0x7c
    1ac8:	e3530000 	cmp	r3, #0
    1acc:	da0001c5 	ble	21e8 <_vfprintf_r+0x195c>
    1ad0:	e59dc050 	ldr	r12, [sp, #80]	; 0x50
    1ad4:	e59d503c 	ldr	r5, [sp, #60]	; 0x3c
    1ad8:	e155000c 	cmp	r5, r12
    1adc:	a1a0500c 	movge	r5, r12
    1ae0:	e59dc03c 	ldr	r12, [sp, #60]	; 0x3c
    1ae4:	e3550000 	cmp	r5, #0
    1ae8:	e086b00c 	add	r11, r6, r12
    1aec:	da000009 	ble	1b18 <_vfprintf_r+0x128c>
    1af0:	e59d3098 	ldr	r3, [sp, #152]	; 0x98
    1af4:	e2833001 	add	r3, r3, #1
    1af8:	e0844005 	add	r4, r4, r5
    1afc:	e3530007 	cmp	r3, #7
    1b00:	e5876000 	str	r6, [r7]
    1b04:	e5875004 	str	r5, [r7, #4]
    1b08:	e58d409c 	str	r4, [sp, #156]	; 0x9c
    1b0c:	e58d3098 	str	r3, [sp, #152]	; 0x98
    1b10:	d2877008 	addle	r7, r7, #8
    1b14:	ca000242 	bgt	2424 <_vfprintf_r+0x1b98>
    1b18:	e59dc050 	ldr	r12, [sp, #80]	; 0x50
    1b1c:	e1c55fc5 	bic	r5, r5, r5, asr #31
    1b20:	e065800c 	rsb	r8, r5, r12
    1b24:	e3580000 	cmp	r8, #0
    1b28:	da00007c 	ble	1d20 <_vfprintf_r+0x1494>
    1b2c:	e3580010 	cmp	r8, #16
    1b30:	e59d3098 	ldr	r3, [sp, #152]	; 0x98
    1b34:	e51f529c 	ldr	r5, [pc, #-668]	; 18a0 <_vfprintf_r+0x1014>
    1b38:	da000068 	ble	1ce0 <_vfprintf_r+0x1454>
    1b3c:	e1a02007 	mov	r2, r7
    1b40:	e1a01004 	mov	r1, r4
    1b44:	e1a07005 	mov	r7, r5
    1b48:	e3a0a010 	mov	r10, #16
    1b4c:	e59d4034 	ldr	r4, [sp, #52]	; 0x34
    1b50:	e59d5028 	ldr	r5, [sp, #40]	; 0x28
    1b54:	ea000002 	b	1b64 <_vfprintf_r+0x12d8>
    1b58:	e2488010 	sub	r8, r8, #16
    1b5c:	e3580010 	cmp	r8, #16
    1b60:	da00005b 	ble	1cd4 <_vfprintf_r+0x1448>
    1b64:	e2833001 	add	r3, r3, #1
    1b68:	e3530007 	cmp	r3, #7
    1b6c:	e2811010 	add	r1, r1, #16
    1b70:	e8820600 	stm	r2, {r9, r10}
    1b74:	e58d3098 	str	r3, [sp, #152]	; 0x98
    1b78:	e58d109c 	str	r1, [sp, #156]	; 0x9c
    1b7c:	d2822008 	addle	r2, r2, #8
    1b80:	dafffff4 	ble	1b58 <_vfprintf_r+0x12cc>
    1b84:	e1a00004 	mov	r0, r4
    1b88:	e1a01005 	mov	r1, r5
    1b8c:	e28d2094 	add	r2, sp, #148	; 0x94
    1b90:	eb002f0b 	bl	d7c4 <__sprint_r>
    1b94:	e3500000 	cmp	r0, #0
    1b98:	1afffc28 	bne	c40 <_vfprintf_r+0x3b4>
    1b9c:	e59d109c 	ldr	r1, [sp, #156]	; 0x9c
    1ba0:	e59d3098 	ldr	r3, [sp, #152]	; 0x98
    1ba4:	e28d20c8 	add	r2, sp, #200	; 0xc8
    1ba8:	eaffffea 	b	1b58 <_vfprintf_r+0x12cc>
    1bac:	e3550000 	cmp	r5, #0
    1bb0:	03540009 	cmpeq	r4, #9
    1bb4:	8a0000db 	bhi	1f28 <_vfprintf_r+0x169c>
    1bb8:	e2844030 	add	r4, r4, #48	; 0x30
    1bbc:	e28d6f42 	add	r6, sp, #264	; 0x108
    1bc0:	e5664041 	strb	r4, [r6, #-65]!	; 0xffffffbf
    1bc4:	e59d501c 	ldr	r5, [sp, #28]
    1bc8:	e0665005 	rsb	r5, r6, r5
    1bcc:	e58d5038 	str	r5, [sp, #56]	; 0x38
    1bd0:	eafffc56 	b	d30 <_vfprintf_r+0x4a4>
    1bd4:	e59d0034 	ldr	r0, [sp, #52]	; 0x34
    1bd8:	e59d1028 	ldr	r1, [sp, #40]	; 0x28
    1bdc:	e28d2094 	add	r2, sp, #148	; 0x94
    1be0:	eb002ef7 	bl	d7c4 <__sprint_r>
    1be4:	e3500000 	cmp	r0, #0
    1be8:	1afffc14 	bne	c40 <_vfprintf_r+0x3b4>
    1bec:	e5dda077 	ldrb	r10, [sp, #119]	; 0x77
    1bf0:	e59d409c 	ldr	r4, [sp, #156]	; 0x9c
    1bf4:	e28d70c8 	add	r7, sp, #200	; 0xc8
    1bf8:	eafffe11 	b	1444 <_vfprintf_r+0xbb8>
    1bfc:	e59dc03c 	ldr	r12, [sp, #60]	; 0x3c
    1c00:	e24c6001 	sub	r6, r12, #1
    1c04:	e3560000 	cmp	r6, #0
    1c08:	daffff80 	ble	1a10 <_vfprintf_r+0x1184>
    1c0c:	e3560010 	cmp	r6, #16
    1c10:	e51f5378 	ldr	r5, [pc, #-888]	; 18a0 <_vfprintf_r+0x1014>
    1c14:	da0000bb 	ble	1f08 <_vfprintf_r+0x167c>
    1c18:	e58d502c 	str	r5, [sp, #44]	; 0x2c
    1c1c:	e3a0a010 	mov	r10, #16
    1c20:	e59db034 	ldr	r11, [sp, #52]	; 0x34
    1c24:	e59d5028 	ldr	r5, [sp, #40]	; 0x28
    1c28:	ea000002 	b	1c38 <_vfprintf_r+0x13ac>
    1c2c:	e2466010 	sub	r6, r6, #16
    1c30:	e3560010 	cmp	r6, #16
    1c34:	da0000b2 	ble	1f04 <_vfprintf_r+0x1678>
    1c38:	e2888001 	add	r8, r8, #1
    1c3c:	e3580007 	cmp	r8, #7
    1c40:	e2844010 	add	r4, r4, #16
    1c44:	e8870600 	stm	r7, {r9, r10}
    1c48:	e58d8098 	str	r8, [sp, #152]	; 0x98
    1c4c:	e58d409c 	str	r4, [sp, #156]	; 0x9c
    1c50:	d2877008 	addle	r7, r7, #8
    1c54:	dafffff4 	ble	1c2c <_vfprintf_r+0x13a0>
    1c58:	e1a0000b 	mov	r0, r11
    1c5c:	e1a01005 	mov	r1, r5
    1c60:	e28d2094 	add	r2, sp, #148	; 0x94
    1c64:	eb002ed6 	bl	d7c4 <__sprint_r>
    1c68:	e3500000 	cmp	r0, #0
    1c6c:	1afffbf3 	bne	c40 <_vfprintf_r+0x3b4>
    1c70:	e59d409c 	ldr	r4, [sp, #156]	; 0x9c
    1c74:	e59d8098 	ldr	r8, [sp, #152]	; 0x98
    1c78:	e28d70c8 	add	r7, sp, #200	; 0xc8
    1c7c:	eaffffea 	b	1c2c <_vfprintf_r+0x13a0>
    1c80:	e59dc044 	ldr	r12, [sp, #68]	; 0x44
    1c84:	e59c4000 	ldr	r4, [r12]
    1c88:	e28cc004 	add	r12, r12, #4
    1c8c:	e3a03001 	mov	r3, #1
    1c90:	e58dc044 	str	r12, [sp, #68]	; 0x44
    1c94:	e3a05000 	mov	r5, #0
    1c98:	eafffc00 	b	ca0 <_vfprintf_r+0x414>
    1c9c:	e59dc044 	ldr	r12, [sp, #68]	; 0x44
    1ca0:	e59c4000 	ldr	r4, [r12]
    1ca4:	e28cc004 	add	r12, r12, #4
    1ca8:	e58dc044 	str	r12, [sp, #68]	; 0x44
    1cac:	e3a05000 	mov	r5, #0
    1cb0:	eafffd48 	b	11d8 <_vfprintf_r+0x94c>
    1cb4:	e2833001 	add	r3, r3, #1
    1cb8:	e0844006 	add	r4, r4, r6
    1cbc:	e3530007 	cmp	r3, #7
    1cc0:	e58d3098 	str	r3, [sp, #152]	; 0x98
    1cc4:	e58d409c 	str	r4, [sp, #156]	; 0x9c
    1cc8:	e8870060 	stm	r7, {r5, r6}
    1ccc:	dafffe3f 	ble	15d0 <_vfprintf_r+0xd44>
    1cd0:	eaffff57 	b	1a34 <_vfprintf_r+0x11a8>
    1cd4:	e1a05007 	mov	r5, r7
    1cd8:	e1a04001 	mov	r4, r1
    1cdc:	e1a07002 	mov	r7, r2
    1ce0:	e2833001 	add	r3, r3, #1
    1ce4:	e3530007 	cmp	r3, #7
    1ce8:	e0844008 	add	r4, r4, r8
    1cec:	e8870120 	stm	r7, {r5, r8}
    1cf0:	e58d3098 	str	r3, [sp, #152]	; 0x98
    1cf4:	e58d409c 	str	r4, [sp, #156]	; 0x9c
    1cf8:	d2877008 	addle	r7, r7, #8
    1cfc:	da000007 	ble	1d20 <_vfprintf_r+0x1494>
    1d00:	e59d0034 	ldr	r0, [sp, #52]	; 0x34
    1d04:	e59d1028 	ldr	r1, [sp, #40]	; 0x28
    1d08:	e28d2094 	add	r2, sp, #148	; 0x94
    1d0c:	eb002eac 	bl	d7c4 <__sprint_r>
    1d10:	e3500000 	cmp	r0, #0
    1d14:	1afffbc9 	bne	c40 <_vfprintf_r+0x3b4>
    1d18:	e59d409c 	ldr	r4, [sp, #156]	; 0x9c
    1d1c:	e28d70c8 	add	r7, sp, #200	; 0xc8
    1d20:	e59d307c 	ldr	r3, [sp, #124]	; 0x7c
    1d24:	e59d503c 	ldr	r5, [sp, #60]	; 0x3c
    1d28:	e59dc050 	ldr	r12, [sp, #80]	; 0x50
    1d2c:	e1530005 	cmp	r3, r5
    1d30:	e086600c 	add	r6, r6, r12
    1d34:	ba000035 	blt	1e10 <_vfprintf_r+0x1584>
    1d38:	e59d5020 	ldr	r5, [sp, #32]
    1d3c:	e3150001 	tst	r5, #1
    1d40:	1a000032 	bne	1e10 <_vfprintf_r+0x1584>
    1d44:	e59dc03c 	ldr	r12, [sp, #60]	; 0x3c
    1d48:	e066500b 	rsb	r5, r6, r11
    1d4c:	e063300c 	rsb	r3, r3, r12
    1d50:	e1550003 	cmp	r5, r3
    1d54:	a1a05003 	movge	r5, r3
    1d58:	e3550000 	cmp	r5, #0
    1d5c:	da000009 	ble	1d88 <_vfprintf_r+0x14fc>
    1d60:	e59d2098 	ldr	r2, [sp, #152]	; 0x98
    1d64:	e2822001 	add	r2, r2, #1
    1d68:	e0844005 	add	r4, r4, r5
    1d6c:	e3520007 	cmp	r2, #7
    1d70:	e5876000 	str	r6, [r7]
    1d74:	e5875004 	str	r5, [r7, #4]
    1d78:	e58d409c 	str	r4, [sp, #156]	; 0x9c
    1d7c:	e58d2098 	str	r2, [sp, #152]	; 0x98
    1d80:	d2877008 	addle	r7, r7, #8
    1d84:	ca0001af 	bgt	2448 <_vfprintf_r+0x1bbc>
    1d88:	e1c55fc5 	bic	r5, r5, r5, asr #31
    1d8c:	e0656003 	rsb	r6, r5, r3
    1d90:	e3560000 	cmp	r6, #0
    1d94:	dafffe0e 	ble	15d4 <_vfprintf_r+0xd48>
    1d98:	e3560010 	cmp	r6, #16
    1d9c:	e59d3098 	ldr	r3, [sp, #152]	; 0x98
    1da0:	e51f5508 	ldr	r5, [pc, #-1288]	; 18a0 <_vfprintf_r+0x1014>
    1da4:	daffffc2 	ble	1cb4 <_vfprintf_r+0x1428>
    1da8:	e3a08010 	mov	r8, #16
    1dac:	e59da034 	ldr	r10, [sp, #52]	; 0x34
    1db0:	e59db028 	ldr	r11, [sp, #40]	; 0x28
    1db4:	ea000002 	b	1dc4 <_vfprintf_r+0x1538>
    1db8:	e2466010 	sub	r6, r6, #16
    1dbc:	e3560010 	cmp	r6, #16
    1dc0:	daffffbb 	ble	1cb4 <_vfprintf_r+0x1428>
    1dc4:	e2833001 	add	r3, r3, #1
    1dc8:	e3530007 	cmp	r3, #7
    1dcc:	e2844010 	add	r4, r4, #16
    1dd0:	e5879000 	str	r9, [r7]
    1dd4:	e5878004 	str	r8, [r7, #4]
    1dd8:	e58d3098 	str	r3, [sp, #152]	; 0x98
    1ddc:	e58d409c 	str	r4, [sp, #156]	; 0x9c
    1de0:	d2877008 	addle	r7, r7, #8
    1de4:	dafffff3 	ble	1db8 <_vfprintf_r+0x152c>
    1de8:	e1a0000a 	mov	r0, r10
    1dec:	e1a0100b 	mov	r1, r11
    1df0:	e28d2094 	add	r2, sp, #148	; 0x94
    1df4:	eb002e72 	bl	d7c4 <__sprint_r>
    1df8:	e3500000 	cmp	r0, #0
    1dfc:	1afffb8f 	bne	c40 <_vfprintf_r+0x3b4>
    1e00:	e28d3098 	add	r3, sp, #152	; 0x98
    1e04:	e8930018 	ldm	r3, {r3, r4}
    1e08:	e28d70c8 	add	r7, sp, #200	; 0xc8
    1e0c:	eaffffe9 	b	1db8 <_vfprintf_r+0x152c>
    1e10:	e59d2098 	ldr	r2, [sp, #152]	; 0x98
    1e14:	e59dc05c 	ldr	r12, [sp, #92]	; 0x5c
    1e18:	e2822001 	add	r2, r2, #1
    1e1c:	e59d5054 	ldr	r5, [sp, #84]	; 0x54
    1e20:	e084400c 	add	r4, r4, r12
    1e24:	e3520007 	cmp	r2, #7
    1e28:	e8871020 	stm	r7, {r5, r12}
    1e2c:	e58d409c 	str	r4, [sp, #156]	; 0x9c
    1e30:	e58d2098 	str	r2, [sp, #152]	; 0x98
    1e34:	d2877008 	addle	r7, r7, #8
    1e38:	daffffc1 	ble	1d44 <_vfprintf_r+0x14b8>
    1e3c:	e59d0034 	ldr	r0, [sp, #52]	; 0x34
    1e40:	e59d1028 	ldr	r1, [sp, #40]	; 0x28
    1e44:	e28d2094 	add	r2, sp, #148	; 0x94
    1e48:	eb002e5d 	bl	d7c4 <__sprint_r>
    1e4c:	e3500000 	cmp	r0, #0
    1e50:	1afffb7a 	bne	c40 <_vfprintf_r+0x3b4>
    1e54:	e59d307c 	ldr	r3, [sp, #124]	; 0x7c
    1e58:	e59d409c 	ldr	r4, [sp, #156]	; 0x9c
    1e5c:	e28d70c8 	add	r7, sp, #200	; 0xc8
    1e60:	eaffffb7 	b	1d44 <_vfprintf_r+0x14b8>
    1e64:	e59dc020 	ldr	r12, [sp, #32]
    1e68:	e31c0001 	tst	r12, #1
    1e6c:	1afffec1 	bne	1978 <_vfprintf_r+0x10ec>
    1e70:	e3a03001 	mov	r3, #1
    1e74:	e3580007 	cmp	r8, #7
    1e78:	e58d409c 	str	r4, [sp, #156]	; 0x9c
    1e7c:	e58d8098 	str	r8, [sp, #152]	; 0x98
    1e80:	e5876000 	str	r6, [r7]
    1e84:	e5873004 	str	r3, [r7, #4]
    1e88:	dafffedf 	ble	1a0c <_vfprintf_r+0x1180>
    1e8c:	e59d0034 	ldr	r0, [sp, #52]	; 0x34
    1e90:	e59d1028 	ldr	r1, [sp, #40]	; 0x28
    1e94:	e28d2094 	add	r2, sp, #148	; 0x94
    1e98:	eb002e49 	bl	d7c4 <__sprint_r>
    1e9c:	e3500000 	cmp	r0, #0
    1ea0:	1afffb66 	bne	c40 <_vfprintf_r+0x3b4>
    1ea4:	e59d409c 	ldr	r4, [sp, #156]	; 0x9c
    1ea8:	e59d8098 	ldr	r8, [sp, #152]	; 0x98
    1eac:	e28d70c8 	add	r7, sp, #200	; 0xc8
    1eb0:	eafffed6 	b	1a10 <_vfprintf_r+0x1184>
    1eb4:	e59d0034 	ldr	r0, [sp, #52]	; 0x34
    1eb8:	e59d1028 	ldr	r1, [sp, #40]	; 0x28
    1ebc:	e28d2094 	add	r2, sp, #148	; 0x94
    1ec0:	eb002e3f 	bl	d7c4 <__sprint_r>
    1ec4:	e3500000 	cmp	r0, #0
    1ec8:	1afffb5c 	bne	c40 <_vfprintf_r+0x3b4>
    1ecc:	e59d409c 	ldr	r4, [sp, #156]	; 0x9c
    1ed0:	e59d8098 	ldr	r8, [sp, #152]	; 0x98
    1ed4:	e28d70c8 	add	r7, sp, #200	; 0xc8
    1ed8:	eafffeae 	b	1998 <_vfprintf_r+0x110c>
    1edc:	e59d0034 	ldr	r0, [sp, #52]	; 0x34
    1ee0:	e59d1028 	ldr	r1, [sp, #40]	; 0x28
    1ee4:	e28d2094 	add	r2, sp, #148	; 0x94
    1ee8:	eb002e35 	bl	d7c4 <__sprint_r>
    1eec:	e3500000 	cmp	r0, #0
    1ef0:	1afffb52 	bne	c40 <_vfprintf_r+0x3b4>
    1ef4:	e59d409c 	ldr	r4, [sp, #156]	; 0x9c
    1ef8:	e59d8098 	ldr	r8, [sp, #152]	; 0x98
    1efc:	e28d70c8 	add	r7, sp, #200	; 0xc8
    1f00:	eafffeaf 	b	19c4 <_vfprintf_r+0x1138>
    1f04:	e59d502c 	ldr	r5, [sp, #44]	; 0x2c
    1f08:	e2888001 	add	r8, r8, #1
    1f0c:	e0844006 	add	r4, r4, r6
    1f10:	e3580007 	cmp	r8, #7
    1f14:	e58d8098 	str	r8, [sp, #152]	; 0x98
    1f18:	e58d409c 	str	r4, [sp, #156]	; 0x9c
    1f1c:	e8870060 	stm	r7, {r5, r6}
    1f20:	dafffeb9 	ble	1a0c <_vfprintf_r+0x1180>
    1f24:	eaffffd8 	b	1e8c <_vfprintf_r+0x1600>
    1f28:	e28db0c7 	add	r11, sp, #199	; 0xc7
    1f2c:	e1a00004 	mov	r0, r4
    1f30:	e1a01005 	mov	r1, r5
    1f34:	e3a0200a 	mov	r2, #10
    1f38:	e3a03000 	mov	r3, #0
    1f3c:	eb004065 	bl	120d8 <__aeabi_uldivmod>
    1f40:	e2822030 	add	r2, r2, #48	; 0x30
    1f44:	e5cb2000 	strb	r2, [r11]
    1f48:	e1a00004 	mov	r0, r4
    1f4c:	e1a01005 	mov	r1, r5
    1f50:	e3a0200a 	mov	r2, #10
    1f54:	e3a03000 	mov	r3, #0
    1f58:	eb00405e 	bl	120d8 <__aeabi_uldivmod>
    1f5c:	e1a04000 	mov	r4, r0
    1f60:	e1a05001 	mov	r5, r1
    1f64:	e194c005 	orrs	r12, r4, r5
    1f68:	e1a0600b 	mov	r6, r11
    1f6c:	e24bb001 	sub	r11, r11, #1
    1f70:	1affffed 	bne	1f2c <_vfprintf_r+0x16a0>
    1f74:	eafffb6a 	b	d24 <_vfprintf_r+0x498>
    1f78:	e3a0a02d 	mov	r10, #45	; 0x2d
    1f7c:	e2744000 	rsbs	r4, r4, #0
    1f80:	e2e55000 	rsc	r5, r5, #0
    1f84:	e5cda077 	strb	r10, [sp, #119]	; 0x77
    1f88:	e3a03001 	mov	r3, #1
    1f8c:	eafffb45 	b	ca8 <_vfprintf_r+0x41c>
    1f90:	eb001caf 	bl	9254 <__fpclassifyd>
    1f94:	e3500000 	cmp	r0, #0
    1f98:	0a0000da 	beq	2308 <_vfprintf_r+0x1a7c>
    1f9c:	e59d402c 	ldr	r4, [sp, #44]	; 0x2c
    1fa0:	e3740001 	cmn	r4, #1
    1fa4:	03a0c006 	moveq	r12, #6
    1fa8:	e3c85020 	bic	r5, r8, #32
    1fac:	058dc02c 	streq	r12, [sp, #44]	; 0x2c
    1fb0:	0a000005 	beq	1fcc <_vfprintf_r+0x1740>
    1fb4:	e3550047 	cmp	r5, #71	; 0x47
    1fb8:	1a000003 	bne	1fcc <_vfprintf_r+0x1740>
    1fbc:	e59d402c 	ldr	r4, [sp, #44]	; 0x2c
    1fc0:	e3540000 	cmp	r4, #0
    1fc4:	03a04001 	moveq	r4, #1
    1fc8:	e58d402c 	str	r4, [sp, #44]	; 0x2c
    1fcc:	e59d3060 	ldr	r3, [sp, #96]	; 0x60
    1fd0:	e59d4020 	ldr	r4, [sp, #32]
    1fd4:	e3530000 	cmp	r3, #0
    1fd8:	e3844c01 	orr	r4, r4, #256	; 0x100
    1fdc:	b283a102 	addlt	r10, r3, #-2147483648	; 0x80000000
    1fe0:	b3a0b02d 	movlt	r11, #45	; 0x2d
    1fe4:	a59da060 	ldrge	r10, [sp, #96]	; 0x60
    1fe8:	a3a0b000 	movge	r11, #0
    1fec:	e2553046 	subs	r3, r5, #70	; 0x46
    1ff0:	e58d404c 	str	r4, [sp, #76]	; 0x4c
    1ff4:	e2734000 	rsbs	r4, r3, #0
    1ff8:	e0b44003 	adcs	r4, r4, r3
    1ffc:	e3540000 	cmp	r4, #0
    2000:	1a000142 	bne	2510 <_vfprintf_r+0x1c84>
    2004:	e3550045 	cmp	r5, #69	; 0x45
    2008:	1a00019c 	bne	2680 <_vfprintf_r+0x1df4>
    200c:	e59dc02c 	ldr	r12, [sp, #44]	; 0x2c
    2010:	e3a00002 	mov	r0, #2
    2014:	e28c4001 	add	r4, r12, #1
    2018:	e28d107c 	add	r1, sp, #124	; 0x7c
    201c:	e88d0011 	stm	sp, {r0, r4}
    2020:	e58d1008 	str	r1, [sp, #8]
    2024:	e28d0080 	add	r0, sp, #128	; 0x80
    2028:	e28d108c 	add	r1, sp, #140	; 0x8c
    202c:	e58d000c 	str	r0, [sp, #12]
    2030:	e59d2058 	ldr	r2, [sp, #88]	; 0x58
    2034:	e1a0300a 	mov	r3, r10
    2038:	e58d1010 	str	r1, [sp, #16]
    203c:	e59d0034 	ldr	r0, [sp, #52]	; 0x34
    2040:	eb000932 	bl	4510 <_dtoa_r>
    2044:	e1a06000 	mov	r6, r0
    2048:	e0804004 	add	r4, r0, r4
    204c:	e3a03000 	mov	r3, #0
    2050:	e59d0058 	ldr	r0, [sp, #88]	; 0x58
    2054:	e1a0100a 	mov	r1, r10
    2058:	e3a02000 	mov	r2, #0
    205c:	eb003f66 	bl	11dfc <__aeabi_dcmpeq>
    2060:	e3500000 	cmp	r0, #0
    2064:	11a03004 	movne	r3, r4
    2068:	1a000009 	bne	2094 <_vfprintf_r+0x1808>
    206c:	e59d308c 	ldr	r3, [sp, #140]	; 0x8c
    2070:	e1540003 	cmp	r4, r3
    2074:	9a000006 	bls	2094 <_vfprintf_r+0x1808>
    2078:	e3a01030 	mov	r1, #48	; 0x30
    207c:	e2832001 	add	r2, r3, #1
    2080:	e58d208c 	str	r2, [sp, #140]	; 0x8c
    2084:	e5c31000 	strb	r1, [r3]
    2088:	e59d308c 	ldr	r3, [sp, #140]	; 0x8c
    208c:	e1540003 	cmp	r4, r3
    2090:	8afffff9 	bhi	207c <_vfprintf_r+0x17f0>
    2094:	e0663003 	rsb	r3, r6, r3
    2098:	e3550047 	cmp	r5, #71	; 0x47
    209c:	e58d303c 	str	r3, [sp, #60]	; 0x3c
    20a0:	0a000112 	beq	24f0 <_vfprintf_r+0x1c64>
    20a4:	e3580065 	cmp	r8, #101	; 0x65
    20a8:	da0001d3 	ble	27fc <_vfprintf_r+0x1f70>
    20ac:	e3580066 	cmp	r8, #102	; 0x66
    20b0:	0a000193 	beq	2704 <_vfprintf_r+0x1e78>
    20b4:	e59d507c 	ldr	r5, [sp, #124]	; 0x7c
    20b8:	e58d5050 	str	r5, [sp, #80]	; 0x50
    20bc:	e59d4050 	ldr	r4, [sp, #80]	; 0x50
    20c0:	e59d503c 	ldr	r5, [sp, #60]	; 0x3c
    20c4:	e1540005 	cmp	r4, r5
    20c8:	ba000162 	blt	2658 <_vfprintf_r+0x1dcc>
    20cc:	e59dc020 	ldr	r12, [sp, #32]
    20d0:	e31c0001 	tst	r12, #1
    20d4:	159d3050 	ldrne	r3, [sp, #80]	; 0x50
    20d8:	058d4038 	streq	r4, [sp, #56]	; 0x38
    20dc:	12833001 	addne	r3, r3, #1
    20e0:	158d3038 	strne	r3, [sp, #56]	; 0x38
    20e4:	01c43fc4 	biceq	r3, r4, r4, asr #31
    20e8:	11c33fc3 	bicne	r3, r3, r3, asr #31
    20ec:	e3a08067 	mov	r8, #103	; 0x67
    20f0:	e35b0000 	cmp	r11, #0
    20f4:	1a0000f2 	bne	24c4 <_vfprintf_r+0x1c38>
    20f8:	e59dc04c 	ldr	r12, [sp, #76]	; 0x4c
    20fc:	e58d3030 	str	r3, [sp, #48]	; 0x30
    2100:	e58dc020 	str	r12, [sp, #32]
    2104:	e58db02c 	str	r11, [sp, #44]	; 0x2c
    2108:	e5dda077 	ldrb	r10, [sp, #119]	; 0x77
    210c:	eafffb0e 	b	d4c <_vfprintf_r+0x4c0>
    2110:	e593c000 	ldr	r12, [r3]
    2114:	e5934004 	ldr	r4, [r3, #4]
    2118:	e2833008 	add	r3, r3, #8
    211c:	e58dc058 	str	r12, [sp, #88]	; 0x58
    2120:	e58d4060 	str	r4, [sp, #96]	; 0x60
    2124:	e58d3044 	str	r3, [sp, #68]	; 0x44
    2128:	eafffbc0 	b	1030 <_vfprintf_r+0x7a4>
    212c:	e59dc020 	ldr	r12, [sp, #32]
    2130:	e31c0010 	tst	r12, #16
    2134:	1a00006c 	bne	22ec <_vfprintf_r+0x1a60>
    2138:	e59dc020 	ldr	r12, [sp, #32]
    213c:	e31c0040 	tst	r12, #64	; 0x40
    2140:	0a0000d8 	beq	24a8 <_vfprintf_r+0x1c1c>
    2144:	e59d4044 	ldr	r4, [sp, #68]	; 0x44
    2148:	e59d5048 	ldr	r5, [sp, #72]	; 0x48
    214c:	e5943000 	ldr	r3, [r4]
    2150:	e2844004 	add	r4, r4, #4
    2154:	e58d4044 	str	r4, [sp, #68]	; 0x44
    2158:	e1c350b0 	strh	r5, [r3]
    215c:	eafff9fd 	b	958 <_vfprintf_r+0xcc>
    2160:	e59d4020 	ldr	r4, [sp, #32]
    2164:	e59d5044 	ldr	r5, [sp, #68]	; 0x44
    2168:	e3140040 	tst	r4, #64	; 0x40
    216c:	11d540f0 	ldrshne	r4, [r5]
    2170:	05954000 	ldreq	r4, [r5]
    2174:	e59dc044 	ldr	r12, [sp, #68]	; 0x44
    2178:	e1a05fc4 	asr	r5, r4, #31
    217c:	e28cc004 	add	r12, r12, #4
    2180:	e58dc044 	str	r12, [sp, #68]	; 0x44
    2184:	e1a02004 	mov	r2, r4
    2188:	e1a03005 	mov	r3, r5
    218c:	eafffb93 	b	fe0 <_vfprintf_r+0x754>
    2190:	e59dc020 	ldr	r12, [sp, #32]
    2194:	e21c3040 	ands	r3, r12, #64	; 0x40
    2198:	159d5044 	ldrne	r5, [sp, #68]	; 0x44
    219c:	059dc044 	ldreq	r12, [sp, #68]	; 0x44
    21a0:	11d540b0 	ldrhne	r4, [r5]
    21a4:	059c4000 	ldreq	r4, [r12]
    21a8:	12855004 	addne	r5, r5, #4
    21ac:	028cc004 	addeq	r12, r12, #4
    21b0:	158d5044 	strne	r5, [sp, #68]	; 0x44
    21b4:	11a03002 	movne	r3, r2
    21b8:	058dc044 	streq	r12, [sp, #68]	; 0x44
    21bc:	e3a05000 	mov	r5, #0
    21c0:	eafffab6 	b	ca0 <_vfprintf_r+0x414>
    21c4:	e59d0034 	ldr	r0, [sp, #52]	; 0x34
    21c8:	e59d1028 	ldr	r1, [sp, #40]	; 0x28
    21cc:	e28d2094 	add	r2, sp, #148	; 0x94
    21d0:	eb002d7b 	bl	d7c4 <__sprint_r>
    21d4:	e3500000 	cmp	r0, #0
    21d8:	1afffa98 	bne	c40 <_vfprintf_r+0x3b4>
    21dc:	e59d409c 	ldr	r4, [sp, #156]	; 0x9c
    21e0:	e28d70c8 	add	r7, sp, #200	; 0xc8
    21e4:	eafffd53 	b	1738 <_vfprintf_r+0xeac>
    21e8:	e59d2098 	ldr	r2, [sp, #152]	; 0x98
    21ec:	e51fc958 	ldr	r12, [pc, #-2392]	; 189c <_vfprintf_r+0x1010>
    21f0:	e2822001 	add	r2, r2, #1
    21f4:	e2844001 	add	r4, r4, #1
    21f8:	e3a01001 	mov	r1, #1
    21fc:	e3520007 	cmp	r2, #7
    2200:	e58d409c 	str	r4, [sp, #156]	; 0x9c
    2204:	e587c000 	str	r12, [r7]
    2208:	e58d2098 	str	r2, [sp, #152]	; 0x98
    220c:	e5871004 	str	r1, [r7, #4]
    2210:	ca00004a 	bgt	2340 <_vfprintf_r+0x1ab4>
    2214:	e2877008 	add	r7, r7, #8
    2218:	e1a08003 	mov	r8, r3
    221c:	e3580000 	cmp	r8, #0
    2220:	1a000005 	bne	223c <_vfprintf_r+0x19b0>
    2224:	e59d503c 	ldr	r5, [sp, #60]	; 0x3c
    2228:	e3550000 	cmp	r5, #0
    222c:	1a000002 	bne	223c <_vfprintf_r+0x19b0>
    2230:	e59dc020 	ldr	r12, [sp, #32]
    2234:	e31c0001 	tst	r12, #1
    2238:	0afffce5 	beq	15d4 <_vfprintf_r+0xd48>
    223c:	e59d3098 	ldr	r3, [sp, #152]	; 0x98
    2240:	e59d505c 	ldr	r5, [sp, #92]	; 0x5c
    2244:	e2833001 	add	r3, r3, #1
    2248:	e59dc054 	ldr	r12, [sp, #84]	; 0x54
    224c:	e0844005 	add	r4, r4, r5
    2250:	e3530007 	cmp	r3, #7
    2254:	e587c000 	str	r12, [r7]
    2258:	e5875004 	str	r5, [r7, #4]
    225c:	e58d409c 	str	r4, [sp, #156]	; 0x9c
    2260:	e58d3098 	str	r3, [sp, #152]	; 0x98
    2264:	d2877008 	addle	r7, r7, #8
    2268:	ca0000ef 	bgt	262c <_vfprintf_r+0x1da0>
    226c:	e2688000 	rsb	r8, r8, #0
    2270:	e3580000 	cmp	r8, #0
    2274:	da000056 	ble	23d4 <_vfprintf_r+0x1b48>
    2278:	e3580010 	cmp	r8, #16
    227c:	e51f59e4 	ldr	r5, [pc, #-2532]	; 18a0 <_vfprintf_r+0x1014>
    2280:	da000042 	ble	2390 <_vfprintf_r+0x1b04>
    2284:	e1a02004 	mov	r2, r4
    2288:	e3a0a010 	mov	r10, #16
    228c:	e59db034 	ldr	r11, [sp, #52]	; 0x34
    2290:	e59d4028 	ldr	r4, [sp, #40]	; 0x28
    2294:	ea000002 	b	22a4 <_vfprintf_r+0x1a18>
    2298:	e2488010 	sub	r8, r8, #16
    229c:	e3580010 	cmp	r8, #16
    22a0:	da000039 	ble	238c <_vfprintf_r+0x1b00>
    22a4:	e2833001 	add	r3, r3, #1
    22a8:	e3530007 	cmp	r3, #7
    22ac:	e2822010 	add	r2, r2, #16
    22b0:	e8870600 	stm	r7, {r9, r10}
    22b4:	e58d3098 	str	r3, [sp, #152]	; 0x98
    22b8:	e58d209c 	str	r2, [sp, #156]	; 0x9c
    22bc:	d2877008 	addle	r7, r7, #8
    22c0:	dafffff4 	ble	2298 <_vfprintf_r+0x1a0c>
    22c4:	e1a0000b 	mov	r0, r11
    22c8:	e1a01004 	mov	r1, r4
    22cc:	e28d2094 	add	r2, sp, #148	; 0x94
    22d0:	eb002d3b 	bl	d7c4 <__sprint_r>
    22d4:	e3500000 	cmp	r0, #0
    22d8:	1afffa58 	bne	c40 <_vfprintf_r+0x3b4>
    22dc:	e59d209c 	ldr	r2, [sp, #156]	; 0x9c
    22e0:	e59d3098 	ldr	r3, [sp, #152]	; 0x98
    22e4:	e28d70c8 	add	r7, sp, #200	; 0xc8
    22e8:	eaffffea 	b	2298 <_vfprintf_r+0x1a0c>
    22ec:	e59d4044 	ldr	r4, [sp, #68]	; 0x44
    22f0:	e59d5048 	ldr	r5, [sp, #72]	; 0x48
    22f4:	e5943000 	ldr	r3, [r4]
    22f8:	e2844004 	add	r4, r4, #4
    22fc:	e58d4044 	str	r4, [sp, #68]	; 0x44
    2300:	e5835000 	str	r5, [r3]
    2304:	eafff993 	b	958 <_vfprintf_r+0xcc>
    2308:	e59dc020 	ldr	r12, [sp, #32]
    230c:	e51f3a70 	ldr	r3, [pc, #-2672]	; 18a4 <_vfprintf_r+0x1018>
    2310:	e3a05003 	mov	r5, #3
    2314:	e3ccc080 	bic	r12, r12, #128	; 0x80
    2318:	e3580047 	cmp	r8, #71	; 0x47
    231c:	e51f6a7c 	ldr	r6, [pc, #-2684]	; 18a8 <_vfprintf_r+0x101c>
    2320:	e58d002c 	str	r0, [sp, #44]	; 0x2c
    2324:	e58d5030 	str	r5, [sp, #48]	; 0x30
    2328:	e58dc020 	str	r12, [sp, #32]
    232c:	e58d0050 	str	r0, [sp, #80]	; 0x50
    2330:	d1a06003 	movle	r6, r3
    2334:	e58d5038 	str	r5, [sp, #56]	; 0x38
    2338:	e5dda077 	ldrb	r10, [sp, #119]	; 0x77
    233c:	eafffa82 	b	d4c <_vfprintf_r+0x4c0>
    2340:	e59d0034 	ldr	r0, [sp, #52]	; 0x34
    2344:	e59d1028 	ldr	r1, [sp, #40]	; 0x28
    2348:	e28d2094 	add	r2, sp, #148	; 0x94
    234c:	eb002d1c 	bl	d7c4 <__sprint_r>
    2350:	e3500000 	cmp	r0, #0
    2354:	1afffa39 	bne	c40 <_vfprintf_r+0x3b4>
    2358:	e59d807c 	ldr	r8, [sp, #124]	; 0x7c
    235c:	e59d409c 	ldr	r4, [sp, #156]	; 0x9c
    2360:	e28d70c8 	add	r7, sp, #200	; 0xc8
    2364:	eaffffac 	b	221c <_vfprintf_r+0x1990>
    2368:	e59d0034 	ldr	r0, [sp, #52]	; 0x34
    236c:	e59d1028 	ldr	r1, [sp, #40]	; 0x28
    2370:	e28d2094 	add	r2, sp, #148	; 0x94
    2374:	eb002d12 	bl	d7c4 <__sprint_r>
    2378:	e3500000 	cmp	r0, #0
    237c:	1afffa2f 	bne	c40 <_vfprintf_r+0x3b4>
    2380:	e59d409c 	ldr	r4, [sp, #156]	; 0x9c
    2384:	e28d70c8 	add	r7, sp, #200	; 0xc8
    2388:	eafffcfd 	b	1784 <_vfprintf_r+0xef8>
    238c:	e1a04002 	mov	r4, r2
    2390:	e2833001 	add	r3, r3, #1
    2394:	e3530007 	cmp	r3, #7
    2398:	e0844008 	add	r4, r4, r8
    239c:	e8870120 	stm	r7, {r5, r8}
    23a0:	e58d3098 	str	r3, [sp, #152]	; 0x98
    23a4:	e58d409c 	str	r4, [sp, #156]	; 0x9c
    23a8:	d2877008 	addle	r7, r7, #8
    23ac:	da000008 	ble	23d4 <_vfprintf_r+0x1b48>
    23b0:	e59d0034 	ldr	r0, [sp, #52]	; 0x34
    23b4:	e59d1028 	ldr	r1, [sp, #40]	; 0x28
    23b8:	e28d2094 	add	r2, sp, #148	; 0x94
    23bc:	eb002d00 	bl	d7c4 <__sprint_r>
    23c0:	e3500000 	cmp	r0, #0
    23c4:	1afffa1d 	bne	c40 <_vfprintf_r+0x3b4>
    23c8:	e28d3098 	add	r3, sp, #152	; 0x98
    23cc:	e8930018 	ldm	r3, {r3, r4}
    23d0:	e28d70c8 	add	r7, sp, #200	; 0xc8
    23d4:	e59d503c 	ldr	r5, [sp, #60]	; 0x3c
    23d8:	e2833001 	add	r3, r3, #1
    23dc:	e0854004 	add	r4, r5, r4
    23e0:	e3530007 	cmp	r3, #7
    23e4:	e58d3098 	str	r3, [sp, #152]	; 0x98
    23e8:	e58d409c 	str	r4, [sp, #156]	; 0x9c
    23ec:	e5876000 	str	r6, [r7]
    23f0:	e5875004 	str	r5, [r7, #4]
    23f4:	dafffc75 	ble	15d0 <_vfprintf_r+0xd44>
    23f8:	eafffd8d 	b	1a34 <_vfprintf_r+0x11a8>
    23fc:	e58d502c 	str	r5, [sp, #44]	; 0x2c
    2400:	ebfff853 	bl	554 <strlen>
    2404:	e59dc02c 	ldr	r12, [sp, #44]	; 0x2c
    2408:	e1c05fc0 	bic	r5, r0, r0, asr #31
    240c:	e58d0038 	str	r0, [sp, #56]	; 0x38
    2410:	e58d4044 	str	r4, [sp, #68]	; 0x44
    2414:	e58d5030 	str	r5, [sp, #48]	; 0x30
    2418:	e58dc050 	str	r12, [sp, #80]	; 0x50
    241c:	e5dda077 	ldrb	r10, [sp, #119]	; 0x77
    2420:	eafffa49 	b	d4c <_vfprintf_r+0x4c0>
    2424:	e59d0034 	ldr	r0, [sp, #52]	; 0x34
    2428:	e59d1028 	ldr	r1, [sp, #40]	; 0x28
    242c:	e28d2094 	add	r2, sp, #148	; 0x94
    2430:	eb002ce3 	bl	d7c4 <__sprint_r>
    2434:	e3500000 	cmp	r0, #0
    2438:	1afffa00 	bne	c40 <_vfprintf_r+0x3b4>
    243c:	e59d409c 	ldr	r4, [sp, #156]	; 0x9c
    2440:	e28d70c8 	add	r7, sp, #200	; 0xc8
    2444:	eafffdb3 	b	1b18 <_vfprintf_r+0x128c>
    2448:	e59d0034 	ldr	r0, [sp, #52]	; 0x34
    244c:	e59d1028 	ldr	r1, [sp, #40]	; 0x28
    2450:	e28d2094 	add	r2, sp, #148	; 0x94
    2454:	eb002cda 	bl	d7c4 <__sprint_r>
    2458:	e3500000 	cmp	r0, #0
    245c:	1afff9f7 	bne	c40 <_vfprintf_r+0x3b4>
    2460:	e59d307c 	ldr	r3, [sp, #124]	; 0x7c
    2464:	e59dc03c 	ldr	r12, [sp, #60]	; 0x3c
    2468:	e59d409c 	ldr	r4, [sp, #156]	; 0x9c
    246c:	e063300c 	rsb	r3, r3, r12
    2470:	e28d70c8 	add	r7, sp, #200	; 0xc8
    2474:	eafffe43 	b	1d88 <_vfprintf_r+0x14fc>
    2478:	e59d502c 	ldr	r5, [sp, #44]	; 0x2c
    247c:	e3550006 	cmp	r5, #6
    2480:	23a05006 	movcs	r5, #6
    2484:	e1c5cfc5 	bic	r12, r5, r5, asr #31
    2488:	e1a0a006 	mov	r10, r6
    248c:	e58d602c 	str	r6, [sp, #44]	; 0x2c
    2490:	e58d6050 	str	r6, [sp, #80]	; 0x50
    2494:	e58d5038 	str	r5, [sp, #56]	; 0x38
    2498:	e58d4044 	str	r4, [sp, #68]	; 0x44
    249c:	e58dc030 	str	r12, [sp, #48]	; 0x30
    24a0:	e51f6bfc 	ldr	r6, [pc, #-3068]	; 18ac <_vfprintf_r+0x1020>
    24a4:	eafffa28 	b	d4c <_vfprintf_r+0x4c0>
    24a8:	e59dc044 	ldr	r12, [sp, #68]	; 0x44
    24ac:	e59d4048 	ldr	r4, [sp, #72]	; 0x48
    24b0:	e59c3000 	ldr	r3, [r12]
    24b4:	e28cc004 	add	r12, r12, #4
    24b8:	e58dc044 	str	r12, [sp, #68]	; 0x44
    24bc:	e5834000 	str	r4, [r3]
    24c0:	eafff924 	b	958 <_vfprintf_r+0xcc>
    24c4:	e59d404c 	ldr	r4, [sp, #76]	; 0x4c
    24c8:	e3a0a02d 	mov	r10, #45	; 0x2d
    24cc:	e3a05000 	mov	r5, #0
    24d0:	e58d3030 	str	r3, [sp, #48]	; 0x30
    24d4:	e58d4020 	str	r4, [sp, #32]
    24d8:	e5cda077 	strb	r10, [sp, #119]	; 0x77
    24dc:	e58d502c 	str	r5, [sp, #44]	; 0x2c
    24e0:	eafffa1b 	b	d54 <_vfprintf_r+0x4c8>
    24e4:	e59d308c 	ldr	r3, [sp, #140]	; 0x8c
    24e8:	e0603003 	rsb	r3, r0, r3
    24ec:	e58d303c 	str	r3, [sp, #60]	; 0x3c
    24f0:	e59d307c 	ldr	r3, [sp, #124]	; 0x7c
    24f4:	e3730003 	cmn	r3, #3
    24f8:	ba00002c 	blt	25b0 <_vfprintf_r+0x1d24>
    24fc:	e59d402c 	ldr	r4, [sp, #44]	; 0x2c
    2500:	e1540003 	cmp	r4, r3
    2504:	ba000029 	blt	25b0 <_vfprintf_r+0x1d24>
    2508:	e58d3050 	str	r3, [sp, #80]	; 0x50
    250c:	eafffeea 	b	20bc <_vfprintf_r+0x1830>
    2510:	e3a01003 	mov	r1, #3
    2514:	e28d007c 	add	r0, sp, #124	; 0x7c
    2518:	e59dc02c 	ldr	r12, [sp, #44]	; 0x2c
    251c:	e58d1000 	str	r1, [sp]
    2520:	e58d0008 	str	r0, [sp, #8]
    2524:	e28d1080 	add	r1, sp, #128	; 0x80
    2528:	e28d008c 	add	r0, sp, #140	; 0x8c
    252c:	e58d0010 	str	r0, [sp, #16]
    2530:	e59d2058 	ldr	r2, [sp, #88]	; 0x58
    2534:	e1a0300a 	mov	r3, r10
    2538:	e58dc004 	str	r12, [sp, #4]
    253c:	e58d100c 	str	r1, [sp, #12]
    2540:	e59d0034 	ldr	r0, [sp, #52]	; 0x34
    2544:	eb0007f1 	bl	4510 <_dtoa_r>
    2548:	e3550047 	cmp	r5, #71	; 0x47
    254c:	e1a06000 	mov	r6, r0
    2550:	1a000002 	bne	2560 <_vfprintf_r+0x1cd4>
    2554:	e59dc020 	ldr	r12, [sp, #32]
    2558:	e31c0001 	tst	r12, #1
    255c:	0affffe0 	beq	24e4 <_vfprintf_r+0x1c58>
    2560:	e59dc02c 	ldr	r12, [sp, #44]	; 0x2c
    2564:	e3540000 	cmp	r4, #0
    2568:	e086400c 	add	r4, r6, r12
    256c:	0afffeb6 	beq	204c <_vfprintf_r+0x17c0>
    2570:	e5d63000 	ldrb	r3, [r6]
    2574:	e3530030 	cmp	r3, #48	; 0x30
    2578:	0a00006e 	beq	2738 <_vfprintf_r+0x1eac>
    257c:	e59d307c 	ldr	r3, [sp, #124]	; 0x7c
    2580:	e0844003 	add	r4, r4, r3
    2584:	eafffeb0 	b	204c <_vfprintf_r+0x17c0>
    2588:	e59d502c 	ldr	r5, [sp, #44]	; 0x2c
    258c:	e59dc02c 	ldr	r12, [sp, #44]	; 0x2c
    2590:	e1c55fc5 	bic	r5, r5, r5, asr #31
    2594:	e58d5030 	str	r5, [sp, #48]	; 0x30
    2598:	e58dc038 	str	r12, [sp, #56]	; 0x38
    259c:	e58d002c 	str	r0, [sp, #44]	; 0x2c
    25a0:	e58d4044 	str	r4, [sp, #68]	; 0x44
    25a4:	e58d0050 	str	r0, [sp, #80]	; 0x50
    25a8:	e5dda077 	ldrb	r10, [sp, #119]	; 0x77
    25ac:	eafff9e6 	b	d4c <_vfprintf_r+0x4c0>
    25b0:	e2488002 	sub	r8, r8, #2
    25b4:	e2431001 	sub	r1, r3, #1
    25b8:	e3510000 	cmp	r1, #0
    25bc:	e58d107c 	str	r1, [sp, #124]	; 0x7c
    25c0:	b2611000 	rsblt	r1, r1, #0
    25c4:	b3a0302d 	movlt	r3, #45	; 0x2d
    25c8:	a3a0302b 	movge	r3, #43	; 0x2b
    25cc:	e3510009 	cmp	r1, #9
    25d0:	e5cd8084 	strb	r8, [sp, #132]	; 0x84
    25d4:	e5cd3085 	strb	r3, [sp, #133]	; 0x85
    25d8:	ca00002a 	bgt	2688 <_vfprintf_r+0x1dfc>
    25dc:	e2811030 	add	r1, r1, #48	; 0x30
    25e0:	e3a03030 	mov	r3, #48	; 0x30
    25e4:	e5cd1087 	strb	r1, [sp, #135]	; 0x87
    25e8:	e5cd3086 	strb	r3, [sp, #134]	; 0x86
    25ec:	e28d3088 	add	r3, sp, #136	; 0x88
    25f0:	e59d403c 	ldr	r4, [sp, #60]	; 0x3c
    25f4:	e28d2084 	add	r2, sp, #132	; 0x84
    25f8:	e0622003 	rsb	r2, r2, r3
    25fc:	e0845002 	add	r5, r4, r2
    2600:	e3540001 	cmp	r4, #1
    2604:	e58d2064 	str	r2, [sp, #100]	; 0x64
    2608:	e58d5038 	str	r5, [sp, #56]	; 0x38
    260c:	da000074 	ble	27e4 <_vfprintf_r+0x1f58>
    2610:	e59d3038 	ldr	r3, [sp, #56]	; 0x38
    2614:	e3a04000 	mov	r4, #0
    2618:	e2833001 	add	r3, r3, #1
    261c:	e58d3038 	str	r3, [sp, #56]	; 0x38
    2620:	e58d4050 	str	r4, [sp, #80]	; 0x50
    2624:	e1c33fc3 	bic	r3, r3, r3, asr #31
    2628:	eafffeb0 	b	20f0 <_vfprintf_r+0x1864>
    262c:	e59d0034 	ldr	r0, [sp, #52]	; 0x34
    2630:	e59d1028 	ldr	r1, [sp, #40]	; 0x28
    2634:	e28d2094 	add	r2, sp, #148	; 0x94
    2638:	eb002c61 	bl	d7c4 <__sprint_r>
    263c:	e3500000 	cmp	r0, #0
    2640:	1afff97e 	bne	c40 <_vfprintf_r+0x3b4>
    2644:	e28d3098 	add	r3, sp, #152	; 0x98
    2648:	e59d807c 	ldr	r8, [sp, #124]	; 0x7c
    264c:	e8930018 	ldm	r3, {r3, r4}
    2650:	e28d70c8 	add	r7, sp, #200	; 0xc8
    2654:	eaffff04 	b	226c <_vfprintf_r+0x19e0>
    2658:	e59d4050 	ldr	r4, [sp, #80]	; 0x50
    265c:	e59d503c 	ldr	r5, [sp, #60]	; 0x3c
    2660:	e3540000 	cmp	r4, #0
    2664:	d2643002 	rsble	r3, r4, #2
    2668:	c3a03001 	movgt	r3, #1
    266c:	e0833005 	add	r3, r3, r5
    2670:	e58d3038 	str	r3, [sp, #56]	; 0x38
    2674:	e3a08067 	mov	r8, #103	; 0x67
    2678:	e1c33fc3 	bic	r3, r3, r3, asr #31
    267c:	eafffe9b 	b	20f0 <_vfprintf_r+0x1864>
    2680:	e3a01002 	mov	r1, #2
    2684:	eaffffa2 	b	2514 <_vfprintf_r+0x1c88>
    2688:	e28d2092 	add	r2, sp, #146	; 0x92
    268c:	e51f0de4 	ldr	r0, [pc, #-3556]	; 18b0 <_vfprintf_r+0x1024>
    2690:	e0c05091 	smull	r5, r0, r1, r0
    2694:	e1a03fc1 	asr	r3, r1, #31
    2698:	e0633140 	rsb	r3, r3, r0, asr #2
    269c:	e0830103 	add	r0, r3, r3, lsl #2
    26a0:	e0410080 	sub	r0, r1, r0, lsl #1
    26a4:	e1a01003 	mov	r1, r3
    26a8:	e3510009 	cmp	r1, #9
    26ac:	e1a03002 	mov	r3, r2
    26b0:	e2802030 	add	r2, r0, #48	; 0x30
    26b4:	e5c32000 	strb	r2, [r3]
    26b8:	e2432001 	sub	r2, r3, #1
    26bc:	cafffff2 	bgt	268c <_vfprintf_r+0x1e00>
    26c0:	e2811030 	add	r1, r1, #48	; 0x30
    26c4:	e28dc093 	add	r12, sp, #147	; 0x93
    26c8:	e20110ff 	and	r1, r1, #255	; 0xff
    26cc:	e15c0002 	cmp	r12, r2
    26d0:	e5431001 	strb	r1, [r3, #-1]
    26d4:	9a00004a 	bls	2804 <_vfprintf_r+0x1f78>
    26d8:	e28d0085 	add	r0, sp, #133	; 0x85
    26dc:	e1a02003 	mov	r2, r3
    26e0:	ea000000 	b	26e8 <_vfprintf_r+0x1e5c>
    26e4:	e4d21001 	ldrb	r1, [r2], #1
    26e8:	e152000c 	cmp	r2, r12
    26ec:	e5e01001 	strb	r1, [r0, #1]!
    26f0:	1afffffb 	bne	26e4 <_vfprintf_r+0x1e58>
    26f4:	e28dcf42 	add	r12, sp, #264	; 0x108
    26f8:	e063308c 	rsb	r3, r3, r12, lsl #1
    26fc:	e24330f6 	sub	r3, r3, #246	; 0xf6
    2700:	eaffffba 	b	25f0 <_vfprintf_r+0x1d64>
    2704:	e59dc07c 	ldr	r12, [sp, #124]	; 0x7c
    2708:	e35c0000 	cmp	r12, #0
    270c:	e58dc050 	str	r12, [sp, #80]	; 0x50
    2710:	da00001a 	ble	2780 <_vfprintf_r+0x1ef4>
    2714:	e59d402c 	ldr	r4, [sp, #44]	; 0x2c
    2718:	e3540000 	cmp	r4, #0
    271c:	1a000010 	bne	2764 <_vfprintf_r+0x1ed8>
    2720:	e59d5020 	ldr	r5, [sp, #32]
    2724:	e3150001 	tst	r5, #1
    2728:	1a00000d 	bne	2764 <_vfprintf_r+0x1ed8>
    272c:	e1cc3fcc 	bic	r3, r12, r12, asr #31
    2730:	e58dc038 	str	r12, [sp, #56]	; 0x38
    2734:	eafffe6d 	b	20f0 <_vfprintf_r+0x1864>
    2738:	e59d0058 	ldr	r0, [sp, #88]	; 0x58
    273c:	e1a0100a 	mov	r1, r10
    2740:	e3a02000 	mov	r2, #0
    2744:	e3a03000 	mov	r3, #0
    2748:	eb003dab 	bl	11dfc <__aeabi_dcmpeq>
    274c:	e3500000 	cmp	r0, #0
    2750:	1affff89 	bne	257c <_vfprintf_r+0x1cf0>
    2754:	e59dc02c 	ldr	r12, [sp, #44]	; 0x2c
    2758:	e26c3001 	rsb	r3, r12, #1
    275c:	e58d307c 	str	r3, [sp, #124]	; 0x7c
    2760:	eaffff86 	b	2580 <_vfprintf_r+0x1cf4>
    2764:	e59dc02c 	ldr	r12, [sp, #44]	; 0x2c
    2768:	e59d4050 	ldr	r4, [sp, #80]	; 0x50
    276c:	e28c3001 	add	r3, r12, #1
    2770:	e0843003 	add	r3, r4, r3
    2774:	e58d3038 	str	r3, [sp, #56]	; 0x38
    2778:	e1c33fc3 	bic	r3, r3, r3, asr #31
    277c:	eafffe5b 	b	20f0 <_vfprintf_r+0x1864>
    2780:	e59d502c 	ldr	r5, [sp, #44]	; 0x2c
    2784:	e3550000 	cmp	r5, #0
    2788:	1a000004 	bne	27a0 <_vfprintf_r+0x1f14>
    278c:	e59dc020 	ldr	r12, [sp, #32]
    2790:	e31c0001 	tst	r12, #1
    2794:	03a03001 	moveq	r3, #1
    2798:	058d3038 	streq	r3, [sp, #56]	; 0x38
    279c:	0afffe53 	beq	20f0 <_vfprintf_r+0x1864>
    27a0:	e59d302c 	ldr	r3, [sp, #44]	; 0x2c
    27a4:	e2833002 	add	r3, r3, #2
    27a8:	e58d3038 	str	r3, [sp, #56]	; 0x38
    27ac:	e1c33fc3 	bic	r3, r3, r3, asr #31
    27b0:	eafffe4e 	b	20f0 <_vfprintf_r+0x1864>
    27b4:	e59d5044 	ldr	r5, [sp, #68]	; 0x44
    27b8:	e5955000 	ldr	r5, [r5]
    27bc:	e59dc044 	ldr	r12, [sp, #68]	; 0x44
    27c0:	e3550000 	cmp	r5, #0
    27c4:	e28c1004 	add	r1, r12, #4
    27c8:	b3e04000 	mvnlt	r4, #0
    27cc:	e58d502c 	str	r5, [sp, #44]	; 0x2c
    27d0:	e5d38001 	ldrb	r8, [r3, #1]
    27d4:	e58d1044 	str	r1, [sp, #68]	; 0x44
    27d8:	e1a03000 	mov	r3, r0
    27dc:	b58d402c 	strlt	r4, [sp, #44]	; 0x2c
    27e0:	eafff887 	b	a04 <_vfprintf_r+0x178>
    27e4:	e59dc020 	ldr	r12, [sp, #32]
    27e8:	e21c3001 	ands	r3, r12, #1
    27ec:	1affff87 	bne	2610 <_vfprintf_r+0x1d84>
    27f0:	e58d3050 	str	r3, [sp, #80]	; 0x50
    27f4:	e1c53fc5 	bic	r3, r5, r5, asr #31
    27f8:	eafffe3c 	b	20f0 <_vfprintf_r+0x1864>
    27fc:	e59d307c 	ldr	r3, [sp, #124]	; 0x7c
    2800:	eaffff6b 	b	25b4 <_vfprintf_r+0x1d28>
    2804:	e28d3086 	add	r3, sp, #134	; 0x86
    2808:	eaffff78 	b	25f0 <_vfprintf_r+0x1d64>

0000280c <vfprintf>:
    280c:	e59fc01c 	ldr	r12, [pc, #28]	; 2830 <vfprintf+0x24>
    2810:	e52d4004 	push	{r4}		; (str r4, [sp, #-4]!)
    2814:	e1a04001 	mov	r4, r1
    2818:	e1a03002 	mov	r3, r2
    281c:	e1a01000 	mov	r1, r0
    2820:	e1a02004 	mov	r2, r4
    2824:	e59c0000 	ldr	r0, [r12]
    2828:	e49d4004 	pop	{r4}		; (ldr r4, [sp], #4)
    282c:	eafff816 	b	88c <_vfprintf_r>
    2830:	00013830 	.word	0x00013830

00002834 <__sbprintf>:
    2834:	e92d4ff0 	push	{r4, r5, r6, r7, r8, r9, r10, r11, lr}
    2838:	e24dde46 	sub	sp, sp, #1120	; 0x460
    283c:	e24dd00c 	sub	sp, sp, #12
    2840:	e1d150bc 	ldrh	r5, [r1, #12]
    2844:	e59fc0b0 	ldr	r12, [pc, #176]	; 28fc <__sbprintf+0xc8>
    2848:	e28dbe46 	add	r11, sp, #1120	; 0x460
    284c:	e5916024 	ldr	r6, [r1, #36]	; 0x24
    2850:	e591a064 	ldr	r10, [r1, #100]	; 0x64
    2854:	e1d190be 	ldrh	r9, [r1, #14]
    2858:	e591701c 	ldr	r7, [r1, #28]
    285c:	e3c55002 	bic	r5, r5, #2
    2860:	e28bb008 	add	r11, r11, #8
    2864:	e59f8094 	ldr	r8, [pc, #148]	; 2900 <__sbprintf+0xcc>
    2868:	e28de068 	add	lr, sp, #104	; 0x68
    286c:	e18b50bc 	strh	r5, [r11, r12]
    2870:	e1a04001 	mov	r4, r1
    2874:	e3a0cb01 	mov	r12, #1024	; 0x400
    2878:	e3a05000 	mov	r5, #0
    287c:	e1a0100d 	mov	r1, sp
    2880:	e58d6024 	str	r6, [sp, #36]	; 0x24
    2884:	e58d5018 	str	r5, [sp, #24]
    2888:	e58da064 	str	r10, [sp, #100]	; 0x64
    288c:	e18b90b8 	strh	r9, [r11, r8]
    2890:	e58d701c 	str	r7, [sp, #28]
    2894:	e58de000 	str	lr, [sp]
    2898:	e58de010 	str	lr, [sp, #16]
    289c:	e58dc008 	str	r12, [sp, #8]
    28a0:	e58dc014 	str	r12, [sp, #20]
    28a4:	e1a06000 	mov	r6, r0
    28a8:	ebfff7f7 	bl	88c <_vfprintf_r>
    28ac:	e2505000 	subs	r5, r0, #0
    28b0:	ba000004 	blt	28c8 <__sbprintf+0x94>
    28b4:	e1a00006 	mov	r0, r6
    28b8:	e1a0100d 	mov	r1, sp
    28bc:	eb000d62 	bl	5e4c <_fflush_r>
    28c0:	e3500000 	cmp	r0, #0
    28c4:	13e05000 	mvnne	r5, #0
    28c8:	e28d2e46 	add	r2, sp, #1120	; 0x460
    28cc:	e59f3028 	ldr	r3, [pc, #40]	; 28fc <__sbprintf+0xc8>
    28d0:	e2822008 	add	r2, r2, #8
    28d4:	e19230b3 	ldrh	r3, [r2, r3]
    28d8:	e3130040 	tst	r3, #64	; 0x40
    28dc:	11d430bc 	ldrhne	r3, [r4, #12]
    28e0:	e1a00005 	mov	r0, r5
    28e4:	13833040 	orrne	r3, r3, #64	; 0x40
    28e8:	11c430bc 	strhne	r3, [r4, #12]
    28ec:	e28dde46 	add	sp, sp, #1120	; 0x460
    28f0:	e28dd00c 	add	sp, sp, #12
    28f4:	e8bd4ff0 	pop	{r4, r5, r6, r7, r8, r9, r10, r11, lr}
    28f8:	e12fff1e 	bx	lr
    28fc:	fffffba4 	.word	0xfffffba4
    2900:	fffffba6 	.word	0xfffffba6

00002904 <__svfscanf_r>:
    2904:	e92d4ff0 	push	{r4, r5, r6, r7, r8, r9, r10, r11, lr}
    2908:	e1a05001 	mov	r5, r1
    290c:	e1d110bc 	ldrh	r1, [r1, #12]
    2910:	e24ddfad 	sub	sp, sp, #692	; 0x2b4
    2914:	e3110a02 	tst	r1, #8192	; 0x2000
    2918:	e58d3014 	str	r3, [sp, #20]
    291c:	05953064 	ldreq	r3, [r5, #100]	; 0x64
    2920:	e3a0c000 	mov	r12, #0
    2924:	03811a02 	orreq	r1, r1, #8192	; 0x2000
    2928:	03c33a02 	biceq	r3, r3, #8192	; 0x2000
    292c:	01c510bc 	strheq	r1, [r5, #12]
    2930:	05853064 	streq	r3, [r5, #100]	; 0x64
    2934:	e58dc020 	str	r12, [sp, #32]
    2938:	e58dc028 	str	r12, [sp, #40]	; 0x28
    293c:	e58dc024 	str	r12, [sp, #36]	; 0x24
    2940:	e59f8f8c 	ldr	r8, [pc, #3980]	; 38d4 <__svfscanf_r+0xfd0>
    2944:	e1a0b000 	mov	r11, r0
    2948:	e1a0a00c 	mov	r10, r12
    294c:	e1a07002 	mov	r7, r2
    2950:	e4d70001 	ldrb	r0, [r7], #1
    2954:	e3500000 	cmp	r0, #0
    2958:	e58d0044 	str	r0, [sp, #68]	; 0x44
    295c:	0a0001f1 	beq	3128 <__svfscanf_r+0x824>
    2960:	e5981000 	ldr	r1, [r8]
    2964:	e0813000 	add	r3, r1, r0
    2968:	e5d33001 	ldrb	r3, [r3, #1]
    296c:	e2133008 	ands	r3, r3, #8
    2970:	0a000017 	beq	29d4 <__svfscanf_r+0xd0>
    2974:	e5953004 	ldr	r3, [r5, #4]
    2978:	ea00000c 	b	29b0 <__svfscanf_r+0xac>
    297c:	e5952000 	ldr	r2, [r5]
    2980:	e5981000 	ldr	r1, [r8]
    2984:	e5d23000 	ldrb	r3, [r2]
    2988:	e0813003 	add	r3, r1, r3
    298c:	e5d33001 	ldrb	r3, [r3, #1]
    2990:	e3130008 	tst	r3, #8
    2994:	0a00000c 	beq	29cc <__svfscanf_r+0xc8>
    2998:	e5953004 	ldr	r3, [r5, #4]
    299c:	e2822001 	add	r2, r2, #1
    29a0:	e2433001 	sub	r3, r3, #1
    29a4:	e5852000 	str	r2, [r5]
    29a8:	e5853004 	str	r3, [r5, #4]
    29ac:	e28aa001 	add	r10, r10, #1
    29b0:	e3530000 	cmp	r3, #0
    29b4:	cafffff0 	bgt	297c <__svfscanf_r+0x78>
    29b8:	e1a0000b 	mov	r0, r11
    29bc:	e1a01005 	mov	r1, r5
    29c0:	eb0019ab 	bl	9074 <__srefill_r>
    29c4:	e3500000 	cmp	r0, #0
    29c8:	0affffeb 	beq	297c <__svfscanf_r+0x78>
    29cc:	e1a02007 	mov	r2, r7
    29d0:	eaffffdd 	b	294c <__svfscanf_r+0x48>
    29d4:	e3500025 	cmp	r0, #37	; 0x25
    29d8:	1a0001db 	bne	314c <__svfscanf_r+0x848>
    29dc:	e5d22001 	ldrb	r2, [r2, #1]
    29e0:	e1a09003 	mov	r9, r3
    29e4:	e1a04003 	mov	r4, r3
    29e8:	e2876001 	add	r6, r7, #1
    29ec:	e3520078 	cmp	r2, #120	; 0x78
    29f0:	979ff102 	ldrls	pc, [pc, r2, lsl #2]
    29f4:	ea000078 	b	2bdc <__svfscanf_r+0x2d8>
    29f8:	00003138 	.word	0x00003138
    29fc:	00002bdc 	.word	0x00002bdc
    2a00:	00002bdc 	.word	0x00002bdc
    2a04:	00002bdc 	.word	0x00002bdc
    2a08:	00002bdc 	.word	0x00002bdc
    2a0c:	00002bdc 	.word	0x00002bdc
    2a10:	00002bdc 	.word	0x00002bdc
    2a14:	00002bdc 	.word	0x00002bdc
    2a18:	00002bdc 	.word	0x00002bdc
    2a1c:	00002bdc 	.word	0x00002bdc
    2a20:	00002bdc 	.word	0x00002bdc
    2a24:	00002bdc 	.word	0x00002bdc
    2a28:	00002bdc 	.word	0x00002bdc
    2a2c:	00002bdc 	.word	0x00002bdc
    2a30:	00002bdc 	.word	0x00002bdc
    2a34:	00002bdc 	.word	0x00002bdc
    2a38:	00002bdc 	.word	0x00002bdc
    2a3c:	00002bdc 	.word	0x00002bdc
    2a40:	00002bdc 	.word	0x00002bdc
    2a44:	00002bdc 	.word	0x00002bdc
    2a48:	00002bdc 	.word	0x00002bdc
    2a4c:	00002bdc 	.word	0x00002bdc
    2a50:	00002bdc 	.word	0x00002bdc
    2a54:	00002bdc 	.word	0x00002bdc
    2a58:	00002bdc 	.word	0x00002bdc
    2a5c:	00002bdc 	.word	0x00002bdc
    2a60:	00002bdc 	.word	0x00002bdc
    2a64:	00002bdc 	.word	0x00002bdc
    2a68:	00002bdc 	.word	0x00002bdc
    2a6c:	00002bdc 	.word	0x00002bdc
    2a70:	00002bdc 	.word	0x00002bdc
    2a74:	00002bdc 	.word	0x00002bdc
    2a78:	00002bdc 	.word	0x00002bdc
    2a7c:	00002bdc 	.word	0x00002bdc
    2a80:	00002bdc 	.word	0x00002bdc
    2a84:	00002bdc 	.word	0x00002bdc
    2a88:	00002bdc 	.word	0x00002bdc
    2a8c:	00003148 	.word	0x00003148
    2a90:	00002bdc 	.word	0x00002bdc
    2a94:	00002bdc 	.word	0x00002bdc
    2a98:	00002bdc 	.word	0x00002bdc
    2a9c:	00002bdc 	.word	0x00002bdc
    2aa0:	000037c0 	.word	0x000037c0
    2aa4:	00002bdc 	.word	0x00002bdc
    2aa8:	00002bdc 	.word	0x00002bdc
    2aac:	00002bdc 	.word	0x00002bdc
    2ab0:	00002bdc 	.word	0x00002bdc
    2ab4:	00002bdc 	.word	0x00002bdc
    2ab8:	00003828 	.word	0x00003828
    2abc:	00003828 	.word	0x00003828
    2ac0:	00003828 	.word	0x00003828
    2ac4:	00003828 	.word	0x00003828
    2ac8:	00003828 	.word	0x00003828
    2acc:	00003828 	.word	0x00003828
    2ad0:	00003828 	.word	0x00003828
    2ad4:	00003828 	.word	0x00003828
    2ad8:	00003828 	.word	0x00003828
    2adc:	00003828 	.word	0x00003828
    2ae0:	00002bdc 	.word	0x00002bdc
    2ae4:	00002bdc 	.word	0x00002bdc
    2ae8:	00002bdc 	.word	0x00002bdc
    2aec:	00002bdc 	.word	0x00002bdc
    2af0:	00002bdc 	.word	0x00002bdc
    2af4:	00002bdc 	.word	0x00002bdc
    2af8:	00002bdc 	.word	0x00002bdc
    2afc:	00002bdc 	.word	0x00002bdc
    2b00:	00002bdc 	.word	0x00002bdc
    2b04:	00002bdc 	.word	0x00002bdc
    2b08:	00002bf0 	.word	0x00002bf0
    2b0c:	00003820 	.word	0x00003820
    2b10:	00002bdc 	.word	0x00002bdc
    2b14:	00003820 	.word	0x00003820
    2b18:	00002bdc 	.word	0x00002bdc
    2b1c:	00002bdc 	.word	0x00002bdc
    2b20:	00002bdc 	.word	0x00002bdc
    2b24:	00002bdc 	.word	0x00002bdc
    2b28:	00003810 	.word	0x00003810
    2b2c:	00002bdc 	.word	0x00002bdc
    2b30:	00002bdc 	.word	0x00002bdc
    2b34:	000030d8 	.word	0x000030d8
    2b38:	00002bdc 	.word	0x00002bdc
    2b3c:	00002bdc 	.word	0x00002bdc
    2b40:	00002bdc 	.word	0x00002bdc
    2b44:	00002bdc 	.word	0x00002bdc
    2b48:	00002bdc 	.word	0x00002bdc
    2b4c:	00002bdc 	.word	0x00002bdc
    2b50:	00002bdc 	.word	0x00002bdc
    2b54:	00002bdc 	.word	0x00002bdc
    2b58:	00003808 	.word	0x00003808
    2b5c:	00002bdc 	.word	0x00002bdc
    2b60:	00002bdc 	.word	0x00002bdc
    2b64:	000037ec 	.word	0x000037ec
    2b68:	00002bdc 	.word	0x00002bdc
    2b6c:	00002bdc 	.word	0x00002bdc
    2b70:	00002bdc 	.word	0x00002bdc
    2b74:	00002bdc 	.word	0x00002bdc
    2b78:	00002bdc 	.word	0x00002bdc
    2b7c:	00002bdc 	.word	0x00002bdc
    2b80:	00002bdc 	.word	0x00002bdc
    2b84:	000037e0 	.word	0x000037e0
    2b88:	00002bf4 	.word	0x00002bf4
    2b8c:	00003820 	.word	0x00003820
    2b90:	00003820 	.word	0x00003820
    2b94:	00003820 	.word	0x00003820
    2b98:	000037d0 	.word	0x000037d0
    2b9c:	00003680 	.word	0x00003680
    2ba0:	00002bdc 	.word	0x00002bdc
    2ba4:	00002bdc 	.word	0x00002bdc
    2ba8:	000037a0 	.word	0x000037a0
    2bac:	00002bdc 	.word	0x00002bdc
    2bb0:	00003774 	.word	0x00003774
    2bb4:	000030dc 	.word	0x000030dc
    2bb8:	00003758 	.word	0x00003758
    2bbc:	00002bdc 	.word	0x00002bdc
    2bc0:	00002bdc 	.word	0x00002bdc
    2bc4:	00003750 	.word	0x00003750
    2bc8:	00002bdc 	.word	0x00002bdc
    2bcc:	00003738 	.word	0x00003738
    2bd0:	00002bdc 	.word	0x00002bdc
    2bd4:	00002bdc 	.word	0x00002bdc
    2bd8:	00003808 	.word	0x00003808
    2bdc:	e0812002 	add	r2, r1, r2
    2be0:	e5d22001 	ldrb	r2, [r2, #1]
    2be4:	e2022003 	and	r2, r2, #3
    2be8:	e3520001 	cmp	r2, #1
    2bec:	1a000000 	bne	2bf4 <__svfscanf_r+0x2f0>
    2bf0:	e3899001 	orr	r9, r9, #1
    2bf4:	e59fccdc 	ldr	r12, [pc, #3292]	; 38d8 <__svfscanf_r+0xfd4>
    2bf8:	e58dc020 	str	r12, [sp, #32]
    2bfc:	e3a0c00a 	mov	r12, #10
    2c00:	e58dc028 	str	r12, [sp, #40]	; 0x28
    2c04:	e3a07003 	mov	r7, #3
    2c08:	e5952004 	ldr	r2, [r5, #4]
    2c0c:	e3520000 	cmp	r2, #0
    2c10:	da000139 	ble	30fc <__svfscanf_r+0x7f8>
    2c14:	e3190040 	tst	r9, #64	; 0x40
    2c18:	0a00000c 	beq	2c50 <__svfscanf_r+0x34c>
    2c1c:	e2477001 	sub	r7, r7, #1
    2c20:	e3570003 	cmp	r7, #3
    2c24:	979ff107 	ldrls	pc, [pc, r7, lsl #2]
    2c28:	ea0000a9 	b	2ed4 <__svfscanf_r+0x5d0>
    2c2c:	00002f40 	.word	0x00002f40
    2c30:	00002e24 	.word	0x00002e24
    2c34:	00002c94 	.word	0x00002c94
    2c38:	0000318c 	.word	0x0000318c
    2c3c:	e1a0000b 	mov	r0, r11
    2c40:	e1a01005 	mov	r1, r5
    2c44:	eb00190a 	bl	9074 <__srefill_r>
    2c48:	e3500000 	cmp	r0, #0
    2c4c:	1a00012f 	bne	3110 <__svfscanf_r+0x80c>
    2c50:	e5980000 	ldr	r0, [r8]
    2c54:	e5952000 	ldr	r2, [r5]
    2c58:	ea000001 	b	2c64 <__svfscanf_r+0x360>
    2c5c:	e2822001 	add	r2, r2, #1
    2c60:	e5852000 	str	r2, [r5]
    2c64:	e5d23000 	ldrb	r3, [r2]
    2c68:	e0803003 	add	r3, r0, r3
    2c6c:	e5d33001 	ldrb	r3, [r3, #1]
    2c70:	e3130008 	tst	r3, #8
    2c74:	0affffe8 	beq	2c1c <__svfscanf_r+0x318>
    2c78:	e5953004 	ldr	r3, [r5, #4]
    2c7c:	e2433001 	sub	r3, r3, #1
    2c80:	e3530000 	cmp	r3, #0
    2c84:	e28aa001 	add	r10, r10, #1
    2c88:	e5853004 	str	r3, [r5, #4]
    2c8c:	cafffff2 	bgt	2c5c <__svfscanf_r+0x358>
    2c90:	eaffffe9 	b	2c3c <__svfscanf_r+0x338>
    2c94:	e2442001 	sub	r2, r4, #1
    2c98:	e3520f57 	cmp	r2, #348	; 0x15c
    2c9c:	82442f57 	subhi	r2, r4, #348	; 0x15c
    2ca0:	e28dce15 	add	r12, sp, #336	; 0x150
    2ca4:	82422001 	subhi	r2, r2, #1
    2ca8:	93a02000 	movls	r2, #0
    2cac:	e58dc018 	str	r12, [sp, #24]
    2cb0:	e1a0700c 	mov	r7, r12
    2cb4:	e3a0c000 	mov	r12, #0
    2cb8:	e58dc01c 	str	r12, [sp, #28]
    2cbc:	859f4c18 	ldrhi	r4, [pc, #3096]	; 38dc <__svfscanf_r+0xfd8>
    2cc0:	e1a0c00a 	mov	r12, r10
    2cc4:	e1a0a002 	mov	r10, r2
    2cc8:	e1a02006 	mov	r2, r6
    2ccc:	e59d6028 	ldr	r6, [sp, #40]	; 0x28
    2cd0:	e3899d36 	orr	r9, r9, #3456	; 0xd80
    2cd4:	e5950000 	ldr	r0, [r5]
    2cd8:	e5d01000 	ldrb	r1, [r0]
    2cdc:	e241302b 	sub	r3, r1, #43	; 0x2b
    2ce0:	e353004d 	cmp	r3, #77	; 0x4d
    2ce4:	979ff103 	ldrls	pc, [pc, r3, lsl #2]
    2ce8:	ea0000c2 	b	2ff8 <__svfscanf_r+0x6f4>
    2cec:	000030c8 	.word	0x000030c8
    2cf0:	00002ff8 	.word	0x00002ff8
    2cf4:	000030c8 	.word	0x000030c8
    2cf8:	00002ff8 	.word	0x00002ff8
    2cfc:	00002ff8 	.word	0x00002ff8
    2d00:	00003088 	.word	0x00003088
    2d04:	00003074 	.word	0x00003074
    2d08:	00003074 	.word	0x00003074
    2d0c:	00003074 	.word	0x00003074
    2d10:	00003074 	.word	0x00003074
    2d14:	00003074 	.word	0x00003074
    2d18:	00003074 	.word	0x00003074
    2d1c:	00003074 	.word	0x00003074
    2d20:	0000305c 	.word	0x0000305c
    2d24:	0000305c 	.word	0x0000305c
    2d28:	00002ff8 	.word	0x00002ff8
    2d2c:	00002ff8 	.word	0x00002ff8
    2d30:	00002ff8 	.word	0x00002ff8
    2d34:	00002ff8 	.word	0x00002ff8
    2d38:	00002ff8 	.word	0x00002ff8
    2d3c:	00002ff8 	.word	0x00002ff8
    2d40:	00002ff8 	.word	0x00002ff8
    2d44:	0000304c 	.word	0x0000304c
    2d48:	0000304c 	.word	0x0000304c
    2d4c:	0000304c 	.word	0x0000304c
    2d50:	0000304c 	.word	0x0000304c
    2d54:	0000304c 	.word	0x0000304c
    2d58:	0000304c 	.word	0x0000304c
    2d5c:	00002ff8 	.word	0x00002ff8
    2d60:	00002ff8 	.word	0x00002ff8
    2d64:	00002ff8 	.word	0x00002ff8
    2d68:	00002ff8 	.word	0x00002ff8
    2d6c:	00002ff8 	.word	0x00002ff8
    2d70:	00002ff8 	.word	0x00002ff8
    2d74:	00002ff8 	.word	0x00002ff8
    2d78:	00002ff8 	.word	0x00002ff8
    2d7c:	00002ff8 	.word	0x00002ff8
    2d80:	00002ff8 	.word	0x00002ff8
    2d84:	00002ff8 	.word	0x00002ff8
    2d88:	00002ff8 	.word	0x00002ff8
    2d8c:	00002ff8 	.word	0x00002ff8
    2d90:	00002ff8 	.word	0x00002ff8
    2d94:	00002ff8 	.word	0x00002ff8
    2d98:	00002ff8 	.word	0x00002ff8
    2d9c:	00002ff8 	.word	0x00002ff8
    2da0:	00002fb4 	.word	0x00002fb4
    2da4:	00002ff8 	.word	0x00002ff8
    2da8:	00002ff8 	.word	0x00002ff8
    2dac:	00002ff8 	.word	0x00002ff8
    2db0:	00002ff8 	.word	0x00002ff8
    2db4:	00002ff8 	.word	0x00002ff8
    2db8:	00002ff8 	.word	0x00002ff8
    2dbc:	00002ff8 	.word	0x00002ff8
    2dc0:	00002ff8 	.word	0x00002ff8
    2dc4:	0000304c 	.word	0x0000304c
    2dc8:	0000304c 	.word	0x0000304c
    2dcc:	0000304c 	.word	0x0000304c
    2dd0:	0000304c 	.word	0x0000304c
    2dd4:	0000304c 	.word	0x0000304c
    2dd8:	0000304c 	.word	0x0000304c
    2ddc:	00002ff8 	.word	0x00002ff8
    2de0:	00002ff8 	.word	0x00002ff8
    2de4:	00002ff8 	.word	0x00002ff8
    2de8:	00002ff8 	.word	0x00002ff8
    2dec:	00002ff8 	.word	0x00002ff8
    2df0:	00002ff8 	.word	0x00002ff8
    2df4:	00002ff8 	.word	0x00002ff8
    2df8:	00002ff8 	.word	0x00002ff8
    2dfc:	00002ff8 	.word	0x00002ff8
    2e00:	00002ff8 	.word	0x00002ff8
    2e04:	00002ff8 	.word	0x00002ff8
    2e08:	00002ff8 	.word	0x00002ff8
    2e0c:	00002ff8 	.word	0x00002ff8
    2e10:	00002ff8 	.word	0x00002ff8
    2e14:	00002ff8 	.word	0x00002ff8
    2e18:	00002ff8 	.word	0x00002ff8
    2e1c:	00002ff8 	.word	0x00002ff8
    2e20:	00002fb4 	.word	0x00002fb4
    2e24:	e3540000 	cmp	r4, #0
    2e28:	03e04000 	mvneq	r4, #0
    2e2c:	e2197001 	ands	r7, r9, #1
    2e30:	1a0002e2 	bne	39c0 <__svfscanf_r+0x10bc>
    2e34:	e3190010 	tst	r9, #16
    2e38:	1a0001fe 	bne	3638 <__svfscanf_r+0xd34>
    2e3c:	e59dc014 	ldr	r12, [sp, #20]
    2e40:	e59c7000 	ldr	r7, [r12]
    2e44:	e28c2004 	add	r2, r12, #4
    2e48:	e58d2014 	str	r2, [sp, #20]
    2e4c:	e1a09007 	mov	r9, r7
    2e50:	e5953000 	ldr	r3, [r5]
    2e54:	e5980000 	ldr	r0, [r8]
    2e58:	e5d32000 	ldrb	r2, [r3]
    2e5c:	e0802002 	add	r2, r0, r2
    2e60:	e5d22001 	ldrb	r2, [r2, #1]
    2e64:	e3120008 	tst	r2, #8
    2e68:	e2831001 	add	r1, r3, #1
    2e6c:	1a00000e 	bne	2eac <__svfscanf_r+0x5a8>
    2e70:	e5952004 	ldr	r2, [r5, #4]
    2e74:	e2422001 	sub	r2, r2, #1
    2e78:	e8850006 	stm	r5, {r1, r2}
    2e7c:	e5d33000 	ldrb	r3, [r3]
    2e80:	e2544001 	subs	r4, r4, #1
    2e84:	e4c93001 	strb	r3, [r9], #1
    2e88:	0a000007 	beq	2eac <__svfscanf_r+0x5a8>
    2e8c:	e5953004 	ldr	r3, [r5, #4]
    2e90:	e3530000 	cmp	r3, #0
    2e94:	caffffed 	bgt	2e50 <__svfscanf_r+0x54c>
    2e98:	e1a0000b 	mov	r0, r11
    2e9c:	e1a01005 	mov	r1, r5
    2ea0:	eb001873 	bl	9074 <__srefill_r>
    2ea4:	e3500000 	cmp	r0, #0
    2ea8:	0affffe8 	beq	2e50 <__svfscanf_r+0x54c>
    2eac:	e59dc024 	ldr	r12, [sp, #36]	; 0x24
    2eb0:	e0677009 	rsb	r7, r7, r9
    2eb4:	e3a03000 	mov	r3, #0
    2eb8:	e08aa007 	add	r10, r10, r7
    2ebc:	e28cc001 	add	r12, r12, #1
    2ec0:	e1a07006 	mov	r7, r6
    2ec4:	e58dc024 	str	r12, [sp, #36]	; 0x24
    2ec8:	e5c93000 	strb	r3, [r9]
    2ecc:	e1a02007 	mov	r2, r7
    2ed0:	eafffe9d 	b	294c <__svfscanf_r+0x48>
    2ed4:	e3540000 	cmp	r4, #0
    2ed8:	03a04001 	moveq	r4, #1
    2edc:	e2197001 	ands	r7, r9, #1
    2ee0:	1a000269 	bne	388c <__svfscanf_r+0xf88>
    2ee4:	e3190010 	tst	r9, #16
    2ee8:	1a000007 	bne	2f0c <__svfscanf_r+0x608>
    2eec:	ea000317 	b	3b50 <__svfscanf_r+0x124c>
    2ef0:	e0822003 	add	r2, r2, r3
    2ef4:	e5852000 	str	r2, [r5]
    2ef8:	e0877003 	add	r7, r7, r3
    2efc:	e0634004 	rsb	r4, r3, r4
    2f00:	eb00185b 	bl	9074 <__srefill_r>
    2f04:	e3500000 	cmp	r0, #0
    2f08:	1a000306 	bne	3b28 <__svfscanf_r+0x1224>
    2f0c:	e895000c 	ldm	r5, {r2, r3}
    2f10:	e1530004 	cmp	r3, r4
    2f14:	e1a0000b 	mov	r0, r11
    2f18:	e1a01005 	mov	r1, r5
    2f1c:	bafffff3 	blt	2ef0 <__svfscanf_r+0x5ec>
    2f20:	e0643003 	rsb	r3, r4, r3
    2f24:	e0822004 	add	r2, r2, r4
    2f28:	e885000c 	stm	r5, {r2, r3}
    2f2c:	e0877004 	add	r7, r7, r4
    2f30:	e08aa007 	add	r10, r10, r7
    2f34:	e1a07006 	mov	r7, r6
    2f38:	e1a02007 	mov	r2, r7
    2f3c:	eafffe82 	b	294c <__svfscanf_r+0x48>
    2f40:	e3540000 	cmp	r4, #0
    2f44:	03e04000 	mvneq	r4, #0
    2f48:	e3190010 	tst	r9, #16
    2f4c:	0a0001d1 	beq	3698 <__svfscanf_r+0xd94>
    2f50:	e5953000 	ldr	r3, [r5]
    2f54:	e3a07000 	mov	r7, #0
    2f58:	e5d32000 	ldrb	r2, [r3]
    2f5c:	e28d0e2b 	add	r0, sp, #688	; 0x2b0
    2f60:	e0802002 	add	r2, r0, r2
    2f64:	e5522260 	ldrb	r2, [r2, #-608]	; 0xfffffda0
    2f68:	e3520000 	cmp	r2, #0
    2f6c:	e2833001 	add	r3, r3, #1
    2f70:	0a0002f1 	beq	3b3c <__svfscanf_r+0x1238>
    2f74:	e5952004 	ldr	r2, [r5, #4]
    2f78:	e2877001 	add	r7, r7, #1
    2f7c:	e2422001 	sub	r2, r2, #1
    2f80:	e1540007 	cmp	r4, r7
    2f84:	e5853000 	str	r3, [r5]
    2f88:	e5852004 	str	r2, [r5, #4]
    2f8c:	0affffe7 	beq	2f30 <__svfscanf_r+0x62c>
    2f90:	e3520000 	cmp	r2, #0
    2f94:	caffffef 	bgt	2f58 <__svfscanf_r+0x654>
    2f98:	e1a0000b 	mov	r0, r11
    2f9c:	e1a01005 	mov	r1, r5
    2fa0:	eb001833 	bl	9074 <__srefill_r>
    2fa4:	e3500000 	cmp	r0, #0
    2fa8:	1affffe0 	bne	2f30 <__svfscanf_r+0x62c>
    2fac:	e5953000 	ldr	r3, [r5]
    2fb0:	eaffffe8 	b	2f58 <__svfscanf_r+0x654>
    2fb4:	e2093c06 	and	r3, r9, #1536	; 0x600
    2fb8:	e3530c02 	cmp	r3, #512	; 0x200
    2fbc:	1a00000d 	bne	2ff8 <__svfscanf_r+0x6f4>
    2fc0:	e3c99c02 	bic	r9, r9, #512	; 0x200
    2fc4:	e3899c05 	orr	r9, r9, #1280	; 0x500
    2fc8:	e3a06010 	mov	r6, #16
    2fcc:	e5c71000 	strb	r1, [r7]
    2fd0:	e2877001 	add	r7, r7, #1
    2fd4:	e5953004 	ldr	r3, [r5, #4]
    2fd8:	e2433001 	sub	r3, r3, #1
    2fdc:	e3530000 	cmp	r3, #0
    2fe0:	e5853004 	str	r3, [r5, #4]
    2fe4:	da000296 	ble	3a44 <__svfscanf_r+0x1140>
    2fe8:	e2800001 	add	r0, r0, #1
    2fec:	e5850000 	str	r0, [r5]
    2ff0:	e2544001 	subs	r4, r4, #1
    2ff4:	1affff36 	bne	2cd4 <__svfscanf_r+0x3d0>
    2ff8:	e3190c01 	tst	r9, #256	; 0x100
    2ffc:	e58d6028 	str	r6, [sp, #40]	; 0x28
    3000:	e1a0a00c 	mov	r10, r12
    3004:	e1a06002 	mov	r6, r2
    3008:	0a000005 	beq	3024 <__svfscanf_r+0x720>
    300c:	e59dc018 	ldr	r12, [sp, #24]
    3010:	e157000c 	cmp	r7, r12
    3014:	8a0002e6 	bhi	3bb4 <__svfscanf_r+0x12b0>
    3018:	e59dc018 	ldr	r12, [sp, #24]
    301c:	e157000c 	cmp	r7, r12
    3020:	0a000040 	beq	3128 <__svfscanf_r+0x824>
    3024:	e219c010 	ands	r12, r9, #16
    3028:	0a000204 	beq	3840 <__svfscanf_r+0xf3c>
    302c:	e59dc018 	ldr	r12, [sp, #24]
    3030:	e06c3007 	rsb	r3, r12, r7
    3034:	e59dc01c 	ldr	r12, [sp, #28]
    3038:	e1a07006 	mov	r7, r6
    303c:	e083300c 	add	r3, r3, r12
    3040:	e08aa003 	add	r10, r10, r3
    3044:	e1a02007 	mov	r2, r7
    3048:	eafffe3f 	b	294c <__svfscanf_r+0x48>
    304c:	e356000a 	cmp	r6, #10
    3050:	daffffe8 	ble	2ff8 <__svfscanf_r+0x6f4>
    3054:	e3c99d2e 	bic	r9, r9, #2944	; 0xb80
    3058:	eaffffdb 	b	2fcc <__svfscanf_r+0x6c8>
    305c:	e59f387c 	ldr	r3, [pc, #2172]	; 38e0 <__svfscanf_r+0xfdc>
    3060:	e1a06086 	lsl	r6, r6, #1
    3064:	e19360f6 	ldrsh	r6, [r3, r6]
    3068:	e3560008 	cmp	r6, #8
    306c:	cafffff8 	bgt	3054 <__svfscanf_r+0x750>
    3070:	eaffffe0 	b	2ff8 <__svfscanf_r+0x6f4>
    3074:	e59f3864 	ldr	r3, [pc, #2148]	; 38e0 <__svfscanf_r+0xfdc>
    3078:	e1a06086 	lsl	r6, r6, #1
    307c:	e19360f6 	ldrsh	r6, [r3, r6]
    3080:	e3c99d2e 	bic	r9, r9, #2944	; 0xb80
    3084:	eaffffd0 	b	2fcc <__svfscanf_r+0x6c8>
    3088:	e3190b02 	tst	r9, #2048	; 0x800
    308c:	0affffce 	beq	2fcc <__svfscanf_r+0x6c8>
    3090:	e3560000 	cmp	r6, #0
    3094:	03899c02 	orreq	r9, r9, #512	; 0x200
    3098:	03a06008 	moveq	r6, #8
    309c:	e3190b01 	tst	r9, #1024	; 0x400
    30a0:	13c99d16 	bicne	r9, r9, #1408	; 0x580
    30a4:	1affffc8 	bne	2fcc <__svfscanf_r+0x6c8>
    30a8:	e59d101c 	ldr	r1, [sp, #28]
    30ac:	e35a0000 	cmp	r10, #0
    30b0:	e2811001 	add	r1, r1, #1
    30b4:	e3c99d0e 	bic	r9, r9, #896	; 0x380
    30b8:	124aa001 	subne	r10, r10, #1
    30bc:	12844001 	addne	r4, r4, #1
    30c0:	e58d101c 	str	r1, [sp, #28]
    30c4:	eaffffc2 	b	2fd4 <__svfscanf_r+0x6d0>
    30c8:	e3190080 	tst	r9, #128	; 0x80
    30cc:	0affffc9 	beq	2ff8 <__svfscanf_r+0x6f4>
    30d0:	e3c99080 	bic	r9, r9, #128	; 0x80
    30d4:	eaffffbc 	b	2fcc <__svfscanf_r+0x6c8>
    30d8:	e3899001 	orr	r9, r9, #1
    30dc:	e59fc804 	ldr	r12, [pc, #2052]	; 38e8 <__svfscanf_r+0xfe4>
    30e0:	e5952004 	ldr	r2, [r5, #4]
    30e4:	e58dc020 	str	r12, [sp, #32]
    30e8:	e3520000 	cmp	r2, #0
    30ec:	e3a0c008 	mov	r12, #8
    30f0:	e58dc028 	str	r12, [sp, #40]	; 0x28
    30f4:	e3a07003 	mov	r7, #3
    30f8:	cafffec5 	bgt	2c14 <__svfscanf_r+0x310>
    30fc:	e1a0000b 	mov	r0, r11
    3100:	e1a01005 	mov	r1, r5
    3104:	eb0017da 	bl	9074 <__srefill_r>
    3108:	e3500000 	cmp	r0, #0
    310c:	0afffec0 	beq	2c14 <__svfscanf_r+0x310>
    3110:	e59dc024 	ldr	r12, [sp, #36]	; 0x24
    3114:	e35c0000 	cmp	r12, #0
    3118:	0a000006 	beq	3138 <__svfscanf_r+0x834>
    311c:	e1d530bc 	ldrh	r3, [r5, #12]
    3120:	e3130040 	tst	r3, #64	; 0x40
    3124:	1a000003 	bne	3138 <__svfscanf_r+0x834>
    3128:	e59d0024 	ldr	r0, [sp, #36]	; 0x24
    312c:	e28ddfad 	add	sp, sp, #692	; 0x2b4
    3130:	e8bd4ff0 	pop	{r4, r5, r6, r7, r8, r9, r10, r11, lr}
    3134:	e12fff1e 	bx	lr
    3138:	e3e00000 	mvn	r0, #0
    313c:	e28ddfad 	add	sp, sp, #692	; 0x2b4
    3140:	e8bd4ff0 	pop	{r4, r5, r6, r7, r8, r9, r10, r11, lr}
    3144:	e12fff1e 	bx	lr
    3148:	e1a07006 	mov	r7, r6
    314c:	e5953004 	ldr	r3, [r5, #4]
    3150:	e3530000 	cmp	r3, #0
    3154:	da000290 	ble	3b9c <__svfscanf_r+0x1298>
    3158:	e5953000 	ldr	r3, [r5]
    315c:	e5572001 	ldrb	r2, [r7, #-1]
    3160:	e5d31000 	ldrb	r1, [r3]
    3164:	e1510002 	cmp	r1, r2
    3168:	1affffee 	bne	3128 <__svfscanf_r+0x824>
    316c:	e5952004 	ldr	r2, [r5, #4]
    3170:	e2833001 	add	r3, r3, #1
    3174:	e2422001 	sub	r2, r2, #1
    3178:	e5852004 	str	r2, [r5, #4]
    317c:	e5853000 	str	r3, [r5]
    3180:	e28aa001 	add	r10, r10, #1
    3184:	e1a02007 	mov	r2, r7
    3188:	eafffdef 	b	294c <__svfscanf_r+0x48>
    318c:	e2442001 	sub	r2, r4, #1
    3190:	e3520f57 	cmp	r2, #348	; 0x15c
    3194:	e28dce15 	add	r12, sp, #336	; 0x150
    3198:	93a03000 	movls	r3, #0
    319c:	e58dc018 	str	r12, [sp, #24]
    31a0:	e3a01000 	mov	r1, #0
    31a4:	82422f57 	subhi	r2, r2, #348	; 0x15c
    31a8:	958d3030 	strls	r3, [sp, #48]	; 0x30
    31ac:	e59d3018 	ldr	r3, [sp, #24]
    31b0:	858d2030 	strhi	r2, [sp, #48]	; 0x30
    31b4:	859f4720 	ldrhi	r4, [pc, #1824]	; 38dc <__svfscanf_r+0xfd8>
    31b8:	e58d103c 	str	r1, [sp, #60]	; 0x3c
    31bc:	e58d1038 	str	r1, [sp, #56]	; 0x38
    31c0:	e58d101c 	str	r1, [sp, #28]
    31c4:	e58d1034 	str	r1, [sp, #52]	; 0x34
    31c8:	e3897d1e 	orr	r7, r9, #1920	; 0x780
    31cc:	e58d602c 	str	r6, [sp, #44]	; 0x2c
    31d0:	e1a09003 	mov	r9, r3
    31d4:	e1a0c001 	mov	r12, r1
    31d8:	e1a0300b 	mov	r3, r11
    31dc:	e1a06001 	mov	r6, r1
    31e0:	e1a0b001 	mov	r11, r1
    31e4:	e5950000 	ldr	r0, [r5]
    31e8:	e5d01000 	ldrb	r1, [r0]
    31ec:	e241202b 	sub	r2, r1, #43	; 0x2b
    31f0:	e352004e 	cmp	r2, #78	; 0x4e
    31f4:	979ff102 	ldrls	pc, [pc, r2, lsl #2]
    31f8:	ea00005f 	b	337c <__svfscanf_r+0xa78>
    31fc:	000035d4 	.word	0x000035d4
    3200:	0000337c 	.word	0x0000337c
    3204:	000035d4 	.word	0x000035d4
    3208:	000035c0 	.word	0x000035c0
    320c:	0000337c 	.word	0x0000337c
    3210:	00003598 	.word	0x00003598
    3214:	00003338 	.word	0x00003338
    3218:	00003338 	.word	0x00003338
    321c:	00003338 	.word	0x00003338
    3220:	00003338 	.word	0x00003338
    3224:	00003338 	.word	0x00003338
    3228:	00003338 	.word	0x00003338
    322c:	00003338 	.word	0x00003338
    3230:	00003338 	.word	0x00003338
    3234:	00003338 	.word	0x00003338
    3238:	0000337c 	.word	0x0000337c
    323c:	0000337c 	.word	0x0000337c
    3240:	0000337c 	.word	0x0000337c
    3244:	0000337c 	.word	0x0000337c
    3248:	0000337c 	.word	0x0000337c
    324c:	0000337c 	.word	0x0000337c
    3250:	0000337c 	.word	0x0000337c
    3254:	00003588 	.word	0x00003588
    3258:	0000337c 	.word	0x0000337c
    325c:	0000337c 	.word	0x0000337c
    3260:	0000337c 	.word	0x0000337c
    3264:	000035e4 	.word	0x000035e4
    3268:	00003578 	.word	0x00003578
    326c:	0000337c 	.word	0x0000337c
    3270:	0000337c 	.word	0x0000337c
    3274:	0000353c 	.word	0x0000353c
    3278:	0000337c 	.word	0x0000337c
    327c:	0000337c 	.word	0x0000337c
    3280:	0000337c 	.word	0x0000337c
    3284:	0000337c 	.word	0x0000337c
    3288:	00003508 	.word	0x00003508
    328c:	0000337c 	.word	0x0000337c
    3290:	0000337c 	.word	0x0000337c
    3294:	0000337c 	.word	0x0000337c
    3298:	0000337c 	.word	0x0000337c
    329c:	0000337c 	.word	0x0000337c
    32a0:	000034f8 	.word	0x000034f8
    32a4:	0000337c 	.word	0x0000337c
    32a8:	0000337c 	.word	0x0000337c
    32ac:	0000337c 	.word	0x0000337c
    32b0:	0000337c 	.word	0x0000337c
    32b4:	000034e8 	.word	0x000034e8
    32b8:	0000337c 	.word	0x0000337c
    32bc:	0000337c 	.word	0x0000337c
    32c0:	0000337c 	.word	0x0000337c
    32c4:	0000337c 	.word	0x0000337c
    32c8:	0000337c 	.word	0x0000337c
    32cc:	0000337c 	.word	0x0000337c
    32d0:	0000337c 	.word	0x0000337c
    32d4:	00003588 	.word	0x00003588
    32d8:	0000337c 	.word	0x0000337c
    32dc:	0000337c 	.word	0x0000337c
    32e0:	0000337c 	.word	0x0000337c
    32e4:	000035e4 	.word	0x000035e4
    32e8:	00003578 	.word	0x00003578
    32ec:	0000337c 	.word	0x0000337c
    32f0:	0000337c 	.word	0x0000337c
    32f4:	0000353c 	.word	0x0000353c
    32f8:	0000337c 	.word	0x0000337c
    32fc:	0000337c 	.word	0x0000337c
    3300:	0000337c 	.word	0x0000337c
    3304:	0000337c 	.word	0x0000337c
    3308:	00003508 	.word	0x00003508
    330c:	0000337c 	.word	0x0000337c
    3310:	0000337c 	.word	0x0000337c
    3314:	0000337c 	.word	0x0000337c
    3318:	0000337c 	.word	0x0000337c
    331c:	0000337c 	.word	0x0000337c
    3320:	000034f8 	.word	0x000034f8
    3324:	0000337c 	.word	0x0000337c
    3328:	0000337c 	.word	0x0000337c
    332c:	0000337c 	.word	0x0000337c
    3330:	0000337c 	.word	0x0000337c
    3334:	000034e8 	.word	0x000034e8
    3338:	e08c200b 	add	r2, r12, r11
    333c:	e3520000 	cmp	r2, #0
    3340:	1a00000d 	bne	337c <__svfscanf_r+0xa78>
    3344:	e3c77d06 	bic	r7, r7, #384	; 0x180
    3348:	e5c91000 	strb	r1, [r9]
    334c:	e2899001 	add	r9, r9, #1
    3350:	e5952004 	ldr	r2, [r5, #4]
    3354:	e2422001 	sub	r2, r2, #1
    3358:	e3520000 	cmp	r2, #0
    335c:	e2444001 	sub	r4, r4, #1
    3360:	e28aa001 	add	r10, r10, #1
    3364:	e5852004 	str	r2, [r5, #4]
    3368:	da000054 	ble	34c0 <__svfscanf_r+0xbbc>
    336c:	e2800001 	add	r0, r0, #1
    3370:	e5850000 	str	r0, [r5]
    3374:	e3540000 	cmp	r4, #0
    3378:	1affff99 	bne	31e4 <__svfscanf_r+0x8e0>
    337c:	e58d601c 	str	r6, [sp, #28]
    3380:	e59d001c 	ldr	r0, [sp, #28]
    3384:	e59d602c 	ldr	r6, [sp, #44]	; 0x2c
    3388:	e3500000 	cmp	r0, #0
    338c:	e1a0100b 	mov	r1, r11
    3390:	13c77c01 	bicne	r7, r7, #256	; 0x100
    3394:	e1a0b003 	mov	r11, r3
    3398:	e1a03009 	mov	r3, r9
    339c:	e24cc001 	sub	r12, r12, #1
    33a0:	e35c0001 	cmp	r12, #1
    33a4:	9a000289 	bls	3dd0 <__svfscanf_r+0x14cc>
    33a8:	e2412001 	sub	r2, r1, #1
    33ac:	e3520006 	cmp	r2, #6
    33b0:	8a000017 	bhi	3414 <__svfscanf_r+0xb10>
    33b4:	e3510002 	cmp	r1, #2
    33b8:	9a00028f 	bls	3dfc <__svfscanf_r+0x14f8>
    33bc:	e3510003 	cmp	r1, #3
    33c0:	0a000013 	beq	3414 <__svfscanf_r+0xb10>
    33c4:	e2419004 	sub	r9, r1, #4
    33c8:	e20990ff 	and	r9, r9, #255	; 0xff
    33cc:	e2434001 	sub	r4, r3, #1
    33d0:	e58d902c 	str	r9, [sp, #44]	; 0x2c
    33d4:	e0694004 	rsb	r4, r9, r4
    33d8:	e58d6030 	str	r6, [sp, #48]	; 0x30
    33dc:	e1a09003 	mov	r9, r3
    33e0:	e1a06003 	mov	r6, r3
    33e4:	e5761001 	ldrb	r1, [r6, #-1]!
    33e8:	e1a0000b 	mov	r0, r11
    33ec:	e1a02005 	mov	r2, r5
    33f0:	eb002863 	bl	d584 <_ungetc_r>
    33f4:	e1560004 	cmp	r6, r4
    33f8:	1afffff9 	bne	33e4 <__svfscanf_r+0xae0>
    33fc:	e59dc02c 	ldr	r12, [sp, #44]	; 0x2c
    3400:	e24aa001 	sub	r10, r10, #1
    3404:	e1e0200c 	mvn	r2, r12
    3408:	e59d6030 	ldr	r6, [sp, #48]	; 0x30
    340c:	e06ca00a 	rsb	r10, r12, r10
    3410:	e0893002 	add	r3, r9, r2
    3414:	e3170c01 	tst	r7, #256	; 0x100
    3418:	0a00000c 	beq	3450 <__svfscanf_r+0xb4c>
    341c:	e3170b01 	tst	r7, #1024	; 0x400
    3420:	1a000280 	bne	3e28 <__svfscanf_r+0x1524>
    3424:	e5531001 	ldrb	r1, [r3, #-1]
    3428:	e20120df 	and	r2, r1, #223	; 0xdf
    342c:	e3520045 	cmp	r2, #69	; 0x45
    3430:	1a0001e5 	bne	3bcc <__svfscanf_r+0x12c8>
    3434:	e2433001 	sub	r3, r3, #1
    3438:	e24aa001 	sub	r10, r10, #1
    343c:	e1a0000b 	mov	r0, r11
    3440:	e1a02005 	mov	r2, r5
    3444:	e58d3008 	str	r3, [sp, #8]
    3448:	eb00284d 	bl	d584 <_ungetc_r>
    344c:	e59d3008 	ldr	r3, [sp, #8]
    3450:	e2172010 	ands	r2, r7, #16
    3454:	1a000177 	bne	3a38 <__svfscanf_r+0x1134>
    3458:	e2071c06 	and	r1, r7, #1536	; 0x600
    345c:	e3510b01 	cmp	r1, #1024	; 0x400
    3460:	e5c32000 	strb	r2, [r3]
    3464:	0a0001e1 	beq	3bf0 <__svfscanf_r+0x12ec>
    3468:	e59dc038 	ldr	r12, [sp, #56]	; 0x38
    346c:	e35c0000 	cmp	r12, #0
    3470:	1a00019b 	bne	3ae4 <__svfscanf_r+0x11e0>
    3474:	e3a02000 	mov	r2, #0
    3478:	e59d1018 	ldr	r1, [sp, #24]
    347c:	e1a0000b 	mov	r0, r11
    3480:	eb0018d0 	bl	97c8 <_strtod_r>
    3484:	e3170001 	tst	r7, #1
    3488:	e1a02000 	mov	r2, r0
    348c:	e1a03001 	mov	r3, r1
    3490:	e59dc014 	ldr	r12, [sp, #20]
    3494:	0a000178 	beq	3a7c <__svfscanf_r+0x1178>
    3498:	e59c1000 	ldr	r1, [r12]
    349c:	e28cc004 	add	r12, r12, #4
    34a0:	e58dc014 	str	r12, [sp, #20]
    34a4:	e881000c 	stm	r1, {r2, r3}
    34a8:	e59dc024 	ldr	r12, [sp, #36]	; 0x24
    34ac:	e1a07006 	mov	r7, r6
    34b0:	e28cc001 	add	r12, r12, #1
    34b4:	e58dc024 	str	r12, [sp, #36]	; 0x24
    34b8:	e1a02007 	mov	r2, r7
    34bc:	eafffd22 	b	294c <__svfscanf_r+0x48>
    34c0:	e1a00003 	mov	r0, r3
    34c4:	e1a01005 	mov	r1, r5
    34c8:	e58d3008 	str	r3, [sp, #8]
    34cc:	e58dc00c 	str	r12, [sp, #12]
    34d0:	eb0016e7 	bl	9074 <__srefill_r>
    34d4:	e28d3008 	add	r3, sp, #8
    34d8:	e3500000 	cmp	r0, #0
    34dc:	e8931008 	ldm	r3, {r3, r12}
    34e0:	0affffa3 	beq	3374 <__svfscanf_r+0xa70>
    34e4:	eaffffa4 	b	337c <__svfscanf_r+0xa78>
    34e8:	e35b0007 	cmp	r11, #7
    34ec:	1affffa2 	bne	337c <__svfscanf_r+0xa78>
    34f0:	e3a0b008 	mov	r11, #8
    34f4:	eaffff93 	b	3348 <__svfscanf_r+0xa44>
    34f8:	e35b0006 	cmp	r11, #6
    34fc:	1affff9e 	bne	337c <__svfscanf_r+0xa78>
    3500:	e3a0b007 	mov	r11, #7
    3504:	eaffff8f 	b	3348 <__svfscanf_r+0xa44>
    3508:	e3560000 	cmp	r6, #0
    350c:	035c0000 	cmpeq	r12, #0
    3510:	1a000155 	bne	3a6c <__svfscanf_r+0x1168>
    3514:	e2072c07 	and	r2, r7, #1792	; 0x700
    3518:	e3520c07 	cmp	r2, #1792	; 0x700
    351c:	03c77d1e 	biceq	r7, r7, #1920	; 0x780
    3520:	03a0c001 	moveq	r12, #1
    3524:	03a06000 	moveq	r6, #0
    3528:	0affff86 	beq	3348 <__svfscanf_r+0xa44>
    352c:	e35b0001 	cmp	r11, #1
    3530:	135b0004 	cmpne	r11, #4
    3534:	0a00000c 	beq	356c <__svfscanf_r+0xc68>
    3538:	eaffff8f 	b	337c <__svfscanf_r+0xa78>
    353c:	e35b0000 	cmp	r11, #0
    3540:	03560000 	cmpeq	r6, #0
    3544:	1a000005 	bne	3560 <__svfscanf_r+0xc5c>
    3548:	e2072c07 	and	r2, r7, #1792	; 0x700
    354c:	e3520c07 	cmp	r2, #1792	; 0x700
    3550:	03c77d1e 	biceq	r7, r7, #1920	; 0x780
    3554:	03a0b001 	moveq	r11, #1
    3558:	03a06000 	moveq	r6, #0
    355c:	0affff79 	beq	3348 <__svfscanf_r+0xa44>
    3560:	e35b0003 	cmp	r11, #3
    3564:	135b0005 	cmpne	r11, #5
    3568:	1affff83 	bne	337c <__svfscanf_r+0xa78>
    356c:	e28bb001 	add	r11, r11, #1
    3570:	e20bb0ff 	and	r11, r11, #255	; 0xff
    3574:	eaffff73 	b	3348 <__svfscanf_r+0xa44>
    3578:	e35b0002 	cmp	r11, #2
    357c:	1affff7e 	bne	337c <__svfscanf_r+0xa78>
    3580:	e3a0b003 	mov	r11, #3
    3584:	eaffff6f 	b	3348 <__svfscanf_r+0xa44>
    3588:	e35c0001 	cmp	r12, #1
    358c:	1affff7a 	bne	337c <__svfscanf_r+0xa78>
    3590:	e3a0c002 	mov	r12, #2
    3594:	eaffff6b 	b	3348 <__svfscanf_r+0xa44>
    3598:	e3170c01 	tst	r7, #256	; 0x100
    359c:	0affff65 	beq	3338 <__svfscanf_r+0xa34>
    35a0:	e59d2030 	ldr	r2, [sp, #48]	; 0x30
    35a4:	e3520000 	cmp	r2, #0
    35a8:	e3c77080 	bic	r7, r7, #128	; 0x80
    35ac:	e2866001 	add	r6, r6, #1
    35b0:	12422001 	subne	r2, r2, #1
    35b4:	158d2030 	strne	r2, [sp, #48]	; 0x30
    35b8:	12844001 	addne	r4, r4, #1
    35bc:	eaffff63 	b	3350 <__svfscanf_r+0xa4c>
    35c0:	e3170c02 	tst	r7, #512	; 0x200
    35c4:	0affff6c 	beq	337c <__svfscanf_r+0xa78>
    35c8:	e3c77d0a 	bic	r7, r7, #640	; 0x280
    35cc:	e58d6034 	str	r6, [sp, #52]	; 0x34
    35d0:	eaffff5c 	b	3348 <__svfscanf_r+0xa44>
    35d4:	e3170080 	tst	r7, #128	; 0x80
    35d8:	0affff67 	beq	337c <__svfscanf_r+0xa78>
    35dc:	e3c77080 	bic	r7, r7, #128	; 0x80
    35e0:	eaffff58 	b	3348 <__svfscanf_r+0xa44>
    35e4:	e2072c05 	and	r2, r7, #1280	; 0x500
    35e8:	e3520b01 	cmp	r2, #1024	; 0x400
    35ec:	0a000003 	beq	3600 <__svfscanf_r+0xcfc>
    35f0:	e3170b01 	tst	r7, #1024	; 0x400
    35f4:	0affff60 	beq	337c <__svfscanf_r+0xa78>
    35f8:	e3560000 	cmp	r6, #0
    35fc:	0a000214 	beq	3e54 <__svfscanf_r+0x1550>
    3600:	e3170c02 	tst	r7, #512	; 0x200
    3604:	059d2034 	ldreq	r2, [sp, #52]	; 0x34
    3608:	e3c77d1e 	bic	r7, r7, #1920	; 0x780
    360c:	00626006 	rsbeq	r6, r2, r6
    3610:	058d6038 	streq	r6, [sp, #56]	; 0x38
    3614:	058d903c 	streq	r9, [sp, #60]	; 0x3c
    3618:	e3877d06 	orr	r7, r7, #384	; 0x180
    361c:	e3a06000 	mov	r6, #0
    3620:	eaffff48 	b	3348 <__svfscanf_r+0xa44>
    3624:	e1a0000b 	mov	r0, r11
    3628:	e1a01005 	mov	r1, r5
    362c:	eb001690 	bl	9074 <__srefill_r>
    3630:	e3500000 	cmp	r0, #0
    3634:	1afffe3d 	bne	2f30 <__svfscanf_r+0x62c>
    3638:	e5981000 	ldr	r1, [r8]
    363c:	e5953000 	ldr	r3, [r5]
    3640:	e5d32000 	ldrb	r2, [r3]
    3644:	e0812002 	add	r2, r1, r2
    3648:	e5d22001 	ldrb	r2, [r2, #1]
    364c:	e3120008 	tst	r2, #8
    3650:	e2833001 	add	r3, r3, #1
    3654:	1afffe35 	bne	2f30 <__svfscanf_r+0x62c>
    3658:	e5952004 	ldr	r2, [r5, #4]
    365c:	e2877001 	add	r7, r7, #1
    3660:	e2422001 	sub	r2, r2, #1
    3664:	e1540007 	cmp	r4, r7
    3668:	e5853000 	str	r3, [r5]
    366c:	e5852004 	str	r2, [r5, #4]
    3670:	0afffe2e 	beq	2f30 <__svfscanf_r+0x62c>
    3674:	e3520000 	cmp	r2, #0
    3678:	cafffff0 	bgt	3640 <__svfscanf_r+0xd3c>
    367c:	eaffffe8 	b	3624 <__svfscanf_r+0xd20>
    3680:	e59fc250 	ldr	r12, [pc, #592]	; 38d8 <__svfscanf_r+0xfd4>
    3684:	e58dc020 	str	r12, [sp, #32]
    3688:	e3a0c000 	mov	r12, #0
    368c:	e58dc028 	str	r12, [sp, #40]	; 0x28
    3690:	e3a07003 	mov	r7, #3
    3694:	eafffd5b 	b	2c08 <__svfscanf_r+0x304>
    3698:	e59dc014 	ldr	r12, [sp, #20]
    369c:	e59c7000 	ldr	r7, [r12]
    36a0:	e28c2004 	add	r2, r12, #4
    36a4:	e58d2014 	str	r2, [sp, #20]
    36a8:	e1a09007 	mov	r9, r7
    36ac:	e5953000 	ldr	r3, [r5]
    36b0:	e5d32000 	ldrb	r2, [r3]
    36b4:	e28dce2b 	add	r12, sp, #688	; 0x2b0
    36b8:	e08c2002 	add	r2, r12, r2
    36bc:	e5522260 	ldrb	r2, [r2, #-608]	; 0xfffffda0
    36c0:	e3520000 	cmp	r2, #0
    36c4:	e2831001 	add	r1, r3, #1
    36c8:	0a000010 	beq	3710 <__svfscanf_r+0xe0c>
    36cc:	e5952004 	ldr	r2, [r5, #4]
    36d0:	e2422001 	sub	r2, r2, #1
    36d4:	e8850006 	stm	r5, {r1, r2}
    36d8:	e5d33000 	ldrb	r3, [r3]
    36dc:	e2544001 	subs	r4, r4, #1
    36e0:	e4c93001 	strb	r3, [r9], #1
    36e4:	0a000009 	beq	3710 <__svfscanf_r+0xe0c>
    36e8:	e5953004 	ldr	r3, [r5, #4]
    36ec:	e3530000 	cmp	r3, #0
    36f0:	caffffed 	bgt	36ac <__svfscanf_r+0xda8>
    36f4:	e1a0000b 	mov	r0, r11
    36f8:	e1a01005 	mov	r1, r5
    36fc:	eb00165c 	bl	9074 <__srefill_r>
    3700:	e3500000 	cmp	r0, #0
    3704:	0affffe8 	beq	36ac <__svfscanf_r+0xda8>
    3708:	e1570009 	cmp	r7, r9
    370c:	0afffe7f 	beq	3110 <__svfscanf_r+0x80c>
    3710:	e0597007 	subs	r7, r9, r7
    3714:	0afffe83 	beq	3128 <__svfscanf_r+0x824>
    3718:	e59dc024 	ldr	r12, [sp, #36]	; 0x24
    371c:	e3a02000 	mov	r2, #0
    3720:	e28cc001 	add	r12, r12, #1
    3724:	e08aa007 	add	r10, r10, r7
    3728:	e5c92000 	strb	r2, [r9]
    372c:	e58dc024 	str	r12, [sp, #36]	; 0x24
    3730:	e1a07006 	mov	r7, r6
    3734:	eafffdff 	b	2f38 <__svfscanf_r+0x634>
    3738:	e59fc1a8 	ldr	r12, [pc, #424]	; 38e8 <__svfscanf_r+0xfe4>
    373c:	e58dc020 	str	r12, [sp, #32]
    3740:	e3a0c00a 	mov	r12, #10
    3744:	e58dc028 	str	r12, [sp, #40]	; 0x28
    3748:	e3a07003 	mov	r7, #3
    374c:	eafffd2d 	b	2c08 <__svfscanf_r+0x304>
    3750:	e3a07002 	mov	r7, #2
    3754:	eafffd2b 	b	2c08 <__svfscanf_r+0x304>
    3758:	e3899e22 	orr	r9, r9, #544	; 0x220
    375c:	e59fc184 	ldr	r12, [pc, #388]	; 38e8 <__svfscanf_r+0xfe4>
    3760:	e58dc020 	str	r12, [sp, #32]
    3764:	e3a0c010 	mov	r12, #16
    3768:	e58dc028 	str	r12, [sp, #40]	; 0x28
    376c:	e3a07003 	mov	r7, #3
    3770:	eafffd24 	b	2c08 <__svfscanf_r+0x304>
    3774:	e3190010 	tst	r9, #16
    3778:	1a0000ae 	bne	3a38 <__svfscanf_r+0x1134>
    377c:	e3190004 	tst	r9, #4
    3780:	0a000121 	beq	3c0c <__svfscanf_r+0x1308>
    3784:	e59dc014 	ldr	r12, [sp, #20]
    3788:	e59c3000 	ldr	r3, [r12]
    378c:	e28cc004 	add	r12, r12, #4
    3790:	e1a07006 	mov	r7, r6
    3794:	e1c3a0b0 	strh	r10, [r3]
    3798:	e58dc014 	str	r12, [sp, #20]
    379c:	eafffc8a 	b	29cc <__svfscanf_r+0xc8>
    37a0:	e5d72001 	ldrb	r2, [r7, #1]
    37a4:	e352006c 	cmp	r2, #108	; 0x6c
    37a8:	05d72002 	ldrbeq	r2, [r7, #2]
    37ac:	03899002 	orreq	r9, r9, #2
    37b0:	02877002 	addeq	r7, r7, #2
    37b4:	13899001 	orrne	r9, r9, #1
    37b8:	11a07006 	movne	r7, r6
    37bc:	eafffc89 	b	29e8 <__svfscanf_r+0xe4>
    37c0:	e5d72001 	ldrb	r2, [r7, #1]
    37c4:	e3899010 	orr	r9, r9, #16
    37c8:	e1a07006 	mov	r7, r6
    37cc:	eafffc85 	b	29e8 <__svfscanf_r+0xe4>
    37d0:	e5d72001 	ldrb	r2, [r7, #1]
    37d4:	e3899004 	orr	r9, r9, #4
    37d8:	e1a07006 	mov	r7, r6
    37dc:	eafffc81 	b	29e8 <__svfscanf_r+0xe4>
    37e0:	e3899040 	orr	r9, r9, #64	; 0x40
    37e4:	e3a07000 	mov	r7, #0
    37e8:	eafffd06 	b	2c08 <__svfscanf_r+0x304>
    37ec:	e1a01006 	mov	r1, r6
    37f0:	e28d0050 	add	r0, sp, #80	; 0x50
    37f4:	eb0016c2 	bl	9304 <__sccl>
    37f8:	e3899040 	orr	r9, r9, #64	; 0x40
    37fc:	e1a06000 	mov	r6, r0
    3800:	e3a07001 	mov	r7, #1
    3804:	eafffcff 	b	2c08 <__svfscanf_r+0x304>
    3808:	e3899c02 	orr	r9, r9, #512	; 0x200
    380c:	eaffffd2 	b	375c <__svfscanf_r+0xe58>
    3810:	e5d72001 	ldrb	r2, [r7, #1]
    3814:	e3899002 	orr	r9, r9, #2
    3818:	e1a07006 	mov	r7, r6
    381c:	eafffc71 	b	29e8 <__svfscanf_r+0xe4>
    3820:	e3a07004 	mov	r7, #4
    3824:	eafffcf7 	b	2c08 <__svfscanf_r+0x304>
    3828:	e0844104 	add	r4, r4, r4, lsl #2
    382c:	e0822084 	add	r2, r2, r4, lsl #1
    3830:	e2424030 	sub	r4, r2, #48	; 0x30
    3834:	e5d72001 	ldrb	r2, [r7, #1]
    3838:	e1a07006 	mov	r7, r6
    383c:	eafffc69 	b	29e8 <__svfscanf_r+0xe4>
    3840:	e1a0200c 	mov	r2, r12
    3844:	e5c7c000 	strb	r12, [r7]
    3848:	e1a0000b 	mov	r0, r11
    384c:	e59d1018 	ldr	r1, [sp, #24]
    3850:	e59d3028 	ldr	r3, [sp, #40]	; 0x28
    3854:	e59dc020 	ldr	r12, [sp, #32]
    3858:	e1a0e00f 	mov	lr, pc
    385c:	e12fff1c 	bx	r12
    3860:	e3190020 	tst	r9, #32
    3864:	0a000096 	beq	3ac4 <__svfscanf_r+0x11c0>
    3868:	e59dc014 	ldr	r12, [sp, #20]
    386c:	e59c3000 	ldr	r3, [r12]
    3870:	e28cc004 	add	r12, r12, #4
    3874:	e58dc014 	str	r12, [sp, #20]
    3878:	e5830000 	str	r0, [r3]
    387c:	e59dc024 	ldr	r12, [sp, #36]	; 0x24
    3880:	e28cc001 	add	r12, r12, #1
    3884:	e58dc024 	str	r12, [sp, #36]	; 0x24
    3888:	eafffde7 	b	302c <__svfscanf_r+0x728>
    388c:	e28dc048 	add	r12, sp, #72	; 0x48
    3890:	e1a0000c 	mov	r0, r12
    3894:	e3a01000 	mov	r1, #0
    3898:	e3a02008 	mov	r2, #8
    389c:	e58dc01c 	str	r12, [sp, #28]
    38a0:	eb001103 	bl	7cb4 <memset>
    38a4:	e2199010 	ands	r9, r9, #16
    38a8:	059dc014 	ldreq	r12, [sp, #20]
    38ac:	e58d902c 	str	r9, [sp, #44]	; 0x2c
    38b0:	059c7000 	ldreq	r7, [r12]
    38b4:	028cc004 	addeq	r12, r12, #4
    38b8:	e58d6030 	str	r6, [sp, #48]	; 0x30
    38bc:	058dc014 	streq	r12, [sp, #20]
    38c0:	13a07000 	movne	r7, #0
    38c4:	e3a09000 	mov	r9, #0
    38c8:	e59d602c 	ldr	r6, [sp, #44]	; 0x2c
    38cc:	e58db018 	str	r11, [sp, #24]
    38d0:	ea000012 	b	3920 <__svfscanf_r+0x101c>
    38d4:	00013828 	.word	0x00013828
    38d8:	0000af34 	.word	0x0000af34
    38dc:	0000015d 	.word	0x0000015d
    38e0:	00013498 	.word	0x00013498
    38e4:	000134bc 	.word	0x000134bc
    38e8:	0000b12c 	.word	0x0000b12c
    38ec:	e3560000 	cmp	r6, #0
    38f0:	05876000 	streq	r6, [r7]
    38f4:	e5952004 	ldr	r2, [r5, #4]
    38f8:	e3560000 	cmp	r6, #0
    38fc:	02877004 	addeq	r7, r7, #4
    3900:	01a09006 	moveq	r9, r6
    3904:	13a09000 	movne	r9, #0
    3908:	e3520000 	cmp	r2, #0
    390c:	e08aa00b 	add	r10, r10, r11
    3910:	e2444001 	sub	r4, r4, #1
    3914:	da00001f 	ble	3998 <__svfscanf_r+0x1094>
    3918:	e3540000 	cmp	r4, #0
    391c:	0a0000ce 	beq	3c5c <__svfscanf_r+0x1358>
    3920:	eb000d62 	bl	6eb0 <__locale_mb_cur_max>
    3924:	e1500009 	cmp	r0, r9
    3928:	0afffdf8 	beq	3110 <__svfscanf_r+0x80c>
    392c:	e5951000 	ldr	r1, [r5]
    3930:	e4d12001 	ldrb	r2, [r1], #1
    3934:	e5950004 	ldr	r0, [r5, #4]
    3938:	e5851000 	str	r1, [r5]
    393c:	e59dc01c 	ldr	r12, [sp, #28]
    3940:	e28d1e2b 	add	r1, sp, #688	; 0x2b0
    3944:	e081e009 	add	lr, r1, r9
    3948:	e2400001 	sub	r0, r0, #1
    394c:	e289b001 	add	r11, r9, #1
    3950:	e58dc000 	str	r12, [sp]
    3954:	e1a0300b 	mov	r3, r11
    3958:	e5850004 	str	r0, [r5, #4]
    395c:	e54e2160 	strb	r2, [lr, #-352]	; 0xfffffea0
    3960:	e59d0018 	ldr	r0, [sp, #24]
    3964:	e1a01007 	mov	r1, r7
    3968:	e28d2e15 	add	r2, sp, #336	; 0x150
    396c:	eb000f8c 	bl	77a4 <_mbrtowc_r>
    3970:	e3700001 	cmn	r0, #1
    3974:	0afffde5 	beq	3110 <__svfscanf_r+0x80c>
    3978:	e3500000 	cmp	r0, #0
    397c:	0affffda 	beq	38ec <__svfscanf_r+0xfe8>
    3980:	e3700002 	cmn	r0, #2
    3984:	01a0900b 	moveq	r9, r11
    3988:	1affffd9 	bne	38f4 <__svfscanf_r+0xff0>
    398c:	e5952004 	ldr	r2, [r5, #4]
    3990:	e3520000 	cmp	r2, #0
    3994:	caffffdf 	bgt	3918 <__svfscanf_r+0x1014>
    3998:	e59d0018 	ldr	r0, [sp, #24]
    399c:	e1a01005 	mov	r1, r5
    39a0:	eb0015b3 	bl	9074 <__srefill_r>
    39a4:	e3500000 	cmp	r0, #0
    39a8:	0affffda 	beq	3918 <__svfscanf_r+0x1014>
    39ac:	e3590000 	cmp	r9, #0
    39b0:	e59d6030 	ldr	r6, [sp, #48]	; 0x30
    39b4:	e59db018 	ldr	r11, [sp, #24]
    39b8:	0a0000a9 	beq	3c64 <__svfscanf_r+0x1360>
    39bc:	eafffdd3 	b	3110 <__svfscanf_r+0x80c>
    39c0:	e28dc048 	add	r12, sp, #72	; 0x48
    39c4:	e1a0000c 	mov	r0, r12
    39c8:	e3a01000 	mov	r1, #0
    39cc:	e3a02008 	mov	r2, #8
    39d0:	e58dc01c 	str	r12, [sp, #28]
    39d4:	eb0010b6 	bl	7cb4 <memset>
    39d8:	e2199010 	ands	r9, r9, #16
    39dc:	059dc014 	ldreq	r12, [sp, #20]
    39e0:	e58d9018 	str	r9, [sp, #24]
    39e4:	059c9000 	ldreq	r9, [r12]
    39e8:	028cc004 	addeq	r12, r12, #4
    39ec:	058dc014 	streq	r12, [sp, #20]
    39f0:	128d9044 	addne	r9, sp, #68	; 0x44
    39f4:	e3a03000 	mov	r3, #0
    39f8:	e5952000 	ldr	r2, [r5]
    39fc:	e5981000 	ldr	r1, [r8]
    3a00:	e5d22000 	ldrb	r2, [r2]
    3a04:	e0812002 	add	r2, r1, r2
    3a08:	e5d22001 	ldrb	r2, [r2, #1]
    3a0c:	e3120008 	tst	r2, #8
    3a10:	1a000001 	bne	3a1c <__svfscanf_r+0x1118>
    3a14:	e3540000 	cmp	r4, #0
    3a18:	1a0000a7 	bne	3cbc <__svfscanf_r+0x13b8>
    3a1c:	e59dc018 	ldr	r12, [sp, #24]
    3a20:	e35c0000 	cmp	r12, #0
    3a24:	1a000003 	bne	3a38 <__svfscanf_r+0x1134>
    3a28:	e589c000 	str	r12, [r9]
    3a2c:	e59dc024 	ldr	r12, [sp, #36]	; 0x24
    3a30:	e28cc001 	add	r12, r12, #1
    3a34:	e58dc024 	str	r12, [sp, #36]	; 0x24
    3a38:	e1a07006 	mov	r7, r6
    3a3c:	e1a02007 	mov	r2, r7
    3a40:	eafffbc1 	b	294c <__svfscanf_r+0x48>
    3a44:	e1a0000b 	mov	r0, r11
    3a48:	e1a01005 	mov	r1, r5
    3a4c:	e58d2010 	str	r2, [sp, #16]
    3a50:	e58dc00c 	str	r12, [sp, #12]
    3a54:	eb001586 	bl	9074 <__srefill_r>
    3a58:	e3500000 	cmp	r0, #0
    3a5c:	e59d2010 	ldr	r2, [sp, #16]
    3a60:	e59dc00c 	ldr	r12, [sp, #12]
    3a64:	0afffd61 	beq	2ff0 <__svfscanf_r+0x6ec>
    3a68:	eafffd62 	b	2ff8 <__svfscanf_r+0x6f4>
    3a6c:	e35c0002 	cmp	r12, #2
    3a70:	1afffead 	bne	352c <__svfscanf_r+0xc28>
    3a74:	e3a0c003 	mov	r12, #3
    3a78:	eafffe32 	b	3348 <__svfscanf_r+0xa44>
    3a7c:	e3170002 	tst	r7, #2
    3a80:	1afffe84 	bne	3498 <__svfscanf_r+0xb94>
    3a84:	e59c4000 	ldr	r4, [r12]
    3a88:	e58d0010 	str	r0, [sp, #16]
    3a8c:	e58d1008 	str	r1, [sp, #8]
    3a90:	eb0015ef 	bl	9254 <__fpclassifyd>
    3a94:	e59dc014 	ldr	r12, [sp, #20]
    3a98:	e3500000 	cmp	r0, #0
    3a9c:	e28c7004 	add	r7, r12, #4
    3aa0:	e59d2010 	ldr	r2, [sp, #16]
    3aa4:	e59d3008 	ldr	r3, [sp, #8]
    3aa8:	0a0000ad 	beq	3d64 <__svfscanf_r+0x1460>
    3aac:	e1a00002 	mov	r0, r2
    3ab0:	e1a01003 	mov	r1, r3
    3ab4:	eb00391a 	bl	11f24 <__aeabi_d2f>
    3ab8:	e58d7014 	str	r7, [sp, #20]
    3abc:	e5840000 	str	r0, [r4]
    3ac0:	eafffe78 	b	34a8 <__svfscanf_r+0xba4>
    3ac4:	e3190004 	tst	r9, #4
    3ac8:	0a000069 	beq	3c74 <__svfscanf_r+0x1370>
    3acc:	e59dc014 	ldr	r12, [sp, #20]
    3ad0:	e59c3000 	ldr	r3, [r12]
    3ad4:	e28cc004 	add	r12, r12, #4
    3ad8:	e58dc014 	str	r12, [sp, #20]
    3adc:	e1c300b0 	strh	r0, [r3]
    3ae0:	eaffff65 	b	387c <__svfscanf_r+0xf78>
    3ae4:	e59dc03c 	ldr	r12, [sp, #60]	; 0x3c
    3ae8:	e3a0300a 	mov	r3, #10
    3aec:	e28c1001 	add	r1, r12, #1
    3af0:	e1a0000b 	mov	r0, r11
    3af4:	eb001d0e 	bl	af34 <_strtol_r>
    3af8:	e59dc038 	ldr	r12, [sp, #56]	; 0x38
    3afc:	e59d303c 	ldr	r3, [sp, #60]	; 0x3c
    3b00:	e06c2000 	rsb	r2, r12, r0
    3b04:	e28d1e2a 	add	r1, sp, #672	; 0x2a0
    3b08:	e2811003 	add	r1, r1, #3
    3b0c:	e1530001 	cmp	r3, r1
    3b10:	228d3e2a 	addcs	r3, sp, #672	; 0x2a0
    3b14:	22833002 	addcs	r3, r3, #2
    3b18:	e1a00003 	mov	r0, r3
    3b1c:	e51f1240 	ldr	r1, [pc, #-576]	; 38e4 <__svfscanf_r+0xfe0>
    3b20:	eb001649 	bl	944c <sprintf>
    3b24:	eafffe52 	b	3474 <__svfscanf_r+0xb70>
    3b28:	e3570000 	cmp	r7, #0
    3b2c:	0afffd77 	beq	3110 <__svfscanf_r+0x80c>
    3b30:	e08aa007 	add	r10, r10, r7
    3b34:	e1a07006 	mov	r7, r6
    3b38:	eafffcfe 	b	2f38 <__svfscanf_r+0x634>
    3b3c:	e3570000 	cmp	r7, #0
    3b40:	0afffd78 	beq	3128 <__svfscanf_r+0x824>
    3b44:	e08aa007 	add	r10, r10, r7
    3b48:	e1a07006 	mov	r7, r6
    3b4c:	eafffcf9 	b	2f38 <__svfscanf_r+0x634>
    3b50:	e59dc014 	ldr	r12, [sp, #20]
    3b54:	e1a03004 	mov	r3, r4
    3b58:	e59c1000 	ldr	r1, [r12]
    3b5c:	e1a0000b 	mov	r0, r11
    3b60:	e58d5000 	str	r5, [sp]
    3b64:	e3a02001 	mov	r2, #1
    3b68:	eb0009c2 	bl	6278 <_fread_r>
    3b6c:	e59dc014 	ldr	r12, [sp, #20]
    3b70:	e3500000 	cmp	r0, #0
    3b74:	e28c3004 	add	r3, r12, #4
    3b78:	0afffd64 	beq	3110 <__svfscanf_r+0x80c>
    3b7c:	e59dc024 	ldr	r12, [sp, #36]	; 0x24
    3b80:	e1a07006 	mov	r7, r6
    3b84:	e28cc001 	add	r12, r12, #1
    3b88:	e080a00a 	add	r10, r0, r10
    3b8c:	e58dc024 	str	r12, [sp, #36]	; 0x24
    3b90:	e58d3014 	str	r3, [sp, #20]
    3b94:	e1a02007 	mov	r2, r7
    3b98:	eafffb6b 	b	294c <__svfscanf_r+0x48>
    3b9c:	e1a0000b 	mov	r0, r11
    3ba0:	e1a01005 	mov	r1, r5
    3ba4:	eb001532 	bl	9074 <__srefill_r>
    3ba8:	e3500000 	cmp	r0, #0
    3bac:	0afffd69 	beq	3158 <__svfscanf_r+0x854>
    3bb0:	eafffd56 	b	3110 <__svfscanf_r+0x80c>
    3bb4:	e5571001 	ldrb	r1, [r7, #-1]
    3bb8:	e1a0000b 	mov	r0, r11
    3bbc:	e1a02005 	mov	r2, r5
    3bc0:	eb00266f 	bl	d584 <_ungetc_r>
    3bc4:	e2477001 	sub	r7, r7, #1
    3bc8:	eafffd12 	b	3018 <__svfscanf_r+0x714>
    3bcc:	e1a0000b 	mov	r0, r11
    3bd0:	e1a02005 	mov	r2, r5
    3bd4:	e58d3008 	str	r3, [sp, #8]
    3bd8:	eb002669 	bl	d584 <_ungetc_r>
    3bdc:	e59d3008 	ldr	r3, [sp, #8]
    3be0:	e24aa002 	sub	r10, r10, #2
    3be4:	e5531002 	ldrb	r1, [r3, #-2]
    3be8:	e2433002 	sub	r3, r3, #2
    3bec:	eafffe12 	b	343c <__svfscanf_r+0xb38>
    3bf0:	e59dc01c 	ldr	r12, [sp, #28]
    3bf4:	e59d0034 	ldr	r0, [sp, #52]	; 0x34
    3bf8:	e060200c 	rsb	r2, r0, r12
    3bfc:	e3520000 	cmp	r2, #0
    3c00:	e2622000 	rsb	r2, r2, #0
    3c04:	1affffbe 	bne	3b04 <__svfscanf_r+0x1200>
    3c08:	eafffe19 	b	3474 <__svfscanf_r+0xb70>
    3c0c:	e3190001 	tst	r9, #1
    3c10:	1a00000a 	bne	3c40 <__svfscanf_r+0x133c>
    3c14:	e3190002 	tst	r9, #2
    3c18:	0a000008 	beq	3c40 <__svfscanf_r+0x133c>
    3c1c:	e59dc014 	ldr	r12, [sp, #20]
    3c20:	e59c1000 	ldr	r1, [r12]
    3c24:	e1a0200a 	mov	r2, r10
    3c28:	e1a03fca 	asr	r3, r10, #31
    3c2c:	e28cc004 	add	r12, r12, #4
    3c30:	e1a07006 	mov	r7, r6
    3c34:	e58dc014 	str	r12, [sp, #20]
    3c38:	e881000c 	stm	r1, {r2, r3}
    3c3c:	eafffb62 	b	29cc <__svfscanf_r+0xc8>
    3c40:	e59dc014 	ldr	r12, [sp, #20]
    3c44:	e59c3000 	ldr	r3, [r12]
    3c48:	e28cc004 	add	r12, r12, #4
    3c4c:	e583a000 	str	r10, [r3]
    3c50:	e1a07006 	mov	r7, r6
    3c54:	e58dc014 	str	r12, [sp, #20]
    3c58:	eafffb5b 	b	29cc <__svfscanf_r+0xc8>
    3c5c:	e59d6030 	ldr	r6, [sp, #48]	; 0x30
    3c60:	e59db018 	ldr	r11, [sp, #24]
    3c64:	e59dc02c 	ldr	r12, [sp, #44]	; 0x2c
    3c68:	e35c0000 	cmp	r12, #0
    3c6c:	0affff6e 	beq	3a2c <__svfscanf_r+0x1128>
    3c70:	eaffff70 	b	3a38 <__svfscanf_r+0x1134>
    3c74:	e2192001 	ands	r2, r9, #1
    3c78:	1afffefa 	bne	3868 <__svfscanf_r+0xf64>
    3c7c:	e3190002 	tst	r9, #2
    3c80:	0a00004c 	beq	3db8 <__svfscanf_r+0x14b4>
    3c84:	e51f03a4 	ldr	r0, [pc, #-932]	; 38e8 <__svfscanf_r+0xfe4>
    3c88:	e59dc020 	ldr	r12, [sp, #32]
    3c8c:	e15c0000 	cmp	r12, r0
    3c90:	e59d1018 	ldr	r1, [sp, #24]
    3c94:	e1a0000b 	mov	r0, r11
    3c98:	e59d3028 	ldr	r3, [sp, #40]	; 0x28
    3c9c:	0a00007a 	beq	3e8c <__svfscanf_r+0x1588>
    3ca0:	ebfff24e 	bl	5e0 <_strtoll_r>
    3ca4:	e59dc014 	ldr	r12, [sp, #20]
    3ca8:	e59c3000 	ldr	r3, [r12]
    3cac:	e28cc004 	add	r12, r12, #4
    3cb0:	e58dc014 	str	r12, [sp, #20]
    3cb4:	e8830003 	stm	r3, {r0, r1}
    3cb8:	eafffeef 	b	387c <__svfscanf_r+0xf78>
    3cbc:	e58d3008 	str	r3, [sp, #8]
    3cc0:	eb000c7a 	bl	6eb0 <__locale_mb_cur_max>
    3cc4:	e59d3008 	ldr	r3, [sp, #8]
    3cc8:	e1500003 	cmp	r0, r3
    3ccc:	0afffd0f 	beq	3110 <__svfscanf_r+0x80c>
    3cd0:	e5951000 	ldr	r1, [r5]
    3cd4:	e4d12001 	ldrb	r2, [r1], #1
    3cd8:	e5950004 	ldr	r0, [r5, #4]
    3cdc:	e59dc01c 	ldr	r12, [sp, #28]
    3ce0:	e5851000 	str	r1, [r5]
    3ce4:	e28d1e2b 	add	r1, sp, #688	; 0x2b0
    3ce8:	e58dc000 	str	r12, [sp]
    3cec:	e2400001 	sub	r0, r0, #1
    3cf0:	e081c003 	add	r12, r1, r3
    3cf4:	e2837001 	add	r7, r3, #1
    3cf8:	e5850004 	str	r0, [r5, #4]
    3cfc:	e54c2160 	strb	r2, [r12, #-352]	; 0xfffffea0
    3d00:	e1a03007 	mov	r3, r7
    3d04:	e1a0000b 	mov	r0, r11
    3d08:	e1a01009 	mov	r1, r9
    3d0c:	e28d2e15 	add	r2, sp, #336	; 0x150
    3d10:	eb000ea3 	bl	77a4 <_mbrtowc_r>
    3d14:	e3700001 	cmn	r0, #1
    3d18:	0afffcfc 	beq	3110 <__svfscanf_r+0x80c>
    3d1c:	e3500000 	cmp	r0, #0
    3d20:	05890000 	streq	r0, [r9]
    3d24:	1a000012 	bne	3d74 <__svfscanf_r+0x1470>
    3d28:	eb000c38 	bl	6e10 <iswspace>
    3d2c:	e3500000 	cmp	r0, #0
    3d30:	0a000016 	beq	3d90 <__svfscanf_r+0x148c>
    3d34:	e3570000 	cmp	r7, #0
    3d38:	0affff37 	beq	3a1c <__svfscanf_r+0x1118>
    3d3c:	e28d2e15 	add	r2, sp, #336	; 0x150
    3d40:	e0824007 	add	r4, r2, r7
    3d44:	e2477001 	sub	r7, r7, #1
    3d48:	e1a0000b 	mov	r0, r11
    3d4c:	e5741001 	ldrb	r1, [r4, #-1]!
    3d50:	e1a02005 	mov	r2, r5
    3d54:	eb00260a 	bl	d584 <_ungetc_r>
    3d58:	e3570000 	cmp	r7, #0
    3d5c:	1afffff8 	bne	3d44 <__svfscanf_r+0x1440>
    3d60:	eaffff2d 	b	3a1c <__svfscanf_r+0x1118>
    3d64:	eb00159b 	bl	93d8 <nanf>
    3d68:	e58d7014 	str	r7, [sp, #20]
    3d6c:	e5840000 	str	r0, [r4]
    3d70:	eafffdcc 	b	34a8 <__svfscanf_r+0xba4>
    3d74:	e3700002 	cmn	r0, #2
    3d78:	1a00000c 	bne	3db0 <__svfscanf_r+0x14ac>
    3d7c:	e5953004 	ldr	r3, [r5, #4]
    3d80:	e3530000 	cmp	r3, #0
    3d84:	da000038 	ble	3e6c <__svfscanf_r+0x1568>
    3d88:	e1a03007 	mov	r3, r7
    3d8c:	eaffff19 	b	39f8 <__svfscanf_r+0x10f4>
    3d90:	e59dc018 	ldr	r12, [sp, #24]
    3d94:	e35c0000 	cmp	r12, #0
    3d98:	e08aa007 	add	r10, r10, r7
    3d9c:	e2444001 	sub	r4, r4, #1
    3da0:	02899004 	addeq	r9, r9, #4
    3da4:	01a0700c 	moveq	r7, r12
    3da8:	11a07000 	movne	r7, r0
    3dac:	eafffff2 	b	3d7c <__svfscanf_r+0x1478>
    3db0:	e5990000 	ldr	r0, [r9]
    3db4:	eaffffdb 	b	3d28 <__svfscanf_r+0x1424>
    3db8:	e59dc014 	ldr	r12, [sp, #20]
    3dbc:	e59c3000 	ldr	r3, [r12]
    3dc0:	e28cc004 	add	r12, r12, #4
    3dc4:	e5830000 	str	r0, [r3]
    3dc8:	e58dc014 	str	r12, [sp, #20]
    3dcc:	eafffeaa 	b	387c <__svfscanf_r+0xf78>
    3dd0:	e59d9018 	ldr	r9, [sp, #24]
    3dd4:	e1530009 	cmp	r3, r9
    3dd8:	9afffcd2 	bls	3128 <__svfscanf_r+0x824>
    3ddc:	e1a04003 	mov	r4, r3
    3de0:	e5741001 	ldrb	r1, [r4, #-1]!
    3de4:	e1a0000b 	mov	r0, r11
    3de8:	e1a02005 	mov	r2, r5
    3dec:	eb0025e4 	bl	d584 <_ungetc_r>
    3df0:	e1540009 	cmp	r4, r9
    3df4:	1afffff9 	bne	3de0 <__svfscanf_r+0x14dc>
    3df8:	eafffcca 	b	3128 <__svfscanf_r+0x824>
    3dfc:	e59d9018 	ldr	r9, [sp, #24]
    3e00:	e1530009 	cmp	r3, r9
    3e04:	81a04003 	movhi	r4, r3
    3e08:	9afffcc6 	bls	3128 <__svfscanf_r+0x824>
    3e0c:	e5741001 	ldrb	r1, [r4, #-1]!
    3e10:	e1a0000b 	mov	r0, r11
    3e14:	e1a02005 	mov	r2, r5
    3e18:	eb0025d9 	bl	d584 <_ungetc_r>
    3e1c:	e1540009 	cmp	r4, r9
    3e20:	1afffff9 	bne	3e0c <__svfscanf_r+0x1508>
    3e24:	eafffcbf 	b	3128 <__svfscanf_r+0x824>
    3e28:	e59d9018 	ldr	r9, [sp, #24]
    3e2c:	e1530009 	cmp	r3, r9
    3e30:	9afffcbc 	bls	3128 <__svfscanf_r+0x824>
    3e34:	e1a04003 	mov	r4, r3
    3e38:	e5741001 	ldrb	r1, [r4, #-1]!
    3e3c:	e1a0000b 	mov	r0, r11
    3e40:	e1a02005 	mov	r2, r5
    3e44:	eb0025ce 	bl	d584 <_ungetc_r>
    3e48:	e1540009 	cmp	r4, r9
    3e4c:	1afffff9 	bne	3e38 <__svfscanf_r+0x1534>
    3e50:	eafffcb4 	b	3128 <__svfscanf_r+0x824>
    3e54:	e58d601c 	str	r6, [sp, #28]
    3e58:	e1a0100b 	mov	r1, r11
    3e5c:	e59d602c 	ldr	r6, [sp, #44]	; 0x2c
    3e60:	e1a0b003 	mov	r11, r3
    3e64:	e1a03009 	mov	r3, r9
    3e68:	eafffd4b 	b	339c <__svfscanf_r+0xa98>
    3e6c:	e1a0000b 	mov	r0, r11
    3e70:	e1a01005 	mov	r1, r5
    3e74:	eb00147e 	bl	9074 <__srefill_r>
    3e78:	e3500000 	cmp	r0, #0
    3e7c:	0affffc1 	beq	3d88 <__svfscanf_r+0x1484>
    3e80:	e3570000 	cmp	r7, #0
    3e84:	1afffca1 	bne	3110 <__svfscanf_r+0x80c>
    3e88:	eafffee3 	b	3a1c <__svfscanf_r+0x1118>
    3e8c:	eb001d29 	bl	b338 <_strtoull_r>
    3e90:	eaffff83 	b	3ca4 <__svfscanf_r+0x13a0>

00003e94 <vfscanf>:
    3e94:	e59f3040 	ldr	r3, [pc, #64]	; 3edc <vfscanf+0x48>
    3e98:	e92d41f0 	push	{r4, r5, r6, r7, r8, lr}
    3e9c:	e5934000 	ldr	r4, [r3]
    3ea0:	e3540000 	cmp	r4, #0
    3ea4:	e1a07000 	mov	r7, r0
    3ea8:	e1a06001 	mov	r6, r1
    3eac:	e1a05002 	mov	r5, r2
    3eb0:	0a000003 	beq	3ec4 <vfscanf+0x30>
    3eb4:	e5943038 	ldr	r3, [r4, #56]	; 0x38
    3eb8:	e3530000 	cmp	r3, #0
    3ebc:	01a00004 	moveq	r0, r4
    3ec0:	0b00082c 	bleq	5f78 <__sinit>
    3ec4:	e1a00004 	mov	r0, r4
    3ec8:	e1a01007 	mov	r1, r7
    3ecc:	e1a02006 	mov	r2, r6
    3ed0:	e1a03005 	mov	r3, r5
    3ed4:	e8bd41f0 	pop	{r4, r5, r6, r7, r8, lr}
    3ed8:	eafffa89 	b	2904 <__svfscanf_r>
    3edc:	00013830 	.word	0x00013830

00003ee0 <__svfscanf>:
    3ee0:	e59fc01c 	ldr	r12, [pc, #28]	; 3f04 <__svfscanf+0x24>
    3ee4:	e52d4004 	push	{r4}		; (str r4, [sp, #-4]!)
    3ee8:	e1a04001 	mov	r4, r1
    3eec:	e1a03002 	mov	r3, r2
    3ef0:	e1a01000 	mov	r1, r0
    3ef4:	e1a02004 	mov	r2, r4
    3ef8:	e59c0000 	ldr	r0, [r12]
    3efc:	e49d4004 	pop	{r4}		; (ldr r4, [sp], #4)
    3f00:	eafffa7f 	b	2904 <__svfscanf_r>
    3f04:	00013830 	.word	0x00013830

00003f08 <_vfscanf_r>:
    3f08:	e92d4010 	push	{r4, lr}
    3f0c:	e2504000 	subs	r4, r0, #0
    3f10:	e24dd010 	sub	sp, sp, #16
    3f14:	0a000009 	beq	3f40 <_vfscanf_r+0x38>
    3f18:	e594c038 	ldr	r12, [r4, #56]	; 0x38
    3f1c:	e35c0000 	cmp	r12, #0
    3f20:	1a000006 	bne	3f40 <_vfscanf_r+0x38>
    3f24:	e58d100c 	str	r1, [sp, #12]
    3f28:	e58d2008 	str	r2, [sp, #8]
    3f2c:	e58d3004 	str	r3, [sp, #4]
    3f30:	eb000810 	bl	5f78 <__sinit>
    3f34:	e59d3004 	ldr	r3, [sp, #4]
    3f38:	e59d2008 	ldr	r2, [sp, #8]
    3f3c:	e59d100c 	ldr	r1, [sp, #12]
    3f40:	e1a00004 	mov	r0, r4
    3f44:	e28dd010 	add	sp, sp, #16
    3f48:	e8bd4010 	pop	{r4, lr}
    3f4c:	eafffa6c 	b	2904 <__svfscanf_r>

00003f50 <__swsetup_r>:
    3f50:	e92d4038 	push	{r3, r4, r5, lr}
    3f54:	e59f314c 	ldr	r3, [pc, #332]	; 40a8 <__swsetup_r+0x158>
    3f58:	e5933000 	ldr	r3, [r3]
    3f5c:	e3530000 	cmp	r3, #0
    3f60:	e1a05000 	mov	r5, r0
    3f64:	e1a04001 	mov	r4, r1
    3f68:	0a000002 	beq	3f78 <__swsetup_r+0x28>
    3f6c:	e5932038 	ldr	r2, [r3, #56]	; 0x38
    3f70:	e3520000 	cmp	r2, #0
    3f74:	0a000032 	beq	4044 <__swsetup_r+0xf4>
    3f78:	e1d4c0bc 	ldrh	r12, [r4, #12]
    3f7c:	e31c0008 	tst	r12, #8
    3f80:	e1a0300c 	mov	r3, r12
    3f84:	0a00000c 	beq	3fbc <__swsetup_r+0x6c>
    3f88:	e5942010 	ldr	r2, [r4, #16]
    3f8c:	e3520000 	cmp	r2, #0
    3f90:	0a000012 	beq	3fe0 <__swsetup_r+0x90>
    3f94:	e2131001 	ands	r1, r3, #1
    3f98:	1a000019 	bne	4004 <__swsetup_r+0xb4>
    3f9c:	e3130002 	tst	r3, #2
    3fa0:	05941014 	ldreq	r1, [r4, #20]
    3fa4:	e3520000 	cmp	r2, #0
    3fa8:	e5841008 	str	r1, [r4, #8]
    3fac:	13a00000 	movne	r0, #0
    3fb0:	0a00001b 	beq	4024 <__swsetup_r+0xd4>
    3fb4:	e8bd4038 	pop	{r3, r4, r5, lr}
    3fb8:	e12fff1e 	bx	lr
    3fbc:	e31c0010 	tst	r12, #16
    3fc0:	0a000032 	beq	4090 <__swsetup_r+0x140>
    3fc4:	e31c0004 	tst	r12, #4
    3fc8:	1a000020 	bne	4050 <__swsetup_r+0x100>
    3fcc:	e5942010 	ldr	r2, [r4, #16]
    3fd0:	e38c3008 	orr	r3, r12, #8
    3fd4:	e3520000 	cmp	r2, #0
    3fd8:	e1c430bc 	strh	r3, [r4, #12]
    3fdc:	1affffec 	bne	3f94 <__swsetup_r+0x44>
    3fe0:	e2031d0a 	and	r1, r3, #640	; 0x280
    3fe4:	e3510c02 	cmp	r1, #512	; 0x200
    3fe8:	0affffe9 	beq	3f94 <__swsetup_r+0x44>
    3fec:	e1a00005 	mov	r0, r5
    3ff0:	e1a01004 	mov	r1, r4
    3ff4:	eb000bc2 	bl	6f04 <__smakebuf_r>
    3ff8:	e1d430bc 	ldrh	r3, [r4, #12]
    3ffc:	e5942010 	ldr	r2, [r4, #16]
    4000:	eaffffe3 	b	3f94 <__swsetup_r+0x44>
    4004:	e5941014 	ldr	r1, [r4, #20]
    4008:	e3a03000 	mov	r3, #0
    400c:	e2611000 	rsb	r1, r1, #0
    4010:	e3520000 	cmp	r2, #0
    4014:	e5841018 	str	r1, [r4, #24]
    4018:	e5843008 	str	r3, [r4, #8]
    401c:	13a00000 	movne	r0, #0
    4020:	1affffe3 	bne	3fb4 <__swsetup_r+0x64>
    4024:	e1d430bc 	ldrh	r3, [r4, #12]
    4028:	e3130080 	tst	r3, #128	; 0x80
    402c:	13833040 	orrne	r3, r3, #64	; 0x40
    4030:	11c430bc 	strhne	r3, [r4, #12]
    4034:	13e00000 	mvnne	r0, #0
    4038:	01a00002 	moveq	r0, r2
    403c:	e8bd4038 	pop	{r3, r4, r5, lr}
    4040:	e12fff1e 	bx	lr
    4044:	e1a00003 	mov	r0, r3
    4048:	eb0007ca 	bl	5f78 <__sinit>
    404c:	eaffffc9 	b	3f78 <__swsetup_r+0x28>
    4050:	e5941030 	ldr	r1, [r4, #48]	; 0x30
    4054:	e3510000 	cmp	r1, #0
    4058:	0a000007 	beq	407c <__swsetup_r+0x12c>
    405c:	e2843040 	add	r3, r4, #64	; 0x40
    4060:	e1510003 	cmp	r1, r3
    4064:	0a000002 	beq	4074 <__swsetup_r+0x124>
    4068:	e1a00005 	mov	r0, r5
    406c:	eb000954 	bl	65c4 <_free_r>
    4070:	e1d4c0bc 	ldrh	r12, [r4, #12]
    4074:	e3a03000 	mov	r3, #0
    4078:	e5843030 	str	r3, [r4, #48]	; 0x30
    407c:	e5942010 	ldr	r2, [r4, #16]
    4080:	e3a03000 	mov	r3, #0
    4084:	e3ccc024 	bic	r12, r12, #36	; 0x24
    4088:	e884000c 	stm	r4, {r2, r3}
    408c:	eaffffcf 	b	3fd0 <__swsetup_r+0x80>
    4090:	e38cc040 	orr	r12, r12, #64	; 0x40
    4094:	e3a03009 	mov	r3, #9
    4098:	e5853000 	str	r3, [r5]
    409c:	e3e00000 	mvn	r0, #0
    40a0:	e1c4c0bc 	strh	r12, [r4, #12]
    40a4:	eaffffc2 	b	3fb4 <__swsetup_r+0x64>
    40a8:	00013830 	.word	0x00013830

000040ac <__register_exitproc>:
    40ac:	e59fc0e0 	ldr	r12, [pc, #224]	; 4194 <__register_exitproc+0xe8>
    40b0:	e92d4070 	push	{r4, r5, r6, lr}
    40b4:	e59c5000 	ldr	r5, [r12]
    40b8:	e595c148 	ldr	r12, [r5, #328]	; 0x148
    40bc:	e35c0000 	cmp	r12, #0
    40c0:	0285cf53 	addeq	r12, r5, #332	; 0x14c
    40c4:	e59c4004 	ldr	r4, [r12, #4]
    40c8:	0585c148 	streq	r12, [r5, #328]	; 0x148
    40cc:	e354001f 	cmp	r4, #31
    40d0:	e24dd010 	sub	sp, sp, #16
    40d4:	e1a06000 	mov	r6, r0
    40d8:	da000016 	ble	4138 <__register_exitproc+0x8c>
    40dc:	e59f00b4 	ldr	r0, [pc, #180]	; 4198 <__register_exitproc+0xec>
    40e0:	e3500000 	cmp	r0, #0
    40e4:	1a000003 	bne	40f8 <__register_exitproc+0x4c>
    40e8:	e3e00000 	mvn	r0, #0
    40ec:	e28dd010 	add	sp, sp, #16
    40f0:	e8bd4070 	pop	{r4, r5, r6, lr}
    40f4:	e12fff1e 	bx	lr
    40f8:	e3a00e19 	mov	r0, #400	; 0x190
    40fc:	e58d100c 	str	r1, [sp, #12]
    4100:	e58d2008 	str	r2, [sp, #8]
    4104:	e58d3004 	str	r3, [sp, #4]
    4108:	e320f000 	nop	{0}
    410c:	e250c000 	subs	r12, r0, #0
    4110:	e59d100c 	ldr	r1, [sp, #12]
    4114:	e59d2008 	ldr	r2, [sp, #8]
    4118:	e59d3004 	ldr	r3, [sp, #4]
    411c:	0afffff1 	beq	40e8 <__register_exitproc+0x3c>
    4120:	e5950148 	ldr	r0, [r5, #328]	; 0x148
    4124:	e3a04000 	mov	r4, #0
    4128:	e88c0011 	stm	r12, {r0, r4}
    412c:	e585c148 	str	r12, [r5, #328]	; 0x148
    4130:	e58c4188 	str	r4, [r12, #392]	; 0x188
    4134:	e58c418c 	str	r4, [r12, #396]	; 0x18c
    4138:	e3560000 	cmp	r6, #0
    413c:	1a000007 	bne	4160 <__register_exitproc+0xb4>
    4140:	e2843001 	add	r3, r4, #1
    4144:	e3a00000 	mov	r0, #0
    4148:	e2844002 	add	r4, r4, #2
    414c:	e58c3004 	str	r3, [r12, #4]
    4150:	e78c1104 	str	r1, [r12, r4, lsl #2]
    4154:	e28dd010 	add	sp, sp, #16
    4158:	e8bd4070 	pop	{r4, r5, r6, lr}
    415c:	e12fff1e 	bx	lr
    4160:	e3a05001 	mov	r5, #1
    4164:	e1a05415 	lsl	r5, r5, r4
    4168:	e08c0104 	add	r0, r12, r4, lsl #2
    416c:	e5802088 	str	r2, [r0, #136]	; 0x88
    4170:	e59c2188 	ldr	r2, [r12, #392]	; 0x188
    4174:	e1822005 	orr	r2, r2, r5
    4178:	e58c2188 	str	r2, [r12, #392]	; 0x188
    417c:	e5803108 	str	r3, [r0, #264]	; 0x108
    4180:	e3560002 	cmp	r6, #2
    4184:	059c318c 	ldreq	r3, [r12, #396]	; 0x18c
    4188:	01835005 	orreq	r5, r3, r5
    418c:	058c518c 	streq	r5, [r12, #396]	; 0x18c
    4190:	eaffffea 	b	4140 <__register_exitproc+0x94>
    4194:	00013428 	.word	0x00013428
    4198:	00000000 	.word	0x00000000

0000419c <__call_exitprocs>:
    419c:	e92d4ff0 	push	{r4, r5, r6, r7, r8, r9, r10, r11, lr}
    41a0:	e59f315c 	ldr	r3, [pc, #348]	; 4304 <__call_exitprocs+0x168>
    41a4:	e5933000 	ldr	r3, [r3]
    41a8:	e24dd014 	sub	sp, sp, #20
    41ac:	e2832f52 	add	r2, r3, #328	; 0x148
    41b0:	e58d3004 	str	r3, [sp, #4]
    41b4:	e58d0008 	str	r0, [sp, #8]
    41b8:	e58d200c 	str	r2, [sp, #12]
    41bc:	e1a07001 	mov	r7, r1
    41c0:	e3a09001 	mov	r9, #1
    41c4:	e59d3004 	ldr	r3, [sp, #4]
    41c8:	e5938148 	ldr	r8, [r3, #328]	; 0x148
    41cc:	e3580000 	cmp	r8, #0
    41d0:	0a000038 	beq	42b8 <__call_exitprocs+0x11c>
    41d4:	e59db00c 	ldr	r11, [sp, #12]
    41d8:	e5986004 	ldr	r6, [r8, #4]
    41dc:	e2564001 	subs	r4, r6, #1
    41e0:	50885106 	addpl	r5, r8, r6, lsl #2
    41e4:	52866002 	addpl	r6, r6, #2
    41e8:	52855f42 	addpl	r5, r5, #264	; 0x108
    41ec:	50886106 	addpl	r6, r8, r6, lsl #2
    41f0:	5a000008 	bpl	4218 <__call_exitprocs+0x7c>
    41f4:	ea00002c 	b	42ac <__call_exitprocs+0x110>
    41f8:	e5153004 	ldr	r3, [r5, #-4]
    41fc:	e1530007 	cmp	r3, r7
    4200:	0a000006 	beq	4220 <__call_exitprocs+0x84>
    4204:	e2444001 	sub	r4, r4, #1
    4208:	e3740001 	cmn	r4, #1
    420c:	e2455004 	sub	r5, r5, #4
    4210:	e2466004 	sub	r6, r6, #4
    4214:	0a000024 	beq	42ac <__call_exitprocs+0x110>
    4218:	e3570000 	cmp	r7, #0
    421c:	1afffff5 	bne	41f8 <__call_exitprocs+0x5c>
    4220:	e5983004 	ldr	r3, [r8, #4]
    4224:	e2433001 	sub	r3, r3, #1
    4228:	e1530004 	cmp	r3, r4
    422c:	e5163004 	ldr	r3, [r6, #-4]
    4230:	13a02000 	movne	r2, #0
    4234:	05884004 	streq	r4, [r8, #4]
    4238:	15062004 	strne	r2, [r6, #-4]
    423c:	e3530000 	cmp	r3, #0
    4240:	0affffef 	beq	4204 <__call_exitprocs+0x68>
    4244:	e1a02419 	lsl	r2, r9, r4
    4248:	e5981188 	ldr	r1, [r8, #392]	; 0x188
    424c:	e1120001 	tst	r2, r1
    4250:	e598a004 	ldr	r10, [r8, #4]
    4254:	0a00000d 	beq	4290 <__call_exitprocs+0xf4>
    4258:	e598118c 	ldr	r1, [r8, #396]	; 0x18c
    425c:	e1120001 	tst	r2, r1
    4260:	1a00000d 	bne	429c <__call_exitprocs+0x100>
    4264:	e59d0008 	ldr	r0, [sp, #8]
    4268:	e5151084 	ldr	r1, [r5, #-132]	; 0xffffff7c
    426c:	e1a0e00f 	mov	lr, pc
    4270:	e12fff13 	bx	r3
    4274:	e5983004 	ldr	r3, [r8, #4]
    4278:	e153000a 	cmp	r3, r10
    427c:	1affffd0 	bne	41c4 <__call_exitprocs+0x28>
    4280:	e59b3000 	ldr	r3, [r11]
    4284:	e1530008 	cmp	r3, r8
    4288:	0affffdd 	beq	4204 <__call_exitprocs+0x68>
    428c:	eaffffcc 	b	41c4 <__call_exitprocs+0x28>
    4290:	e1a0e00f 	mov	lr, pc
    4294:	e12fff13 	bx	r3
    4298:	eafffff5 	b	4274 <__call_exitprocs+0xd8>
    429c:	e5150084 	ldr	r0, [r5, #-132]	; 0xffffff7c
    42a0:	e1a0e00f 	mov	lr, pc
    42a4:	e12fff13 	bx	r3
    42a8:	eafffff1 	b	4274 <__call_exitprocs+0xd8>
    42ac:	e59f2054 	ldr	r2, [pc, #84]	; 4308 <__call_exitprocs+0x16c>
    42b0:	e3520000 	cmp	r2, #0
    42b4:	1a000002 	bne	42c4 <__call_exitprocs+0x128>
    42b8:	e28dd014 	add	sp, sp, #20
    42bc:	e8bd4ff0 	pop	{r4, r5, r6, r7, r8, r9, r10, r11, lr}
    42c0:	e12fff1e 	bx	lr
    42c4:	e5983004 	ldr	r3, [r8, #4]
    42c8:	e3530000 	cmp	r3, #0
    42cc:	e5983000 	ldr	r3, [r8]
    42d0:	1a000008 	bne	42f8 <__call_exitprocs+0x15c>
    42d4:	e3530000 	cmp	r3, #0
    42d8:	0a000006 	beq	42f8 <__call_exitprocs+0x15c>
    42dc:	e1a00008 	mov	r0, r8
    42e0:	e58b3000 	str	r3, [r11]
    42e4:	e320f000 	nop	{0}
    42e8:	e59b8000 	ldr	r8, [r11]
    42ec:	e3580000 	cmp	r8, #0
    42f0:	1affffb8 	bne	41d8 <__call_exitprocs+0x3c>
    42f4:	eaffffef 	b	42b8 <__call_exitprocs+0x11c>
    42f8:	e1a0b008 	mov	r11, r8
    42fc:	e1a08003 	mov	r8, r3
    4300:	eafffff9 	b	42ec <__call_exitprocs+0x150>
    4304:	00013428 	.word	0x00013428
    4308:	00000000 	.word	0x00000000

0000430c <register_fini>:
    430c:	e92d4008 	push	{r3, lr}
    4310:	e59f3010 	ldr	r3, [pc, #16]	; 4328 <register_fini+0x1c>
    4314:	e3530000 	cmp	r3, #0
    4318:	159f000c 	ldrne	r0, [pc, #12]	; 432c <register_fini+0x20>
    431c:	1bfff007 	blne	340 <atexit>
    4320:	e8bd4008 	pop	{r3, lr}
    4324:	e12fff1e 	bx	lr
    4328:	000137f0 	.word	0x000137f0
    432c:	00006230 	.word	0x00006230

00004330 <quorem>:
    4330:	e92d4ff0 	push	{r4, r5, r6, r7, r8, r9, r10, r11, lr}
    4334:	e5903010 	ldr	r3, [r0, #16]
    4338:	e5915010 	ldr	r5, [r1, #16]
    433c:	e1550003 	cmp	r5, r3
    4340:	e1a09000 	mov	r9, r0
    4344:	e24dd00c 	sub	sp, sp, #12
    4348:	e1a0a001 	mov	r10, r1
    434c:	c3a00000 	movgt	r0, #0
    4350:	ca00006b 	bgt	4504 <quorem+0x1d4>
    4354:	e2455001 	sub	r5, r5, #1
    4358:	e2814014 	add	r4, r1, #20
    435c:	e7941105 	ldr	r1, [r4, r5, lsl #2]
    4360:	e2898014 	add	r8, r9, #20
    4364:	e2811001 	add	r1, r1, #1
    4368:	e7980105 	ldr	r0, [r8, r5, lsl #2]
    436c:	eb0033fb 	bl	11360 <__aeabi_uidiv>
    4370:	e1a02105 	lsl	r2, r5, #2
    4374:	e0883002 	add	r3, r8, r2
    4378:	e2507000 	subs	r7, r0, #0
    437c:	e58d2000 	str	r2, [sp]
    4380:	e0846002 	add	r6, r4, r2
    4384:	e58d3004 	str	r3, [sp, #4]
    4388:	0a000030 	beq	4450 <quorem+0x120>
    438c:	e3a0c000 	mov	r12, #0
    4390:	e1a0000c 	mov	r0, r12
    4394:	e1a02004 	mov	r2, r4
    4398:	e1a03008 	mov	r3, r8
    439c:	e492e004 	ldr	lr, [r2], #4
    43a0:	e1a0b80e 	lsl	r11, lr, #16
    43a4:	e1a0182e 	lsr	r1, lr, #16
    43a8:	e1a0b82b 	lsr	r11, r11, #16
    43ac:	e02bcb97 	mla	r11, r7, r11, r12
    43b0:	e0010197 	mul	r1, r7, r1
    43b4:	e593e000 	ldr	lr, [r3]
    43b8:	e081182b 	add	r1, r1, r11, lsr #16
    43bc:	e1a0b80b 	lsl	r11, r11, #16
    43c0:	e040082b 	sub	r0, r0, r11, lsr #16
    43c4:	e1a0c80e 	lsl	r12, lr, #16
    43c8:	e1a0b801 	lsl	r11, r1, #16
    43cc:	e080c82c 	add	r12, r0, r12, lsr #16
    43d0:	e1a0082b 	lsr	r0, r11, #16
    43d4:	e060082e 	rsb	r0, r0, lr, lsr #16
    43d8:	e1a0b80c 	lsl	r11, r12, #16
    43dc:	e080084c 	add	r0, r0, r12, asr #16
    43e0:	e1a0c82b 	lsr	r12, r11, #16
    43e4:	e18cc800 	orr	r12, r12, r0, lsl #16
    43e8:	e1560002 	cmp	r6, r2
    43ec:	e483c004 	str	r12, [r3], #4
    43f0:	e1a00840 	asr	r0, r0, #16
    43f4:	e1a0c821 	lsr	r12, r1, #16
    43f8:	2affffe7 	bcs	439c <quorem+0x6c>
    43fc:	e59d2000 	ldr	r2, [sp]
    4400:	e7983002 	ldr	r3, [r8, r2]
    4404:	e3530000 	cmp	r3, #0
    4408:	1a000010 	bne	4450 <quorem+0x120>
    440c:	e59d2004 	ldr	r2, [sp, #4]
    4410:	e2423004 	sub	r3, r2, #4
    4414:	e1580003 	cmp	r8, r3
    4418:	2a00000b 	bcs	444c <quorem+0x11c>
    441c:	e5123004 	ldr	r3, [r2, #-4]
    4420:	e3530000 	cmp	r3, #0
    4424:	1a000008 	bne	444c <quorem+0x11c>
    4428:	e2423008 	sub	r3, r2, #8
    442c:	ea000003 	b	4440 <quorem+0x110>
    4430:	e5932000 	ldr	r2, [r3]
    4434:	e3520000 	cmp	r2, #0
    4438:	e2433004 	sub	r3, r3, #4
    443c:	1a000002 	bne	444c <quorem+0x11c>
    4440:	e1580003 	cmp	r8, r3
    4444:	e2455001 	sub	r5, r5, #1
    4448:	3afffff8 	bcc	4430 <quorem+0x100>
    444c:	e5895010 	str	r5, [r9, #16]
    4450:	e1a0100a 	mov	r1, r10
    4454:	e1a00009 	mov	r0, r9
    4458:	eb001032 	bl	8528 <__mcmp>
    445c:	e3500000 	cmp	r0, #0
    4460:	ba000026 	blt	4500 <quorem+0x1d0>
    4464:	e2877001 	add	r7, r7, #1
    4468:	e1a03008 	mov	r3, r8
    446c:	e3a02000 	mov	r2, #0
    4470:	e494c004 	ldr	r12, [r4], #4
    4474:	e5930000 	ldr	r0, [r3]
    4478:	e1a0180c 	lsl	r1, r12, #16
    447c:	e0422821 	sub	r2, r2, r1, lsr #16
    4480:	e1a01800 	lsl	r1, r0, #16
    4484:	e0821821 	add	r1, r2, r1, lsr #16
    4488:	e1a0c82c 	lsr	r12, r12, #16
    448c:	e06c2820 	rsb	r2, r12, r0, lsr #16
    4490:	e1a0a801 	lsl	r10, r1, #16
    4494:	e0822841 	add	r2, r2, r1, asr #16
    4498:	e1a0182a 	lsr	r1, r10, #16
    449c:	e1811802 	orr	r1, r1, r2, lsl #16
    44a0:	e1560004 	cmp	r6, r4
    44a4:	e4831004 	str	r1, [r3], #4
    44a8:	e1a02842 	asr	r2, r2, #16
    44ac:	2affffef 	bcs	4470 <quorem+0x140>
    44b0:	e7983105 	ldr	r3, [r8, r5, lsl #2]
    44b4:	e3530000 	cmp	r3, #0
    44b8:	e0883105 	add	r3, r8, r5, lsl #2
    44bc:	1a00000f 	bne	4500 <quorem+0x1d0>
    44c0:	e2432004 	sub	r2, r3, #4
    44c4:	e1580002 	cmp	r8, r2
    44c8:	2a00000b 	bcs	44fc <quorem+0x1cc>
    44cc:	e5132004 	ldr	r2, [r3, #-4]
    44d0:	e3520000 	cmp	r2, #0
    44d4:	1a000008 	bne	44fc <quorem+0x1cc>
    44d8:	e2433008 	sub	r3, r3, #8
    44dc:	ea000003 	b	44f0 <quorem+0x1c0>
    44e0:	e5932000 	ldr	r2, [r3]
    44e4:	e3520000 	cmp	r2, #0
    44e8:	e2433004 	sub	r3, r3, #4
    44ec:	1a000002 	bne	44fc <quorem+0x1cc>
    44f0:	e1580003 	cmp	r8, r3
    44f4:	e2455001 	sub	r5, r5, #1
    44f8:	3afffff8 	bcc	44e0 <quorem+0x1b0>
    44fc:	e5895010 	str	r5, [r9, #16]
    4500:	e1a00007 	mov	r0, r7
    4504:	e28dd00c 	add	sp, sp, #12
    4508:	e8bd4ff0 	pop	{r4, r5, r6, r7, r8, r9, r10, r11, lr}
    450c:	e12fff1e 	bx	lr

00004510 <_dtoa_r>:
    4510:	e92d4ff0 	push	{r4, r5, r6, r7, r8, r9, r10, r11, lr}
    4514:	e5901040 	ldr	r1, [r0, #64]	; 0x40
    4518:	e24dd074 	sub	sp, sp, #116	; 0x74
    451c:	e3510000 	cmp	r1, #0
    4520:	e1a04000 	mov	r4, r0
    4524:	e1a0a002 	mov	r10, r2
    4528:	e1a0b003 	mov	r11, r3
    452c:	e59d50a4 	ldr	r5, [sp, #164]	; 0xa4
    4530:	0a000007 	beq	4554 <_dtoa_r+0x44>
    4534:	e5903044 	ldr	r3, [r0, #68]	; 0x44
    4538:	e3a02001 	mov	r2, #1
    453c:	e1a02312 	lsl	r2, r2, r3
    4540:	e5813004 	str	r3, [r1, #4]
    4544:	e5812008 	str	r2, [r1, #8]
    4548:	eb000e3b 	bl	7e3c <_Bfree>
    454c:	e3a03000 	mov	r3, #0
    4550:	e5843040 	str	r3, [r4, #64]	; 0x40
    4554:	e35b0000 	cmp	r11, #0
    4558:	b3a03001 	movlt	r3, #1
    455c:	a3a03000 	movge	r3, #0
    4560:	b5853000 	strlt	r3, [r5]
    4564:	a5853000 	strge	r3, [r5]
    4568:	e59f3508 	ldr	r3, [pc, #1288]	; 4a78 <_dtoa_r+0x568>
    456c:	b3cb9102 	biclt	r9, r11, #-2147483648	; 0x80000000
    4570:	a1a0900b 	movge	r9, r11
    4574:	e1a02003 	mov	r2, r3
    4578:	e0093003 	and	r3, r9, r3
    457c:	b1a0b009 	movlt	r11, r9
    4580:	e1530002 	cmp	r3, r2
    4584:	0a000013 	beq	45d8 <_dtoa_r+0xc8>
    4588:	e1a0000a 	mov	r0, r10
    458c:	e1a0100b 	mov	r1, r11
    4590:	e3a02000 	mov	r2, #0
    4594:	e3a03000 	mov	r3, #0
    4598:	eb003617 	bl	11dfc <__aeabi_dcmpeq>
    459c:	e2508000 	subs	r8, r0, #0
    45a0:	0a00001e 	beq	4620 <_dtoa_r+0x110>
    45a4:	e59dc0a8 	ldr	r12, [sp, #168]	; 0xa8
    45a8:	e35c0000 	cmp	r12, #0
    45ac:	e59dc0a0 	ldr	r12, [sp, #160]	; 0xa0
    45b0:	e3a03001 	mov	r3, #1
    45b4:	e58c3000 	str	r3, [r12]
    45b8:	0a00009c 	beq	4830 <_dtoa_r+0x320>
    45bc:	e59f04b8 	ldr	r0, [pc, #1208]	; 4a7c <_dtoa_r+0x56c>
    45c0:	e59dc0a8 	ldr	r12, [sp, #168]	; 0xa8
    45c4:	e58c0000 	str	r0, [r12]
    45c8:	e2400001 	sub	r0, r0, #1
    45cc:	e28dd074 	add	sp, sp, #116	; 0x74
    45d0:	e8bd4ff0 	pop	{r4, r5, r6, r7, r8, r9, r10, r11, lr}
    45d4:	e12fff1e 	bx	lr
    45d8:	e59f34a0 	ldr	r3, [pc, #1184]	; 4a80 <_dtoa_r+0x570>
    45dc:	e59dc0a0 	ldr	r12, [sp, #160]	; 0xa0
    45e0:	e35a0000 	cmp	r10, #0
    45e4:	e58c3000 	str	r3, [r12]
    45e8:	0a00007e 	beq	47e8 <_dtoa_r+0x2d8>
    45ec:	e59f0490 	ldr	r0, [pc, #1168]	; 4a84 <_dtoa_r+0x574>
    45f0:	e59dc0a8 	ldr	r12, [sp, #168]	; 0xa8
    45f4:	e35c0000 	cmp	r12, #0
    45f8:	0afffff3 	beq	45cc <_dtoa_r+0xbc>
    45fc:	e5d03003 	ldrb	r3, [r0, #3]
    4600:	e59dc0a8 	ldr	r12, [sp, #168]	; 0xa8
    4604:	e3530000 	cmp	r3, #0
    4608:	12803008 	addne	r3, r0, #8
    460c:	02803003 	addeq	r3, r0, #3
    4610:	e58c3000 	str	r3, [r12]
    4614:	e28dd074 	add	sp, sp, #116	; 0x74
    4618:	e8bd4ff0 	pop	{r4, r5, r6, r7, r8, r9, r10, r11, lr}
    461c:	e12fff1e 	bx	lr
    4620:	e28d206c 	add	r2, sp, #108	; 0x6c
    4624:	e28d3068 	add	r3, sp, #104	; 0x68
    4628:	e88d000c 	stm	sp, {r2, r3}
    462c:	e1a00004 	mov	r0, r4
    4630:	e1a0200a 	mov	r2, r10
    4634:	e1a0300b 	mov	r3, r11
    4638:	eb001071 	bl	8804 <__d2b>
    463c:	e1b05a29 	lsrs	r5, r9, #20
    4640:	e58d0030 	str	r0, [sp, #48]	; 0x30
    4644:	1a00006f 	bne	4808 <_dtoa_r+0x2f8>
    4648:	e59d8068 	ldr	r8, [sp, #104]	; 0x68
    464c:	e59d506c 	ldr	r5, [sp, #108]	; 0x6c
    4650:	e3e03e41 	mvn	r3, #1040	; 0x410
    4654:	e0885005 	add	r5, r8, r5
    4658:	e1550003 	cmp	r5, r3
    465c:	a2850e41 	addge	r0, r5, #1040	; 0x410
    4660:	a2800002 	addge	r0, r0, #2
    4664:	a1a0003a 	lsrge	r0, r10, r0
    4668:	b59f0418 	ldrlt	r0, [pc, #1048]	; 4a88 <_dtoa_r+0x578>
    466c:	a283301f 	addge	r3, r3, #31
    4670:	a0653003 	rsbge	r3, r5, r3
    4674:	b0650000 	rsblt	r0, r5, r0
    4678:	a1800319 	orrge	r0, r0, r9, lsl r3
    467c:	b1a0001a 	lsllt	r0, r10, r0
    4680:	eb003443 	bl	11794 <__aeabi_ui2d>
    4684:	e3a0c001 	mov	r12, #1
    4688:	e58dc05c 	str	r12, [sp, #92]	; 0x5c
    468c:	e2455001 	sub	r5, r5, #1
    4690:	e241161f 	sub	r1, r1, #32505856	; 0x1f00000
    4694:	e3a02000 	mov	r2, #0
    4698:	e59f33ec 	ldr	r3, [pc, #1004]	; 4a8c <_dtoa_r+0x57c>
    469c:	eb003377 	bl	11480 <__aeabi_dsub>
    46a0:	e28f3fee 	add	r3, pc, #952	; 0x3b8
    46a4:	e893000c 	ldm	r3, {r2, r3}
    46a8:	eb003479 	bl	11894 <__aeabi_dmul>
    46ac:	e28f3fed 	add	r3, pc, #948	; 0x3b4
    46b0:	e893000c 	ldm	r3, {r2, r3}
    46b4:	eb003372 	bl	11484 <__adddf3>
    46b8:	e1a06000 	mov	r6, r0
    46bc:	e1a00005 	mov	r0, r5
    46c0:	e1a07001 	mov	r7, r1
    46c4:	eb00343b 	bl	117b8 <__aeabi_i2d>
    46c8:	e28f3e3a 	add	r3, pc, #928	; 0x3a0
    46cc:	e893000c 	ldm	r3, {r2, r3}
    46d0:	eb00346f 	bl	11894 <__aeabi_dmul>
    46d4:	e1a02000 	mov	r2, r0
    46d8:	e1a03001 	mov	r3, r1
    46dc:	e1a00006 	mov	r0, r6
    46e0:	e1a01007 	mov	r1, r7
    46e4:	eb003366 	bl	11484 <__adddf3>
    46e8:	e1a06000 	mov	r6, r0
    46ec:	e1a07001 	mov	r7, r1
    46f0:	eb0035df 	bl	11e74 <__aeabi_d2iz>
    46f4:	e1a01007 	mov	r1, r7
    46f8:	e58d0018 	str	r0, [sp, #24]
    46fc:	e3a02000 	mov	r2, #0
    4700:	e1a00006 	mov	r0, r6
    4704:	e3a03000 	mov	r3, #0
    4708:	eb0035c1 	bl	11e14 <__aeabi_dcmplt>
    470c:	e3500000 	cmp	r0, #0
    4710:	1a00019a 	bne	4d80 <_dtoa_r+0x870>
    4714:	e59dc018 	ldr	r12, [sp, #24]
    4718:	e35c0016 	cmp	r12, #22
    471c:	83a0c001 	movhi	r12, #1
    4720:	858dc044 	strhi	r12, [sp, #68]	; 0x44
    4724:	8a00000c 	bhi	475c <_dtoa_r+0x24c>
    4728:	e59f3370 	ldr	r3, [pc, #880]	; 4aa0 <_dtoa_r+0x590>
    472c:	e083318c 	add	r3, r3, r12, lsl #3
    4730:	e8930003 	ldm	r3, {r0, r1}
    4734:	e1a0200a 	mov	r2, r10
    4738:	e1a0300b 	mov	r3, r11
    473c:	eb0035c6 	bl	11e5c <__aeabi_dcmpgt>
    4740:	e3500000 	cmp	r0, #0
    4744:	159dc018 	ldrne	r12, [sp, #24]
    4748:	124cc001 	subne	r12, r12, #1
    474c:	158dc018 	strne	r12, [sp, #24]
    4750:	13a0c000 	movne	r12, #0
    4754:	158dc044 	strne	r12, [sp, #68]	; 0x44
    4758:	058d0044 	streq	r0, [sp, #68]	; 0x44
    475c:	e0655008 	rsb	r5, r5, r8
    4760:	e2555001 	subs	r5, r5, #1
    4764:	4265c000 	rsbmi	r12, r5, #0
    4768:	458dc02c 	strmi	r12, [sp, #44]	; 0x2c
    476c:	53a0c000 	movpl	r12, #0
    4770:	43a0c000 	movmi	r12, #0
    4774:	558dc02c 	strpl	r12, [sp, #44]	; 0x2c
    4778:	e58d5024 	str	r5, [sp, #36]	; 0x24
    477c:	458dc024 	strmi	r12, [sp, #36]	; 0x24
    4780:	e59dc018 	ldr	r12, [sp, #24]
    4784:	e35c0000 	cmp	r12, #0
    4788:	ba000186 	blt	4da8 <_dtoa_r+0x898>
    478c:	e59d1024 	ldr	r1, [sp, #36]	; 0x24
    4790:	e58dc040 	str	r12, [sp, #64]	; 0x40
    4794:	e081100c 	add	r1, r1, r12
    4798:	e3a0c000 	mov	r12, #0
    479c:	e58d1024 	str	r1, [sp, #36]	; 0x24
    47a0:	e58dc034 	str	r12, [sp, #52]	; 0x34
    47a4:	e59dc098 	ldr	r12, [sp, #152]	; 0x98
    47a8:	e35c0009 	cmp	r12, #9
    47ac:	8a000021 	bhi	4838 <_dtoa_r+0x328>
    47b0:	e35c0005 	cmp	r12, #5
    47b4:	c24cc004 	subgt	r12, r12, #4
    47b8:	c58dc098 	strgt	r12, [sp, #152]	; 0x98
    47bc:	e59dc098 	ldr	r12, [sp, #152]	; 0x98
    47c0:	e24c3002 	sub	r3, r12, #2
    47c4:	c3a05000 	movgt	r5, #0
    47c8:	d3a05001 	movle	r5, #1
    47cc:	e3530003 	cmp	r3, #3
    47d0:	979ff103 	ldrls	pc, [pc, r3, lsl #2]
    47d4:	ea000019 	b	4840 <_dtoa_r+0x330>
    47d8:	00004e50 	.word	0x00004e50
    47dc:	000051a8 	.word	0x000051a8
    47e0:	000051e4 	.word	0x000051e4
    47e4:	0000583c 	.word	0x0000583c
    47e8:	e3c904ff 	bic	r0, r9, #-16777216	; 0xff000000
    47ec:	e3c0060f 	bic	r0, r0, #15728640	; 0xf00000
    47f0:	e59f2298 	ldr	r2, [pc, #664]	; 4a90 <_dtoa_r+0x580>
    47f4:	e59f3288 	ldr	r3, [pc, #648]	; 4a84 <_dtoa_r+0x574>
    47f8:	e3500000 	cmp	r0, #0
    47fc:	01a00002 	moveq	r0, r2
    4800:	11a00003 	movne	r0, r3
    4804:	eaffff79 	b	45f0 <_dtoa_r+0xe0>
    4808:	e3cb34ff 	bic	r3, r11, #-16777216	; 0xff000000
    480c:	e3c3360f 	bic	r3, r3, #15728640	; 0xf00000
    4810:	e2455fff 	sub	r5, r5, #1020	; 0x3fc
    4814:	e38335ff 	orr	r3, r3, #1069547520	; 0x3fc00000
    4818:	e58d805c 	str	r8, [sp, #92]	; 0x5c
    481c:	e1a0000a 	mov	r0, r10
    4820:	e2455003 	sub	r5, r5, #3
    4824:	e3831603 	orr	r1, r3, #3145728	; 0x300000
    4828:	e59d8068 	ldr	r8, [sp, #104]	; 0x68
    482c:	eaffff98 	b	4694 <_dtoa_r+0x184>
    4830:	e59f025c 	ldr	r0, [pc, #604]	; 4a94 <_dtoa_r+0x584>
    4834:	eaffff64 	b	45cc <_dtoa_r+0xbc>
    4838:	e3a0c000 	mov	r12, #0
    483c:	e58dc098 	str	r12, [sp, #152]	; 0x98
    4840:	e3a05000 	mov	r5, #0
    4844:	e5845044 	str	r5, [r4, #68]	; 0x44
    4848:	e1a01005 	mov	r1, r5
    484c:	e1a00004 	mov	r0, r4
    4850:	eb000d56 	bl	7db0 <_Balloc>
    4854:	e3e0c000 	mvn	r12, #0
    4858:	e58dc03c 	str	r12, [sp, #60]	; 0x3c
    485c:	e58dc028 	str	r12, [sp, #40]	; 0x28
    4860:	e3a0c001 	mov	r12, #1
    4864:	e58d0020 	str	r0, [sp, #32]
    4868:	e58d509c 	str	r5, [sp, #156]	; 0x9c
    486c:	e5840040 	str	r0, [r4, #64]	; 0x40
    4870:	e58dc038 	str	r12, [sp, #56]	; 0x38
    4874:	e59d306c 	ldr	r3, [sp, #108]	; 0x6c
    4878:	e3530000 	cmp	r3, #0
    487c:	ba00009b 	blt	4af0 <_dtoa_r+0x5e0>
    4880:	e59dc018 	ldr	r12, [sp, #24]
    4884:	e35c000e 	cmp	r12, #14
    4888:	ca000098 	bgt	4af0 <_dtoa_r+0x5e0>
    488c:	e59d109c 	ldr	r1, [sp, #156]	; 0x9c
    4890:	e59dc028 	ldr	r12, [sp, #40]	; 0x28
    4894:	e1a02fa1 	lsr	r2, r1, #31
    4898:	e35c0000 	cmp	r12, #0
    489c:	c3a02000 	movgt	r2, #0
    48a0:	d2022001 	andle	r2, r2, #1
    48a4:	e59f31f4 	ldr	r3, [pc, #500]	; 4aa0 <_dtoa_r+0x590>
    48a8:	e59dc018 	ldr	r12, [sp, #24]
    48ac:	e083318c 	add	r3, r3, r12, lsl #3
    48b0:	e3520000 	cmp	r2, #0
    48b4:	e8930006 	ldm	r3, {r1, r2}
    48b8:	e58d1010 	str	r1, [sp, #16]
    48bc:	e58d2014 	str	r2, [sp, #20]
    48c0:	1a000341 	bne	55cc <_dtoa_r+0x10bc>
    48c4:	e28d3010 	add	r3, sp, #16
    48c8:	e893000c 	ldm	r3, {r2, r3}
    48cc:	e1a0000a 	mov	r0, r10
    48d0:	e1a0100b 	mov	r1, r11
    48d4:	eb003492 	bl	11b24 <__aeabi_ddiv>
    48d8:	eb003565 	bl	11e74 <__aeabi_d2iz>
    48dc:	e1a08000 	mov	r8, r0
    48e0:	eb0033b4 	bl	117b8 <__aeabi_i2d>
    48e4:	e28d3010 	add	r3, sp, #16
    48e8:	e893000c 	ldm	r3, {r2, r3}
    48ec:	eb0033e8 	bl	11894 <__aeabi_dmul>
    48f0:	e1a03001 	mov	r3, r1
    48f4:	e1a02000 	mov	r2, r0
    48f8:	e1a0100b 	mov	r1, r11
    48fc:	e1a0000a 	mov	r0, r10
    4900:	eb0032de 	bl	11480 <__aeabi_dsub>
    4904:	e59dc028 	ldr	r12, [sp, #40]	; 0x28
    4908:	e35c0001 	cmp	r12, #1
    490c:	e59dc020 	ldr	r12, [sp, #32]
    4910:	e28cc001 	add	r12, r12, #1
    4914:	e58dc058 	str	r12, [sp, #88]	; 0x58
    4918:	e59dc020 	ldr	r12, [sp, #32]
    491c:	e2883030 	add	r3, r8, #48	; 0x30
    4920:	e1a06000 	mov	r6, r0
    4924:	e1a07001 	mov	r7, r1
    4928:	e5cc3000 	strb	r3, [r12]
    492c:	e59d5058 	ldr	r5, [sp, #88]	; 0x58
    4930:	0a000035 	beq	4a0c <_dtoa_r+0x4fc>
    4934:	e3a02000 	mov	r2, #0
    4938:	e59f3168 	ldr	r3, [pc, #360]	; 4aa8 <_dtoa_r+0x598>
    493c:	eb0033d4 	bl	11894 <__aeabi_dmul>
    4940:	e3a02000 	mov	r2, #0
    4944:	e3a03000 	mov	r3, #0
    4948:	e1a06000 	mov	r6, r0
    494c:	e1a07001 	mov	r7, r1
    4950:	eb003529 	bl	11dfc <__aeabi_dcmpeq>
    4954:	e3500000 	cmp	r0, #0
    4958:	1a00049a 	bne	5bc8 <_dtoa_r+0x16b8>
    495c:	e59dc020 	ldr	r12, [sp, #32]
    4960:	e59d1028 	ldr	r1, [sp, #40]	; 0x28
    4964:	e58d401c 	str	r4, [sp, #28]
    4968:	e08c9001 	add	r9, r12, r1
    496c:	e28ca002 	add	r10, r12, #2
    4970:	e28d5010 	add	r5, sp, #16
    4974:	e8950030 	ldm	r5, {r4, r5}
    4978:	ea000008 	b	49a0 <_dtoa_r+0x490>
    497c:	eb0033c4 	bl	11894 <__aeabi_dmul>
    4980:	e3a02000 	mov	r2, #0
    4984:	e3a03000 	mov	r3, #0
    4988:	e1a06000 	mov	r6, r0
    498c:	e1a07001 	mov	r7, r1
    4990:	eb003519 	bl	11dfc <__aeabi_dcmpeq>
    4994:	e3500000 	cmp	r0, #0
    4998:	e28aa001 	add	r10, r10, #1
    499c:	1a000410 	bne	59e4 <_dtoa_r+0x14d4>
    49a0:	e1a02004 	mov	r2, r4
    49a4:	e1a03005 	mov	r3, r5
    49a8:	e1a00006 	mov	r0, r6
    49ac:	e1a01007 	mov	r1, r7
    49b0:	eb00345b 	bl	11b24 <__aeabi_ddiv>
    49b4:	eb00352e 	bl	11e74 <__aeabi_d2iz>
    49b8:	e1a08000 	mov	r8, r0
    49bc:	eb00337d 	bl	117b8 <__aeabi_i2d>
    49c0:	e1a02004 	mov	r2, r4
    49c4:	e1a03005 	mov	r3, r5
    49c8:	eb0033b1 	bl	11894 <__aeabi_dmul>
    49cc:	e1a02000 	mov	r2, r0
    49d0:	e1a03001 	mov	r3, r1
    49d4:	e1a00006 	mov	r0, r6
    49d8:	e1a01007 	mov	r1, r7
    49dc:	eb0032a7 	bl	11480 <__aeabi_dsub>
    49e0:	e288c030 	add	r12, r8, #48	; 0x30
    49e4:	e15a0009 	cmp	r10, r9
    49e8:	e1a06000 	mov	r6, r0
    49ec:	e1a07001 	mov	r7, r1
    49f0:	e3a02000 	mov	r2, #0
    49f4:	e59f30ac 	ldr	r3, [pc, #172]	; 4aa8 <_dtoa_r+0x598>
    49f8:	e54ac001 	strb	r12, [r10, #-1]
    49fc:	e1a0b00a 	mov	r11, r10
    4a00:	1affffdd 	bne	497c <_dtoa_r+0x46c>
    4a04:	e59d401c 	ldr	r4, [sp, #28]
    4a08:	e1a0500a 	mov	r5, r10
    4a0c:	e1a02006 	mov	r2, r6
    4a10:	e1a03007 	mov	r3, r7
    4a14:	e1a00006 	mov	r0, r6
    4a18:	e1a01007 	mov	r1, r7
    4a1c:	eb003298 	bl	11484 <__adddf3>
    4a20:	e1a06000 	mov	r6, r0
    4a24:	e1a07001 	mov	r7, r1
    4a28:	e1a02006 	mov	r2, r6
    4a2c:	e28d1010 	add	r1, sp, #16
    4a30:	e8910003 	ldm	r1, {r0, r1}
    4a34:	e1a03007 	mov	r3, r7
    4a38:	eb0034f5 	bl	11e14 <__aeabi_dcmplt>
    4a3c:	e3500000 	cmp	r0, #0
    4a40:	0a000429 	beq	5aec <_dtoa_r+0x15dc>
    4a44:	e59dc018 	ldr	r12, [sp, #24]
    4a48:	e58dc060 	str	r12, [sp, #96]	; 0x60
    4a4c:	e59d9020 	ldr	r9, [sp, #32]
    4a50:	e5558001 	ldrb	r8, [r5, #-1]
    4a54:	e59d1058 	ldr	r1, [sp, #88]	; 0x58
    4a58:	ea000019 	b	4ac4 <_dtoa_r+0x5b4>
    4a5c:	e1a00000 	nop			; (mov r0, r0)
    4a60:	636f4361 	.word	0x636f4361
    4a64:	3fd287a7 	.word	0x3fd287a7
    4a68:	8b60c8b3 	.word	0x8b60c8b3
    4a6c:	3fc68a28 	.word	0x3fc68a28
    4a70:	509f79fb 	.word	0x509f79fb
    4a74:	3fd34413 	.word	0x3fd34413
    4a78:	7ff00000 	.word	0x7ff00000
    4a7c:	00013495 	.word	0x00013495
    4a80:	0000270f 	.word	0x0000270f
    4a84:	000134d0 	.word	0x000134d0
    4a88:	fffffbee 	.word	0xfffffbee
    4a8c:	3ff80000 	.word	0x3ff80000
    4a90:	000134c4 	.word	0x000134c4
    4a94:	00013494 	.word	0x00013494
    4a98:	3ff00000 	.word	0x3ff00000
    4a9c:	000135e0 	.word	0x000135e0
    4aa0:	000134f0 	.word	0x000134f0
    4aa4:	40140000 	.word	0x40140000
    4aa8:	40240000 	.word	0x40240000
    4aac:	401c0000 	.word	0x401c0000
    4ab0:	3fe00000 	.word	0x3fe00000
    4ab4:	e1550001 	cmp	r5, r1
    4ab8:	0a000392 	beq	5908 <_dtoa_r+0x13f8>
    4abc:	e5558002 	ldrb	r8, [r5, #-2]
    4ac0:	e1a05003 	mov	r5, r3
    4ac4:	e3580039 	cmp	r8, #57	; 0x39
    4ac8:	e1a02005 	mov	r2, r5
    4acc:	e2453001 	sub	r3, r5, #1
    4ad0:	0afffff7 	beq	4ab4 <_dtoa_r+0x5a4>
    4ad4:	e59dc060 	ldr	r12, [sp, #96]	; 0x60
    4ad8:	e2882001 	add	r2, r8, #1
    4adc:	e58d5020 	str	r5, [sp, #32]
    4ae0:	e58dc018 	str	r12, [sp, #24]
    4ae4:	e20220ff 	and	r2, r2, #255	; 0xff
    4ae8:	e5c32000 	strb	r2, [r3]
    4aec:	ea00008e 	b	4d2c <_dtoa_r+0x81c>
    4af0:	e59dc038 	ldr	r12, [sp, #56]	; 0x38
    4af4:	e35c0000 	cmp	r12, #0
    4af8:	1a0000b3 	bne	4dcc <_dtoa_r+0x8bc>
    4afc:	e59d6034 	ldr	r6, [sp, #52]	; 0x34
    4b00:	e59d502c 	ldr	r5, [sp, #44]	; 0x2c
    4b04:	e59d8038 	ldr	r8, [sp, #56]	; 0x38
    4b08:	e59dc024 	ldr	r12, [sp, #36]	; 0x24
    4b0c:	e35c0000 	cmp	r12, #0
    4b10:	c3550000 	cmpgt	r5, #0
    4b14:	da000009 	ble	4b40 <_dtoa_r+0x630>
    4b18:	e1a0300c 	mov	r3, r12
    4b1c:	e59dc02c 	ldr	r12, [sp, #44]	; 0x2c
    4b20:	e1530005 	cmp	r3, r5
    4b24:	a1a03005 	movge	r3, r5
    4b28:	e063c00c 	rsb	r12, r3, r12
    4b2c:	e58dc02c 	str	r12, [sp, #44]	; 0x2c
    4b30:	e59dc024 	ldr	r12, [sp, #36]	; 0x24
    4b34:	e063c00c 	rsb	r12, r3, r12
    4b38:	e58dc024 	str	r12, [sp, #36]	; 0x24
    4b3c:	e0635005 	rsb	r5, r3, r5
    4b40:	e59dc034 	ldr	r12, [sp, #52]	; 0x34
    4b44:	e35c0000 	cmp	r12, #0
    4b48:	da000015 	ble	4ba4 <_dtoa_r+0x694>
    4b4c:	e59dc038 	ldr	r12, [sp, #56]	; 0x38
    4b50:	e35c0000 	cmp	r12, #0
    4b54:	0a000347 	beq	5878 <_dtoa_r+0x1368>
    4b58:	e3560000 	cmp	r6, #0
    4b5c:	da00000d 	ble	4b98 <_dtoa_r+0x688>
    4b60:	e1a01008 	mov	r1, r8
    4b64:	e1a02006 	mov	r2, r6
    4b68:	e1a00004 	mov	r0, r4
    4b6c:	eb000de9 	bl	8318 <__pow5mult>
    4b70:	e1a08000 	mov	r8, r0
    4b74:	e1a01008 	mov	r1, r8
    4b78:	e59d2030 	ldr	r2, [sp, #48]	; 0x30
    4b7c:	e1a00004 	mov	r0, r4
    4b80:	eb000d6a 	bl	8130 <__multiply>
    4b84:	e59d1030 	ldr	r1, [sp, #48]	; 0x30
    4b88:	e1a07000 	mov	r7, r0
    4b8c:	e1a00004 	mov	r0, r4
    4b90:	eb000ca9 	bl	7e3c <_Bfree>
    4b94:	e58d7030 	str	r7, [sp, #48]	; 0x30
    4b98:	e59dc034 	ldr	r12, [sp, #52]	; 0x34
    4b9c:	e05c2006 	subs	r2, r12, r6
    4ba0:	1a000378 	bne	5988 <_dtoa_r+0x1478>
    4ba4:	e1a00004 	mov	r0, r4
    4ba8:	e3a01001 	mov	r1, #1
    4bac:	eb000d56 	bl	810c <__i2b>
    4bb0:	e59dc040 	ldr	r12, [sp, #64]	; 0x40
    4bb4:	e35c0000 	cmp	r12, #0
    4bb8:	e1a06000 	mov	r6, r0
    4bbc:	da000004 	ble	4bd4 <_dtoa_r+0x6c4>
    4bc0:	e1a01000 	mov	r1, r0
    4bc4:	e1a0200c 	mov	r2, r12
    4bc8:	e1a00004 	mov	r0, r4
    4bcc:	eb000dd1 	bl	8318 <__pow5mult>
    4bd0:	e1a06000 	mov	r6, r0
    4bd4:	e59dc098 	ldr	r12, [sp, #152]	; 0x98
    4bd8:	e35c0001 	cmp	r12, #1
    4bdc:	da00028a 	ble	560c <_dtoa_r+0x10fc>
    4be0:	e3a07000 	mov	r7, #0
    4be4:	e59dc040 	ldr	r12, [sp, #64]	; 0x40
    4be8:	e35c0000 	cmp	r12, #0
    4bec:	03a00001 	moveq	r0, #1
    4bf0:	1a000251 	bne	553c <_dtoa_r+0x102c>
    4bf4:	e59dc024 	ldr	r12, [sp, #36]	; 0x24
    4bf8:	e080300c 	add	r3, r0, r12
    4bfc:	e213301f 	ands	r3, r3, #31
    4c00:	0a0001a0 	beq	5288 <_dtoa_r+0xd78>
    4c04:	e2632020 	rsb	r2, r3, #32
    4c08:	e3520004 	cmp	r2, #4
    4c0c:	da0003f9 	ble	5bf8 <_dtoa_r+0x16e8>
    4c10:	e263301c 	rsb	r3, r3, #28
    4c14:	e59dc02c 	ldr	r12, [sp, #44]	; 0x2c
    4c18:	e08cc003 	add	r12, r12, r3
    4c1c:	e58dc02c 	str	r12, [sp, #44]	; 0x2c
    4c20:	e59dc024 	ldr	r12, [sp, #36]	; 0x24
    4c24:	e08cc003 	add	r12, r12, r3
    4c28:	e58dc024 	str	r12, [sp, #36]	; 0x24
    4c2c:	e0855003 	add	r5, r5, r3
    4c30:	e59dc02c 	ldr	r12, [sp, #44]	; 0x2c
    4c34:	e35c0000 	cmp	r12, #0
    4c38:	da000004 	ble	4c50 <_dtoa_r+0x740>
    4c3c:	e59d1030 	ldr	r1, [sp, #48]	; 0x30
    4c40:	e1a0200c 	mov	r2, r12
    4c44:	e1a00004 	mov	r0, r4
    4c48:	eb000df3 	bl	841c <__lshift>
    4c4c:	e58d0030 	str	r0, [sp, #48]	; 0x30
    4c50:	e59dc024 	ldr	r12, [sp, #36]	; 0x24
    4c54:	e35c0000 	cmp	r12, #0
    4c58:	da000004 	ble	4c70 <_dtoa_r+0x760>
    4c5c:	e1a01006 	mov	r1, r6
    4c60:	e1a0200c 	mov	r2, r12
    4c64:	e1a00004 	mov	r0, r4
    4c68:	eb000deb 	bl	841c <__lshift>
    4c6c:	e1a06000 	mov	r6, r0
    4c70:	e59dc044 	ldr	r12, [sp, #68]	; 0x44
    4c74:	e35c0000 	cmp	r12, #0
    4c78:	1a000235 	bne	5554 <_dtoa_r+0x1044>
    4c7c:	e59dc098 	ldr	r12, [sp, #152]	; 0x98
    4c80:	e59d1028 	ldr	r1, [sp, #40]	; 0x28
    4c84:	e35c0002 	cmp	r12, #2
    4c88:	d3a03000 	movle	r3, #0
    4c8c:	c3a03001 	movgt	r3, #1
    4c90:	e3510000 	cmp	r1, #0
    4c94:	c3a03000 	movgt	r3, #0
    4c98:	e3530000 	cmp	r3, #0
    4c9c:	0a00017b 	beq	5290 <_dtoa_r+0xd80>
    4ca0:	e59dc028 	ldr	r12, [sp, #40]	; 0x28
    4ca4:	e35c0000 	cmp	r12, #0
    4ca8:	1a000170 	bne	5270 <_dtoa_r+0xd60>
    4cac:	e1a01006 	mov	r1, r6
    4cb0:	e1a0300c 	mov	r3, r12
    4cb4:	e3a02005 	mov	r2, #5
    4cb8:	e1a00004 	mov	r0, r4
    4cbc:	eb000c65 	bl	7e58 <__multadd>
    4cc0:	e1a06000 	mov	r6, r0
    4cc4:	e1a01006 	mov	r1, r6
    4cc8:	e59d0030 	ldr	r0, [sp, #48]	; 0x30
    4ccc:	eb000e15 	bl	8528 <__mcmp>
    4cd0:	e3500000 	cmp	r0, #0
    4cd4:	da000165 	ble	5270 <_dtoa_r+0xd60>
    4cd8:	e59dc018 	ldr	r12, [sp, #24]
    4cdc:	e28cc001 	add	r12, r12, #1
    4ce0:	e58dc018 	str	r12, [sp, #24]
    4ce4:	e59dc020 	ldr	r12, [sp, #32]
    4ce8:	e3a03031 	mov	r3, #49	; 0x31
    4cec:	e5cc3000 	strb	r3, [r12]
    4cf0:	e1a0900c 	mov	r9, r12
    4cf4:	e28cc001 	add	r12, r12, #1
    4cf8:	e58dc020 	str	r12, [sp, #32]
    4cfc:	e3a05000 	mov	r5, #0
    4d00:	e1a01006 	mov	r1, r6
    4d04:	e1a00004 	mov	r0, r4
    4d08:	eb000c4b 	bl	7e3c <_Bfree>
    4d0c:	e3580000 	cmp	r8, #0
    4d10:	0a000005 	beq	4d2c <_dtoa_r+0x81c>
    4d14:	e1550008 	cmp	r5, r8
    4d18:	13550000 	cmpne	r5, #0
    4d1c:	1a000198 	bne	5384 <_dtoa_r+0xe74>
    4d20:	e1a01008 	mov	r1, r8
    4d24:	e1a00004 	mov	r0, r4
    4d28:	eb000c43 	bl	7e3c <_Bfree>
    4d2c:	e1a00004 	mov	r0, r4
    4d30:	e59d1030 	ldr	r1, [sp, #48]	; 0x30
    4d34:	eb000c40 	bl	7e3c <_Bfree>
    4d38:	e59dc018 	ldr	r12, [sp, #24]
    4d3c:	e28c3001 	add	r3, r12, #1
    4d40:	e59dc0a8 	ldr	r12, [sp, #168]	; 0xa8
    4d44:	e35c0000 	cmp	r12, #0
    4d48:	e59dc020 	ldr	r12, [sp, #32]
    4d4c:	e3a02000 	mov	r2, #0
    4d50:	e5cc2000 	strb	r2, [r12]
    4d54:	e59dc0a0 	ldr	r12, [sp, #160]	; 0xa0
    4d58:	01a00009 	moveq	r0, r9
    4d5c:	e58c3000 	str	r3, [r12]
    4d60:	0afffe19 	beq	45cc <_dtoa_r+0xbc>
    4d64:	e59dc020 	ldr	r12, [sp, #32]
    4d68:	e59d10a8 	ldr	r1, [sp, #168]	; 0xa8
    4d6c:	e1a00009 	mov	r0, r9
    4d70:	e581c000 	str	r12, [r1]
    4d74:	e28dd074 	add	sp, sp, #116	; 0x74
    4d78:	e8bd4ff0 	pop	{r4, r5, r6, r7, r8, r9, r10, r11, lr}
    4d7c:	e12fff1e 	bx	lr
    4d80:	e59d0018 	ldr	r0, [sp, #24]
    4d84:	eb00328b 	bl	117b8 <__aeabi_i2d>
    4d88:	e1a02006 	mov	r2, r6
    4d8c:	e1a03007 	mov	r3, r7
    4d90:	eb003419 	bl	11dfc <__aeabi_dcmpeq>
    4d94:	e3500000 	cmp	r0, #0
    4d98:	059dc018 	ldreq	r12, [sp, #24]
    4d9c:	024cc001 	subeq	r12, r12, #1
    4da0:	058dc018 	streq	r12, [sp, #24]
    4da4:	eafffe5a 	b	4714 <_dtoa_r+0x204>
    4da8:	e59dc02c 	ldr	r12, [sp, #44]	; 0x2c
    4dac:	e59d1018 	ldr	r1, [sp, #24]
    4db0:	e061c00c 	rsb	r12, r1, r12
    4db4:	e58dc02c 	str	r12, [sp, #44]	; 0x2c
    4db8:	e261c000 	rsb	r12, r1, #0
    4dbc:	e58dc034 	str	r12, [sp, #52]	; 0x34
    4dc0:	e3a0c000 	mov	r12, #0
    4dc4:	e58dc040 	str	r12, [sp, #64]	; 0x40
    4dc8:	eafffe75 	b	47a4 <_dtoa_r+0x294>
    4dcc:	e59dc098 	ldr	r12, [sp, #152]	; 0x98
    4dd0:	e35c0001 	cmp	r12, #1
    4dd4:	da0002f8 	ble	59bc <_dtoa_r+0x14ac>
    4dd8:	e59dc028 	ldr	r12, [sp, #40]	; 0x28
    4ddc:	e24c6001 	sub	r6, r12, #1
    4de0:	e59dc034 	ldr	r12, [sp, #52]	; 0x34
    4de4:	e15c0006 	cmp	r12, r6
    4de8:	b59dc034 	ldrlt	r12, [sp, #52]	; 0x34
    4dec:	b06c3006 	rsblt	r3, r12, r6
    4df0:	b59dc040 	ldrlt	r12, [sp, #64]	; 0x40
    4df4:	b08cc003 	addlt	r12, r12, r3
    4df8:	a066600c 	rsbge	r6, r6, r12
    4dfc:	b58dc040 	strlt	r12, [sp, #64]	; 0x40
    4e00:	e59dc028 	ldr	r12, [sp, #40]	; 0x28
    4e04:	b58d6034 	strlt	r6, [sp, #52]	; 0x34
    4e08:	b3a06000 	movlt	r6, #0
    4e0c:	e35c0000 	cmp	r12, #0
    4e10:	b59d102c 	ldrlt	r1, [sp, #44]	; 0x2c
    4e14:	a28d3028 	addge	r3, sp, #40	; 0x28
    4e18:	a8930028 	ldmge	r3, {r3, r5}
    4e1c:	b06c5001 	rsblt	r5, r12, r1
    4e20:	b3a03000 	movlt	r3, #0
    4e24:	e59dc02c 	ldr	r12, [sp, #44]	; 0x2c
    4e28:	e08cc003 	add	r12, r12, r3
    4e2c:	e58dc02c 	str	r12, [sp, #44]	; 0x2c
    4e30:	e59dc024 	ldr	r12, [sp, #36]	; 0x24
    4e34:	e1a00004 	mov	r0, r4
    4e38:	e08cc003 	add	r12, r12, r3
    4e3c:	e3a01001 	mov	r1, #1
    4e40:	e58dc024 	str	r12, [sp, #36]	; 0x24
    4e44:	eb000cb0 	bl	810c <__i2b>
    4e48:	e1a08000 	mov	r8, r0
    4e4c:	eaffff2d 	b	4b08 <_dtoa_r+0x5f8>
    4e50:	e3a0c000 	mov	r12, #0
    4e54:	e58dc038 	str	r12, [sp, #56]	; 0x38
    4e58:	e59d109c 	ldr	r1, [sp, #156]	; 0x9c
    4e5c:	e3510000 	cmp	r1, #0
    4e60:	da000278 	ble	5848 <_dtoa_r+0x1338>
    4e64:	e58d103c 	str	r1, [sp, #60]	; 0x3c
    4e68:	e58d1028 	str	r1, [sp, #40]	; 0x28
    4e6c:	e351000e 	cmp	r1, #14
    4e70:	83a05000 	movhi	r5, #0
    4e74:	92055001 	andls	r5, r5, #1
    4e78:	e1a0c001 	mov	r12, r1
    4e7c:	e3a01000 	mov	r1, #0
    4e80:	e35c0017 	cmp	r12, #23
    4e84:	e5841044 	str	r1, [r4, #68]	; 0x44
    4e88:	9a000008 	bls	4eb0 <_dtoa_r+0x9a0>
    4e8c:	e3a02001 	mov	r2, #1
    4e90:	e3a03004 	mov	r3, #4
    4e94:	e1a03083 	lsl	r3, r3, #1
    4e98:	e2830014 	add	r0, r3, #20
    4e9c:	e150000c 	cmp	r0, r12
    4ea0:	e1a01002 	mov	r1, r2
    4ea4:	e2822001 	add	r2, r2, #1
    4ea8:	9afffff9 	bls	4e94 <_dtoa_r+0x984>
    4eac:	e5841044 	str	r1, [r4, #68]	; 0x44
    4eb0:	e1a00004 	mov	r0, r4
    4eb4:	eb000bbd 	bl	7db0 <_Balloc>
    4eb8:	e3550000 	cmp	r5, #0
    4ebc:	e58d0020 	str	r0, [sp, #32]
    4ec0:	e5840040 	str	r0, [r4, #64]	; 0x40
    4ec4:	0afffe6a 	beq	4874 <_dtoa_r+0x364>
    4ec8:	e59dc018 	ldr	r12, [sp, #24]
    4ecc:	e35c0000 	cmp	r12, #0
    4ed0:	e58da050 	str	r10, [sp, #80]	; 0x50
    4ed4:	e58db054 	str	r11, [sp, #84]	; 0x54
    4ed8:	da000131 	ble	53a4 <_dtoa_r+0xe94>
    4edc:	e51f2444 	ldr	r2, [pc, #-1092]	; 4aa0 <_dtoa_r+0x590>
    4ee0:	e20c300f 	and	r3, r12, #15
    4ee4:	e1a0524c 	asr	r5, r12, #4
    4ee8:	e0823183 	add	r3, r2, r3, lsl #3
    4eec:	e3150010 	tst	r5, #16
    4ef0:	e89300c0 	ldm	r3, {r6, r7}
    4ef4:	0a00011e 	beq	5374 <_dtoa_r+0xe64>
    4ef8:	e51f3464 	ldr	r3, [pc, #-1124]	; 4a9c <_dtoa_r+0x58c>
    4efc:	e1a0000a 	mov	r0, r10
    4f00:	e1a0100b 	mov	r1, r11
    4f04:	e2833020 	add	r3, r3, #32
    4f08:	e893000c 	ldm	r3, {r2, r3}
    4f0c:	eb003304 	bl	11b24 <__aeabi_ddiv>
    4f10:	e205500f 	and	r5, r5, #15
    4f14:	e1a0a000 	mov	r10, r0
    4f18:	e1a0b001 	mov	r11, r1
    4f1c:	e3a08003 	mov	r8, #3
    4f20:	e3550000 	cmp	r5, #0
    4f24:	0a00000b 	beq	4f58 <_dtoa_r+0xa48>
    4f28:	e51f9494 	ldr	r9, [pc, #-1172]	; 4a9c <_dtoa_r+0x58c>
    4f2c:	e1a00006 	mov	r0, r6
    4f30:	e1a01007 	mov	r1, r7
    4f34:	e3150001 	tst	r5, #1
    4f38:	1899000c 	ldmne	r9, {r2, r3}
    4f3c:	12888001 	addne	r8, r8, #1
    4f40:	1b003253 	blne	11894 <__aeabi_dmul>
    4f44:	e1b050c5 	asrs	r5, r5, #1
    4f48:	e2899008 	add	r9, r9, #8
    4f4c:	1afffff8 	bne	4f34 <_dtoa_r+0xa24>
    4f50:	e1a06000 	mov	r6, r0
    4f54:	e1a07001 	mov	r7, r1
    4f58:	e1a02006 	mov	r2, r6
    4f5c:	e1a03007 	mov	r3, r7
    4f60:	e1a0000a 	mov	r0, r10
    4f64:	e1a0100b 	mov	r1, r11
    4f68:	eb0032ed 	bl	11b24 <__aeabi_ddiv>
    4f6c:	e1a06000 	mov	r6, r0
    4f70:	e1a07001 	mov	r7, r1
    4f74:	e59dc044 	ldr	r12, [sp, #68]	; 0x44
    4f78:	e35c0000 	cmp	r12, #0
    4f7c:	0a000006 	beq	4f9c <_dtoa_r+0xa8c>
    4f80:	e1a00006 	mov	r0, r6
    4f84:	e1a01007 	mov	r1, r7
    4f88:	e3a02000 	mov	r2, #0
    4f8c:	e51f34fc 	ldr	r3, [pc, #-1276]	; 4a98 <_dtoa_r+0x588>
    4f90:	eb00339f 	bl	11e14 <__aeabi_dcmplt>
    4f94:	e3500000 	cmp	r0, #0
    4f98:	1a00023c 	bne	5890 <_dtoa_r+0x1380>
    4f9c:	e1a00008 	mov	r0, r8
    4fa0:	eb003204 	bl	117b8 <__aeabi_i2d>
    4fa4:	e1a02006 	mov	r2, r6
    4fa8:	e1a03007 	mov	r3, r7
    4fac:	eb003238 	bl	11894 <__aeabi_dmul>
    4fb0:	e3a02000 	mov	r2, #0
    4fb4:	e51f3510 	ldr	r3, [pc, #-1296]	; 4aac <_dtoa_r+0x59c>
    4fb8:	eb003131 	bl	11484 <__adddf3>
    4fbc:	e59dc028 	ldr	r12, [sp, #40]	; 0x28
    4fc0:	e35c0000 	cmp	r12, #0
    4fc4:	e1a08000 	mov	r8, r0
    4fc8:	e241950d 	sub	r9, r1, #54525952	; 0x3400000
    4fcc:	0a000093 	beq	5220 <_dtoa_r+0xd10>
    4fd0:	e59dc018 	ldr	r12, [sp, #24]
    4fd4:	e58dc060 	str	r12, [sp, #96]	; 0x60
    4fd8:	e59dc028 	ldr	r12, [sp, #40]	; 0x28
    4fdc:	e59d1038 	ldr	r1, [sp, #56]	; 0x38
    4fe0:	e3510000 	cmp	r1, #0
    4fe4:	0a00010c 	beq	541c <_dtoa_r+0xf0c>
    4fe8:	e51f3550 	ldr	r3, [pc, #-1360]	; 4aa0 <_dtoa_r+0x590>
    4fec:	e083318c 	add	r3, r3, r12, lsl #3
    4ff0:	e913000c 	ldmdb	r3, {r2, r3}
    4ff4:	e3a00000 	mov	r0, #0
    4ff8:	e51f1550 	ldr	r1, [pc, #-1360]	; 4ab0 <_dtoa_r+0x5a0>
    4ffc:	e58dc00c 	str	r12, [sp, #12]
    5000:	eb0032c7 	bl	11b24 <__aeabi_ddiv>
    5004:	e1a02008 	mov	r2, r8
    5008:	e1a03009 	mov	r3, r9
    500c:	eb00311b 	bl	11480 <__aeabi_dsub>
    5010:	e1a0a000 	mov	r10, r0
    5014:	e1a0b001 	mov	r11, r1
    5018:	e1a00006 	mov	r0, r6
    501c:	e1a01007 	mov	r1, r7
    5020:	eb003393 	bl	11e74 <__aeabi_d2iz>
    5024:	e1a05000 	mov	r5, r0
    5028:	eb0031e2 	bl	117b8 <__aeabi_i2d>
    502c:	e1a02000 	mov	r2, r0
    5030:	e1a03001 	mov	r3, r1
    5034:	e1a00006 	mov	r0, r6
    5038:	e1a01007 	mov	r1, r7
    503c:	eb00310f 	bl	11480 <__aeabi_dsub>
    5040:	e2855030 	add	r5, r5, #48	; 0x30
    5044:	e59d2020 	ldr	r2, [sp, #32]
    5048:	e1a06000 	mov	r6, r0
    504c:	e1a07001 	mov	r7, r1
    5050:	e20580ff 	and	r8, r5, #255	; 0xff
    5054:	e5c28000 	strb	r8, [r2]
    5058:	e1a03007 	mov	r3, r7
    505c:	e1a0000a 	mov	r0, r10
    5060:	e1a0100b 	mov	r1, r11
    5064:	e1a02006 	mov	r2, r6
    5068:	eb00337b 	bl	11e5c <__aeabi_dcmpgt>
    506c:	e59d3020 	ldr	r3, [sp, #32]
    5070:	e3500000 	cmp	r0, #0
    5074:	e2833001 	add	r3, r3, #1
    5078:	e58d3058 	str	r3, [sp, #88]	; 0x58
    507c:	e1a05003 	mov	r5, r3
    5080:	1a0002d6 	bne	5be0 <_dtoa_r+0x16d0>
    5084:	e1a02006 	mov	r2, r6
    5088:	e1a03007 	mov	r3, r7
    508c:	e3a00000 	mov	r0, #0
    5090:	e51f1600 	ldr	r1, [pc, #-1536]	; 4a98 <_dtoa_r+0x588>
    5094:	eb0030f9 	bl	11480 <__aeabi_dsub>
    5098:	e1a02000 	mov	r2, r0
    509c:	e1a03001 	mov	r3, r1
    50a0:	e1a0000a 	mov	r0, r10
    50a4:	e1a0100b 	mov	r1, r11
    50a8:	eb00336b 	bl	11e5c <__aeabi_dcmpgt>
    50ac:	e3500000 	cmp	r0, #0
    50b0:	e59dc00c 	ldr	r12, [sp, #12]
    50b4:	1a000251 	bne	5a00 <_dtoa_r+0x14f0>
    50b8:	e35c0001 	cmp	r12, #1
    50bc:	da0000b5 	ble	5398 <_dtoa_r+0xe88>
    50c0:	e59d1020 	ldr	r1, [sp, #32]
    50c4:	e081900c 	add	r9, r1, r12
    50c8:	e58d9048 	str	r9, [sp, #72]	; 0x48
    50cc:	e58d4064 	str	r4, [sp, #100]	; 0x64
    50d0:	e1a09005 	mov	r9, r5
    50d4:	ea000008 	b	50fc <_dtoa_r+0xbec>
    50d8:	eb0030e8 	bl	11480 <__aeabi_dsub>
    50dc:	e1a0200a 	mov	r2, r10
    50e0:	e1a0300b 	mov	r3, r11
    50e4:	eb00334a 	bl	11e14 <__aeabi_dcmplt>
    50e8:	e3500000 	cmp	r0, #0
    50ec:	1a000241 	bne	59f8 <_dtoa_r+0x14e8>
    50f0:	e59dc048 	ldr	r12, [sp, #72]	; 0x48
    50f4:	e159000c 	cmp	r9, r12
    50f8:	0a0000a5 	beq	5394 <_dtoa_r+0xe84>
    50fc:	e1a0000a 	mov	r0, r10
    5100:	e1a0100b 	mov	r1, r11
    5104:	e3a02000 	mov	r2, #0
    5108:	e51f3668 	ldr	r3, [pc, #-1640]	; 4aa8 <_dtoa_r+0x598>
    510c:	eb0031e0 	bl	11894 <__aeabi_dmul>
    5110:	e3a02000 	mov	r2, #0
    5114:	e51f3674 	ldr	r3, [pc, #-1652]	; 4aa8 <_dtoa_r+0x598>
    5118:	e1a0a000 	mov	r10, r0
    511c:	e1a0b001 	mov	r11, r1
    5120:	e1a00006 	mov	r0, r6
    5124:	e1a01007 	mov	r1, r7
    5128:	eb0031d9 	bl	11894 <__aeabi_dmul>
    512c:	e1a05001 	mov	r5, r1
    5130:	e1a04000 	mov	r4, r0
    5134:	eb00334e 	bl	11e74 <__aeabi_d2iz>
    5138:	e1a08000 	mov	r8, r0
    513c:	eb00319d 	bl	117b8 <__aeabi_i2d>
    5140:	e1a02000 	mov	r2, r0
    5144:	e1a03001 	mov	r3, r1
    5148:	e1a00004 	mov	r0, r4
    514c:	e1a01005 	mov	r1, r5
    5150:	eb0030ca 	bl	11480 <__aeabi_dsub>
    5154:	e2888030 	add	r8, r8, #48	; 0x30
    5158:	e20880ff 	and	r8, r8, #255	; 0xff
    515c:	e1a0200a 	mov	r2, r10
    5160:	e1a0300b 	mov	r3, r11
    5164:	e4c98001 	strb	r8, [r9], #1
    5168:	e1a07001 	mov	r7, r1
    516c:	e1a06000 	mov	r6, r0
    5170:	eb003327 	bl	11e14 <__aeabi_dcmplt>
    5174:	e3500000 	cmp	r0, #0
    5178:	e1a02006 	mov	r2, r6
    517c:	e1a03007 	mov	r3, r7
    5180:	e3a00000 	mov	r0, #0
    5184:	e51f16f4 	ldr	r1, [pc, #-1780]	; 4a98 <_dtoa_r+0x588>
    5188:	0affffd2 	beq	50d8 <_dtoa_r+0xbc8>
    518c:	e59dc060 	ldr	r12, [sp, #96]	; 0x60
    5190:	e1a05009 	mov	r5, r9
    5194:	e59d4064 	ldr	r4, [sp, #100]	; 0x64
    5198:	e59d9020 	ldr	r9, [sp, #32]
    519c:	e58dc018 	str	r12, [sp, #24]
    51a0:	e58d5020 	str	r5, [sp, #32]
    51a4:	eafffee0 	b	4d2c <_dtoa_r+0x81c>
    51a8:	e3a0c000 	mov	r12, #0
    51ac:	e58dc038 	str	r12, [sp, #56]	; 0x38
    51b0:	e59d109c 	ldr	r1, [sp, #156]	; 0x9c
    51b4:	e59dc018 	ldr	r12, [sp, #24]
    51b8:	e081c00c 	add	r12, r1, r12
    51bc:	e58dc03c 	str	r12, [sp, #60]	; 0x3c
    51c0:	e28cc001 	add	r12, r12, #1
    51c4:	e35c0000 	cmp	r12, #0
    51c8:	e58dc028 	str	r12, [sp, #40]	; 0x28
    51cc:	da0001a5 	ble	5868 <_dtoa_r+0x1358>
    51d0:	e59dc028 	ldr	r12, [sp, #40]	; 0x28
    51d4:	e35c000e 	cmp	r12, #14
    51d8:	83a05000 	movhi	r5, #0
    51dc:	92055001 	andls	r5, r5, #1
    51e0:	eaffff25 	b	4e7c <_dtoa_r+0x96c>
    51e4:	e3a0c001 	mov	r12, #1
    51e8:	e58dc038 	str	r12, [sp, #56]	; 0x38
    51ec:	eaffff19 	b	4e58 <_dtoa_r+0x948>
    51f0:	e1a00008 	mov	r0, r8
    51f4:	eb00316f 	bl	117b8 <__aeabi_i2d>
    51f8:	e1a02000 	mov	r2, r0
    51fc:	e1a03001 	mov	r3, r1
    5200:	e1a00006 	mov	r0, r6
    5204:	e1a01007 	mov	r1, r7
    5208:	eb0031a1 	bl	11894 <__aeabi_dmul>
    520c:	e3a02000 	mov	r2, #0
    5210:	e51f376c 	ldr	r3, [pc, #-1900]	; 4aac <_dtoa_r+0x59c>
    5214:	eb00309a 	bl	11484 <__adddf3>
    5218:	e1a08000 	mov	r8, r0
    521c:	e241950d 	sub	r9, r1, #54525952	; 0x3400000
    5220:	e1a00006 	mov	r0, r6
    5224:	e3a02000 	mov	r2, #0
    5228:	e51f378c 	ldr	r3, [pc, #-1932]	; 4aa4 <_dtoa_r+0x594>
    522c:	e1a01007 	mov	r1, r7
    5230:	eb003092 	bl	11480 <__aeabi_dsub>
    5234:	e1a02008 	mov	r2, r8
    5238:	e1a03009 	mov	r3, r9
    523c:	e1a0a000 	mov	r10, r0
    5240:	e1a0b001 	mov	r11, r1
    5244:	eb003304 	bl	11e5c <__aeabi_dcmpgt>
    5248:	e2506000 	subs	r6, r0, #0
    524c:	1a00006f 	bne	5410 <_dtoa_r+0xf00>
    5250:	e1a02008 	mov	r2, r8
    5254:	e2893102 	add	r3, r9, #-2147483648	; 0x80000000
    5258:	e1a0000a 	mov	r0, r10
    525c:	e1a0100b 	mov	r1, r11
    5260:	eb0032eb 	bl	11e14 <__aeabi_dcmplt>
    5264:	e3500000 	cmp	r0, #0
    5268:	0a00004a 	beq	5398 <_dtoa_r+0xe88>
    526c:	e1a08006 	mov	r8, r6
    5270:	e59dc09c 	ldr	r12, [sp, #156]	; 0x9c
    5274:	e1e0c00c 	mvn	r12, r12
    5278:	e58dc018 	str	r12, [sp, #24]
    527c:	e59d9020 	ldr	r9, [sp, #32]
    5280:	e3a05000 	mov	r5, #0
    5284:	eafffe9d 	b	4d00 <_dtoa_r+0x7f0>
    5288:	e3a0301c 	mov	r3, #28
    528c:	eafffe60 	b	4c14 <_dtoa_r+0x704>
    5290:	e59dc038 	ldr	r12, [sp, #56]	; 0x38
    5294:	e35c0000 	cmp	r12, #0
    5298:	1a0000ff 	bne	569c <_dtoa_r+0x118c>
    529c:	e3a05000 	mov	r5, #0
    52a0:	e59da028 	ldr	r10, [sp, #40]	; 0x28
    52a4:	e59d9030 	ldr	r9, [sp, #48]	; 0x30
    52a8:	e59db020 	ldr	r11, [sp, #32]
    52ac:	ea000005 	b	52c8 <_dtoa_r+0xdb8>
    52b0:	e1a01009 	mov	r1, r9
    52b4:	e1a00004 	mov	r0, r4
    52b8:	e3a0200a 	mov	r2, #10
    52bc:	e3a03000 	mov	r3, #0
    52c0:	eb000ae4 	bl	7e58 <__multadd>
    52c4:	e1a09000 	mov	r9, r0
    52c8:	e1a00009 	mov	r0, r9
    52cc:	e1a01006 	mov	r1, r6
    52d0:	ebfffc16 	bl	4330 <quorem>
    52d4:	e2800030 	add	r0, r0, #48	; 0x30
    52d8:	e7cb0005 	strb	r0, [r11, r5]
    52dc:	e2855001 	add	r5, r5, #1
    52e0:	e155000a 	cmp	r5, r10
    52e4:	bafffff1 	blt	52b0 <_dtoa_r+0xda0>
    52e8:	e59db020 	ldr	r11, [sp, #32]
    52ec:	e59dc028 	ldr	r12, [sp, #40]	; 0x28
    52f0:	e58d9030 	str	r9, [sp, #48]	; 0x30
    52f4:	e1a07000 	mov	r7, r0
    52f8:	e35c0001 	cmp	r12, #1
    52fc:	a08bb00c 	addge	r11, r11, r12
    5300:	b28bb001 	addlt	r11, r11, #1
    5304:	e3a05000 	mov	r5, #0
    5308:	e59d1030 	ldr	r1, [sp, #48]	; 0x30
    530c:	e3a02001 	mov	r2, #1
    5310:	e1a00004 	mov	r0, r4
    5314:	eb000c40 	bl	841c <__lshift>
    5318:	e1a01006 	mov	r1, r6
    531c:	e58d0030 	str	r0, [sp, #48]	; 0x30
    5320:	eb000c80 	bl	8528 <__mcmp>
    5324:	e3500000 	cmp	r0, #0
    5328:	da0001d2 	ble	5a78 <_dtoa_r+0x1568>
    532c:	e59dc020 	ldr	r12, [sp, #32]
    5330:	e28cc001 	add	r12, r12, #1
    5334:	e55b3001 	ldrb	r3, [r11, #-1]
    5338:	e58dc058 	str	r12, [sp, #88]	; 0x58
    533c:	e59d1058 	ldr	r1, [sp, #88]	; 0x58
    5340:	ea000003 	b	5354 <_dtoa_r+0xe44>
    5344:	e15b0001 	cmp	r11, r1
    5348:	0a000193 	beq	599c <_dtoa_r+0x148c>
    534c:	e55b3002 	ldrb	r3, [r11, #-2]
    5350:	e1a0b002 	mov	r11, r2
    5354:	e3530039 	cmp	r3, #57	; 0x39
    5358:	e24b2001 	sub	r2, r11, #1
    535c:	0afffff8 	beq	5344 <_dtoa_r+0xe34>
    5360:	e2833001 	add	r3, r3, #1
    5364:	e59d9020 	ldr	r9, [sp, #32]
    5368:	e5c23000 	strb	r3, [r2]
    536c:	e58db020 	str	r11, [sp, #32]
    5370:	eafffe62 	b	4d00 <_dtoa_r+0x7f0>
    5374:	e28db050 	add	r11, sp, #80	; 0x50
    5378:	e89b0c00 	ldm	r11, {r10, r11}
    537c:	e3a08002 	mov	r8, #2
    5380:	eafffee6 	b	4f20 <_dtoa_r+0xa10>
    5384:	e1a01005 	mov	r1, r5
    5388:	e1a00004 	mov	r0, r4
    538c:	eb000aaa 	bl	7e3c <_Bfree>
    5390:	eafffe62 	b	4d20 <_dtoa_r+0x810>
    5394:	e59d4064 	ldr	r4, [sp, #100]	; 0x64
    5398:	e28db050 	add	r11, sp, #80	; 0x50
    539c:	e89b0c00 	ldm	r11, {r10, r11}
    53a0:	eafffd33 	b	4874 <_dtoa_r+0x364>
    53a4:	e59dc018 	ldr	r12, [sp, #24]
    53a8:	e26c5000 	rsb	r5, r12, #0
    53ac:	e3550000 	cmp	r5, #0
    53b0:	0a00015c 	beq	5928 <_dtoa_r+0x1418>
    53b4:	e51f391c 	ldr	r3, [pc, #-2332]	; 4aa0 <_dtoa_r+0x590>
    53b8:	e205200f 	and	r2, r5, #15
    53bc:	e0833182 	add	r3, r3, r2, lsl #3
    53c0:	e893000c 	ldm	r3, {r2, r3}
    53c4:	e28d1050 	add	r1, sp, #80	; 0x50
    53c8:	e8910003 	ldm	r1, {r0, r1}
    53cc:	eb003130 	bl	11894 <__aeabi_dmul>
    53d0:	e1b05245 	asrs	r5, r5, #4
    53d4:	e1a06000 	mov	r6, r0
    53d8:	e1a07001 	mov	r7, r1
    53dc:	0a0001fd 	beq	5bd8 <_dtoa_r+0x16c8>
    53e0:	e51f994c 	ldr	r9, [pc, #-2380]	; 4a9c <_dtoa_r+0x58c>
    53e4:	e3a08002 	mov	r8, #2
    53e8:	e3150001 	tst	r5, #1
    53ec:	1899000c 	ldmne	r9, {r2, r3}
    53f0:	12888001 	addne	r8, r8, #1
    53f4:	1b003126 	blne	11894 <__aeabi_dmul>
    53f8:	e1b050c5 	asrs	r5, r5, #1
    53fc:	e2899008 	add	r9, r9, #8
    5400:	1afffff8 	bne	53e8 <_dtoa_r+0xed8>
    5404:	e1a06000 	mov	r6, r0
    5408:	e1a07001 	mov	r7, r1
    540c:	eafffed8 	b	4f74 <_dtoa_r+0xa64>
    5410:	e3a06000 	mov	r6, #0
    5414:	e1a08006 	mov	r8, r6
    5418:	eafffe2e 	b	4cd8 <_dtoa_r+0x7c8>
    541c:	e51f1984 	ldr	r1, [pc, #-2436]	; 4aa0 <_dtoa_r+0x590>
    5420:	e24ca001 	sub	r10, r12, #1
    5424:	e081118a 	add	r1, r1, r10, lsl #3
    5428:	e1a02008 	mov	r2, r8
    542c:	e1a03009 	mov	r3, r9
    5430:	e8910003 	ldm	r1, {r0, r1}
    5434:	e58dc00c 	str	r12, [sp, #12]
    5438:	eb003115 	bl	11894 <__aeabi_dmul>
    543c:	e58d0048 	str	r0, [sp, #72]	; 0x48
    5440:	e58d104c 	str	r1, [sp, #76]	; 0x4c
    5444:	e1a01007 	mov	r1, r7
    5448:	e1a00006 	mov	r0, r6
    544c:	eb003288 	bl	11e74 <__aeabi_d2iz>
    5450:	e1a05000 	mov	r5, r0
    5454:	eb0030d7 	bl	117b8 <__aeabi_i2d>
    5458:	e1a02000 	mov	r2, r0
    545c:	e1a03001 	mov	r3, r1
    5460:	e1a00006 	mov	r0, r6
    5464:	e1a01007 	mov	r1, r7
    5468:	eb003004 	bl	11480 <__aeabi_dsub>
    546c:	e59dc00c 	ldr	r12, [sp, #12]
    5470:	e1a07001 	mov	r7, r1
    5474:	e59d1020 	ldr	r1, [sp, #32]
    5478:	e59d2020 	ldr	r2, [sp, #32]
    547c:	e2855030 	add	r5, r5, #48	; 0x30
    5480:	e2811001 	add	r1, r1, #1
    5484:	e35c0001 	cmp	r12, #1
    5488:	e5c25000 	strb	r5, [r2]
    548c:	e1a06000 	mov	r6, r0
    5490:	e58d1058 	str	r1, [sp, #88]	; 0x58
    5494:	e1a05001 	mov	r5, r1
    5498:	0a00001a 	beq	5508 <_dtoa_r+0xff8>
    549c:	e59d3020 	ldr	r3, [sp, #32]
    54a0:	e2439001 	sub	r9, r3, #1
    54a4:	e089900c 	add	r9, r9, r12
    54a8:	e1a05003 	mov	r5, r3
    54ac:	e1a00006 	mov	r0, r6
    54b0:	e1a01007 	mov	r1, r7
    54b4:	e3a02000 	mov	r2, #0
    54b8:	e51f3a18 	ldr	r3, [pc, #-2584]	; 4aa8 <_dtoa_r+0x598>
    54bc:	eb0030f4 	bl	11894 <__aeabi_dmul>
    54c0:	e1a07001 	mov	r7, r1
    54c4:	e1a06000 	mov	r6, r0
    54c8:	eb003269 	bl	11e74 <__aeabi_d2iz>
    54cc:	e1a08000 	mov	r8, r0
    54d0:	eb0030b8 	bl	117b8 <__aeabi_i2d>
    54d4:	e2888030 	add	r8, r8, #48	; 0x30
    54d8:	e1a02000 	mov	r2, r0
    54dc:	e1a03001 	mov	r3, r1
    54e0:	e1a00006 	mov	r0, r6
    54e4:	e1a01007 	mov	r1, r7
    54e8:	eb002fe4 	bl	11480 <__aeabi_dsub>
    54ec:	e5e58001 	strb	r8, [r5, #1]!
    54f0:	e1550009 	cmp	r5, r9
    54f4:	1affffee 	bne	54b4 <_dtoa_r+0xfa4>
    54f8:	e59dc058 	ldr	r12, [sp, #88]	; 0x58
    54fc:	e1a06000 	mov	r6, r0
    5500:	e1a07001 	mov	r7, r1
    5504:	e08c500a 	add	r5, r12, r10
    5508:	e3a02000 	mov	r2, #0
    550c:	e51f3a64 	ldr	r3, [pc, #-2660]	; 4ab0 <_dtoa_r+0x5a0>
    5510:	e28d1048 	add	r1, sp, #72	; 0x48
    5514:	e8910003 	ldm	r1, {r0, r1}
    5518:	eb002fd9 	bl	11484 <__adddf3>
    551c:	e1a02006 	mov	r2, r6
    5520:	e1a03007 	mov	r3, r7
    5524:	eb00323a 	bl	11e14 <__aeabi_dcmplt>
    5528:	e3500000 	cmp	r0, #0
    552c:	0a000101 	beq	5938 <_dtoa_r+0x1428>
    5530:	e59d9020 	ldr	r9, [sp, #32]
    5534:	e5558001 	ldrb	r8, [r5, #-1]
    5538:	eafffd45 	b	4a54 <_dtoa_r+0x544>
    553c:	e5963010 	ldr	r3, [r6, #16]
    5540:	e0863103 	add	r3, r6, r3, lsl #2
    5544:	e5930010 	ldr	r0, [r3, #16]
    5548:	eb000ab3 	bl	801c <__hi0bits>
    554c:	e2600020 	rsb	r0, r0, #32
    5550:	eafffda7 	b	4bf4 <_dtoa_r+0x6e4>
    5554:	e59d0030 	ldr	r0, [sp, #48]	; 0x30
    5558:	e1a01006 	mov	r1, r6
    555c:	eb000bf1 	bl	8528 <__mcmp>
    5560:	e3500000 	cmp	r0, #0
    5564:	aafffdc4 	bge	4c7c <_dtoa_r+0x76c>
    5568:	e59d1030 	ldr	r1, [sp, #48]	; 0x30
    556c:	e1a00004 	mov	r0, r4
    5570:	e3a0200a 	mov	r2, #10
    5574:	e3a03000 	mov	r3, #0
    5578:	eb000a36 	bl	7e58 <__multadd>
    557c:	e59dc038 	ldr	r12, [sp, #56]	; 0x38
    5580:	e35c0000 	cmp	r12, #0
    5584:	e59dc018 	ldr	r12, [sp, #24]
    5588:	e24cc001 	sub	r12, r12, #1
    558c:	e58d0030 	str	r0, [sp, #48]	; 0x30
    5590:	e58dc018 	str	r12, [sp, #24]
    5594:	1a000030 	bne	565c <_dtoa_r+0x114c>
    5598:	e59dc03c 	ldr	r12, [sp, #60]	; 0x3c
    559c:	e59d1098 	ldr	r1, [sp, #152]	; 0x98
    55a0:	e35c0000 	cmp	r12, #0
    55a4:	c3a03000 	movgt	r3, #0
    55a8:	d3a03001 	movle	r3, #1
    55ac:	e3510002 	cmp	r1, #2
    55b0:	d3a03000 	movle	r3, #0
    55b4:	e3530000 	cmp	r3, #0
    55b8:	058dc028 	streq	r12, [sp, #40]	; 0x28
    55bc:	0affff36 	beq	529c <_dtoa_r+0xd8c>
    55c0:	e59dc03c 	ldr	r12, [sp, #60]	; 0x3c
    55c4:	e58dc028 	str	r12, [sp, #40]	; 0x28
    55c8:	eafffdb4 	b	4ca0 <_dtoa_r+0x790>
    55cc:	e59dc028 	ldr	r12, [sp, #40]	; 0x28
    55d0:	e35c0000 	cmp	r12, #0
    55d4:	1a000132 	bne	5aa4 <_dtoa_r+0x1594>
    55d8:	e3a02000 	mov	r2, #0
    55dc:	e51f3b40 	ldr	r3, [pc, #-2880]	; 4aa4 <_dtoa_r+0x594>
    55e0:	e28d1010 	add	r1, sp, #16
    55e4:	e8910003 	ldm	r1, {r0, r1}
    55e8:	eb0030a9 	bl	11894 <__aeabi_dmul>
    55ec:	e1a0200a 	mov	r2, r10
    55f0:	e1a0300b 	mov	r3, r11
    55f4:	eb003212 	bl	11e44 <__aeabi_dcmpge>
    55f8:	e59d6028 	ldr	r6, [sp, #40]	; 0x28
    55fc:	e3500000 	cmp	r0, #0
    5600:	e1a08006 	mov	r8, r6
    5604:	1affff19 	bne	5270 <_dtoa_r+0xd60>
    5608:	eafffdb2 	b	4cd8 <_dtoa_r+0x7c8>
    560c:	e35a0000 	cmp	r10, #0
    5610:	1afffd72 	bne	4be0 <_dtoa_r+0x6d0>
    5614:	e3cb34ff 	bic	r3, r11, #-16777216	; 0xff000000
    5618:	e3c3360f 	bic	r3, r3, #15728640	; 0xf00000
    561c:	e3530000 	cmp	r3, #0
    5620:	11a0700a 	movne	r7, r10
    5624:	1afffd6e 	bne	4be4 <_dtoa_r+0x6d4>
    5628:	e3cb7102 	bic	r7, r11, #-2147483648	; 0x80000000
    562c:	e1a07a27 	lsr	r7, r7, #20
    5630:	e1a07a07 	lsl	r7, r7, #20
    5634:	e3570000 	cmp	r7, #0
    5638:	0afffd69 	beq	4be4 <_dtoa_r+0x6d4>
    563c:	e59dc02c 	ldr	r12, [sp, #44]	; 0x2c
    5640:	e28cc001 	add	r12, r12, #1
    5644:	e58dc02c 	str	r12, [sp, #44]	; 0x2c
    5648:	e59dc024 	ldr	r12, [sp, #36]	; 0x24
    564c:	e28cc001 	add	r12, r12, #1
    5650:	e58dc024 	str	r12, [sp, #36]	; 0x24
    5654:	e3a07001 	mov	r7, #1
    5658:	eafffd61 	b	4be4 <_dtoa_r+0x6d4>
    565c:	e3a03000 	mov	r3, #0
    5660:	e1a01008 	mov	r1, r8
    5664:	e1a00004 	mov	r0, r4
    5668:	e3a0200a 	mov	r2, #10
    566c:	eb0009f9 	bl	7e58 <__multadd>
    5670:	e59dc03c 	ldr	r12, [sp, #60]	; 0x3c
    5674:	e59d1098 	ldr	r1, [sp, #152]	; 0x98
    5678:	e35c0000 	cmp	r12, #0
    567c:	c3a03000 	movgt	r3, #0
    5680:	d3a03001 	movle	r3, #1
    5684:	e3510002 	cmp	r1, #2
    5688:	d3a03000 	movle	r3, #0
    568c:	e3530000 	cmp	r3, #0
    5690:	e1a08000 	mov	r8, r0
    5694:	058dc028 	streq	r12, [sp, #40]	; 0x28
    5698:	1affffc8 	bne	55c0 <_dtoa_r+0x10b0>
    569c:	e3550000 	cmp	r5, #0
    56a0:	da000004 	ble	56b8 <_dtoa_r+0x11a8>
    56a4:	e1a01008 	mov	r1, r8
    56a8:	e1a02005 	mov	r2, r5
    56ac:	e1a00004 	mov	r0, r4
    56b0:	eb000b59 	bl	841c <__lshift>
    56b4:	e1a08000 	mov	r8, r0
    56b8:	e3570000 	cmp	r7, #0
    56bc:	01a0c008 	moveq	r12, r8
    56c0:	1a0000f9 	bne	5aac <_dtoa_r+0x159c>
    56c4:	e59d1020 	ldr	r1, [sp, #32]
    56c8:	e59d3028 	ldr	r3, [sp, #40]	; 0x28
    56cc:	e59d2020 	ldr	r2, [sp, #32]
    56d0:	e2811001 	add	r1, r1, #1
    56d4:	e58d1058 	str	r1, [sp, #88]	; 0x58
    56d8:	e0822003 	add	r2, r2, r3
    56dc:	e20a1001 	and	r1, r10, #1
    56e0:	e1a07006 	mov	r7, r6
    56e4:	e58d202c 	str	r2, [sp, #44]	; 0x2c
    56e8:	e58d1028 	str	r1, [sp, #40]	; 0x28
    56ec:	e59d5058 	ldr	r5, [sp, #88]	; 0x58
    56f0:	e1a0900c 	mov	r9, r12
    56f4:	e59d6030 	ldr	r6, [sp, #48]	; 0x30
    56f8:	ea000008 	b	5720 <_dtoa_r+0x1210>
    56fc:	eb0009d5 	bl	7e58 <__multadd>
    5700:	e1a01009 	mov	r1, r9
    5704:	e1a08000 	mov	r8, r0
    5708:	e3a0200a 	mov	r2, #10
    570c:	e1a00004 	mov	r0, r4
    5710:	e3a03000 	mov	r3, #0
    5714:	eb0009cf 	bl	7e58 <__multadd>
    5718:	e1a09000 	mov	r9, r0
    571c:	e2855001 	add	r5, r5, #1
    5720:	e1a01007 	mov	r1, r7
    5724:	e1a00006 	mov	r0, r6
    5728:	ebfffb00 	bl	4330 <quorem>
    572c:	e1a01008 	mov	r1, r8
    5730:	e1a0a000 	mov	r10, r0
    5734:	e1a00006 	mov	r0, r6
    5738:	eb000b7a 	bl	8528 <__mcmp>
    573c:	e1a02009 	mov	r2, r9
    5740:	e1a0b000 	mov	r11, r0
    5744:	e1a01007 	mov	r1, r7
    5748:	e1a00004 	mov	r0, r4
    574c:	eb000b8d 	bl	8588 <__mdiff>
    5750:	e590200c 	ldr	r2, [r0, #12]
    5754:	e245c001 	sub	r12, r5, #1
    5758:	e3520000 	cmp	r2, #0
    575c:	e28a2030 	add	r2, r10, #48	; 0x30
    5760:	e1a03000 	mov	r3, r0
    5764:	e58d201c 	str	r2, [sp, #28]
    5768:	e58dc024 	str	r12, [sp, #36]	; 0x24
    576c:	1a000030 	bne	5834 <_dtoa_r+0x1324>
    5770:	e1a01003 	mov	r1, r3
    5774:	e1a00006 	mov	r0, r6
    5778:	e58d300c 	str	r3, [sp, #12]
    577c:	eb000b69 	bl	8528 <__mcmp>
    5780:	e59d300c 	ldr	r3, [sp, #12]
    5784:	e1a02000 	mov	r2, r0
    5788:	e1a01003 	mov	r1, r3
    578c:	e1a00004 	mov	r0, r4
    5790:	e58d200c 	str	r2, [sp, #12]
    5794:	eb0009a8 	bl	7e3c <_Bfree>
    5798:	e59d200c 	ldr	r2, [sp, #12]
    579c:	e59dc098 	ldr	r12, [sp, #152]	; 0x98
    57a0:	e192c00c 	orrs	r12, r2, r12
    57a4:	1a000002 	bne	57b4 <_dtoa_r+0x12a4>
    57a8:	e59dc028 	ldr	r12, [sp, #40]	; 0x28
    57ac:	e35c0000 	cmp	r12, #0
    57b0:	0a0000f7 	beq	5b94 <_dtoa_r+0x1684>
    57b4:	e35b0000 	cmp	r11, #0
    57b8:	ba000092 	blt	5a08 <_dtoa_r+0x14f8>
    57bc:	e59dc098 	ldr	r12, [sp, #152]	; 0x98
    57c0:	e19bc00c 	orrs	r12, r11, r12
    57c4:	1a000002 	bne	57d4 <_dtoa_r+0x12c4>
    57c8:	e59dc028 	ldr	r12, [sp, #40]	; 0x28
    57cc:	e35c0000 	cmp	r12, #0
    57d0:	0a00008c 	beq	5a08 <_dtoa_r+0x14f8>
    57d4:	e3520000 	cmp	r2, #0
    57d8:	ca0000d1 	bgt	5b24 <_dtoa_r+0x1614>
    57dc:	e59dc02c 	ldr	r12, [sp, #44]	; 0x2c
    57e0:	e59d201c 	ldr	r2, [sp, #28]
    57e4:	e155000c 	cmp	r5, r12
    57e8:	e5452001 	strb	r2, [r5, #-1]
    57ec:	e1a0b005 	mov	r11, r5
    57f0:	0a0000da 	beq	5b60 <_dtoa_r+0x1650>
    57f4:	e1a01006 	mov	r1, r6
    57f8:	e3a0200a 	mov	r2, #10
    57fc:	e3a03000 	mov	r3, #0
    5800:	e1a00004 	mov	r0, r4
    5804:	eb000993 	bl	7e58 <__multadd>
    5808:	e1580009 	cmp	r8, r9
    580c:	e1a06000 	mov	r6, r0
    5810:	e1a01008 	mov	r1, r8
    5814:	e1a00004 	mov	r0, r4
    5818:	e3a0200a 	mov	r2, #10
    581c:	e3a03000 	mov	r3, #0
    5820:	1affffb5 	bne	56fc <_dtoa_r+0x11ec>
    5824:	eb00098b 	bl	7e58 <__multadd>
    5828:	e1a08000 	mov	r8, r0
    582c:	e1a09000 	mov	r9, r0
    5830:	eaffffb9 	b	571c <_dtoa_r+0x120c>
    5834:	e3a02001 	mov	r2, #1
    5838:	eaffffd2 	b	5788 <_dtoa_r+0x1278>
    583c:	e3a0c001 	mov	r12, #1
    5840:	e58dc038 	str	r12, [sp, #56]	; 0x38
    5844:	eafffe59 	b	51b0 <_dtoa_r+0xca0>
    5848:	e3a03001 	mov	r3, #1
    584c:	e58d309c 	str	r3, [sp, #156]	; 0x9c
    5850:	e58d303c 	str	r3, [sp, #60]	; 0x3c
    5854:	e58d3028 	str	r3, [sp, #40]	; 0x28
    5858:	e3a01000 	mov	r1, #0
    585c:	e0035005 	and	r5, r3, r5
    5860:	e5841044 	str	r1, [r4, #68]	; 0x44
    5864:	eafffd91 	b	4eb0 <_dtoa_r+0x9a0>
    5868:	e35c000e 	cmp	r12, #14
    586c:	83a03000 	movhi	r3, #0
    5870:	93a03001 	movls	r3, #1
    5874:	eafffff7 	b	5858 <_dtoa_r+0x1348>
    5878:	e28d1030 	add	r1, sp, #48	; 0x30
    587c:	e8910006 	ldm	r1, {r1, r2}
    5880:	e1a00004 	mov	r0, r4
    5884:	eb000aa3 	bl	8318 <__pow5mult>
    5888:	e58d0030 	str	r0, [sp, #48]	; 0x30
    588c:	eafffcc4 	b	4ba4 <_dtoa_r+0x694>
    5890:	e59dc028 	ldr	r12, [sp, #40]	; 0x28
    5894:	e35c0000 	cmp	r12, #0
    5898:	0afffe54 	beq	51f0 <_dtoa_r+0xce0>
    589c:	e59dc03c 	ldr	r12, [sp, #60]	; 0x3c
    58a0:	e35c0000 	cmp	r12, #0
    58a4:	dafffebb 	ble	5398 <_dtoa_r+0xe88>
    58a8:	e3a02000 	mov	r2, #0
    58ac:	e51f3e0c 	ldr	r3, [pc, #-3596]	; 4aa8 <_dtoa_r+0x598>
    58b0:	e1a00006 	mov	r0, r6
    58b4:	e1a01007 	mov	r1, r7
    58b8:	eb002ff5 	bl	11894 <__aeabi_dmul>
    58bc:	e1a06000 	mov	r6, r0
    58c0:	e2880001 	add	r0, r8, #1
    58c4:	e1a07001 	mov	r7, r1
    58c8:	eb002fba 	bl	117b8 <__aeabi_i2d>
    58cc:	e1a02000 	mov	r2, r0
    58d0:	e1a03001 	mov	r3, r1
    58d4:	e1a00006 	mov	r0, r6
    58d8:	e1a01007 	mov	r1, r7
    58dc:	eb002fec 	bl	11894 <__aeabi_dmul>
    58e0:	e3a02000 	mov	r2, #0
    58e4:	e51f3e40 	ldr	r3, [pc, #-3648]	; 4aac <_dtoa_r+0x59c>
    58e8:	eb002ee5 	bl	11484 <__adddf3>
    58ec:	e59dc018 	ldr	r12, [sp, #24]
    58f0:	e24cc001 	sub	r12, r12, #1
    58f4:	e58dc060 	str	r12, [sp, #96]	; 0x60
    58f8:	e1a08000 	mov	r8, r0
    58fc:	e241950d 	sub	r9, r1, #54525952	; 0x3400000
    5900:	e59dc03c 	ldr	r12, [sp, #60]	; 0x3c
    5904:	eafffdb4 	b	4fdc <_dtoa_r+0xacc>
    5908:	e59dc060 	ldr	r12, [sp, #96]	; 0x60
    590c:	e58d2020 	str	r2, [sp, #32]
    5910:	e28cc001 	add	r12, r12, #1
    5914:	e3a02030 	mov	r2, #48	; 0x30
    5918:	e5c32000 	strb	r2, [r3]
    591c:	e58dc018 	str	r12, [sp, #24]
    5920:	e3a02031 	mov	r2, #49	; 0x31
    5924:	eafffc6f 	b	4ae8 <_dtoa_r+0x5d8>
    5928:	e28d7050 	add	r7, sp, #80	; 0x50
    592c:	e89700c0 	ldm	r7, {r6, r7}
    5930:	e3a08002 	mov	r8, #2
    5934:	eafffd8e 	b	4f74 <_dtoa_r+0xa64>
    5938:	e28d3048 	add	r3, sp, #72	; 0x48
    593c:	e893000c 	ldm	r3, {r2, r3}
    5940:	e3a00000 	mov	r0, #0
    5944:	e51f1e9c 	ldr	r1, [pc, #-3740]	; 4ab0 <_dtoa_r+0x5a0>
    5948:	eb002ecc 	bl	11480 <__aeabi_dsub>
    594c:	e1a02006 	mov	r2, r6
    5950:	e1a03007 	mov	r3, r7
    5954:	eb003140 	bl	11e5c <__aeabi_dcmpgt>
    5958:	e3500000 	cmp	r0, #0
    595c:	0afffe8d 	beq	5398 <_dtoa_r+0xe88>
    5960:	e5552001 	ldrb	r2, [r5, #-1]
    5964:	e3520030 	cmp	r2, #48	; 0x30
    5968:	e1a03005 	mov	r3, r5
    596c:	e2455001 	sub	r5, r5, #1
    5970:	0afffffa 	beq	5960 <_dtoa_r+0x1450>
    5974:	e59dc060 	ldr	r12, [sp, #96]	; 0x60
    5978:	e59d9020 	ldr	r9, [sp, #32]
    597c:	e58dc018 	str	r12, [sp, #24]
    5980:	e58d3020 	str	r3, [sp, #32]
    5984:	eafffce8 	b	4d2c <_dtoa_r+0x81c>
    5988:	e59d1030 	ldr	r1, [sp, #48]	; 0x30
    598c:	e1a00004 	mov	r0, r4
    5990:	eb000a60 	bl	8318 <__pow5mult>
    5994:	e58d0030 	str	r0, [sp, #48]	; 0x30
    5998:	eafffc81 	b	4ba4 <_dtoa_r+0x694>
    599c:	e59dc018 	ldr	r12, [sp, #24]
    59a0:	e3a03031 	mov	r3, #49	; 0x31
    59a4:	e28cc001 	add	r12, r12, #1
    59a8:	e59d9020 	ldr	r9, [sp, #32]
    59ac:	e58dc018 	str	r12, [sp, #24]
    59b0:	e58db020 	str	r11, [sp, #32]
    59b4:	e5c23000 	strb	r3, [r2]
    59b8:	eafffcd0 	b	4d00 <_dtoa_r+0x7f0>
    59bc:	e59dc05c 	ldr	r12, [sp, #92]	; 0x5c
    59c0:	e35c0000 	cmp	r12, #0
    59c4:	059d3068 	ldreq	r3, [sp, #104]	; 0x68
    59c8:	12833e43 	addne	r3, r3, #1072	; 0x430
    59cc:	12833003 	addne	r3, r3, #3
    59d0:	159d6034 	ldrne	r6, [sp, #52]	; 0x34
    59d4:	059d6034 	ldreq	r6, [sp, #52]	; 0x34
    59d8:	02633036 	rsbeq	r3, r3, #54	; 0x36
    59dc:	e59d502c 	ldr	r5, [sp, #44]	; 0x2c
    59e0:	eafffd0f 	b	4e24 <_dtoa_r+0x914>
    59e4:	e59d401c 	ldr	r4, [sp, #28]
    59e8:	e1a0500b 	mov	r5, r11
    59ec:	e59d9020 	ldr	r9, [sp, #32]
    59f0:	e58d5020 	str	r5, [sp, #32]
    59f4:	eafffccc 	b	4d2c <_dtoa_r+0x81c>
    59f8:	e59d4064 	ldr	r4, [sp, #100]	; 0x64
    59fc:	e1a05009 	mov	r5, r9
    5a00:	e59d9020 	ldr	r9, [sp, #32]
    5a04:	eafffc12 	b	4a54 <_dtoa_r+0x544>
    5a08:	e3520000 	cmp	r2, #0
    5a0c:	e58d6030 	str	r6, [sp, #48]	; 0x30
    5a10:	e1a0c009 	mov	r12, r9
    5a14:	e1a06007 	mov	r6, r7
    5a18:	e59d701c 	ldr	r7, [sp, #28]
    5a1c:	da00000d 	ble	5a58 <_dtoa_r+0x1548>
    5a20:	e59d1030 	ldr	r1, [sp, #48]	; 0x30
    5a24:	e3a02001 	mov	r2, #1
    5a28:	e1a00004 	mov	r0, r4
    5a2c:	e58d900c 	str	r9, [sp, #12]
    5a30:	eb000a79 	bl	841c <__lshift>
    5a34:	e1a01006 	mov	r1, r6
    5a38:	e58d0030 	str	r0, [sp, #48]	; 0x30
    5a3c:	eb000ab9 	bl	8528 <__mcmp>
    5a40:	e3500000 	cmp	r0, #0
    5a44:	e59dc00c 	ldr	r12, [sp, #12]
    5a48:	da00005a 	ble	5bb8 <_dtoa_r+0x16a8>
    5a4c:	e3570039 	cmp	r7, #57	; 0x39
    5a50:	0a000048 	beq	5b78 <_dtoa_r+0x1668>
    5a54:	e28a7031 	add	r7, r10, #49	; 0x31
    5a58:	e59d3024 	ldr	r3, [sp, #36]	; 0x24
    5a5c:	e2831001 	add	r1, r3, #1
    5a60:	e59d9020 	ldr	r9, [sp, #32]
    5a64:	e1a05008 	mov	r5, r8
    5a68:	e5c37000 	strb	r7, [r3]
    5a6c:	e1a0800c 	mov	r8, r12
    5a70:	e58d1020 	str	r1, [sp, #32]
    5a74:	eafffca1 	b	4d00 <_dtoa_r+0x7f0>
    5a78:	1a000001 	bne	5a84 <_dtoa_r+0x1574>
    5a7c:	e3170001 	tst	r7, #1
    5a80:	1afffe29 	bne	532c <_dtoa_r+0xe1c>
    5a84:	e55b2001 	ldrb	r2, [r11, #-1]
    5a88:	e3520030 	cmp	r2, #48	; 0x30
    5a8c:	e1a0300b 	mov	r3, r11
    5a90:	e24bb001 	sub	r11, r11, #1
    5a94:	0afffffa 	beq	5a84 <_dtoa_r+0x1574>
    5a98:	e59d9020 	ldr	r9, [sp, #32]
    5a9c:	e58d3020 	str	r3, [sp, #32]
    5aa0:	eafffc96 	b	4d00 <_dtoa_r+0x7f0>
    5aa4:	e3a06000 	mov	r6, #0
    5aa8:	eafffdef 	b	526c <_dtoa_r+0xd5c>
    5aac:	e5981004 	ldr	r1, [r8, #4]
    5ab0:	e1a00004 	mov	r0, r4
    5ab4:	eb0008bd 	bl	7db0 <_Balloc>
    5ab8:	e5982010 	ldr	r2, [r8, #16]
    5abc:	e2822002 	add	r2, r2, #2
    5ac0:	e1a05000 	mov	r5, r0
    5ac4:	e1a02102 	lsl	r2, r2, #2
    5ac8:	e288100c 	add	r1, r8, #12
    5acc:	e280000c 	add	r0, r0, #12
    5ad0:	eb0007ee 	bl	7a90 <memcpy>
    5ad4:	e1a00004 	mov	r0, r4
    5ad8:	e1a01005 	mov	r1, r5
    5adc:	e3a02001 	mov	r2, #1
    5ae0:	eb000a4d 	bl	841c <__lshift>
    5ae4:	e1a0c000 	mov	r12, r0
    5ae8:	eafffef5 	b	56c4 <_dtoa_r+0x11b4>
    5aec:	e28d1010 	add	r1, sp, #16
    5af0:	e8910003 	ldm	r1, {r0, r1}
    5af4:	e1a02006 	mov	r2, r6
    5af8:	e1a03007 	mov	r3, r7
    5afc:	eb0030be 	bl	11dfc <__aeabi_dcmpeq>
    5b00:	e3500000 	cmp	r0, #0
    5b04:	0affffb8 	beq	59ec <_dtoa_r+0x14dc>
    5b08:	e3180001 	tst	r8, #1
    5b0c:	e59d9020 	ldr	r9, [sp, #32]
    5b10:	0affffb6 	beq	59f0 <_dtoa_r+0x14e0>
    5b14:	e59dc018 	ldr	r12, [sp, #24]
    5b18:	e58dc060 	str	r12, [sp, #96]	; 0x60
    5b1c:	e5558001 	ldrb	r8, [r5, #-1]
    5b20:	eafffbcb 	b	4a54 <_dtoa_r+0x544>
    5b24:	e58d6030 	str	r6, [sp, #48]	; 0x30
    5b28:	e1a06007 	mov	r6, r7
    5b2c:	e59d701c 	ldr	r7, [sp, #28]
    5b30:	e3570039 	cmp	r7, #57	; 0x39
    5b34:	e1a0c009 	mov	r12, r9
    5b38:	0a00000e 	beq	5b78 <_dtoa_r+0x1668>
    5b3c:	e59d3024 	ldr	r3, [sp, #36]	; 0x24
    5b40:	e2877001 	add	r7, r7, #1
    5b44:	e2831001 	add	r1, r3, #1
    5b48:	e59d9020 	ldr	r9, [sp, #32]
    5b4c:	e1a05008 	mov	r5, r8
    5b50:	e5c37000 	strb	r7, [r3]
    5b54:	e58d1020 	str	r1, [sp, #32]
    5b58:	e1a0800c 	mov	r8, r12
    5b5c:	eafffc67 	b	4d00 <_dtoa_r+0x7f0>
    5b60:	e58d6030 	str	r6, [sp, #48]	; 0x30
    5b64:	e1a05008 	mov	r5, r8
    5b68:	e1a06007 	mov	r6, r7
    5b6c:	e1a08009 	mov	r8, r9
    5b70:	e59d701c 	ldr	r7, [sp, #28]
    5b74:	eafffde3 	b	5308 <_dtoa_r+0xdf8>
    5b78:	e59d2024 	ldr	r2, [sp, #36]	; 0x24
    5b7c:	e3a03039 	mov	r3, #57	; 0x39
    5b80:	e1a05008 	mov	r5, r8
    5b84:	e5c23000 	strb	r3, [r2]
    5b88:	e1a0800c 	mov	r8, r12
    5b8c:	e282b001 	add	r11, r2, #1
    5b90:	eafffde9 	b	533c <_dtoa_r+0xe2c>
    5b94:	e58d6030 	str	r6, [sp, #48]	; 0x30
    5b98:	e1a06007 	mov	r6, r7
    5b9c:	e59d701c 	ldr	r7, [sp, #28]
    5ba0:	e3570039 	cmp	r7, #57	; 0x39
    5ba4:	e1a0c009 	mov	r12, r9
    5ba8:	0afffff2 	beq	5b78 <_dtoa_r+0x1668>
    5bac:	e35b0000 	cmp	r11, #0
    5bb0:	caffffa7 	bgt	5a54 <_dtoa_r+0x1544>
    5bb4:	eaffffa7 	b	5a58 <_dtoa_r+0x1548>
    5bb8:	1affffa6 	bne	5a58 <_dtoa_r+0x1548>
    5bbc:	e3170001 	tst	r7, #1
    5bc0:	0affffa4 	beq	5a58 <_dtoa_r+0x1548>
    5bc4:	eaffffa0 	b	5a4c <_dtoa_r+0x153c>
    5bc8:	e59dc058 	ldr	r12, [sp, #88]	; 0x58
    5bcc:	e59d9020 	ldr	r9, [sp, #32]
    5bd0:	e58dc020 	str	r12, [sp, #32]
    5bd4:	eafffc54 	b	4d2c <_dtoa_r+0x81c>
    5bd8:	e3a08002 	mov	r8, #2
    5bdc:	eafffce4 	b	4f74 <_dtoa_r+0xa64>
    5be0:	e59dc060 	ldr	r12, [sp, #96]	; 0x60
    5be4:	e58dc018 	str	r12, [sp, #24]
    5be8:	e59dc058 	ldr	r12, [sp, #88]	; 0x58
    5bec:	e59d9020 	ldr	r9, [sp, #32]
    5bf0:	e58dc020 	str	r12, [sp, #32]
    5bf4:	eafffc4c 	b	4d2c <_dtoa_r+0x81c>
    5bf8:	1263303c 	rsbne	r3, r3, #60	; 0x3c
    5bfc:	0afffc0b 	beq	4c30 <_dtoa_r+0x720>
    5c00:	eafffc03 	b	4c14 <_dtoa_r+0x704>
    5c04:	e1a00000 	nop			; (mov r0, r0)

00005c08 <__sflush_r>:
    5c08:	e92d40f8 	push	{r3, r4, r5, r6, r7, lr}
    5c0c:	e1d130bc 	ldrh	r3, [r1, #12]
    5c10:	e3130008 	tst	r3, #8
    5c14:	e1a05001 	mov	r5, r1
    5c18:	e1a07000 	mov	r7, r0
    5c1c:	1a000030 	bne	5ce4 <__sflush_r+0xdc>
    5c20:	e5912004 	ldr	r2, [r1, #4]
    5c24:	e3833b02 	orr	r3, r3, #2048	; 0x800
    5c28:	e3520000 	cmp	r2, #0
    5c2c:	e1c130bc 	strh	r3, [r1, #12]
    5c30:	da00004b 	ble	5d64 <__sflush_r+0x15c>
    5c34:	e595c028 	ldr	r12, [r5, #40]	; 0x28
    5c38:	e35c0000 	cmp	r12, #0
    5c3c:	0a00004b 	beq	5d70 <__sflush_r+0x168>
    5c40:	e3a01000 	mov	r1, #0
    5c44:	e2136a01 	ands	r6, r3, #4096	; 0x1000
    5c48:	e5974000 	ldr	r4, [r7]
    5c4c:	e5871000 	str	r1, [r7]
    5c50:	0a000049 	beq	5d7c <__sflush_r+0x174>
    5c54:	e5952050 	ldr	r2, [r5, #80]	; 0x50
    5c58:	e3130004 	tst	r3, #4
    5c5c:	0a000005 	beq	5c78 <__sflush_r+0x70>
    5c60:	e5951030 	ldr	r1, [r5, #48]	; 0x30
    5c64:	e5953004 	ldr	r3, [r5, #4]
    5c68:	e3510000 	cmp	r1, #0
    5c6c:	e0632002 	rsb	r2, r3, r2
    5c70:	1595303c 	ldrne	r3, [r5, #60]	; 0x3c
    5c74:	10632002 	rsbne	r2, r3, r2
    5c78:	e1a00007 	mov	r0, r7
    5c7c:	e595101c 	ldr	r1, [r5, #28]
    5c80:	e3a03000 	mov	r3, #0
    5c84:	e1a0e00f 	mov	lr, pc
    5c88:	e12fff1c 	bx	r12
    5c8c:	e3700001 	cmn	r0, #1
    5c90:	0a000045 	beq	5dac <__sflush_r+0x1a4>
    5c94:	e1d530bc 	ldrh	r3, [r5, #12]
    5c98:	e5951010 	ldr	r1, [r5, #16]
    5c9c:	e3c33b02 	bic	r3, r3, #2048	; 0x800
    5ca0:	e3a02000 	mov	r2, #0
    5ca4:	e3130a01 	tst	r3, #4096	; 0x1000
    5ca8:	e1c530bc 	strh	r3, [r5, #12]
    5cac:	e8850006 	stm	r5, {r1, r2}
    5cb0:	1a000048 	bne	5dd8 <__sflush_r+0x1d0>
    5cb4:	e5951030 	ldr	r1, [r5, #48]	; 0x30
    5cb8:	e3510000 	cmp	r1, #0
    5cbc:	e5874000 	str	r4, [r7]
    5cc0:	0a00002a 	beq	5d70 <__sflush_r+0x168>
    5cc4:	e2853040 	add	r3, r5, #64	; 0x40
    5cc8:	e1510003 	cmp	r1, r3
    5ccc:	11a00007 	movne	r0, r7
    5cd0:	1b00023b 	blne	65c4 <_free_r>
    5cd4:	e3a00000 	mov	r0, #0
    5cd8:	e5850030 	str	r0, [r5, #48]	; 0x30
    5cdc:	e8bd40f8 	pop	{r3, r4, r5, r6, r7, lr}
    5ce0:	e12fff1e 	bx	lr
    5ce4:	e5916010 	ldr	r6, [r1, #16]
    5ce8:	e3560000 	cmp	r6, #0
    5cec:	0a00001f 	beq	5d70 <__sflush_r+0x168>
    5cf0:	e5914000 	ldr	r4, [r1]
    5cf4:	e3130003 	tst	r3, #3
    5cf8:	05913014 	ldreq	r3, [r1, #20]
    5cfc:	e0664004 	rsb	r4, r6, r4
    5d00:	13a03000 	movne	r3, #0
    5d04:	e3540000 	cmp	r4, #0
    5d08:	e5816000 	str	r6, [r1]
    5d0c:	e5813008 	str	r3, [r1, #8]
    5d10:	ca000003 	bgt	5d24 <__sflush_r+0x11c>
    5d14:	ea000015 	b	5d70 <__sflush_r+0x168>
    5d18:	e3540000 	cmp	r4, #0
    5d1c:	e0866000 	add	r6, r6, r0
    5d20:	da000012 	ble	5d70 <__sflush_r+0x168>
    5d24:	e1a03004 	mov	r3, r4
    5d28:	e1a00007 	mov	r0, r7
    5d2c:	e595101c 	ldr	r1, [r5, #28]
    5d30:	e1a02006 	mov	r2, r6
    5d34:	e595c024 	ldr	r12, [r5, #36]	; 0x24
    5d38:	e1a0e00f 	mov	lr, pc
    5d3c:	e12fff1c 	bx	r12
    5d40:	e3500000 	cmp	r0, #0
    5d44:	e0604004 	rsb	r4, r0, r4
    5d48:	cafffff2 	bgt	5d18 <__sflush_r+0x110>
    5d4c:	e1d530bc 	ldrh	r3, [r5, #12]
    5d50:	e3833040 	orr	r3, r3, #64	; 0x40
    5d54:	e1c530bc 	strh	r3, [r5, #12]
    5d58:	e3e00000 	mvn	r0, #0
    5d5c:	e8bd40f8 	pop	{r3, r4, r5, r6, r7, lr}
    5d60:	e12fff1e 	bx	lr
    5d64:	e591203c 	ldr	r2, [r1, #60]	; 0x3c
    5d68:	e3520000 	cmp	r2, #0
    5d6c:	caffffb0 	bgt	5c34 <__sflush_r+0x2c>
    5d70:	e3a00000 	mov	r0, #0
    5d74:	e8bd40f8 	pop	{r3, r4, r5, r6, r7, lr}
    5d78:	e12fff1e 	bx	lr
    5d7c:	e1a02006 	mov	r2, r6
    5d80:	e1a00007 	mov	r0, r7
    5d84:	e595101c 	ldr	r1, [r5, #28]
    5d88:	e3a03001 	mov	r3, #1
    5d8c:	e1a0e00f 	mov	lr, pc
    5d90:	e12fff1c 	bx	r12
    5d94:	e3700001 	cmn	r0, #1
    5d98:	e1a02000 	mov	r2, r0
    5d9c:	0a00001a 	beq	5e0c <__sflush_r+0x204>
    5da0:	e1d530bc 	ldrh	r3, [r5, #12]
    5da4:	e595c028 	ldr	r12, [r5, #40]	; 0x28
    5da8:	eaffffaa 	b	5c58 <__sflush_r+0x50>
    5dac:	e5973000 	ldr	r3, [r7]
    5db0:	e3530000 	cmp	r3, #0
    5db4:	1a000009 	bne	5de0 <__sflush_r+0x1d8>
    5db8:	e1d520bc 	ldrh	r2, [r5, #12]
    5dbc:	e5951010 	ldr	r1, [r5, #16]
    5dc0:	e3c22b02 	bic	r2, r2, #2048	; 0x800
    5dc4:	e3120a01 	tst	r2, #4096	; 0x1000
    5dc8:	e5853004 	str	r3, [r5, #4]
    5dcc:	e1c520bc 	strh	r2, [r5, #12]
    5dd0:	e5851000 	str	r1, [r5]
    5dd4:	0affffb6 	beq	5cb4 <__sflush_r+0xac>
    5dd8:	e5850050 	str	r0, [r5, #80]	; 0x50
    5ddc:	eaffffb4 	b	5cb4 <__sflush_r+0xac>
    5de0:	e353001d 	cmp	r3, #29
    5de4:	0a000001 	beq	5df0 <__sflush_r+0x1e8>
    5de8:	e3530016 	cmp	r3, #22
    5dec:	1a000012 	bne	5e3c <__sflush_r+0x234>
    5df0:	e1d510bc 	ldrh	r1, [r5, #12]
    5df4:	e5952010 	ldr	r2, [r5, #16]
    5df8:	e3c11b02 	bic	r1, r1, #2048	; 0x800
    5dfc:	e3a03000 	mov	r3, #0
    5e00:	e1c510bc 	strh	r1, [r5, #12]
    5e04:	e885000c 	stm	r5, {r2, r3}
    5e08:	eaffffa9 	b	5cb4 <__sflush_r+0xac>
    5e0c:	e5973000 	ldr	r3, [r7]
    5e10:	e3530000 	cmp	r3, #0
    5e14:	0affffe1 	beq	5da0 <__sflush_r+0x198>
    5e18:	e353001d 	cmp	r3, #29
    5e1c:	13530016 	cmpne	r3, #22
    5e20:	11d530bc 	ldrhne	r3, [r5, #12]
    5e24:	13833040 	orrne	r3, r3, #64	; 0x40
    5e28:	05874000 	streq	r4, [r7]
    5e2c:	01a00006 	moveq	r0, r6
    5e30:	11a00002 	movne	r0, r2
    5e34:	11c530bc 	strhne	r3, [r5, #12]
    5e38:	eaffffc7 	b	5d5c <__sflush_r+0x154>
    5e3c:	e1d530bc 	ldrh	r3, [r5, #12]
    5e40:	e3833040 	orr	r3, r3, #64	; 0x40
    5e44:	e1c530bc 	strh	r3, [r5, #12]
    5e48:	eaffffc3 	b	5d5c <__sflush_r+0x154>

00005e4c <_fflush_r>:
    5e4c:	e92d4010 	push	{r4, lr}
    5e50:	e2504000 	subs	r4, r0, #0
    5e54:	e24dd008 	sub	sp, sp, #8
    5e58:	0a000002 	beq	5e68 <_fflush_r+0x1c>
    5e5c:	e5943038 	ldr	r3, [r4, #56]	; 0x38
    5e60:	e3530000 	cmp	r3, #0
    5e64:	0a000009 	beq	5e90 <_fflush_r+0x44>
    5e68:	e1d100fc 	ldrsh	r0, [r1, #12]
    5e6c:	e3500000 	cmp	r0, #0
    5e70:	1a000002 	bne	5e80 <_fflush_r+0x34>
    5e74:	e28dd008 	add	sp, sp, #8
    5e78:	e8bd4010 	pop	{r4, lr}
    5e7c:	e12fff1e 	bx	lr
    5e80:	e1a00004 	mov	r0, r4
    5e84:	e28dd008 	add	sp, sp, #8
    5e88:	e8bd4010 	pop	{r4, lr}
    5e8c:	eaffff5d 	b	5c08 <__sflush_r>
    5e90:	e58d1004 	str	r1, [sp, #4]
    5e94:	eb000037 	bl	5f78 <__sinit>
    5e98:	e59d1004 	ldr	r1, [sp, #4]
    5e9c:	eafffff1 	b	5e68 <_fflush_r+0x1c>

00005ea0 <fflush>:
    5ea0:	e2501000 	subs	r1, r0, #0
    5ea4:	e92d4008 	push	{r3, lr}
    5ea8:	159f3020 	ldrne	r3, [pc, #32]	; 5ed0 <fflush+0x30>
    5eac:	15930000 	ldrne	r0, [r3]
    5eb0:	18bd4008 	popne	{r3, lr}
    5eb4:	1affffe4 	bne	5e4c <_fflush_r>
    5eb8:	e59f3014 	ldr	r3, [pc, #20]	; 5ed4 <fflush+0x34>
    5ebc:	e59f1014 	ldr	r1, [pc, #20]	; 5ed8 <fflush+0x38>
    5ec0:	e5930000 	ldr	r0, [r3]
    5ec4:	eb0003ae 	bl	6d84 <_fwalk_reent>
    5ec8:	e8bd4008 	pop	{r3, lr}
    5ecc:	e12fff1e 	bx	lr
    5ed0:	00013830 	.word	0x00013830
    5ed4:	00013428 	.word	0x00013428
    5ed8:	00005e4c 	.word	0x00005e4c

00005edc <__fp_lock>:
    5edc:	e3a00000 	mov	r0, #0
    5ee0:	e12fff1e 	bx	lr

00005ee4 <__fp_unlock>:
    5ee4:	e3a00000 	mov	r0, #0
    5ee8:	e12fff1e 	bx	lr

00005eec <_cleanup_r>:
    5eec:	e92d4008 	push	{r3, lr}
    5ef0:	e59f1008 	ldr	r1, [pc, #8]	; 5f00 <_cleanup_r+0x14>
    5ef4:	eb000381 	bl	6d00 <_fwalk>
    5ef8:	e8bd4008 	pop	{r3, lr}
    5efc:	e12fff1e 	bx	lr
    5f00:	0000ed34 	.word	0x0000ed34

00005f04 <__sfmoreglue>:
    5f04:	e2413001 	sub	r3, r1, #1
    5f08:	e92d4070 	push	{r4, r5, r6, lr}
    5f0c:	e0835083 	add	r5, r3, r3, lsl #1
    5f10:	e0833105 	add	r3, r3, r5, lsl #2
    5f14:	e1a05183 	lsl	r5, r3, #3
    5f18:	e1a06001 	mov	r6, r1
    5f1c:	e2851074 	add	r1, r5, #116	; 0x74
    5f20:	eb000454 	bl	7078 <_malloc_r>
    5f24:	e2504000 	subs	r4, r0, #0
    5f28:	0a000006 	beq	5f48 <__sfmoreglue+0x44>
    5f2c:	e3a01000 	mov	r1, #0
    5f30:	e284000c 	add	r0, r4, #12
    5f34:	e5846004 	str	r6, [r4, #4]
    5f38:	e2852068 	add	r2, r5, #104	; 0x68
    5f3c:	e5841000 	str	r1, [r4]
    5f40:	e5840008 	str	r0, [r4, #8]
    5f44:	eb00075a 	bl	7cb4 <memset>
    5f48:	e1a00004 	mov	r0, r4
    5f4c:	e8bd4070 	pop	{r4, r5, r6, lr}
    5f50:	e12fff1e 	bx	lr

00005f54 <_cleanup>:
    5f54:	e92d4008 	push	{r3, lr}
    5f58:	e59f3010 	ldr	r3, [pc, #16]	; 5f70 <_cleanup+0x1c>
    5f5c:	e59f1010 	ldr	r1, [pc, #16]	; 5f74 <_cleanup+0x20>
    5f60:	e5930000 	ldr	r0, [r3]
    5f64:	eb000365 	bl	6d00 <_fwalk>
    5f68:	e8bd4008 	pop	{r3, lr}
    5f6c:	e12fff1e 	bx	lr
    5f70:	00013428 	.word	0x00013428
    5f74:	0000ed34 	.word	0x0000ed34

00005f78 <__sinit>:
    5f78:	e92d4ff0 	push	{r4, r5, r6, r7, r8, r9, r10, r11, lr}
    5f7c:	e5904038 	ldr	r4, [r0, #56]	; 0x38
    5f80:	e3540000 	cmp	r4, #0
    5f84:	e24dd00c 	sub	sp, sp, #12
    5f88:	e1a07000 	mov	r7, r0
    5f8c:	1a00004b 	bne	60c0 <__sinit+0x148>
    5f90:	e5975004 	ldr	r5, [r7, #4]
    5f94:	e59f0130 	ldr	r0, [pc, #304]	; 60cc <__sinit+0x154>
    5f98:	e3a03004 	mov	r3, #4
    5f9c:	e3a01003 	mov	r1, #3
    5fa0:	e2872fbb 	add	r2, r7, #748	; 0x2ec
    5fa4:	e587003c 	str	r0, [r7, #60]	; 0x3c
    5fa8:	e58712e4 	str	r1, [r7, #740]	; 0x2e4
    5fac:	e58722e8 	str	r2, [r7, #744]	; 0x2e8
    5fb0:	e58742e0 	str	r4, [r7, #736]	; 0x2e0
    5fb4:	e285005c 	add	r0, r5, #92	; 0x5c
    5fb8:	e1c530bc 	strh	r3, [r5, #12]
    5fbc:	e5854000 	str	r4, [r5]
    5fc0:	e5854004 	str	r4, [r5, #4]
    5fc4:	e5854008 	str	r4, [r5, #8]
    5fc8:	e5854064 	str	r4, [r5, #100]	; 0x64
    5fcc:	e1c540be 	strh	r4, [r5, #14]
    5fd0:	e5854010 	str	r4, [r5, #16]
    5fd4:	e5854014 	str	r4, [r5, #20]
    5fd8:	e5854018 	str	r4, [r5, #24]
    5fdc:	e1a01004 	mov	r1, r4
    5fe0:	e3a02008 	mov	r2, #8
    5fe4:	eb000732 	bl	7cb4 <memset>
    5fe8:	e59fb0e0 	ldr	r11, [pc, #224]	; 60d0 <__sinit+0x158>
    5fec:	e5976008 	ldr	r6, [r7, #8]
    5ff0:	e59fa0dc 	ldr	r10, [pc, #220]	; 60d4 <__sinit+0x15c>
    5ff4:	e59f90dc 	ldr	r9, [pc, #220]	; 60d8 <__sinit+0x160>
    5ff8:	e59f80dc 	ldr	r8, [pc, #220]	; 60dc <__sinit+0x164>
    5ffc:	e3a03001 	mov	r3, #1
    6000:	e3a02009 	mov	r2, #9
    6004:	e585501c 	str	r5, [r5, #28]
    6008:	e585b020 	str	r11, [r5, #32]
    600c:	e585a024 	str	r10, [r5, #36]	; 0x24
    6010:	e5859028 	str	r9, [r5, #40]	; 0x28
    6014:	e585802c 	str	r8, [r5, #44]	; 0x2c
    6018:	e1a01004 	mov	r1, r4
    601c:	e1c630be 	strh	r3, [r6, #14]
    6020:	e1c620bc 	strh	r2, [r6, #12]
    6024:	e5864000 	str	r4, [r6]
    6028:	e5864004 	str	r4, [r6, #4]
    602c:	e5864008 	str	r4, [r6, #8]
    6030:	e5864064 	str	r4, [r6, #100]	; 0x64
    6034:	e5864010 	str	r4, [r6, #16]
    6038:	e5864014 	str	r4, [r6, #20]
    603c:	e5864018 	str	r4, [r6, #24]
    6040:	e3a02008 	mov	r2, #8
    6044:	e286005c 	add	r0, r6, #92	; 0x5c
    6048:	e58d3004 	str	r3, [sp, #4]
    604c:	eb000718 	bl	7cb4 <memset>
    6050:	e597500c 	ldr	r5, [r7, #12]
    6054:	e3a00012 	mov	r0, #18
    6058:	e3a02002 	mov	r2, #2
    605c:	e586601c 	str	r6, [r6, #28]
    6060:	e586b020 	str	r11, [r6, #32]
    6064:	e586a024 	str	r10, [r6, #36]	; 0x24
    6068:	e5869028 	str	r9, [r6, #40]	; 0x28
    606c:	e586802c 	str	r8, [r6, #44]	; 0x2c
    6070:	e1a01004 	mov	r1, r4
    6074:	e1c500bc 	strh	r0, [r5, #12]
    6078:	e1c520be 	strh	r2, [r5, #14]
    607c:	e5854000 	str	r4, [r5]
    6080:	e5854004 	str	r4, [r5, #4]
    6084:	e5854008 	str	r4, [r5, #8]
    6088:	e5854064 	str	r4, [r5, #100]	; 0x64
    608c:	e5854010 	str	r4, [r5, #16]
    6090:	e5854014 	str	r4, [r5, #20]
    6094:	e5854018 	str	r4, [r5, #24]
    6098:	e285005c 	add	r0, r5, #92	; 0x5c
    609c:	e3a02008 	mov	r2, #8
    60a0:	eb000703 	bl	7cb4 <memset>
    60a4:	e59d3004 	ldr	r3, [sp, #4]
    60a8:	e585501c 	str	r5, [r5, #28]
    60ac:	e585b020 	str	r11, [r5, #32]
    60b0:	e585a024 	str	r10, [r5, #36]	; 0x24
    60b4:	e5859028 	str	r9, [r5, #40]	; 0x28
    60b8:	e585802c 	str	r8, [r5, #44]	; 0x2c
    60bc:	e5873038 	str	r3, [r7, #56]	; 0x38
    60c0:	e28dd00c 	add	sp, sp, #12
    60c4:	e8bd4ff0 	pop	{r4, r5, r6, r7, r8, r9, r10, r11, lr}
    60c8:	e12fff1e 	bx	lr
    60cc:	00005eec 	.word	0x00005eec
    60d0:	000094c0 	.word	0x000094c0
    60d4:	000094fc 	.word	0x000094fc
    60d8:	00009554 	.word	0x00009554
    60dc:	00009584 	.word	0x00009584

000060e0 <__sfp>:
    60e0:	e59f30ec 	ldr	r3, [pc, #236]	; 61d4 <__sfp+0xf4>
    60e4:	e92d4070 	push	{r4, r5, r6, lr}
    60e8:	e5935000 	ldr	r5, [r3]
    60ec:	e5953038 	ldr	r3, [r5, #56]	; 0x38
    60f0:	e3530000 	cmp	r3, #0
    60f4:	e1a06000 	mov	r6, r0
    60f8:	0a00002f 	beq	61bc <__sfp+0xdc>
    60fc:	e2855e2e 	add	r5, r5, #736	; 0x2e0
    6100:	e5953004 	ldr	r3, [r5, #4]
    6104:	e2533001 	subs	r3, r3, #1
    6108:	e5954008 	ldr	r4, [r5, #8]
    610c:	5a000004 	bpl	6124 <__sfp+0x44>
    6110:	ea00001d 	b	618c <__sfp+0xac>
    6114:	e2433001 	sub	r3, r3, #1
    6118:	e3730001 	cmn	r3, #1
    611c:	e2844068 	add	r4, r4, #104	; 0x68
    6120:	0a000019 	beq	618c <__sfp+0xac>
    6124:	e1d420fc 	ldrsh	r2, [r4, #12]
    6128:	e3520000 	cmp	r2, #0
    612c:	1afffff8 	bne	6114 <__sfp+0x34>
    6130:	e3a05000 	mov	r5, #0
    6134:	e3e02000 	mvn	r2, #0
    6138:	e3a03001 	mov	r3, #1
    613c:	e1c420be 	strh	r2, [r4, #14]
    6140:	e1c430bc 	strh	r3, [r4, #12]
    6144:	e5845064 	str	r5, [r4, #100]	; 0x64
    6148:	e5845000 	str	r5, [r4]
    614c:	e5845008 	str	r5, [r4, #8]
    6150:	e5845004 	str	r5, [r4, #4]
    6154:	e5845010 	str	r5, [r4, #16]
    6158:	e5845014 	str	r5, [r4, #20]
    615c:	e5845018 	str	r5, [r4, #24]
    6160:	e1a01005 	mov	r1, r5
    6164:	e284005c 	add	r0, r4, #92	; 0x5c
    6168:	e3a02008 	mov	r2, #8
    616c:	eb0006d0 	bl	7cb4 <memset>
    6170:	e5845030 	str	r5, [r4, #48]	; 0x30
    6174:	e5845034 	str	r5, [r4, #52]	; 0x34
    6178:	e5845044 	str	r5, [r4, #68]	; 0x44
    617c:	e5845048 	str	r5, [r4, #72]	; 0x48
    6180:	e1a00004 	mov	r0, r4
    6184:	e8bd4070 	pop	{r4, r5, r6, lr}
    6188:	e12fff1e 	bx	lr
    618c:	e5953000 	ldr	r3, [r5]
    6190:	e3530000 	cmp	r3, #0
    6194:	11a05003 	movne	r5, r3
    6198:	1affffd8 	bne	6100 <__sfp+0x20>
    619c:	e1a00006 	mov	r0, r6
    61a0:	e3a01004 	mov	r1, #4
    61a4:	ebffff56 	bl	5f04 <__sfmoreglue>
    61a8:	e3500000 	cmp	r0, #0
    61ac:	e5850000 	str	r0, [r5]
    61b0:	0a000004 	beq	61c8 <__sfp+0xe8>
    61b4:	e1a05000 	mov	r5, r0
    61b8:	eaffffd0 	b	6100 <__sfp+0x20>
    61bc:	e1a00005 	mov	r0, r5
    61c0:	ebffff6c 	bl	5f78 <__sinit>
    61c4:	eaffffcc 	b	60fc <__sfp+0x1c>
    61c8:	e3a0300c 	mov	r3, #12
    61cc:	e5863000 	str	r3, [r6]
    61d0:	eaffffeb 	b	6184 <__sfp+0xa4>
    61d4:	00013428 	.word	0x00013428

000061d8 <__sfp_lock_acquire>:
    61d8:	e12fff1e 	bx	lr

000061dc <__sfp_lock_release>:
    61dc:	e12fff1e 	bx	lr

000061e0 <__sinit_lock_acquire>:
    61e0:	e12fff1e 	bx	lr

000061e4 <__sinit_lock_release>:
    61e4:	e12fff1e 	bx	lr

000061e8 <__fp_lock_all>:
