
/home/gambart/Desktop/lab2_part2/lab2_part2.axf:     file format elf32-littlearm


Disassembly of section .text:

00000000 <__cs3_interrupt_vector>:
       0:	18 f0 9f e5 18 f0 9f e5 18 f0 9f e5 18 f0 9f e5     ................
      10:	18 f0 9f e5 18 f0 9f e5 18 f0 9f e5 18 f0 9f e5     ................
      20:	40 00 00 00 90 33 01 00 94 33 01 00 98 33 01 00     @....3...3...3..
      30:	9c 33 01 00 8c 33 01 00 a0 33 01 00 a4 33 01 00     .3...3...3...3..

00000040 <__cs3_reset>:
      40:	ea000024 	b	d8 <__cs3_start_asm_sim>

00000044 <__cs3_start_c>:
      44:	e59f8084 	ldr	r8, [pc, #132]	; d0 <__cs3_start_c+0x8c>
      48:	e3580000 	cmp	r8, #0
      4c:	e92d4080 	push	{r7, lr}
      50:	e2488001 	sub	r8, r8, #1
      54:	0a00001c 	beq	cc <__cs3_start_c+0x88>
      58:	e59f7074 	ldr	r7, [pc, #116]	; d4 <__cs3_start_c+0x90>
      5c:	e3a00000 	mov	r0, #0
      60:	e3a01000 	mov	r1, #0
      64:	e2475010 	sub	r5, r7, #16
      68:	e8951020 	ldm	r5, {r5, r12}
      6c:	e5176008 	ldr	r6, [r7, #-8]
      70:	e155000c 	cmp	r5, r12
      74:	008cc006 	addeq	r12, r12, r6
      78:	0a000007 	beq	9c <__cs3_start_c+0x58>
      7c:	e3560000 	cmp	r6, #0
      80:	0a000005 	beq	9c <__cs3_start_c+0x58>
      84:	e1a0e005 	mov	lr, r5
      88:	e8be000c 	ldm	lr!, {r2, r3}
      8c:	e065400e 	rsb	r4, r5, lr
      90:	e1560004 	cmp	r6, r4
      94:	e8ac000c 	stmia	r12!, {r2, r3}
      98:	1afffffa 	bne	88 <__cs3_start_c+0x44>
      9c:	e517e004 	ldr	lr, [r7, #-4]
      a0:	e35e0000 	cmp	lr, #0
      a4:	11a0300c 	movne	r3, r12
      a8:	0a000003 	beq	bc <__cs3_start_c+0x78>
      ac:	e8a30003 	stmia	r3!, {r0, r1}
      b0:	e06c2003 	rsb	r2, r12, r3
      b4:	e15e0002 	cmp	lr, r2
      b8:	1afffffb 	bne	ac <__cs3_start_c+0x68>
      bc:	e2488001 	sub	r8, r8, #1
      c0:	e3780001 	cmn	r8, #1
      c4:	e2877014 	add	r7, r7, #20
      c8:	1affffe5 	bne	64 <__cs3_start_c+0x20>
      cc:	eb004afd 	bl	12cc8 <__cs3_premain>
      d0:	00000001 	.word	0x00000001
      d4:	00013aa0 	.word	0x00013aa0

000000d8 <__cs3_start_asm_sim>:
      d8:	e28f103c 	add	r1, pc, #60	; 0x3c
      dc:	e3a00016 	mov	r0, #22
      e0:	ef123456 	svc	0x00123456
      e4:	e3500000 	cmp	r0, #0
      e8:	ba000008 	blt	110 <__cs3_region_zero_size_ram>
      ec:	e59f2028 	ldr	r2, [pc, #40]	; 11c <__cs3_heap_start_ptr>
      f0:	e59fd01c 	ldr	sp, [pc, #28]	; 114 <__cs3_region_zero_size_ram+0x4>
      f4:	e5920008 	ldr	r0, [r2, #8]
      f8:	e3500000 	cmp	r0, #0
      fc:	11a0d000 	movne	sp, r0
     100:	e59f1010 	ldr	r1, [pc, #16]	; 118 <__cs3_region_zero_size_ram+0x8>
     104:	e5920004 	ldr	r0, [r2, #4]
     108:	e3500000 	cmp	r0, #0
     10c:	15810000 	strne	r0, [r1]
     110:	eaffffcb 	b	44 <__cs3_start_c>
     114:	3ffffffc 	.word	0x3ffffffc
     118:	00014370 	.word	0x00014370

0000011c <__cs3_heap_start_ptr>:
     11c:	00014488 	.word	0x00014488

00000120 <_start>:
     120:	e51fd000 	ldr	sp, [pc, #-0]	; 128 <_start+0x8>
     124:	eaffffc6 	b	44 <__cs3_start_c>
     128:	3ffffffc 	.word	0x3ffffffc

0000012c <deregister_tm_clones>:
     12c:	e92d4008 	push	{r3, lr}
     130:	e59f002c 	ldr	r0, [pc, #44]	; 164 <deregister_tm_clones+0x38>
     134:	e59f302c 	ldr	r3, [pc, #44]	; 168 <deregister_tm_clones+0x3c>
     138:	e0603003 	rsb	r3, r0, r3
     13c:	e3530006 	cmp	r3, #6
     140:	8a000001 	bhi	14c <deregister_tm_clones+0x20>
     144:	e8bd4008 	pop	{r3, lr}
     148:	e12fff1e 	bx	lr
     14c:	e59f3018 	ldr	r3, [pc, #24]	; 16c <deregister_tm_clones+0x40>
     150:	e3530000 	cmp	r3, #0
     154:	0afffffa 	beq	144 <deregister_tm_clones+0x18>
     158:	e1a0e00f 	mov	lr, pc
     15c:	e12fff13 	bx	r3
     160:	eafffff7 	b	144 <deregister_tm_clones+0x18>
     164:	00014378 	.word	0x00014378
     168:	0001437b 	.word	0x0001437b
     16c:	00000000 	.word	0x00000000

00000170 <register_tm_clones>:
     170:	e92d4008 	push	{r3, lr}
     174:	e59f0034 	ldr	r0, [pc, #52]	; 1b0 <register_tm_clones+0x40>
     178:	e59f3034 	ldr	r3, [pc, #52]	; 1b4 <register_tm_clones+0x44>
     17c:	e0603003 	rsb	r3, r0, r3
     180:	e1a03143 	asr	r3, r3, #2
     184:	e0833fa3 	add	r3, r3, r3, lsr #31
     188:	e1b010c3 	asrs	r1, r3, #1
     18c:	1a000001 	bne	198 <register_tm_clones+0x28>
     190:	e8bd4008 	pop	{r3, lr}
     194:	e12fff1e 	bx	lr
     198:	e59f2018 	ldr	r2, [pc, #24]	; 1b8 <register_tm_clones+0x48>
     19c:	e3520000 	cmp	r2, #0
     1a0:	0afffffa 	beq	190 <register_tm_clones+0x20>
     1a4:	e1a0e00f 	mov	lr, pc
     1a8:	e12fff12 	bx	r2
     1ac:	eafffff7 	b	190 <register_tm_clones+0x20>
     1b0:	00014378 	.word	0x00014378
     1b4:	00014378 	.word	0x00014378
     1b8:	00000000 	.word	0x00000000

000001bc <__do_global_dtors_aux>:
     1bc:	e92d4010 	push	{r4, lr}
     1c0:	e59f402c 	ldr	r4, [pc, #44]	; 1f4 <__do_global_dtors_aux+0x38>
     1c4:	e5d43000 	ldrb	r3, [r4]
     1c8:	e3530000 	cmp	r3, #0
     1cc:	1a000006 	bne	1ec <__do_global_dtors_aux+0x30>
     1d0:	ebffffd5 	bl	12c <deregister_tm_clones>
     1d4:	e59f301c 	ldr	r3, [pc, #28]	; 1f8 <__do_global_dtors_aux+0x3c>
     1d8:	e3530000 	cmp	r3, #0
     1dc:	159f0018 	ldrne	r0, [pc, #24]	; 1fc <__do_global_dtors_aux+0x40>
     1e0:	1320f000 	nopne	{0}
     1e4:	e3a03001 	mov	r3, #1
     1e8:	e5c43000 	strb	r3, [r4]
     1ec:	e8bd4010 	pop	{r4, lr}
     1f0:	e12fff1e 	bx	lr
     1f4:	00014378 	.word	0x00014378
     1f8:	00000000 	.word	0x00000000
     1fc:	00013440 	.word	0x00013440

00000200 <frame_dummy>:
     200:	e92d4008 	push	{r3, lr}
     204:	e59f3034 	ldr	r3, [pc, #52]	; 240 <frame_dummy+0x40>
     208:	e3530000 	cmp	r3, #0
     20c:	159f0030 	ldrne	r0, [pc, #48]	; 244 <frame_dummy+0x44>
     210:	159f1030 	ldrne	r1, [pc, #48]	; 248 <frame_dummy+0x48>
     214:	1320f000 	nopne	{0}
     218:	e59f002c 	ldr	r0, [pc, #44]	; 24c <frame_dummy+0x4c>
     21c:	e5903000 	ldr	r3, [r0]
     220:	e3530000 	cmp	r3, #0
     224:	0a000003 	beq	238 <frame_dummy+0x38>
     228:	e59f3020 	ldr	r3, [pc, #32]	; 250 <frame_dummy+0x50>
     22c:	e3530000 	cmp	r3, #0
     230:	11a0e00f 	movne	lr, pc
     234:	112fff13 	bxne	r3
     238:	e8bd4008 	pop	{r3, lr}
     23c:	eaffffcb 	b	170 <register_tm_clones>
     240:	00000000 	.word	0x00000000
     244:	00013440 	.word	0x00013440
     248:	0001437c 	.word	0x0001437c
     24c:	00013aa0 	.word	0x00013aa0
     250:	00000000 	.word	0x00000000

00000254 <main>:
 asm volatile ("MCR p15, 0, %0, c9, c12, 3\t\n" :: "r"(0x8000000f));
}


int main(void)
{
     254:	e92d4ff0 	push	{r4, r5, r6, r7, r8, r9, r10, r11, lr}
     258:	e24dd08c 	sub	sp, sp, #140	; 0x8c
  volatile uint32_t * FPGA_SDRAM = (uint32_t *) 0xC4000000;
  volatile uint32_t * HPS_onchip = (uint32_t *) 0xFFFF0000;
  volatile uint32_t * HPS_SDRAM = (uint32_t *) 0x00100000;


  printf("Greetings and salutations\n");
     25c:	e30304a0 	movw	r0, #13472	; 0x34a0
     260:	e3400001 	movt	r0, #1
     264:	eb0005fb 	bl	1a58 <puts>
	unsigned int time;

	int startval = 0x0;
	int val;
	int j;
	volatile uint32_t * addresses[4] = {FPGA_onchip, FPGA_SDRAM, HPS_onchip, HPS_SDRAM};
     268:	e3a03103 	mov	r3, #-1073741824	; 0xc0000000
     26c:	e58d3074 	str	r3, [sp, #116]	; 0x74
     270:	e3a03331 	mov	r3, #-1006632960	; 0xc4000000
     274:	e58d3078 	str	r3, [sp, #120]	; 0x78
     278:	e3a03000 	mov	r3, #0
     27c:	e34f3fff 	movt	r3, #65535	; 0xffff
     280:	e58d307c 	str	r3, [sp, #124]	; 0x7c
     284:	e3a03601 	mov	r3, #1048576	; 0x100000
     288:	e58d3080 	str	r3, [sp, #128]	; 0x80
	volatile uint32_t * adr;

	char locations[4][20] = {"FPGA Onchip","FPGA SDRAM","HPS Onchip","HPS SDRAM"};
     28c:	e28d0024 	add	r0, sp, #36	; 0x24
     290:	e3031450 	movw	r1, #13392	; 0x3450
     294:	e3401001 	movt	r1, #1
     298:	e3a02050 	mov	r2, #80	; 0x50
     29c:	eb000530 	bl	1764 <memcpy>

		initCounters ();
		location = 5; 
		num_invalid = 0;
		while(location < 0 || location > 3){
			printf("Choose memory block to write to:\n");
     2a0:	e30324bc 	movw	r2, #13500	; 0x34bc
     2a4:	e3402001 	movt	r2, #1
     2a8:	e58d2010 	str	r2, [sp, #16]
			for(i = 0; i < 4; i++)
				printf("  %d: %s\n",i,locations[i]); // (0=FPGA Onchip, 1=FPGA SDRAM, 2=HPS Onchip, 3=HPS SDRAM):");
     2ac:	e303a4e0 	movw	r10, #13536	; 0x34e0
     2b0:	e340a001 	movt	r10, #1
			scanf("%d", &location);
     2b4:	e30394ec 	movw	r9, #13548	; 0x34ec
     2b8:	e3409001 	movt	r9, #1
			fflush(stdin);
     2bc:	e303baa8 	movw	r11, #15016	; 0x3aa8
     2c0:	e340b001 	movt	r11, #1
		}
		avail_mem = location ? 32 : 16; // 16kb for location 0, 32kb for the rest

		printf("\nWriting %dKB to %s.\n\n", avail_mem, locations[location]);
     2c4:	e30334f0 	movw	r3, #13552	; 0x34f0
     2c8:	e3403001 	movt	r3, #1
     2cc:	e58d3014 	str	r3, [sp, #20]
			(i < avail_mem); i++){
				if(val == 512)
					printf("before 512 write: %d\n", *(adr+1));
				*(adr++) = val++;
				if(*(adr-1) != val-1){
					printf("%d != %d\n",val-1,*(adr-1));
     2d0:	e3032520 	movw	r2, #13600	; 0x3520
     2d4:	e3402001 	movt	r2, #1
     2d8:	e58d200c 	str	r2, [sp, #12]
 return cycleCount;
}
static inline void initCounters ()
{
 // Enable user access to performance counter
 asm volatile ("MCR p15, 0, %0, C9, C14, 0\t\n" :: "r"(1));
     2dc:	e3a03001 	mov	r3, #1
     2e0:	ee093f1e 	mcr	15, 0, r3, cr9, cr14, {0}
 // Reset all counters to zero
 int MCRP15ResetAll = 23;
 asm volatile ("MCR p15, 0, %0, c9, c12, 0\t\n" :: "r"(MCRP15ResetAll));
     2e4:	e3a03017 	mov	r3, #23
     2e8:	ee093f1c 	mcr	15, 0, r3, cr9, cr12, {0}
 // Enable all counters:
 asm volatile ("MCR p15, 0, %0, c9, c12, 1\t\n" :: "r"(0x8000000f));
     2ec:	e3a0313e 	mov	r3, #-2147483633	; 0x8000000f
     2f0:	ee093f3c 	mcr	15, 0, r3, cr9, cr12, {1}
 // Disable counter interrupts
 asm volatile ("MCR p15, 0, %0, C9, C14, 2\t\n" :: "r"(0x8000000f));
     2f4:	ee093f5e 	mcr	15, 0, r3, cr9, cr14, {2}
 // Clear overflows:
 asm volatile ("MCR p15, 0, %0, c9, c12, 3\t\n" :: "r"(0x8000000f));
     2f8:	ee093f7c 	mcr	15, 0, r3, cr9, cr12, {3}
		

	while(1){

		initCounters ();
		location = 5; 
     2fc:	e28d6088 	add	r6, sp, #136	; 0x88
     300:	e3a03005 	mov	r3, #5
     304:	e5263004 	str	r3, [r6, #-4]!
		num_invalid = 0;
		while(location < 0 || location > 3){
			printf("Choose memory block to write to:\n");
			for(i = 0; i < 4; i++)
     308:	e3a07000 	mov	r7, #0
     30c:	e59d8010 	ldr	r8, [sp, #16]

		initCounters ();
		location = 5; 
		num_invalid = 0;
		while(location < 0 || location > 3){
			printf("Choose memory block to write to:\n");
     310:	e1a00008 	mov	r0, r8
     314:	eb0005cf 	bl	1a58 <puts>
     318:	e28d5024 	add	r5, sp, #36	; 0x24
			for(i = 0; i < 4; i++)
     31c:	e1a04007 	mov	r4, r7
				printf("  %d: %s\n",i,locations[i]); // (0=FPGA Onchip, 1=FPGA SDRAM, 2=HPS Onchip, 3=HPS SDRAM):");
     320:	e1a0000a 	mov	r0, r10
     324:	e1a01004 	mov	r1, r4
     328:	e1a02005 	mov	r2, r5
     32c:	eb000594 	bl	1984 <printf>
		initCounters ();
		location = 5; 
		num_invalid = 0;
		while(location < 0 || location > 3){
			printf("Choose memory block to write to:\n");
			for(i = 0; i < 4; i++)
     330:	e2844001 	add	r4, r4, #1
     334:	e2855014 	add	r5, r5, #20
     338:	e3540004 	cmp	r4, #4
     33c:	1afffff7 	bne	320 <main+0xcc>
				printf("  %d: %s\n",i,locations[i]); // (0=FPGA Onchip, 1=FPGA SDRAM, 2=HPS Onchip, 3=HPS SDRAM):");
			scanf("%d", &location);
     340:	e1a00009 	mov	r0, r9
     344:	e1a01006 	mov	r1, r6
     348:	eb0005d8 	bl	1ab0 <scanf>
			fflush(stdin);
     34c:	e59b3000 	ldr	r3, [r11]
     350:	e5930004 	ldr	r0, [r3, #4]
     354:	eb000134 	bl	82c <fflush>
	while(1){

		initCounters ();
		location = 5; 
		num_invalid = 0;
		while(location < 0 || location > 3){
     358:	e59d3084 	ldr	r3, [sp, #132]	; 0x84
     35c:	e3530003 	cmp	r3, #3
     360:	8affffea 	bhi	310 <main+0xbc>
			for(i = 0; i < 4; i++)
				printf("  %d: %s\n",i,locations[i]); // (0=FPGA Onchip, 1=FPGA SDRAM, 2=HPS Onchip, 3=HPS SDRAM):");
			scanf("%d", &location);
			fflush(stdin);
		}
		avail_mem = location ? 32 : 16; // 16kb for location 0, 32kb for the rest
     364:	e3530000 	cmp	r3, #0
     368:	03a06010 	moveq	r6, #16
     36c:	13a06020 	movne	r6, #32

		printf("\nWriting %dKB to %s.\n\n", avail_mem, locations[location]);
     370:	e0832103 	add	r2, r3, r3, lsl #2
     374:	e59d0014 	ldr	r0, [sp, #20]
     378:	e1a01006 	mov	r1, r6
     37c:	e28d3024 	add	r3, sp, #36	; 0x24
     380:	e0832102 	add	r2, r3, r2, lsl #2
     384:	eb00057e 	bl	1984 <printf>

		 avail_mem*=256; // set to num blocks
     388:	e1a06406 	lsl	r6, r6, #8

static inline unsigned int getCycles ()
{
 unsigned int cycleCount;
 // Read CCNT register
 asm volatile ("MRC p15, 0, %0, c9, c13, 0\t\n": "=r"(cycleCount));
     38c:	ee192f1d 	mrc	15, 0, r2, cr9, cr13, {0}
     390:	e58d2018 	str	r2, [sp, #24]
		 avail_mem*=256; // set to num blocks


		time = getCycles();

		for(adr = addresses[location], val = startval, i = 0;
     394:	e59d3084 	ldr	r3, [sp, #132]	; 0x84
     398:	e28d2088 	add	r2, sp, #136	; 0x88
     39c:	e0823103 	add	r3, r2, r3, lsl #2
     3a0:	e5135014 	ldr	r5, [r3, #-20]	; 0xffffffec
     3a4:	e3560000 	cmp	r6, #0
     3a8:	da00002a 	ble	458 <main+0x204>
     3ac:	e3a04000 	mov	r4, #0
				if(*(adr-1) != val-1){
					printf("%d != %d\n",val-1,*(adr-1));
					for(j = 0; j<64000; j++); //delay
				}
				if(val-1 == 512)
					printf("after 512 write: %d\nadr0:%d\n", *(adr-1),*(addresses[location]));
     3b0:	e303352c 	movw	r3, #13612	; 0x352c
     3b4:	e3403001 	movt	r3, #1
     3b8:	e58d3004 	str	r3, [sp, #4]
		time = getCycles();

		for(adr = addresses[location], val = startval, i = 0;
			(i < avail_mem); i++){
				if(val == 512)
					printf("before 512 write: %d\n", *(adr+1));
     3bc:	e3032508 	movw	r2, #13576	; 0x3508
     3c0:	e3402001 	movt	r2, #1
     3c4:	e58d2008 	str	r2, [sp, #8]
     3c8:	e58da01c 	str	r10, [sp, #28]
     3cc:	e59da00c 	ldr	r10, [sp, #12]
     3d0:	ea000005 	b	3ec <main+0x198>

		time = getCycles();

		for(adr = addresses[location], val = startval, i = 0;
			(i < avail_mem); i++){
				if(val == 512)
     3d4:	e3540c02 	cmp	r4, #512	; 0x200
     3d8:	1a000002 	bne	3e8 <main+0x194>
					printf("before 512 write: %d\n", *(adr+1));
     3dc:	e5981004 	ldr	r1, [r8, #4]
     3e0:	e59d0008 	ldr	r0, [sp, #8]
     3e4:	eb000566 	bl	1984 <printf>
				*(adr++) = val++;
     3e8:	e1a05008 	mov	r5, r8
     3ec:	e2858004 	add	r8, r5, #4
     3f0:	e1a07004 	mov	r7, r4
     3f4:	e5854000 	str	r4, [r5]
				if(*(adr-1) != val-1){
     3f8:	e5953000 	ldr	r3, [r5]
     3fc:	e1540003 	cmp	r4, r3
     400:	0a000006 	beq	420 <main+0x1cc>
					printf("%d != %d\n",val-1,*(adr-1));
     404:	e5952000 	ldr	r2, [r5]
     408:	e1a0000a 	mov	r0, r10
     40c:	e1a01004 	mov	r1, r4
     410:	eb00055b 	bl	1984 <printf>
     414:	e3a03cfa 	mov	r3, #64000	; 0xfa00
					for(j = 0; j<64000; j++); //delay
     418:	e2533001 	subs	r3, r3, #1
     41c:	1afffffd 	bne	418 <main+0x1c4>
				}
				if(val-1 == 512)
     420:	e3570c02 	cmp	r7, #512	; 0x200
     424:	1a000007 	bne	448 <main+0x1f4>
					printf("after 512 write: %d\nadr0:%d\n", *(adr-1),*(addresses[location]));
     428:	e5951000 	ldr	r1, [r5]
     42c:	e59d3084 	ldr	r3, [sp, #132]	; 0x84
     430:	e28d2088 	add	r2, sp, #136	; 0x88
     434:	e0823103 	add	r3, r2, r3, lsl #2
     438:	e5133014 	ldr	r3, [r3, #-20]	; 0xffffffec
     43c:	e5932000 	ldr	r2, [r3]
     440:	e59d0004 	ldr	r0, [sp, #4]
     444:	eb00054e 	bl	1984 <printf>


		time = getCycles();

		for(adr = addresses[location], val = startval, i = 0;
			(i < avail_mem); i++){
     448:	e2844001 	add	r4, r4, #1
		 avail_mem*=256; // set to num blocks


		time = getCycles();

		for(adr = addresses[location], val = startval, i = 0;
     44c:	e1540006 	cmp	r4, r6
     450:	1affffdf 	bne	3d4 <main+0x180>
     454:	e59da01c 	ldr	r10, [sp, #28]

static inline unsigned int getCycles ()
{
 unsigned int cycleCount;
 // Read CCNT register
 asm volatile ("MRC p15, 0, %0, c9, c13, 0\t\n": "=r"(cycleCount));
     458:	ee191f1d 	mrc	15, 0, r1, cr9, cr13, {0}
				if(val-1 == 512)
					printf("after 512 write: %d\nadr0:%d\n", *(adr-1),*(addresses[location]));
		}

		time = getCycles() - time;
		printf ("Elapsed Time: %d cycles\n", time);
     45c:	e303054c 	movw	r0, #13644	; 0x354c
     460:	e3400001 	movt	r0, #1
     464:	e59d3018 	ldr	r3, [sp, #24]
     468:	e0631001 	rsb	r1, r3, r1
     46c:	eb000544 	bl	1984 <printf>


		printf("\nReading %dKB from %s.\n\n", avail_mem/256, locations[location]);
     470:	e59d3084 	ldr	r3, [sp, #132]	; 0x84
     474:	e0832103 	add	r2, r3, r3, lsl #2
     478:	e3030568 	movw	r0, #13672	; 0x3568
     47c:	e3400001 	movt	r0, #1
     480:	e1a01426 	lsr	r1, r6, #8
     484:	e28d3024 	add	r3, sp, #36	; 0x24
     488:	e0832102 	add	r2, r3, r2, lsl #2
     48c:	eb00053c 	bl	1984 <printf>

static inline unsigned int getCycles ()
{
 unsigned int cycleCount;
 // Read CCNT register
 asm volatile ("MRC p15, 0, %0, c9, c13, 0\t\n": "=r"(cycleCount));
     490:	ee192f1d 	mrc	15, 0, r2, cr9, cr13, {0}
     494:	e58d2004 	str	r2, [sp, #4]

		printf("\nReading %dKB from %s.\n\n", avail_mem/256, locations[location]);
		int j;
		time = getCycles();

		for(adr = addresses[location], val = startval, i = 0;
     498:	e59d3084 	ldr	r3, [sp, #132]	; 0x84
     49c:	e28d2088 	add	r2, sp, #136	; 0x88
     4a0:	e0823103 	add	r3, r2, r3, lsl #2
     4a4:	e5133014 	ldr	r3, [r3, #-20]	; 0xffffffec
     4a8:	e3560000 	cmp	r6, #0
     4ac:	da000015 	ble	508 <main+0x2b4>

	while(1){

		initCounters ();
		location = 5; 
		num_invalid = 0;
     4b0:	e3a07000 	mov	r7, #0

		printf("\nReading %dKB from %s.\n\n", avail_mem/256, locations[location]);
		int j;
		time = getCycles();

		for(adr = addresses[location], val = startval, i = 0;
     4b4:	e1a04007 	mov	r4, r7
			i < avail_mem; i++)
				if(*(adr++) != val++){
					num_invalid++;
					printf("%d != %d\n",val-1,*(adr-1));
     4b8:	e3a08cfa 	mov	r8, #64000	; 0xfa00
     4bc:	e58da008 	str	r10, [sp, #8]
     4c0:	e59da00c 	ldr	r10, [sp, #12]
		int j;
		time = getCycles();

		for(adr = addresses[location], val = startval, i = 0;
			i < avail_mem; i++)
				if(*(adr++) != val++){
     4c4:	e2835004 	add	r5, r3, #4
     4c8:	e5932000 	ldr	r2, [r3]
     4cc:	e1520004 	cmp	r2, r4
     4d0:	0a000007 	beq	4f4 <main+0x2a0>
					num_invalid++;
     4d4:	e2877001 	add	r7, r7, #1
					printf("%d != %d\n",val-1,*(adr-1));
     4d8:	e5932000 	ldr	r2, [r3]
     4dc:	e1a0000a 	mov	r0, r10
     4e0:	e1a01004 	mov	r1, r4
     4e4:	eb000526 	bl	1984 <printf>
     4e8:	e1a03008 	mov	r3, r8
					for(j = 0; j<64000; j++); //delay
     4ec:	e2533001 	subs	r3, r3, #1
     4f0:	1afffffd 	bne	4ec <main+0x298>
		printf("\nReading %dKB from %s.\n\n", avail_mem/256, locations[location]);
		int j;
		time = getCycles();

		for(adr = addresses[location], val = startval, i = 0;
			i < avail_mem; i++)
     4f4:	e2844001 	add	r4, r4, #1

		printf("\nReading %dKB from %s.\n\n", avail_mem/256, locations[location]);
		int j;
		time = getCycles();

		for(adr = addresses[location], val = startval, i = 0;
     4f8:	e1540006 	cmp	r4, r6
     4fc:	0a000003 	beq	510 <main+0x2bc>
			i < avail_mem; i++)
				if(*(adr++) != val++){
     500:	e1a03005 	mov	r3, r5
     504:	eaffffee 	b	4c4 <main+0x270>

	while(1){

		initCounters ();
		location = 5; 
		num_invalid = 0;
     508:	e3a07000 	mov	r7, #0
     50c:	ea000000 	b	514 <main+0x2c0>
     510:	e59da008 	ldr	r10, [sp, #8]

static inline unsigned int getCycles ()
{
 unsigned int cycleCount;
 // Read CCNT register
 asm volatile ("MRC p15, 0, %0, c9, c13, 0\t\n": "=r"(cycleCount));
     514:	ee191f1d 	mrc	15, 0, r1, cr9, cr13, {0}
					printf("%d != %d\n",val-1,*(adr-1));
					for(j = 0; j<64000; j++); //delay
				}

		time = getCycles() - time;
		printf ("Elapsed Time: %d cycles\n", time);
     518:	e303054c 	movw	r0, #13644	; 0x354c
     51c:	e3400001 	movt	r0, #1
     520:	e59d3004 	ldr	r3, [sp, #4]
     524:	e0631001 	rsb	r1, r3, r1
     528:	eb000515 	bl	1984 <printf>

		printf("Number of invalid blocks: %d\n\n\n", num_invalid);
     52c:	e3030584 	movw	r0, #13700	; 0x3584
     530:	e3400001 	movt	r0, #1
     534:	e1a01007 	mov	r1, r7
     538:	eb000511 	bl	1984 <printf>

	

} //while
     53c:	eaffff66 	b	2dc <main+0x88>

00000540 <atexit>:
     540:	e92d4008 	push	{r3, lr}
     544:	e1a01000 	mov	r1, r0
     548:	e3a00000 	mov	r0, #0
     54c:	e1a03000 	mov	r3, r0
     550:	e1a02000 	mov	r2, r0
     554:	eb0013d9 	bl	54c0 <__register_exitproc>
     558:	e8bd4008 	pop	{r3, lr}
     55c:	e12fff1e 	bx	lr

00000560 <exit>:
     560:	e92d4008 	push	{r3, lr}
     564:	e3a01000 	mov	r1, #0
     568:	e1a04000 	mov	r4, r0
     56c:	eb00140f 	bl	55b0 <__call_exitprocs>
     570:	e59f3018 	ldr	r3, [pc, #24]	; 590 <exit+0x30>
     574:	e5930000 	ldr	r0, [r3]
     578:	e590303c 	ldr	r3, [r0, #60]	; 0x3c
     57c:	e3530000 	cmp	r3, #0
     580:	11a0e00f 	movne	lr, pc
     584:	112fff13 	bxne	r3
     588:	e1a00004 	mov	r0, r4
     58c:	eb0049fe 	bl	12d8c <_exit>
     590:	000135a4 	.word	0x000135a4

00000594 <__sflush_r>:
     594:	e92d40f8 	push	{r3, r4, r5, r6, r7, lr}
     598:	e1d130bc 	ldrh	r3, [r1, #12]
     59c:	e3130008 	tst	r3, #8
     5a0:	e1a05001 	mov	r5, r1
     5a4:	e1a07000 	mov	r7, r0
     5a8:	1a000030 	bne	670 <__sflush_r+0xdc>
     5ac:	e5912004 	ldr	r2, [r1, #4]
     5b0:	e3833b02 	orr	r3, r3, #2048	; 0x800
     5b4:	e3520000 	cmp	r2, #0
     5b8:	e1c130bc 	strh	r3, [r1, #12]
     5bc:	da00004b 	ble	6f0 <__sflush_r+0x15c>
     5c0:	e595c028 	ldr	r12, [r5, #40]	; 0x28
     5c4:	e35c0000 	cmp	r12, #0
     5c8:	0a00004b 	beq	6fc <__sflush_r+0x168>
     5cc:	e3a01000 	mov	r1, #0
     5d0:	e2136a01 	ands	r6, r3, #4096	; 0x1000
     5d4:	e5974000 	ldr	r4, [r7]
     5d8:	e5871000 	str	r1, [r7]
     5dc:	0a000049 	beq	708 <__sflush_r+0x174>
     5e0:	e5952050 	ldr	r2, [r5, #80]	; 0x50
     5e4:	e3130004 	tst	r3, #4
     5e8:	0a000005 	beq	604 <__sflush_r+0x70>
     5ec:	e5951030 	ldr	r1, [r5, #48]	; 0x30
     5f0:	e5953004 	ldr	r3, [r5, #4]
     5f4:	e3510000 	cmp	r1, #0
     5f8:	e0632002 	rsb	r2, r3, r2
     5fc:	1595303c 	ldrne	r3, [r5, #60]	; 0x3c
     600:	10632002 	rsbne	r2, r3, r2
     604:	e1a00007 	mov	r0, r7
     608:	e595101c 	ldr	r1, [r5, #28]
     60c:	e3a03000 	mov	r3, #0
     610:	e1a0e00f 	mov	lr, pc
     614:	e12fff1c 	bx	r12
     618:	e3700001 	cmn	r0, #1
     61c:	0a000045 	beq	738 <__sflush_r+0x1a4>
     620:	e1d530bc 	ldrh	r3, [r5, #12]
     624:	e5951010 	ldr	r1, [r5, #16]
     628:	e3c33b02 	bic	r3, r3, #2048	; 0x800
     62c:	e3a02000 	mov	r2, #0
     630:	e3130a01 	tst	r3, #4096	; 0x1000
     634:	e1c530bc 	strh	r3, [r5, #12]
     638:	e8850006 	stm	r5, {r1, r2}
     63c:	1a000048 	bne	764 <__sflush_r+0x1d0>
     640:	e5951030 	ldr	r1, [r5, #48]	; 0x30
     644:	e3510000 	cmp	r1, #0
     648:	e5874000 	str	r4, [r7]
     64c:	0a00002a 	beq	6fc <__sflush_r+0x168>
     650:	e2853040 	add	r3, r5, #64	; 0x40
     654:	e1510003 	cmp	r1, r3
     658:	11a00007 	movne	r0, r7
     65c:	1b000196 	blne	cbc <_free_r>
     660:	e3a00000 	mov	r0, #0
     664:	e5850030 	str	r0, [r5, #48]	; 0x30
     668:	e8bd40f8 	pop	{r3, r4, r5, r6, r7, lr}
     66c:	e12fff1e 	bx	lr
     670:	e5916010 	ldr	r6, [r1, #16]
     674:	e3560000 	cmp	r6, #0
     678:	0a00001f 	beq	6fc <__sflush_r+0x168>
     67c:	e5914000 	ldr	r4, [r1]
     680:	e3130003 	tst	r3, #3
     684:	05913014 	ldreq	r3, [r1, #20]
     688:	e0664004 	rsb	r4, r6, r4
     68c:	13a03000 	movne	r3, #0
     690:	e3540000 	cmp	r4, #0
     694:	e5816000 	str	r6, [r1]
     698:	e5813008 	str	r3, [r1, #8]
     69c:	ca000003 	bgt	6b0 <__sflush_r+0x11c>
     6a0:	ea000015 	b	6fc <__sflush_r+0x168>
     6a4:	e3540000 	cmp	r4, #0
     6a8:	e0866000 	add	r6, r6, r0
     6ac:	da000012 	ble	6fc <__sflush_r+0x168>
     6b0:	e1a03004 	mov	r3, r4
     6b4:	e1a00007 	mov	r0, r7
     6b8:	e595101c 	ldr	r1, [r5, #28]
     6bc:	e1a02006 	mov	r2, r6
     6c0:	e595c024 	ldr	r12, [r5, #36]	; 0x24
     6c4:	e1a0e00f 	mov	lr, pc
     6c8:	e12fff1c 	bx	r12
     6cc:	e3500000 	cmp	r0, #0
     6d0:	e0604004 	rsb	r4, r0, r4
     6d4:	cafffff2 	bgt	6a4 <__sflush_r+0x110>
     6d8:	e1d530bc 	ldrh	r3, [r5, #12]
     6dc:	e3833040 	orr	r3, r3, #64	; 0x40
     6e0:	e1c530bc 	strh	r3, [r5, #12]
     6e4:	e3e00000 	mvn	r0, #0
     6e8:	e8bd40f8 	pop	{r3, r4, r5, r6, r7, lr}
     6ec:	e12fff1e 	bx	lr
     6f0:	e591203c 	ldr	r2, [r1, #60]	; 0x3c
     6f4:	e3520000 	cmp	r2, #0
     6f8:	caffffb0 	bgt	5c0 <__sflush_r+0x2c>
     6fc:	e3a00000 	mov	r0, #0
     700:	e8bd40f8 	pop	{r3, r4, r5, r6, r7, lr}
     704:	e12fff1e 	bx	lr
     708:	e1a02006 	mov	r2, r6
     70c:	e1a00007 	mov	r0, r7
     710:	e595101c 	ldr	r1, [r5, #28]
     714:	e3a03001 	mov	r3, #1
     718:	e1a0e00f 	mov	lr, pc
     71c:	e12fff1c 	bx	r12
     720:	e3700001 	cmn	r0, #1
     724:	e1a02000 	mov	r2, r0
     728:	0a00001a 	beq	798 <__sflush_r+0x204>
     72c:	e1d530bc 	ldrh	r3, [r5, #12]
     730:	e595c028 	ldr	r12, [r5, #40]	; 0x28
     734:	eaffffaa 	b	5e4 <__sflush_r+0x50>
     738:	e5973000 	ldr	r3, [r7]
     73c:	e3530000 	cmp	r3, #0
     740:	1a000009 	bne	76c <__sflush_r+0x1d8>
     744:	e1d520bc 	ldrh	r2, [r5, #12]
     748:	e5951010 	ldr	r1, [r5, #16]
     74c:	e3c22b02 	bic	r2, r2, #2048	; 0x800
     750:	e3120a01 	tst	r2, #4096	; 0x1000
     754:	e5853004 	str	r3, [r5, #4]
     758:	e1c520bc 	strh	r2, [r5, #12]
     75c:	e5851000 	str	r1, [r5]
     760:	0affffb6 	beq	640 <__sflush_r+0xac>
     764:	e5850050 	str	r0, [r5, #80]	; 0x50
     768:	eaffffb4 	b	640 <__sflush_r+0xac>
     76c:	e353001d 	cmp	r3, #29
     770:	0a000001 	beq	77c <__sflush_r+0x1e8>
     774:	e3530016 	cmp	r3, #22
     778:	1a000012 	bne	7c8 <__sflush_r+0x234>
     77c:	e1d510bc 	ldrh	r1, [r5, #12]
     780:	e5952010 	ldr	r2, [r5, #16]
     784:	e3c11b02 	bic	r1, r1, #2048	; 0x800
     788:	e3a03000 	mov	r3, #0
     78c:	e1c510bc 	strh	r1, [r5, #12]
     790:	e885000c 	stm	r5, {r2, r3}
     794:	eaffffa9 	b	640 <__sflush_r+0xac>
     798:	e5973000 	ldr	r3, [r7]
     79c:	e3530000 	cmp	r3, #0
     7a0:	0affffe1 	beq	72c <__sflush_r+0x198>
     7a4:	e353001d 	cmp	r3, #29
     7a8:	13530016 	cmpne	r3, #22
     7ac:	11d530bc 	ldrhne	r3, [r5, #12]
     7b0:	13833040 	orrne	r3, r3, #64	; 0x40
     7b4:	05874000 	streq	r4, [r7]
     7b8:	01a00006 	moveq	r0, r6
     7bc:	11a00002 	movne	r0, r2
     7c0:	11c530bc 	strhne	r3, [r5, #12]
     7c4:	eaffffc7 	b	6e8 <__sflush_r+0x154>
     7c8:	e1d530bc 	ldrh	r3, [r5, #12]
     7cc:	e3833040 	orr	r3, r3, #64	; 0x40
     7d0:	e1c530bc 	strh	r3, [r5, #12]
     7d4:	eaffffc3 	b	6e8 <__sflush_r+0x154>

000007d8 <_fflush_r>:
     7d8:	e92d4010 	push	{r4, lr}
     7dc:	e2504000 	subs	r4, r0, #0
     7e0:	e24dd008 	sub	sp, sp, #8
     7e4:	0a000002 	beq	7f4 <_fflush_r+0x1c>
     7e8:	e5943038 	ldr	r3, [r4, #56]	; 0x38
     7ec:	e3530000 	cmp	r3, #0
     7f0:	0a000009 	beq	81c <_fflush_r+0x44>
     7f4:	e1d100fc 	ldrsh	r0, [r1, #12]
     7f8:	e3500000 	cmp	r0, #0
     7fc:	1a000002 	bne	80c <_fflush_r+0x34>
     800:	e28dd008 	add	sp, sp, #8
     804:	e8bd4010 	pop	{r4, lr}
     808:	e12fff1e 	bx	lr
     80c:	e1a00004 	mov	r0, r4
     810:	e28dd008 	add	sp, sp, #8
     814:	e8bd4010 	pop	{r4, lr}
     818:	eaffff5d 	b	594 <__sflush_r>
     81c:	e58d1004 	str	r1, [sp, #4]
     820:	eb000037 	bl	904 <__sinit>
     824:	e59d1004 	ldr	r1, [sp, #4]
     828:	eafffff1 	b	7f4 <_fflush_r+0x1c>

0000082c <fflush>:
     82c:	e2501000 	subs	r1, r0, #0
     830:	e92d4008 	push	{r3, lr}
     834:	159f3020 	ldrne	r3, [pc, #32]	; 85c <fflush+0x30>
     838:	15930000 	ldrne	r0, [r3]
     83c:	18bd4008 	popne	{r3, lr}
     840:	1affffe4 	bne	7d8 <_fflush_r>
     844:	e59f3014 	ldr	r3, [pc, #20]	; 860 <fflush+0x34>
     848:	e59f1014 	ldr	r1, [pc, #20]	; 864 <fflush+0x38>
     84c:	e5930000 	ldr	r0, [r3]
     850:	eb0001d5 	bl	fac <_fwalk_reent>
     854:	e8bd4008 	pop	{r3, lr}
     858:	e12fff1e 	bx	lr
     85c:	00013aa8 	.word	0x00013aa8
     860:	000135a4 	.word	0x000135a4
     864:	000007d8 	.word	0x000007d8

00000868 <__fp_lock>:
     868:	e3a00000 	mov	r0, #0
     86c:	e12fff1e 	bx	lr

00000870 <__fp_unlock>:
     870:	e3a00000 	mov	r0, #0
     874:	e12fff1e 	bx	lr

00000878 <_cleanup_r>:
     878:	e92d4008 	push	{r3, lr}
     87c:	e59f1008 	ldr	r1, [pc, #8]	; 88c <_cleanup_r+0x14>
     880:	eb0001a8 	bl	f28 <_fwalk>
     884:	e8bd4008 	pop	{r3, lr}
     888:	e12fff1e 	bx	lr
     88c:	00007148 	.word	0x00007148

00000890 <__sfmoreglue>:
     890:	e2413001 	sub	r3, r1, #1
     894:	e92d4070 	push	{r4, r5, r6, lr}
     898:	e0835083 	add	r5, r3, r3, lsl #1
     89c:	e0833105 	add	r3, r3, r5, lsl #2
     8a0:	e1a05183 	lsl	r5, r3, #3
     8a4:	e1a06001 	mov	r6, r1
     8a8:	e2851074 	add	r1, r5, #116	; 0x74
     8ac:	eb0001e1 	bl	1038 <_malloc_r>
     8b0:	e2504000 	subs	r4, r0, #0
     8b4:	0a000006 	beq	8d4 <__sfmoreglue+0x44>
     8b8:	e3a01000 	mov	r1, #0
     8bc:	e284000c 	add	r0, r4, #12
     8c0:	e5846004 	str	r6, [r4, #4]
     8c4:	e2852068 	add	r2, r5, #104	; 0x68
     8c8:	e5841000 	str	r1, [r4]
     8cc:	e5840008 	str	r0, [r4, #8]
     8d0:	eb0003df 	bl	1854 <memset>
     8d4:	e1a00004 	mov	r0, r4
     8d8:	e8bd4070 	pop	{r4, r5, r6, lr}
     8dc:	e12fff1e 	bx	lr

000008e0 <_cleanup>:
     8e0:	e92d4008 	push	{r3, lr}
     8e4:	e59f3010 	ldr	r3, [pc, #16]	; 8fc <_cleanup+0x1c>
     8e8:	e59f1010 	ldr	r1, [pc, #16]	; 900 <_cleanup+0x20>
     8ec:	e5930000 	ldr	r0, [r3]
     8f0:	eb00018c 	bl	f28 <_fwalk>
     8f4:	e8bd4008 	pop	{r3, lr}
     8f8:	e12fff1e 	bx	lr
     8fc:	000135a4 	.word	0x000135a4
     900:	00007148 	.word	0x00007148

00000904 <__sinit>:
     904:	e92d4ff0 	push	{r4, r5, r6, r7, r8, r9, r10, r11, lr}
     908:	e5904038 	ldr	r4, [r0, #56]	; 0x38
     90c:	e3540000 	cmp	r4, #0
     910:	e24dd00c 	sub	sp, sp, #12
     914:	e1a07000 	mov	r7, r0
     918:	1a00004b 	bne	a4c <__sinit+0x148>
     91c:	e5975004 	ldr	r5, [r7, #4]
     920:	e59f0130 	ldr	r0, [pc, #304]	; a58 <__sinit+0x154>
     924:	e3a03004 	mov	r3, #4
     928:	e3a01003 	mov	r1, #3
     92c:	e2872fbb 	add	r2, r7, #748	; 0x2ec
     930:	e587003c 	str	r0, [r7, #60]	; 0x3c
     934:	e58712e4 	str	r1, [r7, #740]	; 0x2e4
     938:	e58722e8 	str	r2, [r7, #744]	; 0x2e8
     93c:	e58742e0 	str	r4, [r7, #736]	; 0x2e0
     940:	e285005c 	add	r0, r5, #92	; 0x5c
     944:	e1c530bc 	strh	r3, [r5, #12]
     948:	e5854000 	str	r4, [r5]
     94c:	e5854004 	str	r4, [r5, #4]
     950:	e5854008 	str	r4, [r5, #8]
     954:	e5854064 	str	r4, [r5, #100]	; 0x64
     958:	e1c540be 	strh	r4, [r5, #14]
     95c:	e5854010 	str	r4, [r5, #16]
     960:	e5854014 	str	r4, [r5, #20]
     964:	e5854018 	str	r4, [r5, #24]
     968:	e1a01004 	mov	r1, r4
     96c:	e3a02008 	mov	r2, #8
     970:	eb0003b7 	bl	1854 <memset>
     974:	e59fb0e0 	ldr	r11, [pc, #224]	; a5c <__sinit+0x158>
     978:	e5976008 	ldr	r6, [r7, #8]
     97c:	e59fa0dc 	ldr	r10, [pc, #220]	; a60 <__sinit+0x15c>
     980:	e59f90dc 	ldr	r9, [pc, #220]	; a64 <__sinit+0x160>
     984:	e59f80dc 	ldr	r8, [pc, #220]	; a68 <__sinit+0x164>
     988:	e3a03001 	mov	r3, #1
     98c:	e3a02009 	mov	r2, #9
     990:	e585501c 	str	r5, [r5, #28]
     994:	e585b020 	str	r11, [r5, #32]
     998:	e585a024 	str	r10, [r5, #36]	; 0x24
     99c:	e5859028 	str	r9, [r5, #40]	; 0x28
     9a0:	e585802c 	str	r8, [r5, #44]	; 0x2c
     9a4:	e1a01004 	mov	r1, r4
     9a8:	e1c630be 	strh	r3, [r6, #14]
     9ac:	e1c620bc 	strh	r2, [r6, #12]
     9b0:	e5864000 	str	r4, [r6]
     9b4:	e5864004 	str	r4, [r6, #4]
     9b8:	e5864008 	str	r4, [r6, #8]
     9bc:	e5864064 	str	r4, [r6, #100]	; 0x64
     9c0:	e5864010 	str	r4, [r6, #16]
     9c4:	e5864014 	str	r4, [r6, #20]
     9c8:	e5864018 	str	r4, [r6, #24]
     9cc:	e3a02008 	mov	r2, #8
     9d0:	e286005c 	add	r0, r6, #92	; 0x5c
     9d4:	e58d3004 	str	r3, [sp, #4]
     9d8:	eb00039d 	bl	1854 <memset>
     9dc:	e597500c 	ldr	r5, [r7, #12]
     9e0:	e3a00012 	mov	r0, #18
     9e4:	e3a02002 	mov	r2, #2
     9e8:	e586601c 	str	r6, [r6, #28]
     9ec:	e586b020 	str	r11, [r6, #32]
     9f0:	e586a024 	str	r10, [r6, #36]	; 0x24
     9f4:	e5869028 	str	r9, [r6, #40]	; 0x28
     9f8:	e586802c 	str	r8, [r6, #44]	; 0x2c
     9fc:	e1a01004 	mov	r1, r4
     a00:	e1c500bc 	strh	r0, [r5, #12]
     a04:	e1c520be 	strh	r2, [r5, #14]
     a08:	e5854000 	str	r4, [r5]
     a0c:	e5854004 	str	r4, [r5, #4]
     a10:	e5854008 	str	r4, [r5, #8]
     a14:	e5854064 	str	r4, [r5, #100]	; 0x64
     a18:	e5854010 	str	r4, [r5, #16]
     a1c:	e5854014 	str	r4, [r5, #20]
     a20:	e5854018 	str	r4, [r5, #24]
     a24:	e285005c 	add	r0, r5, #92	; 0x5c
     a28:	e3a02008 	mov	r2, #8
     a2c:	eb000388 	bl	1854 <memset>
     a30:	e59d3004 	ldr	r3, [sp, #4]
     a34:	e585501c 	str	r5, [r5, #28]
     a38:	e585b020 	str	r11, [r5, #32]
     a3c:	e585a024 	str	r10, [r5, #36]	; 0x24
     a40:	e5859028 	str	r9, [r5, #40]	; 0x28
     a44:	e585802c 	str	r8, [r5, #44]	; 0x2c
     a48:	e5873038 	str	r3, [r7, #56]	; 0x38
     a4c:	e28dd00c 	add	sp, sp, #12
     a50:	e8bd4ff0 	pop	{r4, r5, r6, r7, r8, r9, r10, r11, lr}
     a54:	e12fff1e 	bx	lr
     a58:	00000878 	.word	0x00000878
     a5c:	00001b24 	.word	0x00001b24
     a60:	00001b60 	.word	0x00001b60
     a64:	00001bb8 	.word	0x00001bb8
     a68:	00001be8 	.word	0x00001be8

00000a6c <__sfp>:
     a6c:	e59f30ec 	ldr	r3, [pc, #236]	; b60 <__sfp+0xf4>
     a70:	e92d4070 	push	{r4, r5, r6, lr}
     a74:	e5935000 	ldr	r5, [r3]
     a78:	e5953038 	ldr	r3, [r5, #56]	; 0x38
     a7c:	e3530000 	cmp	r3, #0
     a80:	e1a06000 	mov	r6, r0
     a84:	0a00002f 	beq	b48 <__sfp+0xdc>
     a88:	e2855e2e 	add	r5, r5, #736	; 0x2e0
     a8c:	e5953004 	ldr	r3, [r5, #4]
     a90:	e2533001 	subs	r3, r3, #1
     a94:	e5954008 	ldr	r4, [r5, #8]
     a98:	5a000004 	bpl	ab0 <__sfp+0x44>
     a9c:	ea00001d 	b	b18 <__sfp+0xac>
     aa0:	e2433001 	sub	r3, r3, #1
     aa4:	e3730001 	cmn	r3, #1
     aa8:	e2844068 	add	r4, r4, #104	; 0x68
     aac:	0a000019 	beq	b18 <__sfp+0xac>
     ab0:	e1d420fc 	ldrsh	r2, [r4, #12]
     ab4:	e3520000 	cmp	r2, #0
     ab8:	1afffff8 	bne	aa0 <__sfp+0x34>
     abc:	e3a05000 	mov	r5, #0
     ac0:	e3e02000 	mvn	r2, #0
     ac4:	e3a03001 	mov	r3, #1
     ac8:	e1c420be 	strh	r2, [r4, #14]
     acc:	e1c430bc 	strh	r3, [r4, #12]
     ad0:	e5845064 	str	r5, [r4, #100]	; 0x64
     ad4:	e5845000 	str	r5, [r4]
     ad8:	e5845008 	str	r5, [r4, #8]
     adc:	e5845004 	str	r5, [r4, #4]
     ae0:	e5845010 	str	r5, [r4, #16]
     ae4:	e5845014 	str	r5, [r4, #20]
     ae8:	e5845018 	str	r5, [r4, #24]
     aec:	e1a01005 	mov	r1, r5
     af0:	e284005c 	add	r0, r4, #92	; 0x5c
     af4:	e3a02008 	mov	r2, #8
     af8:	eb000355 	bl	1854 <memset>
     afc:	e5845030 	str	r5, [r4, #48]	; 0x30
     b00:	e5845034 	str	r5, [r4, #52]	; 0x34
     b04:	e5845044 	str	r5, [r4, #68]	; 0x44
     b08:	e5845048 	str	r5, [r4, #72]	; 0x48
     b0c:	e1a00004 	mov	r0, r4
     b10:	e8bd4070 	pop	{r4, r5, r6, lr}
     b14:	e12fff1e 	bx	lr
     b18:	e5953000 	ldr	r3, [r5]
     b1c:	e3530000 	cmp	r3, #0
     b20:	11a05003 	movne	r5, r3
     b24:	1affffd8 	bne	a8c <__sfp+0x20>
     b28:	e1a00006 	mov	r0, r6
     b2c:	e3a01004 	mov	r1, #4
     b30:	ebffff56 	bl	890 <__sfmoreglue>
     b34:	e3500000 	cmp	r0, #0
     b38:	e5850000 	str	r0, [r5]
     b3c:	0a000004 	beq	b54 <__sfp+0xe8>
     b40:	e1a05000 	mov	r5, r0
     b44:	eaffffd0 	b	a8c <__sfp+0x20>
     b48:	e1a00005 	mov	r0, r5
     b4c:	ebffff6c 	bl	904 <__sinit>
     b50:	eaffffcc 	b	a88 <__sfp+0x1c>
     b54:	e3a0300c 	mov	r3, #12
     b58:	e5863000 	str	r3, [r6]
     b5c:	eaffffeb 	b	b10 <__sfp+0xa4>
     b60:	000135a4 	.word	0x000135a4

00000b64 <__sfp_lock_acquire>:
     b64:	e12fff1e 	bx	lr

00000b68 <__sfp_lock_release>:
     b68:	e12fff1e 	bx	lr

00000b6c <__sinit_lock_acquire>:
     b6c:	e12fff1e 	bx	lr

00000b70 <__sinit_lock_release>:
     b70:	e12fff1e 	bx	lr

00000b74 <__fp_lock_all>:
     b74:	e92d4008 	push	{r3, lr}
     b78:	e59f3010 	ldr	r3, [pc, #16]	; b90 <__fp_lock_all+0x1c>
     b7c:	e59f1010 	ldr	r1, [pc, #16]	; b94 <__fp_lock_all+0x20>
     b80:	e5930000 	ldr	r0, [r3]
     b84:	eb0000e7 	bl	f28 <_fwalk>
     b88:	e8bd4008 	pop	{r3, lr}
     b8c:	e12fff1e 	bx	lr
     b90:	00013aa8 	.word	0x00013aa8
     b94:	00000868 	.word	0x00000868

00000b98 <__fp_unlock_all>:
     b98:	e92d4008 	push	{r3, lr}
     b9c:	e59f3010 	ldr	r3, [pc, #16]	; bb4 <__fp_unlock_all+0x1c>
     ba0:	e59f1010 	ldr	r1, [pc, #16]	; bb8 <__fp_unlock_all+0x20>
     ba4:	e5930000 	ldr	r0, [r3]
     ba8:	eb0000de 	bl	f28 <_fwalk>
     bac:	e8bd4008 	pop	{r3, lr}
     bb0:	e12fff1e 	bx	lr
     bb4:	00013aa8 	.word	0x00013aa8
     bb8:	00000870 	.word	0x00000870

00000bbc <_malloc_trim_r>:
     bbc:	e92d40f8 	push	{r3, r4, r5, r6, r7, lr}
     bc0:	e59f50e8 	ldr	r5, [pc, #232]	; cb0 <_malloc_trim_r+0xf4>
     bc4:	e1a07001 	mov	r7, r1
     bc8:	e1a04000 	mov	r4, r0
     bcc:	eb00035d 	bl	1948 <__malloc_lock>
     bd0:	e5953008 	ldr	r3, [r5, #8]
     bd4:	e5936004 	ldr	r6, [r3, #4]
     bd8:	e3c66003 	bic	r6, r6, #3
     bdc:	e0677006 	rsb	r7, r7, r6
     be0:	e2877efe 	add	r7, r7, #4064	; 0xfe0
     be4:	e287700f 	add	r7, r7, #15
     be8:	e1a07627 	lsr	r7, r7, #12
     bec:	e2477001 	sub	r7, r7, #1
     bf0:	e1a07607 	lsl	r7, r7, #12
     bf4:	e3570a01 	cmp	r7, #4096	; 0x1000
     bf8:	ba000006 	blt	c18 <_malloc_trim_r+0x5c>
     bfc:	e1a00004 	mov	r0, r4
     c00:	e3a01000 	mov	r1, #0
     c04:	eb000398 	bl	1a6c <_sbrk_r>
     c08:	e5953008 	ldr	r3, [r5, #8]
     c0c:	e0833006 	add	r3, r3, r6
     c10:	e1500003 	cmp	r0, r3
     c14:	0a000004 	beq	c2c <_malloc_trim_r+0x70>
     c18:	e1a00004 	mov	r0, r4
     c1c:	eb00034a 	bl	194c <__malloc_unlock>
     c20:	e3a00000 	mov	r0, #0
     c24:	e8bd40f8 	pop	{r3, r4, r5, r6, r7, lr}
     c28:	e12fff1e 	bx	lr
     c2c:	e1a00004 	mov	r0, r4
     c30:	e2671000 	rsb	r1, r7, #0
     c34:	eb00038c 	bl	1a6c <_sbrk_r>
     c38:	e3700001 	cmn	r0, #1
     c3c:	0a00000c 	beq	c74 <_malloc_trim_r+0xb8>
     c40:	e59f306c 	ldr	r3, [pc, #108]	; cb4 <_malloc_trim_r+0xf8>
     c44:	e5951008 	ldr	r1, [r5, #8]
     c48:	e5932000 	ldr	r2, [r3]
     c4c:	e0676006 	rsb	r6, r7, r6
     c50:	e3866001 	orr	r6, r6, #1
     c54:	e1a00004 	mov	r0, r4
     c58:	e0677002 	rsb	r7, r7, r2
     c5c:	e5816004 	str	r6, [r1, #4]
     c60:	e5837000 	str	r7, [r3]
     c64:	eb000338 	bl	194c <__malloc_unlock>
     c68:	e3a00001 	mov	r0, #1
     c6c:	e8bd40f8 	pop	{r3, r4, r5, r6, r7, lr}
     c70:	e12fff1e 	bx	lr
     c74:	e1a00004 	mov	r0, r4
     c78:	e3a01000 	mov	r1, #0
     c7c:	eb00037a 	bl	1a6c <_sbrk_r>
     c80:	e5953008 	ldr	r3, [r5, #8]
     c84:	e0632000 	rsb	r2, r3, r0
     c88:	e352000f 	cmp	r2, #15
     c8c:	daffffe1 	ble	c18 <_malloc_trim_r+0x5c>
     c90:	e59f1020 	ldr	r1, [pc, #32]	; cb8 <_malloc_trim_r+0xfc>
     c94:	e591c000 	ldr	r12, [r1]
     c98:	e59f1014 	ldr	r1, [pc, #20]	; cb4 <_malloc_trim_r+0xf8>
     c9c:	e3822001 	orr	r2, r2, #1
     ca0:	e06c0000 	rsb	r0, r12, r0
     ca4:	e5832004 	str	r2, [r3, #4]
     ca8:	e5810000 	str	r0, [r1]
     cac:	eaffffd9 	b	c18 <_malloc_trim_r+0x5c>
     cb0:	00013ed8 	.word	0x00013ed8
     cb4:	00014398 	.word	0x00014398
     cb8:	000142e0 	.word	0x000142e0

00000cbc <_free_r>:
     cbc:	e92d40f8 	push	{r3, r4, r5, r6, r7, lr}
     cc0:	e2514000 	subs	r4, r1, #0
     cc4:	e1a06000 	mov	r6, r0
     cc8:	0a000046 	beq	de8 <_free_r+0x12c>
     ccc:	eb00031d 	bl	1948 <__malloc_lock>
     cd0:	e514e004 	ldr	lr, [r4, #-4]
     cd4:	e59f1238 	ldr	r1, [pc, #568]	; f14 <_free_r+0x258>
     cd8:	e3ce3001 	bic	r3, lr, #1
     cdc:	e244c008 	sub	r12, r4, #8
     ce0:	e08c2003 	add	r2, r12, r3
     ce4:	e5910008 	ldr	r0, [r1, #8]
     ce8:	e5925004 	ldr	r5, [r2, #4]
     cec:	e1500002 	cmp	r0, r2
     cf0:	e3c55003 	bic	r5, r5, #3
     cf4:	0a00004a 	beq	e24 <_free_r+0x168>
     cf8:	e21ee001 	ands	lr, lr, #1
     cfc:	e5825004 	str	r5, [r2, #4]
     d00:	13a0e000 	movne	lr, #0
     d04:	1a000009 	bne	d30 <_free_r+0x74>
     d08:	e5144008 	ldr	r4, [r4, #-8]
     d0c:	e064c00c 	rsb	r12, r4, r12
     d10:	e59c0008 	ldr	r0, [r12, #8]
     d14:	e2817008 	add	r7, r1, #8
     d18:	e1500007 	cmp	r0, r7
     d1c:	e0833004 	add	r3, r3, r4
     d20:	159c400c 	ldrne	r4, [r12, #12]
     d24:	1580400c 	strne	r4, [r0, #12]
     d28:	15840008 	strne	r0, [r4, #8]
     d2c:	03a0e001 	moveq	lr, #1
     d30:	e0820005 	add	r0, r2, r5
     d34:	e5900004 	ldr	r0, [r0, #4]
     d38:	e3100001 	tst	r0, #1
     d3c:	1a000009 	bne	d68 <_free_r+0xac>
     d40:	e35e0000 	cmp	lr, #0
     d44:	e5920008 	ldr	r0, [r2, #8]
     d48:	e0833005 	add	r3, r3, r5
     d4c:	1a000002 	bne	d5c <_free_r+0xa0>
     d50:	e59f41c0 	ldr	r4, [pc, #448]	; f18 <_free_r+0x25c>
     d54:	e1500004 	cmp	r0, r4
     d58:	0a000047 	beq	e7c <_free_r+0x1c0>
     d5c:	e592200c 	ldr	r2, [r2, #12]
     d60:	e580200c 	str	r2, [r0, #12]
     d64:	e5820008 	str	r0, [r2, #8]
     d68:	e3832001 	orr	r2, r3, #1
     d6c:	e35e0000 	cmp	lr, #0
     d70:	e58c2004 	str	r2, [r12, #4]
     d74:	e78c3003 	str	r3, [r12, r3]
     d78:	1a000018 	bne	de0 <_free_r+0x124>
     d7c:	e3530c02 	cmp	r3, #512	; 0x200
     d80:	3a00001a 	bcc	df0 <_free_r+0x134>
     d84:	e1a024a3 	lsr	r2, r3, #9
     d88:	e3520004 	cmp	r2, #4
     d8c:	8a000042 	bhi	e9c <_free_r+0x1e0>
     d90:	e1a0e323 	lsr	lr, r3, #6
     d94:	e28ee038 	add	lr, lr, #56	; 0x38
     d98:	e1a0008e 	lsl	r0, lr, #1
     d9c:	e0810100 	add	r0, r1, r0, lsl #2
     da0:	e5902008 	ldr	r2, [r0, #8]
     da4:	e1520000 	cmp	r2, r0
     da8:	e59f1164 	ldr	r1, [pc, #356]	; f14 <_free_r+0x258>
     dac:	0a000044 	beq	ec4 <_free_r+0x208>
     db0:	e5921004 	ldr	r1, [r2, #4]
     db4:	e3c11003 	bic	r1, r1, #3
     db8:	e1530001 	cmp	r3, r1
     dbc:	2a000002 	bcs	dcc <_free_r+0x110>
     dc0:	e5922008 	ldr	r2, [r2, #8]
     dc4:	e1500002 	cmp	r0, r2
     dc8:	1afffff8 	bne	db0 <_free_r+0xf4>
     dcc:	e592300c 	ldr	r3, [r2, #12]
     dd0:	e58c300c 	str	r3, [r12, #12]
     dd4:	e58c2008 	str	r2, [r12, #8]
     dd8:	e583c008 	str	r12, [r3, #8]
     ddc:	e582c00c 	str	r12, [r2, #12]
     de0:	e1a00006 	mov	r0, r6
     de4:	eb0002d8 	bl	194c <__malloc_unlock>
     de8:	e8bd40f8 	pop	{r3, r4, r5, r6, r7, lr}
     dec:	e12fff1e 	bx	lr
     df0:	e5912004 	ldr	r2, [r1, #4]
     df4:	e1a031a3 	lsr	r3, r3, #3
     df8:	e1a00143 	asr	r0, r3, #2
     dfc:	e3a0e001 	mov	lr, #1
     e00:	e182001e 	orr	r0, r2, lr, lsl r0
     e04:	e0813183 	add	r3, r1, r3, lsl #3
     e08:	e5932008 	ldr	r2, [r3, #8]
     e0c:	e5810004 	str	r0, [r1, #4]
     e10:	e58c2008 	str	r2, [r12, #8]
     e14:	e58c300c 	str	r3, [r12, #12]
     e18:	e583c008 	str	r12, [r3, #8]
     e1c:	e582c00c 	str	r12, [r2, #12]
     e20:	eaffffee 	b	de0 <_free_r+0x124>
     e24:	e31e0001 	tst	lr, #1
     e28:	e0853003 	add	r3, r5, r3
     e2c:	1a000006 	bne	e4c <_free_r+0x190>
     e30:	e5142008 	ldr	r2, [r4, #-8]
     e34:	e062c00c 	rsb	r12, r2, r12
     e38:	e59c000c 	ldr	r0, [r12, #12]
     e3c:	e59ce008 	ldr	lr, [r12, #8]
     e40:	e58e000c 	str	r0, [lr, #12]
     e44:	e580e008 	str	lr, [r0, #8]
     e48:	e0833002 	add	r3, r3, r2
     e4c:	e59f20c8 	ldr	r2, [pc, #200]	; f1c <_free_r+0x260>
     e50:	e5920000 	ldr	r0, [r2]
     e54:	e3832001 	orr	r2, r3, #1
     e58:	e1530000 	cmp	r3, r0
     e5c:	e58c2004 	str	r2, [r12, #4]
     e60:	e581c008 	str	r12, [r1, #8]
     e64:	3affffdd 	bcc	de0 <_free_r+0x124>
     e68:	e59f30b0 	ldr	r3, [pc, #176]	; f20 <_free_r+0x264>
     e6c:	e1a00006 	mov	r0, r6
     e70:	e5931000 	ldr	r1, [r3]
     e74:	ebffff50 	bl	bbc <_malloc_trim_r>
     e78:	eaffffd8 	b	de0 <_free_r+0x124>
     e7c:	e3832001 	orr	r2, r3, #1
     e80:	e581c014 	str	r12, [r1, #20]
     e84:	e581c010 	str	r12, [r1, #16]
     e88:	e58c000c 	str	r0, [r12, #12]
     e8c:	e58c0008 	str	r0, [r12, #8]
     e90:	e58c2004 	str	r2, [r12, #4]
     e94:	e78c3003 	str	r3, [r12, r3]
     e98:	eaffffd0 	b	de0 <_free_r+0x124>
     e9c:	e3520014 	cmp	r2, #20
     ea0:	9282e05b 	addls	lr, r2, #91	; 0x5b
     ea4:	91a0008e 	lslls	r0, lr, #1
     ea8:	9affffbb 	bls	d9c <_free_r+0xe0>
     eac:	e3520054 	cmp	r2, #84	; 0x54
     eb0:	8a00000a 	bhi	ee0 <_free_r+0x224>
     eb4:	e1a0e623 	lsr	lr, r3, #12
     eb8:	e28ee06e 	add	lr, lr, #110	; 0x6e
     ebc:	e1a0008e 	lsl	r0, lr, #1
     ec0:	eaffffb5 	b	d9c <_free_r+0xe0>
     ec4:	e5913004 	ldr	r3, [r1, #4]
     ec8:	e1a0e14e 	asr	lr, lr, #2
     ecc:	e3a00001 	mov	r0, #1
     ed0:	e1830e10 	orr	r0, r3, r0, lsl lr
     ed4:	e1a03002 	mov	r3, r2
     ed8:	e5810004 	str	r0, [r1, #4]
     edc:	eaffffbb 	b	dd0 <_free_r+0x114>
     ee0:	e3520f55 	cmp	r2, #340	; 0x154
     ee4:	91a0e7a3 	lsrls	lr, r3, #15
     ee8:	928ee077 	addls	lr, lr, #119	; 0x77
     eec:	91a0008e 	lslls	r0, lr, #1
     ef0:	9affffa9 	bls	d9c <_free_r+0xe0>
     ef4:	e59f0028 	ldr	r0, [pc, #40]	; f24 <_free_r+0x268>
     ef8:	e1520000 	cmp	r2, r0
     efc:	91a0e923 	lsrls	lr, r3, #18
     f00:	928ee07c 	addls	lr, lr, #124	; 0x7c
     f04:	91a0008e 	lslls	r0, lr, #1
     f08:	83a000fc 	movhi	r0, #252	; 0xfc
     f0c:	83a0e07e 	movhi	lr, #126	; 0x7e
     f10:	eaffffa1 	b	d9c <_free_r+0xe0>
     f14:	00013ed8 	.word	0x00013ed8
     f18:	00013ee0 	.word	0x00013ee0
     f1c:	000142e4 	.word	0x000142e4
     f20:	00014394 	.word	0x00014394
     f24:	00000554 	.word	0x00000554

00000f28 <_fwalk>:
     f28:	e92d41f0 	push	{r4, r5, r6, r7, r8, lr}
     f2c:	e2906e2e 	adds	r6, r0, #736	; 0x2e0
     f30:	e1a08001 	mov	r8, r1
     f34:	0a000018 	beq	f9c <_fwalk+0x74>
     f38:	e3a07000 	mov	r7, #0
     f3c:	e5965004 	ldr	r5, [r6, #4]
     f40:	e2555001 	subs	r5, r5, #1
     f44:	e5964008 	ldr	r4, [r6, #8]
     f48:	4a00000d 	bmi	f84 <_fwalk+0x5c>
     f4c:	e1d430bc 	ldrh	r3, [r4, #12]
     f50:	e3530001 	cmp	r3, #1
     f54:	e2455001 	sub	r5, r5, #1
     f58:	9a000006 	bls	f78 <_fwalk+0x50>
     f5c:	e1d430fe 	ldrsh	r3, [r4, #14]
     f60:	e3730001 	cmn	r3, #1
     f64:	e1a00004 	mov	r0, r4
     f68:	0a000002 	beq	f78 <_fwalk+0x50>
     f6c:	e1a0e00f 	mov	lr, pc
     f70:	e12fff18 	bx	r8
     f74:	e1877000 	orr	r7, r7, r0
     f78:	e3750001 	cmn	r5, #1
     f7c:	e2844068 	add	r4, r4, #104	; 0x68
     f80:	1afffff1 	bne	f4c <_fwalk+0x24>
     f84:	e5966000 	ldr	r6, [r6]
     f88:	e3560000 	cmp	r6, #0
     f8c:	1affffea 	bne	f3c <_fwalk+0x14>
     f90:	e1a00007 	mov	r0, r7
     f94:	e8bd41f0 	pop	{r4, r5, r6, r7, r8, lr}
     f98:	e12fff1e 	bx	lr
     f9c:	e1a07006 	mov	r7, r6
     fa0:	e1a00007 	mov	r0, r7
     fa4:	e8bd41f0 	pop	{r4, r5, r6, r7, r8, lr}
     fa8:	e12fff1e 	bx	lr

00000fac <_fwalk_reent>:
     fac:	e92d43f8 	push	{r3, r4, r5, r6, r7, r8, r9, lr}
     fb0:	e2906e2e 	adds	r6, r0, #736	; 0x2e0
     fb4:	e1a08000 	mov	r8, r0
     fb8:	e1a09001 	mov	r9, r1
     fbc:	0a000019 	beq	1028 <_fwalk_reent+0x7c>
     fc0:	e3a07000 	mov	r7, #0
     fc4:	e5965004 	ldr	r5, [r6, #4]
     fc8:	e2555001 	subs	r5, r5, #1
     fcc:	e5964008 	ldr	r4, [r6, #8]
     fd0:	4a00000e 	bmi	1010 <_fwalk_reent+0x64>
     fd4:	e1d430bc 	ldrh	r3, [r4, #12]
     fd8:	e3530001 	cmp	r3, #1
     fdc:	e2455001 	sub	r5, r5, #1
     fe0:	9a000007 	bls	1004 <_fwalk_reent+0x58>
     fe4:	e1d430fe 	ldrsh	r3, [r4, #14]
     fe8:	e3730001 	cmn	r3, #1
     fec:	e1a01004 	mov	r1, r4
     ff0:	e1a00008 	mov	r0, r8
     ff4:	0a000002 	beq	1004 <_fwalk_reent+0x58>
     ff8:	e1a0e00f 	mov	lr, pc
     ffc:	e12fff19 	bx	r9
    1000:	e1877000 	orr	r7, r7, r0
    1004:	e3750001 	cmn	r5, #1
    1008:	e2844068 	add	r4, r4, #104	; 0x68
    100c:	1afffff0 	bne	fd4 <_fwalk_reent+0x28>
    1010:	e5966000 	ldr	r6, [r6]
    1014:	e3560000 	cmp	r6, #0
    1018:	1affffe9 	bne	fc4 <_fwalk_reent+0x18>
    101c:	e1a00007 	mov	r0, r7
    1020:	e8bd43f8 	pop	{r3, r4, r5, r6, r7, r8, r9, lr}
    1024:	e12fff1e 	bx	lr
    1028:	e1a07006 	mov	r7, r6
    102c:	e1a00007 	mov	r0, r7
    1030:	e8bd43f8 	pop	{r3, r4, r5, r6, r7, r8, r9, lr}
    1034:	e12fff1e 	bx	lr

00001038 <_malloc_r>:
    1038:	e92d4ff0 	push	{r4, r5, r6, r7, r8, r9, r10, r11, lr}
    103c:	e281500b 	add	r5, r1, #11
    1040:	e3550016 	cmp	r5, #22
    1044:	83c55007 	bichi	r5, r5, #7
    1048:	81a03fa5 	lsrhi	r3, r5, #31
    104c:	93a03000 	movls	r3, #0
    1050:	93a05010 	movls	r5, #16
    1054:	e1550001 	cmp	r5, r1
    1058:	21a01003 	movcs	r1, r3
    105c:	33831001 	orrcc	r1, r3, #1
    1060:	e3510000 	cmp	r1, #0
    1064:	13a0300c 	movne	r3, #12
    1068:	e24dd00c 	sub	sp, sp, #12
    106c:	e1a06000 	mov	r6, r0
    1070:	15803000 	strne	r3, [r0]
    1074:	13a04000 	movne	r4, #0
    1078:	1a000015 	bne	10d4 <_malloc_r+0x9c>
    107c:	eb000231 	bl	1948 <__malloc_lock>
    1080:	e3550f7e 	cmp	r5, #504	; 0x1f8
    1084:	2a000016 	bcs	10e4 <_malloc_r+0xac>
    1088:	e59f76c8 	ldr	r7, [pc, #1736]	; 1758 <_malloc_r+0x720>
    108c:	e1a0e1a5 	lsr	lr, r5, #3
    1090:	e087318e 	add	r3, r7, lr, lsl #3
    1094:	e593400c 	ldr	r4, [r3, #12]
    1098:	e1540003 	cmp	r4, r3
    109c:	0a000145 	beq	15b8 <_malloc_r+0x580>
    10a0:	e5943004 	ldr	r3, [r4, #4]
    10a4:	e3c33003 	bic	r3, r3, #3
    10a8:	e0843003 	add	r3, r4, r3
    10ac:	e593c004 	ldr	r12, [r3, #4]
    10b0:	e2841008 	add	r1, r4, #8
    10b4:	e8910006 	ldm	r1, {r1, r2}
    10b8:	e38cc001 	orr	r12, r12, #1
    10bc:	e581200c 	str	r2, [r1, #12]
    10c0:	e1a00006 	mov	r0, r6
    10c4:	e5821008 	str	r1, [r2, #8]
    10c8:	e583c004 	str	r12, [r3, #4]
    10cc:	eb00021e 	bl	194c <__malloc_unlock>
    10d0:	e2844008 	add	r4, r4, #8
    10d4:	e1a00004 	mov	r0, r4
    10d8:	e28dd00c 	add	sp, sp, #12
    10dc:	e8bd4ff0 	pop	{r4, r5, r6, r7, r8, r9, r10, r11, lr}
    10e0:	e12fff1e 	bx	lr
    10e4:	e1b0e4a5 	lsrs	lr, r5, #9
    10e8:	03a0107e 	moveq	r1, #126	; 0x7e
    10ec:	03a0e03f 	moveq	lr, #63	; 0x3f
    10f0:	1a000061 	bne	127c <_malloc_r+0x244>
    10f4:	e59f765c 	ldr	r7, [pc, #1628]	; 1758 <_malloc_r+0x720>
    10f8:	e0871101 	add	r1, r7, r1, lsl #2
    10fc:	e591400c 	ldr	r4, [r1, #12]
    1100:	e1510004 	cmp	r1, r4
    1104:	1a000005 	bne	1120 <_malloc_r+0xe8>
    1108:	ea00000a 	b	1138 <_malloc_r+0x100>
    110c:	e3530000 	cmp	r3, #0
    1110:	aa0000de 	bge	1490 <_malloc_r+0x458>
    1114:	e594400c 	ldr	r4, [r4, #12]
    1118:	e1510004 	cmp	r1, r4
    111c:	0a000005 	beq	1138 <_malloc_r+0x100>
    1120:	e5942004 	ldr	r2, [r4, #4]
    1124:	e3c22003 	bic	r2, r2, #3
    1128:	e0653002 	rsb	r3, r5, r2
    112c:	e353000f 	cmp	r3, #15
    1130:	dafffff5 	ble	110c <_malloc_r+0xd4>
    1134:	e24ee001 	sub	lr, lr, #1
    1138:	e28ee001 	add	lr, lr, #1
    113c:	e59f3614 	ldr	r3, [pc, #1556]	; 1758 <_malloc_r+0x720>
    1140:	e5974010 	ldr	r4, [r7, #16]
    1144:	e2838008 	add	r8, r3, #8
    1148:	e1540008 	cmp	r4, r8
    114c:	05931004 	ldreq	r1, [r3, #4]
    1150:	0a000016 	beq	11b0 <_malloc_r+0x178>
    1154:	e5942004 	ldr	r2, [r4, #4]
    1158:	e3c22003 	bic	r2, r2, #3
    115c:	e0651002 	rsb	r1, r5, r2
    1160:	e351000f 	cmp	r1, #15
    1164:	ca000101 	bgt	1570 <_malloc_r+0x538>
    1168:	e3510000 	cmp	r1, #0
    116c:	e5838014 	str	r8, [r3, #20]
    1170:	e5838010 	str	r8, [r3, #16]
    1174:	aa000046 	bge	1294 <_malloc_r+0x25c>
    1178:	e3520c02 	cmp	r2, #512	; 0x200
    117c:	2a0000dc 	bcs	14f4 <_malloc_r+0x4bc>
    1180:	e5930004 	ldr	r0, [r3, #4]
    1184:	e1a021a2 	lsr	r2, r2, #3
    1188:	e1a01142 	asr	r1, r2, #2
    118c:	e3a0c001 	mov	r12, #1
    1190:	e180111c 	orr	r1, r0, r12, lsl r1
    1194:	e0832182 	add	r2, r3, r2, lsl #3
    1198:	e5920008 	ldr	r0, [r2, #8]
    119c:	e5831004 	str	r1, [r3, #4]
    11a0:	e5840008 	str	r0, [r4, #8]
    11a4:	e584200c 	str	r2, [r4, #12]
    11a8:	e5824008 	str	r4, [r2, #8]
    11ac:	e580400c 	str	r4, [r0, #12]
    11b0:	e1a0314e 	asr	r3, lr, #2
    11b4:	e3a00001 	mov	r0, #1
    11b8:	e1a00310 	lsl	r0, r0, r3
    11bc:	e1500001 	cmp	r0, r1
    11c0:	8a00003e 	bhi	12c0 <_malloc_r+0x288>
    11c4:	e1110000 	tst	r1, r0
    11c8:	1a000008 	bne	11f0 <_malloc_r+0x1b8>
    11cc:	e1a00080 	lsl	r0, r0, #1
    11d0:	e3cee003 	bic	lr, lr, #3
    11d4:	e1110000 	tst	r1, r0
    11d8:	e28ee004 	add	lr, lr, #4
    11dc:	1a000003 	bne	11f0 <_malloc_r+0x1b8>
    11e0:	e1a00080 	lsl	r0, r0, #1
    11e4:	e1110000 	tst	r1, r0
    11e8:	e28ee004 	add	lr, lr, #4
    11ec:	0afffffb 	beq	11e0 <_malloc_r+0x1a8>
    11f0:	e087418e 	add	r4, r7, lr, lsl #3
    11f4:	e1a0c004 	mov	r12, r4
    11f8:	e1a0900e 	mov	r9, lr
    11fc:	e59c300c 	ldr	r3, [r12, #12]
    1200:	e15c0003 	cmp	r12, r3
    1204:	1a000005 	bne	1220 <_malloc_r+0x1e8>
    1208:	ea0000e5 	b	15a4 <_malloc_r+0x56c>
    120c:	e3520000 	cmp	r2, #0
    1210:	aa0000ee 	bge	15d0 <_malloc_r+0x598>
    1214:	e593300c 	ldr	r3, [r3, #12]
    1218:	e15c0003 	cmp	r12, r3
    121c:	0a0000e0 	beq	15a4 <_malloc_r+0x56c>
    1220:	e5931004 	ldr	r1, [r3, #4]
    1224:	e3c11003 	bic	r1, r1, #3
    1228:	e0652001 	rsb	r2, r5, r1
    122c:	e352000f 	cmp	r2, #15
    1230:	dafffff5 	ble	120c <_malloc_r+0x1d4>
    1234:	e1a04003 	mov	r4, r3
    1238:	e5b4c008 	ldr	r12, [r4, #8]!
    123c:	e593100c 	ldr	r1, [r3, #12]
    1240:	e3859001 	orr	r9, r5, #1
    1244:	e382e001 	orr	lr, r2, #1
    1248:	e0835005 	add	r5, r3, r5
    124c:	e5839004 	str	r9, [r3, #4]
    1250:	e1a00006 	mov	r0, r6
    1254:	e58c100c 	str	r1, [r12, #12]
    1258:	e581c008 	str	r12, [r1, #8]
    125c:	e5875014 	str	r5, [r7, #20]
    1260:	e5875010 	str	r5, [r7, #16]
    1264:	e585800c 	str	r8, [r5, #12]
    1268:	e5858008 	str	r8, [r5, #8]
    126c:	e585e004 	str	lr, [r5, #4]
    1270:	e7852002 	str	r2, [r5, r2]
    1274:	eb0001b4 	bl	194c <__malloc_unlock>
    1278:	eaffff95 	b	10d4 <_malloc_r+0x9c>
    127c:	e35e0004 	cmp	lr, #4
    1280:	8a000091 	bhi	14cc <_malloc_r+0x494>
    1284:	e1a0e325 	lsr	lr, r5, #6
    1288:	e28ee038 	add	lr, lr, #56	; 0x38
    128c:	e1a0108e 	lsl	r1, lr, #1
    1290:	eaffff97 	b	10f4 <_malloc_r+0xbc>
    1294:	e0842002 	add	r2, r4, r2
    1298:	e5923004 	ldr	r3, [r2, #4]
    129c:	e3833001 	orr	r3, r3, #1
    12a0:	e1a00006 	mov	r0, r6
    12a4:	e5823004 	str	r3, [r2, #4]
    12a8:	eb0001a7 	bl	194c <__malloc_unlock>
    12ac:	e2844008 	add	r4, r4, #8
    12b0:	e1a00004 	mov	r0, r4
    12b4:	e28dd00c 	add	sp, sp, #12
    12b8:	e8bd4ff0 	pop	{r4, r5, r6, r7, r8, r9, r10, r11, lr}
    12bc:	e12fff1e 	bx	lr
    12c0:	e5974008 	ldr	r4, [r7, #8]
    12c4:	e5949004 	ldr	r9, [r4, #4]
    12c8:	e3c99003 	bic	r9, r9, #3
    12cc:	e1550009 	cmp	r5, r9
    12d0:	8a000002 	bhi	12e0 <_malloc_r+0x2a8>
    12d4:	e0653009 	rsb	r3, r5, r9
    12d8:	e353000f 	cmp	r3, #15
    12dc:	ca00005e 	bgt	145c <_malloc_r+0x424>
    12e0:	e59fa474 	ldr	r10, [pc, #1140]	; 175c <_malloc_r+0x724>
    12e4:	e5973408 	ldr	r3, [r7, #1032]	; 0x408
    12e8:	e59ab000 	ldr	r11, [r10]
    12ec:	e3730001 	cmn	r3, #1
    12f0:	e085b00b 	add	r11, r5, r11
    12f4:	128bba01 	addne	r11, r11, #4096	; 0x1000
    12f8:	128bb00f 	addne	r11, r11, #15
    12fc:	13cbbeff 	bicne	r11, r11, #4080	; 0xff0
    1300:	028bb010 	addeq	r11, r11, #16
    1304:	13cbb00f 	bicne	r11, r11, #15
    1308:	e0842009 	add	r2, r4, r9
    130c:	e1a00006 	mov	r0, r6
    1310:	e1a0100b 	mov	r1, r11
    1314:	e58d2004 	str	r2, [sp, #4]
    1318:	eb0001d3 	bl	1a6c <_sbrk_r>
    131c:	e3700001 	cmn	r0, #1
    1320:	e1a08000 	mov	r8, r0
    1324:	e59d2004 	ldr	r2, [sp, #4]
    1328:	0a0000ba 	beq	1618 <_malloc_r+0x5e0>
    132c:	e1520000 	cmp	r2, r0
    1330:	8a0000b6 	bhi	1610 <_malloc_r+0x5d8>
    1334:	e59a3004 	ldr	r3, [r10, #4]
    1338:	e1520008 	cmp	r2, r8
    133c:	e08b3003 	add	r3, r11, r3
    1340:	e58a3004 	str	r3, [r10, #4]
    1344:	0a0000e8 	beq	16ec <_malloc_r+0x6b4>
    1348:	e5971408 	ldr	r1, [r7, #1032]	; 0x408
    134c:	e3710001 	cmn	r1, #1
    1350:	10622008 	rsbne	r2, r2, r8
    1354:	e59f13fc 	ldr	r1, [pc, #1020]	; 1758 <_malloc_r+0x720>
    1358:	10833002 	addne	r3, r3, r2
    135c:	05818408 	streq	r8, [r1, #1032]	; 0x408
    1360:	158a3004 	strne	r3, [r10, #4]
    1364:	e2183007 	ands	r3, r8, #7
    1368:	12632008 	rsbne	r2, r3, #8
    136c:	10888002 	addne	r8, r8, r2
    1370:	12633a01 	rsbne	r3, r3, #4096	; 0x1000
    1374:	12832008 	addne	r2, r3, #8
    1378:	e088300b 	add	r3, r8, r11
    137c:	03a02a01 	moveq	r2, #4096	; 0x1000
    1380:	e1a03a03 	lsl	r3, r3, #20
    1384:	e042ba23 	sub	r11, r2, r3, lsr #20
    1388:	e1a0100b 	mov	r1, r11
    138c:	e1a00006 	mov	r0, r6
    1390:	eb0001b5 	bl	1a6c <_sbrk_r>
    1394:	e3700001 	cmn	r0, #1
    1398:	10682000 	rsbne	r2, r8, r0
    139c:	e59a3004 	ldr	r3, [r10, #4]
    13a0:	108b2002 	addne	r2, r11, r2
    13a4:	03a0b000 	moveq	r11, #0
    13a8:	13822001 	orrne	r2, r2, #1
    13ac:	03a02001 	moveq	r2, #1
    13b0:	e08b3003 	add	r3, r11, r3
    13b4:	e1540007 	cmp	r4, r7
    13b8:	e5878008 	str	r8, [r7, #8]
    13bc:	e58a3004 	str	r3, [r10, #4]
    13c0:	e5882004 	str	r2, [r8, #4]
    13c4:	e59fb390 	ldr	r11, [pc, #912]	; 175c <_malloc_r+0x724>
    13c8:	0a00000d 	beq	1404 <_malloc_r+0x3cc>
    13cc:	e359000f 	cmp	r9, #15
    13d0:	9a0000b1 	bls	169c <_malloc_r+0x664>
    13d4:	e5940004 	ldr	r0, [r4, #4]
    13d8:	e249200c 	sub	r2, r9, #12
    13dc:	e3c22007 	bic	r2, r2, #7
    13e0:	e2000001 	and	r0, r0, #1
    13e4:	e1820000 	orr	r0, r2, r0
    13e8:	e3a01005 	mov	r1, #5
    13ec:	e352000f 	cmp	r2, #15
    13f0:	e0842002 	add	r2, r4, r2
    13f4:	e5840004 	str	r0, [r4, #4]
    13f8:	e5821004 	str	r1, [r2, #4]
    13fc:	e5821008 	str	r1, [r2, #8]
    1400:	8a0000c0 	bhi	1708 <_malloc_r+0x6d0>
    1404:	e59a202c 	ldr	r2, [r10, #44]	; 0x2c
    1408:	e1530002 	cmp	r3, r2
    140c:	e59f2348 	ldr	r2, [pc, #840]	; 175c <_malloc_r+0x724>
    1410:	8582302c 	strhi	r3, [r2, #44]	; 0x2c
    1414:	e59a2030 	ldr	r2, [r10, #48]	; 0x30
    1418:	e5974008 	ldr	r4, [r7, #8]
    141c:	e1530002 	cmp	r3, r2
    1420:	95943004 	ldrls	r3, [r4, #4]
    1424:	e59f2330 	ldr	r2, [pc, #816]	; 175c <_malloc_r+0x724>
    1428:	85941004 	ldrhi	r1, [r4, #4]
    142c:	85823030 	strhi	r3, [r2, #48]	; 0x30
    1430:	93c33003 	bicls	r3, r3, #3
    1434:	83c13003 	bichi	r3, r1, #3
    1438:	e1550003 	cmp	r5, r3
    143c:	e0653003 	rsb	r3, r5, r3
    1440:	8a000001 	bhi	144c <_malloc_r+0x414>
    1444:	e353000f 	cmp	r3, #15
    1448:	ca000003 	bgt	145c <_malloc_r+0x424>
    144c:	e1a00006 	mov	r0, r6
    1450:	eb00013d 	bl	194c <__malloc_unlock>
    1454:	e3a04000 	mov	r4, #0
    1458:	eaffff1d 	b	10d4 <_malloc_r+0x9c>
    145c:	e3852001 	orr	r2, r5, #1
    1460:	e3833001 	orr	r3, r3, #1
    1464:	e0845005 	add	r5, r4, r5
    1468:	e5842004 	str	r2, [r4, #4]
    146c:	e1a00006 	mov	r0, r6
    1470:	e5875008 	str	r5, [r7, #8]
    1474:	e5853004 	str	r3, [r5, #4]
    1478:	eb000133 	bl	194c <__malloc_unlock>
    147c:	e2844008 	add	r4, r4, #8
    1480:	e1a00004 	mov	r0, r4
    1484:	e28dd00c 	add	sp, sp, #12
    1488:	e8bd4ff0 	pop	{r4, r5, r6, r7, r8, r9, r10, r11, lr}
    148c:	e12fff1e 	bx	lr
    1490:	e0842002 	add	r2, r4, r2
    1494:	e592c004 	ldr	r12, [r2, #4]
    1498:	e2841008 	add	r1, r4, #8
    149c:	e891000a 	ldm	r1, {r1, r3}
    14a0:	e38cc001 	orr	r12, r12, #1
    14a4:	e581300c 	str	r3, [r1, #12]
    14a8:	e1a00006 	mov	r0, r6
    14ac:	e5831008 	str	r1, [r3, #8]
    14b0:	e582c004 	str	r12, [r2, #4]
    14b4:	eb000124 	bl	194c <__malloc_unlock>
    14b8:	e2844008 	add	r4, r4, #8
    14bc:	e1a00004 	mov	r0, r4
    14c0:	e28dd00c 	add	sp, sp, #12
    14c4:	e8bd4ff0 	pop	{r4, r5, r6, r7, r8, r9, r10, r11, lr}
    14c8:	e12fff1e 	bx	lr
    14cc:	e35e0014 	cmp	lr, #20
    14d0:	928ee05b 	addls	lr, lr, #91	; 0x5b
    14d4:	91a0108e 	lslls	r1, lr, #1
    14d8:	9affff05 	bls	10f4 <_malloc_r+0xbc>
    14dc:	e35e0054 	cmp	lr, #84	; 0x54
    14e0:	8a000067 	bhi	1684 <_malloc_r+0x64c>
    14e4:	e1a0e625 	lsr	lr, r5, #12
    14e8:	e28ee06e 	add	lr, lr, #110	; 0x6e
    14ec:	e1a0108e 	lsl	r1, lr, #1
    14f0:	eafffeff 	b	10f4 <_malloc_r+0xbc>
    14f4:	e1a034a2 	lsr	r3, r2, #9
    14f8:	e3530004 	cmp	r3, #4
    14fc:	9a00003f 	bls	1600 <_malloc_r+0x5c8>
    1500:	e3530014 	cmp	r3, #20
    1504:	9283105b 	addls	r1, r3, #91	; 0x5b
    1508:	91a00081 	lslls	r0, r1, #1
    150c:	9a000004 	bls	1524 <_malloc_r+0x4ec>
    1510:	e3530054 	cmp	r3, #84	; 0x54
    1514:	8a000080 	bhi	171c <_malloc_r+0x6e4>
    1518:	e1a01622 	lsr	r1, r2, #12
    151c:	e281106e 	add	r1, r1, #110	; 0x6e
    1520:	e1a00081 	lsl	r0, r1, #1
    1524:	e0870100 	add	r0, r7, r0, lsl #2
    1528:	e5903008 	ldr	r3, [r0, #8]
    152c:	e1530000 	cmp	r3, r0
    1530:	e59fc220 	ldr	r12, [pc, #544]	; 1758 <_malloc_r+0x720>
    1534:	0a00005d 	beq	16b0 <_malloc_r+0x678>
    1538:	e5931004 	ldr	r1, [r3, #4]
    153c:	e3c11003 	bic	r1, r1, #3
    1540:	e1520001 	cmp	r2, r1
    1544:	2a000002 	bcs	1554 <_malloc_r+0x51c>
    1548:	e5933008 	ldr	r3, [r3, #8]
    154c:	e1500003 	cmp	r0, r3
    1550:	1afffff8 	bne	1538 <_malloc_r+0x500>
    1554:	e593200c 	ldr	r2, [r3, #12]
    1558:	e5971004 	ldr	r1, [r7, #4]
    155c:	e584200c 	str	r2, [r4, #12]
    1560:	e5843008 	str	r3, [r4, #8]
    1564:	e5824008 	str	r4, [r2, #8]
    1568:	e583400c 	str	r4, [r3, #12]
    156c:	eaffff0f 	b	11b0 <_malloc_r+0x178>
    1570:	e385c001 	orr	r12, r5, #1
    1574:	e3812001 	orr	r2, r1, #1
    1578:	e0845005 	add	r5, r4, r5
    157c:	e584c004 	str	r12, [r4, #4]
    1580:	e1a00006 	mov	r0, r6
    1584:	e5835014 	str	r5, [r3, #20]
    1588:	e5835010 	str	r5, [r3, #16]
    158c:	e585800c 	str	r8, [r5, #12]
    1590:	e9850104 	stmib	r5, {r2, r8}
    1594:	e7851001 	str	r1, [r5, r1]
    1598:	e2844008 	add	r4, r4, #8
    159c:	eb0000ea 	bl	194c <__malloc_unlock>
    15a0:	eafffecb 	b	10d4 <_malloc_r+0x9c>
    15a4:	e2899001 	add	r9, r9, #1
    15a8:	e3190003 	tst	r9, #3
    15ac:	e28cc008 	add	r12, r12, #8
    15b0:	1affff11 	bne	11fc <_malloc_r+0x1c4>
    15b4:	ea00001f 	b	1638 <_malloc_r+0x600>
    15b8:	e2843008 	add	r3, r4, #8
    15bc:	e5944014 	ldr	r4, [r4, #20]
    15c0:	e1530004 	cmp	r3, r4
    15c4:	028ee002 	addeq	lr, lr, #2
    15c8:	0afffedb 	beq	113c <_malloc_r+0x104>
    15cc:	eafffeb3 	b	10a0 <_malloc_r+0x68>
    15d0:	e0831001 	add	r1, r3, r1
    15d4:	e591c004 	ldr	r12, [r1, #4]
    15d8:	e1a04003 	mov	r4, r3
    15dc:	e5b42008 	ldr	r2, [r4, #8]!
    15e0:	e593300c 	ldr	r3, [r3, #12]
    15e4:	e38cc001 	orr	r12, r12, #1
    15e8:	e581c004 	str	r12, [r1, #4]
    15ec:	e1a00006 	mov	r0, r6
    15f0:	e582300c 	str	r3, [r2, #12]
    15f4:	e5832008 	str	r2, [r3, #8]
    15f8:	eb0000d3 	bl	194c <__malloc_unlock>
    15fc:	eafffeb4 	b	10d4 <_malloc_r+0x9c>
    1600:	e1a01322 	lsr	r1, r2, #6
    1604:	e2811038 	add	r1, r1, #56	; 0x38
    1608:	e1a00081 	lsl	r0, r1, #1
    160c:	eaffffc4 	b	1524 <_malloc_r+0x4ec>
    1610:	e1540007 	cmp	r4, r7
    1614:	0affff46 	beq	1334 <_malloc_r+0x2fc>
    1618:	e5974008 	ldr	r4, [r7, #8]
    161c:	e5943004 	ldr	r3, [r4, #4]
    1620:	e3c33003 	bic	r3, r3, #3
    1624:	eaffff83 	b	1438 <_malloc_r+0x400>
    1628:	e5944000 	ldr	r4, [r4]
    162c:	e1540003 	cmp	r4, r3
    1630:	e24ee001 	sub	lr, lr, #1
    1634:	1a000045 	bne	1750 <_malloc_r+0x718>
    1638:	e31e0003 	tst	lr, #3
    163c:	e2443008 	sub	r3, r4, #8
    1640:	1afffff8 	bne	1628 <_malloc_r+0x5f0>
    1644:	e5973004 	ldr	r3, [r7, #4]
    1648:	e1c33000 	bic	r3, r3, r0
    164c:	e5873004 	str	r3, [r7, #4]
    1650:	e1a00080 	lsl	r0, r0, #1
    1654:	e1500003 	cmp	r0, r3
    1658:	8affff18 	bhi	12c0 <_malloc_r+0x288>
    165c:	e3500000 	cmp	r0, #0
    1660:	0affff16 	beq	12c0 <_malloc_r+0x288>
    1664:	e1130000 	tst	r3, r0
    1668:	e1a0e009 	mov	lr, r9
    166c:	1afffedf 	bne	11f0 <_malloc_r+0x1b8>
    1670:	e1a00080 	lsl	r0, r0, #1
    1674:	e1130000 	tst	r3, r0
    1678:	e28ee004 	add	lr, lr, #4
    167c:	0afffffb 	beq	1670 <_malloc_r+0x638>
    1680:	eafffeda 	b	11f0 <_malloc_r+0x1b8>
    1684:	e35e0f55 	cmp	lr, #340	; 0x154
    1688:	8a00000f 	bhi	16cc <_malloc_r+0x694>
    168c:	e1a0e7a5 	lsr	lr, r5, #15
    1690:	e28ee077 	add	lr, lr, #119	; 0x77
    1694:	e1a0108e 	lsl	r1, lr, #1
    1698:	eafffe95 	b	10f4 <_malloc_r+0xbc>
    169c:	e3a03001 	mov	r3, #1
    16a0:	e5883004 	str	r3, [r8, #4]
    16a4:	e1a04008 	mov	r4, r8
    16a8:	e3a03000 	mov	r3, #0
    16ac:	eaffff61 	b	1438 <_malloc_r+0x400>
    16b0:	e59c2004 	ldr	r2, [r12, #4]
    16b4:	e1a01141 	asr	r1, r1, #2
    16b8:	e3a00001 	mov	r0, #1
    16bc:	e1821110 	orr	r1, r2, r0, lsl r1
    16c0:	e1a02003 	mov	r2, r3
    16c4:	e58c1004 	str	r1, [r12, #4]
    16c8:	eaffffa3 	b	155c <_malloc_r+0x524>
    16cc:	e59f308c 	ldr	r3, [pc, #140]	; 1760 <_malloc_r+0x728>
    16d0:	e15e0003 	cmp	lr, r3
    16d4:	91a0e925 	lsrls	lr, r5, #18
    16d8:	928ee07c 	addls	lr, lr, #124	; 0x7c
    16dc:	91a0108e 	lslls	r1, lr, #1
    16e0:	83a010fc 	movhi	r1, #252	; 0xfc
    16e4:	83a0e07e 	movhi	lr, #126	; 0x7e
    16e8:	eafffe81 	b	10f4 <_malloc_r+0xbc>
    16ec:	e1b01a02 	lsls	r1, r2, #20
    16f0:	1affff14 	bne	1348 <_malloc_r+0x310>
    16f4:	e08b1009 	add	r1, r11, r9
    16f8:	e5972008 	ldr	r2, [r7, #8]
    16fc:	e3811001 	orr	r1, r1, #1
    1700:	e5821004 	str	r1, [r2, #4]
    1704:	eaffff3e 	b	1404 <_malloc_r+0x3cc>
    1708:	e2841008 	add	r1, r4, #8
    170c:	e1a00006 	mov	r0, r6
    1710:	ebfffd69 	bl	cbc <_free_r>
    1714:	e59b3004 	ldr	r3, [r11, #4]
    1718:	eaffff39 	b	1404 <_malloc_r+0x3cc>
    171c:	e3530f55 	cmp	r3, #340	; 0x154
    1720:	91a017a2 	lsrls	r1, r2, #15
    1724:	92811077 	addls	r1, r1, #119	; 0x77
    1728:	91a00081 	lslls	r0, r1, #1
    172c:	9affff7c 	bls	1524 <_malloc_r+0x4ec>
    1730:	e59f1028 	ldr	r1, [pc, #40]	; 1760 <_malloc_r+0x728>
    1734:	e1530001 	cmp	r3, r1
    1738:	91a01922 	lsrls	r1, r2, #18
    173c:	9281107c 	addls	r1, r1, #124	; 0x7c
    1740:	91a00081 	lslls	r0, r1, #1
    1744:	83a000fc 	movhi	r0, #252	; 0xfc
    1748:	83a0107e 	movhi	r1, #126	; 0x7e
    174c:	eaffff74 	b	1524 <_malloc_r+0x4ec>
    1750:	e5973004 	ldr	r3, [r7, #4]
    1754:	eaffffbd 	b	1650 <_malloc_r+0x618>
    1758:	00013ed8 	.word	0x00013ed8
    175c:	00014394 	.word	0x00014394
    1760:	00000554 	.word	0x00000554

00001764 <memcpy>:
    1764:	e352000f 	cmp	r2, #15
    1768:	e92d00f0 	push	{r4, r5, r6, r7}
    176c:	9a00002a 	bls	181c <memcpy+0xb8>
    1770:	e1803001 	orr	r3, r0, r1
    1774:	e3130003 	tst	r3, #3
    1778:	1a000031 	bne	1844 <memcpy+0xe0>
    177c:	e2426010 	sub	r6, r2, #16
    1780:	e1a06226 	lsr	r6, r6, #4
    1784:	e0805206 	add	r5, r0, r6, lsl #4
    1788:	e2855010 	add	r5, r5, #16
    178c:	e1a0c001 	mov	r12, r1
    1790:	e1a03000 	mov	r3, r0
    1794:	e59c4000 	ldr	r4, [r12]
    1798:	e5834000 	str	r4, [r3]
    179c:	e59c4004 	ldr	r4, [r12, #4]
    17a0:	e5834004 	str	r4, [r3, #4]
    17a4:	e59c4008 	ldr	r4, [r12, #8]
    17a8:	e5834008 	str	r4, [r3, #8]
    17ac:	e59c400c 	ldr	r4, [r12, #12]
    17b0:	e2833010 	add	r3, r3, #16
    17b4:	e5034004 	str	r4, [r3, #-4]
    17b8:	e1530005 	cmp	r3, r5
    17bc:	e28cc010 	add	r12, r12, #16
    17c0:	1afffff3 	bne	1794 <memcpy+0x30>
    17c4:	e2863001 	add	r3, r6, #1
    17c8:	e202700f 	and	r7, r2, #15
    17cc:	e1a03203 	lsl	r3, r3, #4
    17d0:	e3570003 	cmp	r7, #3
    17d4:	e0811003 	add	r1, r1, r3
    17d8:	e0803003 	add	r3, r0, r3
    17dc:	9a00001a 	bls	184c <memcpy+0xe8>
    17e0:	e1a05001 	mov	r5, r1
    17e4:	e1a04003 	mov	r4, r3
    17e8:	e1a0c007 	mov	r12, r7
    17ec:	e24cc004 	sub	r12, r12, #4
    17f0:	e4956004 	ldr	r6, [r5], #4
    17f4:	e35c0003 	cmp	r12, #3
    17f8:	e4846004 	str	r6, [r4], #4
    17fc:	8afffffa 	bhi	17ec <memcpy+0x88>
    1800:	e247c004 	sub	r12, r7, #4
    1804:	e3ccc003 	bic	r12, r12, #3
    1808:	e28cc004 	add	r12, r12, #4
    180c:	e083300c 	add	r3, r3, r12
    1810:	e081100c 	add	r1, r1, r12
    1814:	e2022003 	and	r2, r2, #3
    1818:	ea000000 	b	1820 <memcpy+0xbc>
    181c:	e1a03000 	mov	r3, r0
    1820:	e3520000 	cmp	r2, #0
    1824:	0a000004 	beq	183c <memcpy+0xd8>
    1828:	e0812002 	add	r2, r1, r2
    182c:	e4d1c001 	ldrb	r12, [r1], #1
    1830:	e1510002 	cmp	r1, r2
    1834:	e4c3c001 	strb	r12, [r3], #1
    1838:	1afffffb 	bne	182c <memcpy+0xc8>
    183c:	e8bd00f0 	pop	{r4, r5, r6, r7}
    1840:	e12fff1e 	bx	lr
    1844:	e1a03000 	mov	r3, r0
    1848:	eafffff6 	b	1828 <memcpy+0xc4>
    184c:	e1a02007 	mov	r2, r7
    1850:	eafffff2 	b	1820 <memcpy+0xbc>

00001854 <memset>:
    1854:	e3100003 	tst	r0, #3
    1858:	e92d0070 	push	{r4, r5, r6}
    185c:	0a000037 	beq	1940 <memset+0xec>
    1860:	e3520000 	cmp	r2, #0
    1864:	e2422001 	sub	r2, r2, #1
    1868:	0a000032 	beq	1938 <memset+0xe4>
    186c:	e201c0ff 	and	r12, r1, #255	; 0xff
    1870:	e1a03000 	mov	r3, r0
    1874:	ea000002 	b	1884 <memset+0x30>
    1878:	e3520000 	cmp	r2, #0
    187c:	e2422001 	sub	r2, r2, #1
    1880:	0a00002c 	beq	1938 <memset+0xe4>
    1884:	e4c3c001 	strb	r12, [r3], #1
    1888:	e3130003 	tst	r3, #3
    188c:	1afffff9 	bne	1878 <memset+0x24>
    1890:	e3520003 	cmp	r2, #3
    1894:	9a000020 	bls	191c <memset+0xc8>
    1898:	e20140ff 	and	r4, r1, #255	; 0xff
    189c:	e1844404 	orr	r4, r4, r4, lsl #8
    18a0:	e352000f 	cmp	r2, #15
    18a4:	e1844804 	orr	r4, r4, r4, lsl #16
    18a8:	9a000010 	bls	18f0 <memset+0x9c>
    18ac:	e2426010 	sub	r6, r2, #16
    18b0:	e1a06226 	lsr	r6, r6, #4
    18b4:	e2835010 	add	r5, r3, #16
    18b8:	e0855206 	add	r5, r5, r6, lsl #4
    18bc:	e1a0c003 	mov	r12, r3
    18c0:	e58c4000 	str	r4, [r12]
    18c4:	e58c4004 	str	r4, [r12, #4]
    18c8:	e58c4008 	str	r4, [r12, #8]
    18cc:	e58c400c 	str	r4, [r12, #12]
    18d0:	e28cc010 	add	r12, r12, #16
    18d4:	e15c0005 	cmp	r12, r5
    18d8:	1afffff8 	bne	18c0 <memset+0x6c>
    18dc:	e202200f 	and	r2, r2, #15
    18e0:	e2866001 	add	r6, r6, #1
    18e4:	e3520003 	cmp	r2, #3
    18e8:	e0833206 	add	r3, r3, r6, lsl #4
    18ec:	9a00000a 	bls	191c <memset+0xc8>
    18f0:	e1a05003 	mov	r5, r3
    18f4:	e1a0c002 	mov	r12, r2
    18f8:	e24cc004 	sub	r12, r12, #4
    18fc:	e35c0003 	cmp	r12, #3
    1900:	e4854004 	str	r4, [r5], #4
    1904:	8afffffb 	bhi	18f8 <memset+0xa4>
    1908:	e242c004 	sub	r12, r2, #4
    190c:	e3ccc003 	bic	r12, r12, #3
    1910:	e28cc004 	add	r12, r12, #4
    1914:	e083300c 	add	r3, r3, r12
    1918:	e2022003 	and	r2, r2, #3
    191c:	e3520000 	cmp	r2, #0
    1920:	120110ff 	andne	r1, r1, #255	; 0xff
    1924:	10832002 	addne	r2, r3, r2
    1928:	0a000002 	beq	1938 <memset+0xe4>
    192c:	e4c31001 	strb	r1, [r3], #1
    1930:	e1530002 	cmp	r3, r2
    1934:	1afffffc 	bne	192c <memset+0xd8>
    1938:	e8bd0070 	pop	{r4, r5, r6}
    193c:	e12fff1e 	bx	lr
    1940:	e1a03000 	mov	r3, r0
    1944:	eaffffd1 	b	1890 <memset+0x3c>

00001948 <__malloc_lock>:
    1948:	e12fff1e 	bx	lr

0000194c <__malloc_unlock>:
    194c:	e12fff1e 	bx	lr

00001950 <_printf_r>:
    1950:	e92d000e 	push	{r1, r2, r3}
    1954:	e52de004 	push	{lr}		; (str lr, [sp, #-4]!)
    1958:	e24dd008 	sub	sp, sp, #8
    195c:	e28dc010 	add	r12, sp, #16
    1960:	e1a0300c 	mov	r3, r12
    1964:	e5901008 	ldr	r1, [r0, #8]
    1968:	e59d200c 	ldr	r2, [sp, #12]
    196c:	e58dc004 	str	r12, [sp, #4]
    1970:	eb0000b9 	bl	1c5c <_vfprintf_r>
    1974:	e28dd008 	add	sp, sp, #8
    1978:	e49de004 	pop	{lr}		; (ldr lr, [sp], #4)
    197c:	e28dd00c 	add	sp, sp, #12
    1980:	e12fff1e 	bx	lr

00001984 <printf>:
    1984:	e92d000f 	push	{r0, r1, r2, r3}
    1988:	e52de004 	push	{lr}		; (str lr, [sp, #-4]!)
    198c:	e59f302c 	ldr	r3, [pc, #44]	; 19c0 <printf+0x3c>
    1990:	e24dd00c 	sub	sp, sp, #12
    1994:	e5930000 	ldr	r0, [r3]
    1998:	e28dc014 	add	r12, sp, #20
    199c:	e5901008 	ldr	r1, [r0, #8]
    19a0:	e1a0300c 	mov	r3, r12
    19a4:	e59d2010 	ldr	r2, [sp, #16]
    19a8:	e58dc004 	str	r12, [sp, #4]
    19ac:	eb0000aa 	bl	1c5c <_vfprintf_r>
    19b0:	e28dd00c 	add	sp, sp, #12
    19b4:	e49de004 	pop	{lr}		; (ldr lr, [sp], #4)
    19b8:	e28dd010 	add	sp, sp, #16
    19bc:	e12fff1e 	bx	lr
    19c0:	00013aa8 	.word	0x00013aa8

000019c4 <_puts_r>:
    19c4:	e92d40f0 	push	{r4, r5, r6, r7, lr}
    19c8:	e1a04000 	mov	r4, r0
    19cc:	e24dd024 	sub	sp, sp, #36	; 0x24
    19d0:	e1a00001 	mov	r0, r1
    19d4:	e1a05001 	mov	r5, r1
    19d8:	eb000087 	bl	1bfc <strlen>
    19dc:	e5943008 	ldr	r3, [r4, #8]
    19e0:	e1d320bc 	ldrh	r2, [r3, #12]
    19e4:	e3a01002 	mov	r1, #2
    19e8:	e3120a02 	tst	r2, #8192	; 0x2000
    19ec:	e58d1008 	str	r1, [sp, #8]
    19f0:	05931064 	ldreq	r1, [r3, #100]	; 0x64
    19f4:	03822a02 	orreq	r2, r2, #8192	; 0x2000
    19f8:	03c11a02 	biceq	r1, r1, #8192	; 0x2000
    19fc:	e3a0e001 	mov	lr, #1
    1a00:	e59f604c 	ldr	r6, [pc, #76]	; 1a54 <_puts_r+0x90>
    1a04:	05831064 	streq	r1, [r3, #100]	; 0x64
    1a08:	e2807001 	add	r7, r0, #1
    1a0c:	e28dc010 	add	r12, sp, #16
    1a10:	e58d0014 	str	r0, [sp, #20]
    1a14:	e58de01c 	str	lr, [sp, #28]
    1a18:	e1a00004 	mov	r0, r4
    1a1c:	01c320bc 	strheq	r2, [r3, #12]
    1a20:	e1a01003 	mov	r1, r3
    1a24:	e28d2004 	add	r2, sp, #4
    1a28:	e58d5010 	str	r5, [sp, #16]
    1a2c:	e58d700c 	str	r7, [sp, #12]
    1a30:	e58d6018 	str	r6, [sp, #24]
    1a34:	e58dc004 	str	r12, [sp, #4]
    1a38:	eb00166c 	bl	73f0 <__sfvwrite_r>
    1a3c:	e3500000 	cmp	r0, #0
    1a40:	03a0000a 	moveq	r0, #10
    1a44:	13e00000 	mvnne	r0, #0
    1a48:	e28dd024 	add	sp, sp, #36	; 0x24
    1a4c:	e8bd40f0 	pop	{r4, r5, r6, r7, lr}
    1a50:	e12fff1e 	bx	lr
    1a54:	0001351c 	.word	0x0001351c

00001a58 <puts>:
    1a58:	e59f3008 	ldr	r3, [pc, #8]	; 1a68 <puts+0x10>
    1a5c:	e1a01000 	mov	r1, r0
    1a60:	e5930000 	ldr	r0, [r3]
    1a64:	eaffffd6 	b	19c4 <_puts_r>
    1a68:	00013aa8 	.word	0x00013aa8

00001a6c <_sbrk_r>:
    1a6c:	e92d4038 	push	{r3, r4, r5, lr}
    1a70:	e59f4034 	ldr	r4, [pc, #52]	; 1aac <_sbrk_r+0x40>
    1a74:	e3a03000 	mov	r3, #0
    1a78:	e1a05000 	mov	r5, r0
    1a7c:	e1a00001 	mov	r0, r1
    1a80:	e5843000 	str	r3, [r4]
    1a84:	eb004546 	bl	12fa4 <_sbrk>
    1a88:	e3700001 	cmn	r0, #1
    1a8c:	0a000001 	beq	1a98 <_sbrk_r+0x2c>
    1a90:	e8bd4038 	pop	{r3, r4, r5, lr}
    1a94:	e12fff1e 	bx	lr
    1a98:	e5943000 	ldr	r3, [r4]
    1a9c:	e3530000 	cmp	r3, #0
    1aa0:	15853000 	strne	r3, [r5]
    1aa4:	e8bd4038 	pop	{r3, r4, r5, lr}
    1aa8:	e12fff1e 	bx	lr
    1aac:	000143d4 	.word	0x000143d4

00001ab0 <scanf>:
    1ab0:	e92d000f 	push	{r0, r1, r2, r3}
    1ab4:	e52de004 	push	{lr}		; (str lr, [sp, #-4]!)
    1ab8:	e59f302c 	ldr	r3, [pc, #44]	; 1aec <scanf+0x3c>
    1abc:	e24dd00c 	sub	sp, sp, #12
    1ac0:	e5930000 	ldr	r0, [r3]
    1ac4:	e28dc014 	add	r12, sp, #20
    1ac8:	e5901004 	ldr	r1, [r0, #4]
    1acc:	e1a0300c 	mov	r3, r12
    1ad0:	e59d2010 	ldr	r2, [sp, #16]
    1ad4:	e58dc004 	str	r12, [sp, #4]
    1ad8:	eb000dfe 	bl	52d8 <_vfscanf_r>
    1adc:	e28dd00c 	add	sp, sp, #12
    1ae0:	e49de004 	pop	{lr}		; (ldr lr, [sp], #4)
    1ae4:	e28dd010 	add	sp, sp, #16
    1ae8:	e12fff1e 	bx	lr
    1aec:	00013aa8 	.word	0x00013aa8

00001af0 <_scanf_r>:
    1af0:	e92d000e 	push	{r1, r2, r3}
    1af4:	e52de004 	push	{lr}		; (str lr, [sp, #-4]!)
    1af8:	e24dd008 	sub	sp, sp, #8
    1afc:	e28dc010 	add	r12, sp, #16
    1b00:	e1a0300c 	mov	r3, r12
    1b04:	e5901004 	ldr	r1, [r0, #4]
    1b08:	e59d200c 	ldr	r2, [sp, #12]
    1b0c:	e58dc004 	str	r12, [sp, #4]
    1b10:	eb000df0 	bl	52d8 <_vfscanf_r>
    1b14:	e28dd008 	add	sp, sp, #8
    1b18:	e49de004 	pop	{lr}		; (ldr lr, [sp], #4)
    1b1c:	e28dd00c 	add	sp, sp, #12
    1b20:	e12fff1e 	bx	lr

00001b24 <__sread>:
    1b24:	e92d4010 	push	{r4, lr}
    1b28:	e1a04001 	mov	r4, r1
    1b2c:	e1d110fe 	ldrsh	r1, [r1, #14]
    1b30:	eb001c60 	bl	8cb8 <_read_r>
    1b34:	e3500000 	cmp	r0, #0
    1b38:	a5943050 	ldrge	r3, [r4, #80]	; 0x50
    1b3c:	b1d430bc 	ldrhlt	r3, [r4, #12]
    1b40:	a0833000 	addge	r3, r3, r0
    1b44:	b3c33a01 	biclt	r3, r3, #4096	; 0x1000
    1b48:	a5843050 	strge	r3, [r4, #80]	; 0x50
    1b4c:	b1c430bc 	strhlt	r3, [r4, #12]
    1b50:	e8bd4010 	pop	{r4, lr}
    1b54:	e12fff1e 	bx	lr

00001b58 <__seofread>:
    1b58:	e3a00000 	mov	r0, #0
    1b5c:	e12fff1e 	bx	lr

00001b60 <__swrite>:
    1b60:	e92d40f8 	push	{r3, r4, r5, r6, r7, lr}
    1b64:	e1a04001 	mov	r4, r1
    1b68:	e1d110bc 	ldrh	r1, [r1, #12]
    1b6c:	e3110c01 	tst	r1, #256	; 0x100
    1b70:	e1a06002 	mov	r6, r2
    1b74:	e1a05003 	mov	r5, r3
    1b78:	e1a07000 	mov	r7, r0
    1b7c:	0a000004 	beq	1b94 <__swrite+0x34>
    1b80:	e1d410fe 	ldrsh	r1, [r4, #14]
    1b84:	e3a02000 	mov	r2, #0
    1b88:	e3a03002 	mov	r3, #2
    1b8c:	eb001788 	bl	79b4 <_lseek_r>
    1b90:	e1d410bc 	ldrh	r1, [r4, #12]
    1b94:	e3c11a01 	bic	r1, r1, #4096	; 0x1000
    1b98:	e1c410bc 	strh	r1, [r4, #12]
    1b9c:	e1a00007 	mov	r0, r7
    1ba0:	e1d410fe 	ldrsh	r1, [r4, #14]
    1ba4:	e1a02006 	mov	r2, r6
    1ba8:	e1a03005 	mov	r3, r5
    1bac:	eb000ddb 	bl	5320 <_write_r>
    1bb0:	e8bd40f8 	pop	{r3, r4, r5, r6, r7, lr}
    1bb4:	e12fff1e 	bx	lr

00001bb8 <__sseek>:
    1bb8:	e92d4010 	push	{r4, lr}
    1bbc:	e1a04001 	mov	r4, r1
    1bc0:	e1d110fe 	ldrsh	r1, [r1, #14]
    1bc4:	eb00177a 	bl	79b4 <_lseek_r>
    1bc8:	e1d430bc 	ldrh	r3, [r4, #12]
    1bcc:	e3700001 	cmn	r0, #1
    1bd0:	03c33a01 	biceq	r3, r3, #4096	; 0x1000
    1bd4:	13833a01 	orrne	r3, r3, #4096	; 0x1000
    1bd8:	15840050 	strne	r0, [r4, #80]	; 0x50
    1bdc:	e1c430bc 	strh	r3, [r4, #12]
    1be0:	e8bd4010 	pop	{r4, lr}
    1be4:	e12fff1e 	bx	lr

00001be8 <__sclose>:
    1be8:	e92d4008 	push	{r3, lr}
    1bec:	e1d110fe 	ldrsh	r1, [r1, #14]
    1bf0:	eb000ed3 	bl	5744 <_close_r>
    1bf4:	e8bd4008 	pop	{r3, lr}
    1bf8:	e12fff1e 	bx	lr

00001bfc <strlen>:
    1bfc:	e3c01003 	bic	r1, r0, #3
    1c00:	e2100003 	ands	r0, r0, #3
    1c04:	e2600000 	rsb	r0, r0, #0
    1c08:	e4913004 	ldr	r3, [r1], #4
    1c0c:	e280c004 	add	r12, r0, #4
    1c10:	e1a0c18c 	lsl	r12, r12, #3
    1c14:	e3e02000 	mvn	r2, #0
    1c18:	11833c32 	orrne	r3, r3, r2, lsr r12
    1c1c:	e3a0c001 	mov	r12, #1
    1c20:	e18cc40c 	orr	r12, r12, r12, lsl #8
    1c24:	e18cc80c 	orr	r12, r12, r12, lsl #16
    1c28:	e043200c 	sub	r2, r3, r12
    1c2c:	e1c22003 	bic	r2, r2, r3
    1c30:	e012238c 	ands	r2, r2, r12, lsl #7
    1c34:	04913004 	ldreq	r3, [r1], #4
    1c38:	02800004 	addeq	r0, r0, #4
    1c3c:	0afffff9 	beq	1c28 <strlen+0x2c>
    1c40:	e31300ff 	tst	r3, #255	; 0xff
    1c44:	12800001 	addne	r0, r0, #1
    1c48:	13130cff 	tstne	r3, #65280	; 0xff00
    1c4c:	12800001 	addne	r0, r0, #1
    1c50:	131308ff 	tstne	r3, #16711680	; 0xff0000
    1c54:	12800001 	addne	r0, r0, #1
    1c58:	e12fff1e 	bx	lr

00001c5c <_vfprintf_r>:
    1c5c:	e92d4ff0 	push	{r4, r5, r6, r7, r8, r9, r10, r11, lr}
    1c60:	e24ddf43 	sub	sp, sp, #268	; 0x10c
    1c64:	e1a04003 	mov	r4, r3
    1c68:	e58d1028 	str	r1, [sp, #40]	; 0x28
    1c6c:	e58d2024 	str	r2, [sp, #36]	; 0x24
    1c70:	e58d0034 	str	r0, [sp, #52]	; 0x34
    1c74:	eb001742 	bl	7984 <_localeconv_r>
    1c78:	e5900000 	ldr	r0, [r0]
    1c7c:	e58d0054 	str	r0, [sp, #84]	; 0x54
    1c80:	ebffffdd 	bl	1bfc <strlen>
    1c84:	e59d5034 	ldr	r5, [sp, #52]	; 0x34
    1c88:	e3550000 	cmp	r5, #0
    1c8c:	e58d005c 	str	r0, [sp, #92]	; 0x5c
    1c90:	e58d4044 	str	r4, [sp, #68]	; 0x44
    1c94:	0a000002 	beq	1ca4 <_vfprintf_r+0x48>
    1c98:	e5953038 	ldr	r3, [r5, #56]	; 0x38
    1c9c:	e3530000 	cmp	r3, #0
    1ca0:	0a0000e2 	beq	2030 <_vfprintf_r+0x3d4>
    1ca4:	e59dc028 	ldr	r12, [sp, #40]	; 0x28
    1ca8:	e1dc30bc 	ldrh	r3, [r12, #12]
    1cac:	e3130a02 	tst	r3, #8192	; 0x2000
    1cb0:	059c1064 	ldreq	r1, [r12, #100]	; 0x64
    1cb4:	e1a02003 	mov	r2, r3
    1cb8:	03832a02 	orreq	r2, r3, #8192	; 0x2000
    1cbc:	03c13a02 	biceq	r3, r1, #8192	; 0x2000
    1cc0:	01cc20bc 	strheq	r2, [r12, #12]
    1cc4:	058c3064 	streq	r3, [r12, #100]	; 0x64
    1cc8:	e3120008 	tst	r2, #8
    1ccc:	0a0000a7 	beq	1f70 <_vfprintf_r+0x314>
    1cd0:	e59d5028 	ldr	r5, [sp, #40]	; 0x28
    1cd4:	e5953010 	ldr	r3, [r5, #16]
    1cd8:	e3530000 	cmp	r3, #0
    1cdc:	0a0000a3 	beq	1f70 <_vfprintf_r+0x314>
    1ce0:	e202201a 	and	r2, r2, #26
    1ce4:	e352000a 	cmp	r2, #10
    1ce8:	0a0000aa 	beq	1f98 <_vfprintf_r+0x33c>
    1cec:	e3a03000 	mov	r3, #0
    1cf0:	e28dc0c8 	add	r12, sp, #200	; 0xc8
    1cf4:	e59f5f5c 	ldr	r5, [pc, #3932]	; 2c58 <_vfprintf_r+0xffc>
    1cf8:	e58dc01c 	str	r12, [sp, #28]
    1cfc:	e58d309c 	str	r3, [sp, #156]	; 0x9c
    1d00:	e58d3098 	str	r3, [sp, #152]	; 0x98
    1d04:	e58d303c 	str	r3, [sp, #60]	; 0x3c
    1d08:	e58dc094 	str	r12, [sp, #148]	; 0x94
    1d0c:	e58d3058 	str	r3, [sp, #88]	; 0x58
    1d10:	e58d3060 	str	r3, [sp, #96]	; 0x60
    1d14:	e58d3068 	str	r3, [sp, #104]	; 0x68
    1d18:	e58d3064 	str	r3, [sp, #100]	; 0x64
    1d1c:	e58d3048 	str	r3, [sp, #72]	; 0x48
    1d20:	e1a0700c 	mov	r7, r12
    1d24:	e2859010 	add	r9, r5, #16
    1d28:	e59dc024 	ldr	r12, [sp, #36]	; 0x24
    1d2c:	e5dc3000 	ldrb	r3, [r12]
    1d30:	e3530025 	cmp	r3, #37	; 0x25
    1d34:	13530000 	cmpne	r3, #0
    1d38:	0a0000bf 	beq	203c <_vfprintf_r+0x3e0>
    1d3c:	e28c3001 	add	r3, r12, #1
    1d40:	e1a04003 	mov	r4, r3
    1d44:	e5d33000 	ldrb	r3, [r3]
    1d48:	e3530025 	cmp	r3, #37	; 0x25
    1d4c:	13530000 	cmpne	r3, #0
    1d50:	e2843001 	add	r3, r4, #1
    1d54:	1afffff9 	bne	1d40 <_vfprintf_r+0xe4>
    1d58:	e59dc024 	ldr	r12, [sp, #36]	; 0x24
    1d5c:	e054500c 	subs	r5, r4, r12
    1d60:	0a00000d 	beq	1d9c <_vfprintf_r+0x140>
    1d64:	e59d3098 	ldr	r3, [sp, #152]	; 0x98
    1d68:	e59d209c 	ldr	r2, [sp, #156]	; 0x9c
    1d6c:	e2833001 	add	r3, r3, #1
    1d70:	e3530007 	cmp	r3, #7
    1d74:	e0822005 	add	r2, r2, r5
    1d78:	e587c000 	str	r12, [r7]
    1d7c:	e5875004 	str	r5, [r7, #4]
    1d80:	e58d3098 	str	r3, [sp, #152]	; 0x98
    1d84:	e58d209c 	str	r2, [sp, #156]	; 0x9c
    1d88:	d2877008 	addle	r7, r7, #8
    1d8c:	ca000091 	bgt	1fd8 <_vfprintf_r+0x37c>
    1d90:	e59dc048 	ldr	r12, [sp, #72]	; 0x48
    1d94:	e08cc005 	add	r12, r12, r5
    1d98:	e58dc048 	str	r12, [sp, #72]	; 0x48
    1d9c:	e5d43000 	ldrb	r3, [r4]
    1da0:	e3530000 	cmp	r3, #0
    1da4:	0a000093 	beq	1ff8 <_vfprintf_r+0x39c>
    1da8:	e2845001 	add	r5, r4, #1
    1dac:	e3e0c000 	mvn	r12, #0
    1db0:	e3a03000 	mov	r3, #0
    1db4:	e58d5024 	str	r5, [sp, #36]	; 0x24
    1db8:	e5d48001 	ldrb	r8, [r4, #1]
    1dbc:	e58dc02c 	str	r12, [sp, #44]	; 0x2c
    1dc0:	e1a02003 	mov	r2, r3
    1dc4:	e5cd3077 	strb	r3, [sp, #119]	; 0x77
    1dc8:	e58d3040 	str	r3, [sp, #64]	; 0x40
    1dcc:	e58d3020 	str	r3, [sp, #32]
    1dd0:	e1a03005 	mov	r3, r5
    1dd4:	e2833001 	add	r3, r3, #1
    1dd8:	e2481020 	sub	r1, r8, #32
    1ddc:	e3510058 	cmp	r1, #88	; 0x58
    1de0:	979ff101 	ldrls	pc, [pc, r1, lsl #2]
    1de4:	ea00027f 	b	27e8 <_vfprintf_r+0xb8c>
    1de8:	000025e4 	.word	0x000025e4
    1dec:	000027e8 	.word	0x000027e8
    1df0:	000027e8 	.word	0x000027e8
    1df4:	000026c0 	.word	0x000026c0
    1df8:	000027e8 	.word	0x000027e8
    1dfc:	000027e8 	.word	0x000027e8
    1e00:	000027e8 	.word	0x000027e8
    1e04:	000027e8 	.word	0x000027e8
    1e08:	000027e8 	.word	0x000027e8
    1e0c:	000027e8 	.word	0x000027e8
    1e10:	000024c4 	.word	0x000024c4
    1e14:	000025d8 	.word	0x000025d8
    1e18:	000027e8 	.word	0x000027e8
    1e1c:	00001f5c 	.word	0x00001f5c
    1e20:	000022cc 	.word	0x000022cc
    1e24:	000027e8 	.word	0x000027e8
    1e28:	000027a4 	.word	0x000027a4
    1e2c:	000027b8 	.word	0x000027b8
    1e30:	000027b8 	.word	0x000027b8
    1e34:	000027b8 	.word	0x000027b8
    1e38:	000027b8 	.word	0x000027b8
    1e3c:	000027b8 	.word	0x000027b8
    1e40:	000027b8 	.word	0x000027b8
    1e44:	000027b8 	.word	0x000027b8
    1e48:	000027b8 	.word	0x000027b8
    1e4c:	000027b8 	.word	0x000027b8
    1e50:	000027e8 	.word	0x000027e8
    1e54:	000027e8 	.word	0x000027e8
    1e58:	000027e8 	.word	0x000027e8
    1e5c:	000027e8 	.word	0x000027e8
    1e60:	000027e8 	.word	0x000027e8
    1e64:	000027e8 	.word	0x000027e8
    1e68:	000027e8 	.word	0x000027e8
    1e6c:	000027e8 	.word	0x000027e8
    1e70:	000027e8 	.word	0x000027e8
    1e74:	000027e8 	.word	0x000027e8
    1e78:	00002370 	.word	0x00002370
    1e7c:	000023c8 	.word	0x000023c8
    1e80:	000027e8 	.word	0x000027e8
    1e84:	000023c8 	.word	0x000023c8
    1e88:	000027e8 	.word	0x000027e8
    1e8c:	000027e8 	.word	0x000027e8
    1e90:	000027e8 	.word	0x000027e8
    1e94:	000027e8 	.word	0x000027e8
    1e98:	00002470 	.word	0x00002470
    1e9c:	000027e8 	.word	0x000027e8
    1ea0:	000027e8 	.word	0x000027e8
    1ea4:	00002484 	.word	0x00002484
    1ea8:	000027e8 	.word	0x000027e8
    1eac:	000027e8 	.word	0x000027e8
    1eb0:	000027e8 	.word	0x000027e8
    1eb4:	000027e8 	.word	0x000027e8
    1eb8:	000027e8 	.word	0x000027e8
    1ebc:	00002320 	.word	0x00002320
    1ec0:	000027e8 	.word	0x000027e8
    1ec4:	000027e8 	.word	0x000027e8
    1ec8:	00002758 	.word	0x00002758
    1ecc:	000027e8 	.word	0x000027e8
    1ed0:	000027e8 	.word	0x000027e8
    1ed4:	000027e8 	.word	0x000027e8
    1ed8:	000027e8 	.word	0x000027e8
    1edc:	000027e8 	.word	0x000027e8
    1ee0:	000027e8 	.word	0x000027e8
    1ee4:	000027e8 	.word	0x000027e8
    1ee8:	000027e8 	.word	0x000027e8
    1eec:	000027e8 	.word	0x000027e8
    1ef0:	000027e8 	.word	0x000027e8
    1ef4:	000026d4 	.word	0x000026d4
    1ef8:	00002718 	.word	0x00002718
    1efc:	000023c8 	.word	0x000023c8
    1f00:	000023c8 	.word	0x000023c8
    1f04:	000023c8 	.word	0x000023c8
    1f08:	0000263c 	.word	0x0000263c
    1f0c:	00002718 	.word	0x00002718
    1f10:	000027e8 	.word	0x000027e8
    1f14:	000027e8 	.word	0x000027e8
    1f18:	00002650 	.word	0x00002650
    1f1c:	000027e8 	.word	0x000027e8
    1f20:	00002680 	.word	0x00002680
    1f24:	0000229c 	.word	0x0000229c
    1f28:	000025f4 	.word	0x000025f4
    1f2c:	000024ec 	.word	0x000024ec
    1f30:	000027e8 	.word	0x000027e8
    1f34:	00002500 	.word	0x00002500
    1f38:	000027e8 	.word	0x000027e8
    1f3c:	00002044 	.word	0x00002044
    1f40:	000027e8 	.word	0x000027e8
    1f44:	000027e8 	.word	0x000027e8
    1f48:	00002574 	.word	0x00002574
    1f4c:	e59d5040 	ldr	r5, [sp, #64]	; 0x40
    1f50:	e2655000 	rsb	r5, r5, #0
    1f54:	e58d5040 	str	r5, [sp, #64]	; 0x40
    1f58:	e58d1044 	str	r1, [sp, #68]	; 0x44
    1f5c:	e59dc020 	ldr	r12, [sp, #32]
    1f60:	e38cc004 	orr	r12, r12, #4
    1f64:	e58dc020 	str	r12, [sp, #32]
    1f68:	e5d38000 	ldrb	r8, [r3]
    1f6c:	eaffff98 	b	1dd4 <_vfprintf_r+0x178>
    1f70:	e59d0034 	ldr	r0, [sp, #52]	; 0x34
    1f74:	e59d1028 	ldr	r1, [sp, #40]	; 0x28
    1f78:	eb000cf9 	bl	5364 <__swsetup_r>
    1f7c:	e3500000 	cmp	r0, #0
    1f80:	1a000010 	bne	1fc8 <_vfprintf_r+0x36c>
    1f84:	e59dc028 	ldr	r12, [sp, #40]	; 0x28
    1f88:	e1dc20bc 	ldrh	r2, [r12, #12]
    1f8c:	e202201a 	and	r2, r2, #26
    1f90:	e352000a 	cmp	r2, #10
    1f94:	1affff54 	bne	1cec <_vfprintf_r+0x90>
    1f98:	e59d5028 	ldr	r5, [sp, #40]	; 0x28
    1f9c:	e1d530fe 	ldrsh	r3, [r5, #14]
    1fa0:	e3530000 	cmp	r3, #0
    1fa4:	baffff50 	blt	1cec <_vfprintf_r+0x90>
    1fa8:	e59d0034 	ldr	r0, [sp, #52]	; 0x34
    1fac:	e1a01005 	mov	r1, r5
    1fb0:	e59d2024 	ldr	r2, [sp, #36]	; 0x24
    1fb4:	e1a03004 	mov	r3, r4
    1fb8:	eb000711 	bl	3c04 <__sbprintf>
    1fbc:	e28ddf43 	add	sp, sp, #268	; 0x10c
    1fc0:	e8bd4ff0 	pop	{r4, r5, r6, r7, r8, r9, r10, r11, lr}
    1fc4:	e12fff1e 	bx	lr
    1fc8:	e3e00000 	mvn	r0, #0
    1fcc:	e28ddf43 	add	sp, sp, #268	; 0x10c
    1fd0:	e8bd4ff0 	pop	{r4, r5, r6, r7, r8, r9, r10, r11, lr}
    1fd4:	e12fff1e 	bx	lr
    1fd8:	e59d0034 	ldr	r0, [sp, #52]	; 0x34
    1fdc:	e59d1028 	ldr	r1, [sp, #40]	; 0x28
    1fe0:	e28d2094 	add	r2, sp, #148	; 0x94
    1fe4:	eb002f30 	bl	dcac <__sprint_r>
    1fe8:	e3500000 	cmp	r0, #0
    1fec:	1a000007 	bne	2010 <_vfprintf_r+0x3b4>
    1ff0:	e28d70c8 	add	r7, sp, #200	; 0xc8
    1ff4:	eaffff65 	b	1d90 <_vfprintf_r+0x134>
    1ff8:	e59d309c 	ldr	r3, [sp, #156]	; 0x9c
    1ffc:	e3530000 	cmp	r3, #0
    2000:	159d0034 	ldrne	r0, [sp, #52]	; 0x34
    2004:	159d1028 	ldrne	r1, [sp, #40]	; 0x28
    2008:	128d2094 	addne	r2, sp, #148	; 0x94
    200c:	1b002f26 	blne	dcac <__sprint_r>
    2010:	e59d4028 	ldr	r4, [sp, #40]	; 0x28
    2014:	e1d430bc 	ldrh	r3, [r4, #12]
    2018:	e3130040 	tst	r3, #64	; 0x40
    201c:	1affffe9 	bne	1fc8 <_vfprintf_r+0x36c>
    2020:	e59d0048 	ldr	r0, [sp, #72]	; 0x48
    2024:	e28ddf43 	add	sp, sp, #268	; 0x10c
    2028:	e8bd4ff0 	pop	{r4, r5, r6, r7, r8, r9, r10, r11, lr}
    202c:	e12fff1e 	bx	lr
    2030:	e1a00005 	mov	r0, r5
    2034:	ebfffa32 	bl	904 <__sinit>
    2038:	eaffff19 	b	1ca4 <_vfprintf_r+0x48>
    203c:	e59d4024 	ldr	r4, [sp, #36]	; 0x24
    2040:	eaffff55 	b	1d9c <_vfprintf_r+0x140>
    2044:	e59d5020 	ldr	r5, [sp, #32]
    2048:	e3150020 	tst	r5, #32
    204c:	e58d3024 	str	r3, [sp, #36]	; 0x24
    2050:	0a0000b9 	beq	233c <_vfprintf_r+0x6e0>
    2054:	e59dc044 	ldr	r12, [sp, #68]	; 0x44
    2058:	e28c3007 	add	r3, r12, #7
    205c:	e3c33007 	bic	r3, r3, #7
    2060:	e2834008 	add	r4, r3, #8
    2064:	e58d4044 	str	r4, [sp, #68]	; 0x44
    2068:	e8930030 	ldm	r3, {r4, r5}
    206c:	e3a03001 	mov	r3, #1
    2070:	e3a0a000 	mov	r10, #0
    2074:	e5cda077 	strb	r10, [sp, #119]	; 0x77
    2078:	e59dc02c 	ldr	r12, [sp, #44]	; 0x2c
    207c:	e35c0000 	cmp	r12, #0
    2080:	a59dc020 	ldrge	r12, [sp, #32]
    2084:	a3ccc080 	bicge	r12, r12, #128	; 0x80
    2088:	a58dc020 	strge	r12, [sp, #32]
    208c:	e1940005 	orrs	r0, r4, r5
    2090:	e59dc02c 	ldr	r12, [sp, #44]	; 0x2c
    2094:	03a02000 	moveq	r2, #0
    2098:	13a02001 	movne	r2, #1
    209c:	e35c0000 	cmp	r12, #0
    20a0:	13822001 	orrne	r2, r2, #1
    20a4:	e3520000 	cmp	r2, #0
    20a8:	0a0002cb 	beq	2bdc <_vfprintf_r+0xf80>
    20ac:	e3530001 	cmp	r3, #1
    20b0:	0a0003b1 	beq	2f7c <_vfprintf_r+0x1320>
    20b4:	e3530002 	cmp	r3, #2
    20b8:	e28d20c7 	add	r2, sp, #199	; 0xc7
    20bc:	1a00005b 	bne	2230 <_vfprintf_r+0x5d4>
    20c0:	e59dc068 	ldr	r12, [sp, #104]	; 0x68
    20c4:	e1a03224 	lsr	r3, r4, #4
    20c8:	e204000f 	and	r0, r4, #15
    20cc:	e1833e05 	orr	r3, r3, r5, lsl #28
    20d0:	e1a01225 	lsr	r1, r5, #4
    20d4:	e1a04003 	mov	r4, r3
    20d8:	e1a05001 	mov	r5, r1
    20dc:	e7dc3000 	ldrb	r3, [r12, r0]
    20e0:	e1940005 	orrs	r0, r4, r5
    20e4:	e1a06002 	mov	r6, r2
    20e8:	e5c23000 	strb	r3, [r2]
    20ec:	e2422001 	sub	r2, r2, #1
    20f0:	1afffff3 	bne	20c4 <_vfprintf_r+0x468>
    20f4:	e59d301c 	ldr	r3, [sp, #28]
    20f8:	e0663003 	rsb	r3, r6, r3
    20fc:	e58d3038 	str	r3, [sp, #56]	; 0x38
    2100:	e59dc038 	ldr	r12, [sp, #56]	; 0x38
    2104:	e59d402c 	ldr	r4, [sp, #44]	; 0x2c
    2108:	e3a05000 	mov	r5, #0
    210c:	e15c0004 	cmp	r12, r4
    2110:	b1a0c004 	movlt	r12, r4
    2114:	e58dc030 	str	r12, [sp, #48]	; 0x30
    2118:	e58d5050 	str	r5, [sp, #80]	; 0x50
    211c:	e35a0000 	cmp	r10, #0
    2120:	0a000002 	beq	2130 <_vfprintf_r+0x4d4>
    2124:	e59d4030 	ldr	r4, [sp, #48]	; 0x30
    2128:	e2844001 	add	r4, r4, #1
    212c:	e58d4030 	str	r4, [sp, #48]	; 0x30
    2130:	e59d5020 	ldr	r5, [sp, #32]
    2134:	e215b002 	ands	r11, r5, #2
    2138:	159dc030 	ldrne	r12, [sp, #48]	; 0x30
    213c:	e59d3020 	ldr	r3, [sp, #32]
    2140:	128cc002 	addne	r12, r12, #2
    2144:	158dc030 	strne	r12, [sp, #48]	; 0x30
    2148:	e2133084 	ands	r3, r3, #132	; 0x84
    214c:	e58d304c 	str	r3, [sp, #76]	; 0x4c
    2150:	1a0001ae 	bne	2810 <_vfprintf_r+0xbb4>
    2154:	e59d4040 	ldr	r4, [sp, #64]	; 0x40
    2158:	e59dc030 	ldr	r12, [sp, #48]	; 0x30
    215c:	e06c5004 	rsb	r5, r12, r4
    2160:	e3550000 	cmp	r5, #0
    2164:	da0001a9 	ble	2810 <_vfprintf_r+0xbb4>
    2168:	e3550010 	cmp	r5, #16
    216c:	e59d109c 	ldr	r1, [sp, #156]	; 0x9c
    2170:	e59d2098 	ldr	r2, [sp, #152]	; 0x98
    2174:	e59faadc 	ldr	r10, [pc, #2780]	; 2c58 <_vfprintf_r+0xffc>
    2178:	da000021 	ble	2204 <_vfprintf_r+0x5a8>
    217c:	e58d606c 	str	r6, [sp, #108]	; 0x6c
    2180:	e1a00007 	mov	r0, r7
    2184:	e3a04010 	mov	r4, #16
    2188:	e1a07005 	mov	r7, r5
    218c:	e59d6028 	ldr	r6, [sp, #40]	; 0x28
    2190:	e59d5034 	ldr	r5, [sp, #52]	; 0x34
    2194:	ea000002 	b	21a4 <_vfprintf_r+0x548>
    2198:	e2477010 	sub	r7, r7, #16
    219c:	e3570010 	cmp	r7, #16
    21a0:	da000014 	ble	21f8 <_vfprintf_r+0x59c>
    21a4:	e2822001 	add	r2, r2, #1
    21a8:	e59f3aa8 	ldr	r3, [pc, #2728]	; 2c58 <_vfprintf_r+0xffc>
    21ac:	e3520007 	cmp	r2, #7
    21b0:	e2811010 	add	r1, r1, #16
    21b4:	e8800018 	stm	r0, {r3, r4}
    21b8:	e58d2098 	str	r2, [sp, #152]	; 0x98
    21bc:	e58d109c 	str	r1, [sp, #156]	; 0x9c
    21c0:	d2800008 	addle	r0, r0, #8
    21c4:	dafffff3 	ble	2198 <_vfprintf_r+0x53c>
    21c8:	e1a00005 	mov	r0, r5
    21cc:	e1a01006 	mov	r1, r6
    21d0:	e28d2094 	add	r2, sp, #148	; 0x94
    21d4:	eb002eb4 	bl	dcac <__sprint_r>
    21d8:	e3500000 	cmp	r0, #0
    21dc:	1affff8b 	bne	2010 <_vfprintf_r+0x3b4>
    21e0:	e2477010 	sub	r7, r7, #16
    21e4:	e3570010 	cmp	r7, #16
    21e8:	e59d109c 	ldr	r1, [sp, #156]	; 0x9c
    21ec:	e59d2098 	ldr	r2, [sp, #152]	; 0x98
    21f0:	e28d00c8 	add	r0, sp, #200	; 0xc8
    21f4:	caffffea 	bgt	21a4 <_vfprintf_r+0x548>
    21f8:	e59d606c 	ldr	r6, [sp, #108]	; 0x6c
    21fc:	e1a05007 	mov	r5, r7
    2200:	e1a07000 	mov	r7, r0
    2204:	e2822001 	add	r2, r2, #1
    2208:	e0854001 	add	r4, r5, r1
    220c:	e3520007 	cmp	r2, #7
    2210:	e58d2098 	str	r2, [sp, #152]	; 0x98
    2214:	e58d409c 	str	r4, [sp, #156]	; 0x9c
    2218:	e587a000 	str	r10, [r7]
    221c:	e5875004 	str	r5, [r7, #4]
    2220:	ca00035f 	bgt	2fa4 <_vfprintf_r+0x1348>
    2224:	e2877008 	add	r7, r7, #8
    2228:	e5dda077 	ldrb	r10, [sp, #119]	; 0x77
    222c:	ea000178 	b	2814 <_vfprintf_r+0xbb8>
    2230:	e1a031a4 	lsr	r3, r4, #3
    2234:	e1833e85 	orr	r3, r3, r5, lsl #29
    2238:	e1a001a5 	lsr	r0, r5, #3
    223c:	e2041007 	and	r1, r4, #7
    2240:	e1a05000 	mov	r5, r0
    2244:	e1a04003 	mov	r4, r3
    2248:	e1940005 	orrs	r0, r4, r5
    224c:	e2813030 	add	r3, r1, #48	; 0x30
    2250:	e1a06002 	mov	r6, r2
    2254:	e5c23000 	strb	r3, [r2]
    2258:	e2422001 	sub	r2, r2, #1
    225c:	1afffff3 	bne	2230 <_vfprintf_r+0x5d4>
    2260:	e59d4020 	ldr	r4, [sp, #32]
    2264:	e3140001 	tst	r4, #1
    2268:	e1a01006 	mov	r1, r6
    226c:	0a000348 	beq	2f94 <_vfprintf_r+0x1338>
    2270:	e3530030 	cmp	r3, #48	; 0x30
    2274:	059dc01c 	ldreq	r12, [sp, #28]
    2278:	159d401c 	ldrne	r4, [sp, #28]
    227c:	11a06002 	movne	r6, r2
    2280:	0066c00c 	rsbeq	r12, r6, r12
    2284:	13a03030 	movne	r3, #48	; 0x30
    2288:	10664004 	rsbne	r4, r6, r4
    228c:	058dc038 	streq	r12, [sp, #56]	; 0x38
    2290:	158d4038 	strne	r4, [sp, #56]	; 0x38
    2294:	15413001 	strbne	r3, [r1, #-1]
    2298:	eaffff98 	b	2100 <_vfprintf_r+0x4a4>
    229c:	e59dc020 	ldr	r12, [sp, #32]
    22a0:	e58d3024 	str	r3, [sp, #36]	; 0x24
    22a4:	e21c3020 	ands	r3, r12, #32
    22a8:	0a00007c 	beq	24a0 <_vfprintf_r+0x844>
    22ac:	e59d4044 	ldr	r4, [sp, #68]	; 0x44
    22b0:	e2843007 	add	r3, r4, #7
    22b4:	e3c33007 	bic	r3, r3, #7
    22b8:	e2835008 	add	r5, r3, #8
    22bc:	e58d5044 	str	r5, [sp, #68]	; 0x44
    22c0:	e8930030 	ldm	r3, {r4, r5}
    22c4:	e3a03000 	mov	r3, #0
    22c8:	eaffff68 	b	2070 <_vfprintf_r+0x414>
    22cc:	e5d38000 	ldrb	r8, [r3]
    22d0:	e358002a 	cmp	r8, #42	; 0x2a
    22d4:	e2830001 	add	r0, r3, #1
    22d8:	0a000629 	beq	3b84 <_vfprintf_r+0x1f28>
    22dc:	e2481030 	sub	r1, r8, #48	; 0x30
    22e0:	e3510009 	cmp	r1, #9
    22e4:	83a04000 	movhi	r4, #0
    22e8:	81a03000 	movhi	r3, r0
    22ec:	858d402c 	strhi	r4, [sp, #44]	; 0x2c
    22f0:	8afffeb8 	bhi	1dd8 <_vfprintf_r+0x17c>
    22f4:	e3a03000 	mov	r3, #0
    22f8:	e4d08001 	ldrb	r8, [r0], #1
    22fc:	e0833103 	add	r3, r3, r3, lsl #2
    2300:	e0813083 	add	r3, r1, r3, lsl #1
    2304:	e2481030 	sub	r1, r8, #48	; 0x30
    2308:	e3510009 	cmp	r1, #9
    230c:	9afffff9 	bls	22f8 <_vfprintf_r+0x69c>
    2310:	e1833fc3 	orr	r3, r3, r3, asr #31
    2314:	e58d302c 	str	r3, [sp, #44]	; 0x2c
    2318:	e1a03000 	mov	r3, r0
    231c:	eafffead 	b	1dd8 <_vfprintf_r+0x17c>
    2320:	e59d4020 	ldr	r4, [sp, #32]
    2324:	e3844010 	orr	r4, r4, #16
    2328:	e58d4020 	str	r4, [sp, #32]
    232c:	e59d5020 	ldr	r5, [sp, #32]
    2330:	e3150020 	tst	r5, #32
    2334:	e58d3024 	str	r3, [sp, #36]	; 0x24
    2338:	1affff45 	bne	2054 <_vfprintf_r+0x3f8>
    233c:	e59d5020 	ldr	r5, [sp, #32]
    2340:	e3150010 	tst	r5, #16
    2344:	1a000341 	bne	3050 <_vfprintf_r+0x13f4>
    2348:	e59d4020 	ldr	r4, [sp, #32]
    234c:	e3140040 	tst	r4, #64	; 0x40
    2350:	0a00033e 	beq	3050 <_vfprintf_r+0x13f4>
    2354:	e59d5044 	ldr	r5, [sp, #68]	; 0x44
    2358:	e1d540b0 	ldrh	r4, [r5]
    235c:	e2855004 	add	r5, r5, #4
    2360:	e58d5044 	str	r5, [sp, #68]	; 0x44
    2364:	e3a03001 	mov	r3, #1
    2368:	e3a05000 	mov	r5, #0
    236c:	eaffff3f 	b	2070 <_vfprintf_r+0x414>
    2370:	e59d5020 	ldr	r5, [sp, #32]
    2374:	e3855010 	orr	r5, r5, #16
    2378:	e58d5020 	str	r5, [sp, #32]
    237c:	e59dc020 	ldr	r12, [sp, #32]
    2380:	e31c0020 	tst	r12, #32
    2384:	e58d3024 	str	r3, [sp, #36]	; 0x24
    2388:	e5cd2077 	strb	r2, [sp, #119]	; 0x77
    238c:	0a0000e6 	beq	272c <_vfprintf_r+0xad0>
    2390:	e59d4044 	ldr	r4, [sp, #68]	; 0x44
    2394:	e2841007 	add	r1, r4, #7
    2398:	e3c11007 	bic	r1, r1, #7
    239c:	e891000c 	ldm	r1, {r2, r3}
    23a0:	e2811008 	add	r1, r1, #8
    23a4:	e58d1044 	str	r1, [sp, #68]	; 0x44
    23a8:	e1a04002 	mov	r4, r2
    23ac:	e1a05003 	mov	r5, r3
    23b0:	e3520000 	cmp	r2, #0
    23b4:	e2d30000 	sbcs	r0, r3, #0
    23b8:	ba0003e2 	blt	3348 <_vfprintf_r+0x16ec>
    23bc:	e5dda077 	ldrb	r10, [sp, #119]	; 0x77
    23c0:	e3a03001 	mov	r3, #1
    23c4:	eaffff2b 	b	2078 <_vfprintf_r+0x41c>
    23c8:	e59d4020 	ldr	r4, [sp, #32]
    23cc:	e59d5044 	ldr	r5, [sp, #68]	; 0x44
    23d0:	e58d3024 	str	r3, [sp, #36]	; 0x24
    23d4:	e3140008 	tst	r4, #8
    23d8:	e2853007 	add	r3, r5, #7
    23dc:	e5cd2077 	strb	r2, [sp, #119]	; 0x77
    23e0:	e3c33007 	bic	r3, r3, #7
    23e4:	0a00043d 	beq	34e0 <_vfprintf_r+0x1884>
    23e8:	e283c008 	add	r12, r3, #8
    23ec:	e5934000 	ldr	r4, [r3]
    23f0:	e5933004 	ldr	r3, [r3, #4]
    23f4:	e58dc044 	str	r12, [sp, #68]	; 0x44
    23f8:	e58d4058 	str	r4, [sp, #88]	; 0x58
    23fc:	e58d3060 	str	r3, [sp, #96]	; 0x60
    2400:	e59d1060 	ldr	r1, [sp, #96]	; 0x60
    2404:	e59d0058 	ldr	r0, [sp, #88]	; 0x58
    2408:	eb001c66 	bl	95a8 <__fpclassifyd>
    240c:	e3500001 	cmp	r0, #1
    2410:	e59d1060 	ldr	r1, [sp, #96]	; 0x60
    2414:	e59d0058 	ldr	r0, [sp, #88]	; 0x58
    2418:	1a0003d0 	bne	3360 <_vfprintf_r+0x1704>
    241c:	e3a03000 	mov	r3, #0
    2420:	e3a02000 	mov	r2, #0
    2424:	eb003ee4 	bl	11fbc <__aeabi_dcmplt>
    2428:	e59d4020 	ldr	r4, [sp, #32]
    242c:	e3500000 	cmp	r0, #0
    2430:	13a0a02d 	movne	r10, #45	; 0x2d
    2434:	e59f3820 	ldr	r3, [pc, #2080]	; 2c5c <_vfprintf_r+0x1000>
    2438:	e3a05003 	mov	r5, #3
    243c:	e3a0c000 	mov	r12, #0
    2440:	05dda077 	ldrbeq	r10, [sp, #119]	; 0x77
    2444:	15cda077 	strbne	r10, [sp, #119]	; 0x77
    2448:	e3c44080 	bic	r4, r4, #128	; 0x80
    244c:	e3580047 	cmp	r8, #71	; 0x47
    2450:	e59f6808 	ldr	r6, [pc, #2056]	; 2c60 <_vfprintf_r+0x1004>
    2454:	e58d5030 	str	r5, [sp, #48]	; 0x30
    2458:	e58dc02c 	str	r12, [sp, #44]	; 0x2c
    245c:	e58d4020 	str	r4, [sp, #32]
    2460:	d1a06003 	movle	r6, r3
    2464:	e58d5038 	str	r5, [sp, #56]	; 0x38
    2468:	e58dc050 	str	r12, [sp, #80]	; 0x50
    246c:	eaffff2a 	b	211c <_vfprintf_r+0x4c0>
    2470:	e59d4020 	ldr	r4, [sp, #32]
    2474:	e3844008 	orr	r4, r4, #8
    2478:	e58d4020 	str	r4, [sp, #32]
    247c:	e5d38000 	ldrb	r8, [r3]
    2480:	eafffe53 	b	1dd4 <_vfprintf_r+0x178>
    2484:	e59d5020 	ldr	r5, [sp, #32]
    2488:	e3855010 	orr	r5, r5, #16
    248c:	e58d5020 	str	r5, [sp, #32]
    2490:	e59dc020 	ldr	r12, [sp, #32]
    2494:	e58d3024 	str	r3, [sp, #36]	; 0x24
    2498:	e21c3020 	ands	r3, r12, #32
    249c:	1affff82 	bne	22ac <_vfprintf_r+0x650>
    24a0:	e59dc020 	ldr	r12, [sp, #32]
    24a4:	e21c2010 	ands	r2, r12, #16
    24a8:	0a00042c 	beq	3560 <_vfprintf_r+0x1904>
    24ac:	e59d5044 	ldr	r5, [sp, #68]	; 0x44
    24b0:	e5954000 	ldr	r4, [r5]
    24b4:	e2855004 	add	r5, r5, #4
    24b8:	e58d5044 	str	r5, [sp, #68]	; 0x44
    24bc:	e3a05000 	mov	r5, #0
    24c0:	eafffeea 	b	2070 <_vfprintf_r+0x414>
    24c4:	e59dc044 	ldr	r12, [sp, #68]	; 0x44
    24c8:	e59cc000 	ldr	r12, [r12]
    24cc:	e59d4044 	ldr	r4, [sp, #68]	; 0x44
    24d0:	e35c0000 	cmp	r12, #0
    24d4:	e58dc040 	str	r12, [sp, #64]	; 0x40
    24d8:	e2841004 	add	r1, r4, #4
    24dc:	bafffe9a 	blt	1f4c <_vfprintf_r+0x2f0>
    24e0:	e58d1044 	str	r1, [sp, #68]	; 0x44
    24e4:	e5d38000 	ldrb	r8, [r3]
    24e8:	eafffe39 	b	1dd4 <_vfprintf_r+0x178>
    24ec:	e59d5020 	ldr	r5, [sp, #32]
    24f0:	e3855020 	orr	r5, r5, #32
    24f4:	e58d5020 	str	r5, [sp, #32]
    24f8:	e5d38000 	ldrb	r8, [r3]
    24fc:	eafffe34 	b	1dd4 <_vfprintf_r+0x178>
    2500:	e59d4044 	ldr	r4, [sp, #68]	; 0x44
    2504:	e5946000 	ldr	r6, [r4]
    2508:	e3a05000 	mov	r5, #0
    250c:	e1560005 	cmp	r6, r5
    2510:	e58d3024 	str	r3, [sp, #36]	; 0x24
    2514:	e2844004 	add	r4, r4, #4
    2518:	e5cd5077 	strb	r5, [sp, #119]	; 0x77
    251c:	0a0004c9 	beq	3848 <_vfprintf_r+0x1bec>
    2520:	e59dc02c 	ldr	r12, [sp, #44]	; 0x2c
    2524:	e35c0000 	cmp	r12, #0
    2528:	e1a00006 	mov	r0, r6
    252c:	ba0004a6 	blt	37cc <_vfprintf_r+0x1b70>
    2530:	e1a01005 	mov	r1, r5
    2534:	e1a0200c 	mov	r2, r12
    2538:	eb001601 	bl	7d44 <memchr>
    253c:	e3500000 	cmp	r0, #0
    2540:	0a000504 	beq	3958 <_vfprintf_r+0x1cfc>
    2544:	e59dc02c 	ldr	r12, [sp, #44]	; 0x2c
    2548:	e0660000 	rsb	r0, r6, r0
    254c:	e15c0000 	cmp	r12, r0
    2550:	a1a0c000 	movge	r12, r0
    2554:	e58d4044 	str	r4, [sp, #68]	; 0x44
    2558:	e1cc4fcc 	bic	r4, r12, r12, asr #31
    255c:	e58dc038 	str	r12, [sp, #56]	; 0x38
    2560:	e58d502c 	str	r5, [sp, #44]	; 0x2c
    2564:	e58d4030 	str	r4, [sp, #48]	; 0x30
    2568:	e58d5050 	str	r5, [sp, #80]	; 0x50
    256c:	e5dda077 	ldrb	r10, [sp, #119]	; 0x77
    2570:	eafffee9 	b	211c <_vfprintf_r+0x4c0>
    2574:	e59d5020 	ldr	r5, [sp, #32]
    2578:	e59f46e4 	ldr	r4, [pc, #1764]	; 2c64 <_vfprintf_r+0x1008>
    257c:	e3150020 	tst	r5, #32
    2580:	e58d3024 	str	r3, [sp, #36]	; 0x24
    2584:	e5cd2077 	strb	r2, [sp, #119]	; 0x77
    2588:	e58d4068 	str	r4, [sp, #104]	; 0x68
    258c:	0a000078 	beq	2774 <_vfprintf_r+0xb18>
    2590:	e59dc044 	ldr	r12, [sp, #68]	; 0x44
    2594:	e28c3007 	add	r3, r12, #7
    2598:	e3c33007 	bic	r3, r3, #7
    259c:	e2834008 	add	r4, r3, #8
    25a0:	e58d4044 	str	r4, [sp, #68]	; 0x44
    25a4:	e8930030 	ldm	r3, {r4, r5}
    25a8:	e59dc020 	ldr	r12, [sp, #32]
    25ac:	e31c0001 	tst	r12, #1
    25b0:	0a000235 	beq	2e8c <_vfprintf_r+0x1230>
    25b4:	e1940005 	orrs	r0, r4, r5
    25b8:	0a000233 	beq	2e8c <_vfprintf_r+0x1230>
    25bc:	e3a03030 	mov	r3, #48	; 0x30
    25c0:	e38cc002 	orr	r12, r12, #2
    25c4:	e5cd3078 	strb	r3, [sp, #120]	; 0x78
    25c8:	e5cd8079 	strb	r8, [sp, #121]	; 0x79
    25cc:	e58dc020 	str	r12, [sp, #32]
    25d0:	e3a03002 	mov	r3, #2
    25d4:	eafffea5 	b	2070 <_vfprintf_r+0x414>
    25d8:	e5d38000 	ldrb	r8, [r3]
    25dc:	e3a0202b 	mov	r2, #43	; 0x2b
    25e0:	eafffdfb 	b	1dd4 <_vfprintf_r+0x178>
    25e4:	e3520000 	cmp	r2, #0
    25e8:	e5d38000 	ldrb	r8, [r3]
    25ec:	03a02020 	moveq	r2, #32
    25f0:	eafffdf7 	b	1dd4 <_vfprintf_r+0x178>
    25f4:	e59dc044 	ldr	r12, [sp, #68]	; 0x44
    25f8:	e59d5020 	ldr	r5, [sp, #32]
    25fc:	e28cc004 	add	r12, r12, #4
    2600:	e58d3024 	str	r3, [sp, #36]	; 0x24
    2604:	e59d3044 	ldr	r3, [sp, #68]	; 0x44
    2608:	e58dc044 	str	r12, [sp, #68]	; 0x44
    260c:	e59fc650 	ldr	r12, [pc, #1616]	; 2c64 <_vfprintf_r+0x1008>
    2610:	e3855002 	orr	r5, r5, #2
    2614:	e5934000 	ldr	r4, [r3]
    2618:	e3a08078 	mov	r8, #120	; 0x78
    261c:	e3a03030 	mov	r3, #48	; 0x30
    2620:	e58d5020 	str	r5, [sp, #32]
    2624:	e5cd3078 	strb	r3, [sp, #120]	; 0x78
    2628:	e3a05000 	mov	r5, #0
    262c:	e5cd8079 	strb	r8, [sp, #121]	; 0x79
    2630:	e58dc068 	str	r12, [sp, #104]	; 0x68
    2634:	e3a03002 	mov	r3, #2
    2638:	eafffe8c 	b	2070 <_vfprintf_r+0x414>
    263c:	e59d5020 	ldr	r5, [sp, #32]
    2640:	e3855040 	orr	r5, r5, #64	; 0x40
    2644:	e58d5020 	str	r5, [sp, #32]
    2648:	e5d38000 	ldrb	r8, [r3]
    264c:	eafffde0 	b	1dd4 <_vfprintf_r+0x178>
    2650:	e5d38000 	ldrb	r8, [r3]
    2654:	e358006c 	cmp	r8, #108	; 0x6c
    2658:	059dc020 	ldreq	r12, [sp, #32]
    265c:	159d4020 	ldrne	r4, [sp, #32]
    2660:	e1a01003 	mov	r1, r3
    2664:	038cc020 	orreq	r12, r12, #32
    2668:	13844010 	orrne	r4, r4, #16
    266c:	02833001 	addeq	r3, r3, #1
    2670:	058dc020 	streq	r12, [sp, #32]
    2674:	05d18001 	ldrbeq	r8, [r1, #1]
    2678:	158d4020 	strne	r4, [sp, #32]
    267c:	eafffdd4 	b	1dd4 <_vfprintf_r+0x178>
    2680:	e59dc020 	ldr	r12, [sp, #32]
    2684:	e31c0020 	tst	r12, #32
    2688:	e58d3024 	str	r3, [sp, #36]	; 0x24
    268c:	e5cd2077 	strb	r2, [sp, #119]	; 0x77
    2690:	0a000399 	beq	34fc <_vfprintf_r+0x18a0>
    2694:	e59d4044 	ldr	r4, [sp, #68]	; 0x44
    2698:	e5941000 	ldr	r1, [r4]
    269c:	e59d4048 	ldr	r4, [sp, #72]	; 0x48
    26a0:	e1a05fc4 	asr	r5, r4, #31
    26a4:	e1a03005 	mov	r3, r5
    26a8:	e59d5044 	ldr	r5, [sp, #68]	; 0x44
    26ac:	e1a02004 	mov	r2, r4
    26b0:	e2855004 	add	r5, r5, #4
    26b4:	e58d5044 	str	r5, [sp, #68]	; 0x44
    26b8:	e881000c 	stm	r1, {r2, r3}
    26bc:	eafffd99 	b	1d28 <_vfprintf_r+0xcc>
    26c0:	e59d5020 	ldr	r5, [sp, #32]
    26c4:	e3855001 	orr	r5, r5, #1
    26c8:	e58d5020 	str	r5, [sp, #32]
    26cc:	e5d38000 	ldrb	r8, [r3]
    26d0:	eafffdbf 	b	1dd4 <_vfprintf_r+0x178>
    26d4:	e58d3024 	str	r3, [sp, #36]	; 0x24
    26d8:	e59d3044 	ldr	r3, [sp, #68]	; 0x44
    26dc:	e59d4044 	ldr	r4, [sp, #68]	; 0x44
    26e0:	e5932000 	ldr	r2, [r3]
    26e4:	e3a0c001 	mov	r12, #1
    26e8:	e2844004 	add	r4, r4, #4
    26ec:	e3a03000 	mov	r3, #0
    26f0:	e58dc030 	str	r12, [sp, #48]	; 0x30
    26f4:	e5cd20a0 	strb	r2, [sp, #160]	; 0xa0
    26f8:	e58d4044 	str	r4, [sp, #68]	; 0x44
    26fc:	e1a0a003 	mov	r10, r3
    2700:	e5cd3077 	strb	r3, [sp, #119]	; 0x77
    2704:	e58da02c 	str	r10, [sp, #44]	; 0x2c
    2708:	e58da050 	str	r10, [sp, #80]	; 0x50
    270c:	e58dc038 	str	r12, [sp, #56]	; 0x38
    2710:	e28d60a0 	add	r6, sp, #160	; 0xa0
    2714:	eafffe85 	b	2130 <_vfprintf_r+0x4d4>
    2718:	e59dc020 	ldr	r12, [sp, #32]
    271c:	e31c0020 	tst	r12, #32
    2720:	e58d3024 	str	r3, [sp, #36]	; 0x24
    2724:	e5cd2077 	strb	r2, [sp, #119]	; 0x77
    2728:	1affff18 	bne	2390 <_vfprintf_r+0x734>
    272c:	e59d5020 	ldr	r5, [sp, #32]
    2730:	e3150010 	tst	r5, #16
    2734:	0a00037d 	beq	3530 <_vfprintf_r+0x18d4>
    2738:	e59dc044 	ldr	r12, [sp, #68]	; 0x44
    273c:	e59c4000 	ldr	r4, [r12]
    2740:	e28cc004 	add	r12, r12, #4
    2744:	e1a05fc4 	asr	r5, r4, #31
    2748:	e58dc044 	str	r12, [sp, #68]	; 0x44
    274c:	e1a02004 	mov	r2, r4
    2750:	e1a03005 	mov	r3, r5
    2754:	eaffff15 	b	23b0 <_vfprintf_r+0x754>
    2758:	e59d5020 	ldr	r5, [sp, #32]
    275c:	e59f4504 	ldr	r4, [pc, #1284]	; 2c68 <_vfprintf_r+0x100c>
    2760:	e3150020 	tst	r5, #32
    2764:	e58d3024 	str	r3, [sp, #36]	; 0x24
    2768:	e5cd2077 	strb	r2, [sp, #119]	; 0x77
    276c:	e58d4068 	str	r4, [sp, #104]	; 0x68
    2770:	1affff86 	bne	2590 <_vfprintf_r+0x934>
    2774:	e59d5020 	ldr	r5, [sp, #32]
    2778:	e3150010 	tst	r5, #16
    277c:	1a00023a 	bne	306c <_vfprintf_r+0x1410>
    2780:	e59d4020 	ldr	r4, [sp, #32]
    2784:	e3140040 	tst	r4, #64	; 0x40
    2788:	0a000237 	beq	306c <_vfprintf_r+0x1410>
    278c:	e59d5044 	ldr	r5, [sp, #68]	; 0x44
    2790:	e1d540b0 	ldrh	r4, [r5]
    2794:	e2855004 	add	r5, r5, #4
    2798:	e58d5044 	str	r5, [sp, #68]	; 0x44
    279c:	e3a05000 	mov	r5, #0
    27a0:	eaffff80 	b	25a8 <_vfprintf_r+0x94c>
    27a4:	e59d5020 	ldr	r5, [sp, #32]
    27a8:	e3855080 	orr	r5, r5, #128	; 0x80
    27ac:	e58d5020 	str	r5, [sp, #32]
    27b0:	e5d38000 	ldrb	r8, [r3]
    27b4:	eafffd86 	b	1dd4 <_vfprintf_r+0x178>
    27b8:	e3a0c000 	mov	r12, #0
    27bc:	e58dc040 	str	r12, [sp, #64]	; 0x40
    27c0:	e2481030 	sub	r1, r8, #48	; 0x30
    27c4:	e1a0000c 	mov	r0, r12
    27c8:	e4d38001 	ldrb	r8, [r3], #1
    27cc:	e0800100 	add	r0, r0, r0, lsl #2
    27d0:	e0810080 	add	r0, r1, r0, lsl #1
    27d4:	e2481030 	sub	r1, r8, #48	; 0x30
    27d8:	e3510009 	cmp	r1, #9
    27dc:	9afffff9 	bls	27c8 <_vfprintf_r+0xb6c>
    27e0:	e58d0040 	str	r0, [sp, #64]	; 0x40
    27e4:	eafffd7b 	b	1dd8 <_vfprintf_r+0x17c>
    27e8:	e3580000 	cmp	r8, #0
    27ec:	e58d3024 	str	r3, [sp, #36]	; 0x24
    27f0:	e5cd2077 	strb	r2, [sp, #119]	; 0x77
    27f4:	0afffdff 	beq	1ff8 <_vfprintf_r+0x39c>
    27f8:	e3a03000 	mov	r3, #0
    27fc:	e3a0c001 	mov	r12, #1
    2800:	e1a0a003 	mov	r10, r3
    2804:	e58dc030 	str	r12, [sp, #48]	; 0x30
    2808:	e5cd80a0 	strb	r8, [sp, #160]	; 0xa0
    280c:	eaffffbb 	b	2700 <_vfprintf_r+0xaa4>
    2810:	e59d409c 	ldr	r4, [sp, #156]	; 0x9c
    2814:	e35a0000 	cmp	r10, #0
    2818:	0a00000a 	beq	2848 <_vfprintf_r+0xbec>
    281c:	e59d3098 	ldr	r3, [sp, #152]	; 0x98
    2820:	e2833001 	add	r3, r3, #1
    2824:	e3530007 	cmp	r3, #7
    2828:	e2844001 	add	r4, r4, #1
    282c:	e28d2077 	add	r2, sp, #119	; 0x77
    2830:	e58d3098 	str	r3, [sp, #152]	; 0x98
    2834:	e3a03001 	mov	r3, #1
    2838:	e887000c 	stm	r7, {r2, r3}
    283c:	e58d409c 	str	r4, [sp, #156]	; 0x9c
    2840:	d2877008 	addle	r7, r7, #8
    2844:	ca00017e 	bgt	2e44 <_vfprintf_r+0x11e8>
    2848:	e35b0000 	cmp	r11, #0
    284c:	0a00000a 	beq	287c <_vfprintf_r+0xc20>
    2850:	e59d3098 	ldr	r3, [sp, #152]	; 0x98
    2854:	e2833001 	add	r3, r3, #1
    2858:	e3530007 	cmp	r3, #7
    285c:	e2844002 	add	r4, r4, #2
    2860:	e28d2078 	add	r2, sp, #120	; 0x78
    2864:	e58d3098 	str	r3, [sp, #152]	; 0x98
    2868:	e3a03002 	mov	r3, #2
    286c:	e887000c 	stm	r7, {r2, r3}
    2870:	e58d409c 	str	r4, [sp, #156]	; 0x9c
    2874:	d2877008 	addle	r7, r7, #8
    2878:	ca00017a 	bgt	2e68 <_vfprintf_r+0x120c>
    287c:	e59d504c 	ldr	r5, [sp, #76]	; 0x4c
    2880:	e3550080 	cmp	r5, #128	; 0x80
    2884:	0a0000e3 	beq	2c18 <_vfprintf_r+0xfbc>
    2888:	e59dc02c 	ldr	r12, [sp, #44]	; 0x2c
    288c:	e59d3038 	ldr	r3, [sp, #56]	; 0x38
    2890:	e063a00c 	rsb	r10, r3, r12
    2894:	e35a0000 	cmp	r10, #0
    2898:	da000034 	ble	2970 <_vfprintf_r+0xd14>
    289c:	e35a0010 	cmp	r10, #16
    28a0:	e59d3098 	ldr	r3, [sp, #152]	; 0x98
    28a4:	e59f53c4 	ldr	r5, [pc, #964]	; 2c70 <_vfprintf_r+0x1014>
    28a8:	da000020 	ble	2930 <_vfprintf_r+0xcd4>
    28ac:	e1a02007 	mov	r2, r7
    28b0:	e1a01004 	mov	r1, r4
    28b4:	e1a07005 	mov	r7, r5
    28b8:	e3a0b010 	mov	r11, #16
    28bc:	e59d4034 	ldr	r4, [sp, #52]	; 0x34
    28c0:	e59d5028 	ldr	r5, [sp, #40]	; 0x28
    28c4:	ea000002 	b	28d4 <_vfprintf_r+0xc78>
    28c8:	e24aa010 	sub	r10, r10, #16
    28cc:	e35a0010 	cmp	r10, #16
    28d0:	da000013 	ble	2924 <_vfprintf_r+0xcc8>
    28d4:	e2833001 	add	r3, r3, #1
    28d8:	e3530007 	cmp	r3, #7
    28dc:	e2811010 	add	r1, r1, #16
    28e0:	e8820a00 	stm	r2, {r9, r11}
    28e4:	e58d3098 	str	r3, [sp, #152]	; 0x98
    28e8:	e58d109c 	str	r1, [sp, #156]	; 0x9c
    28ec:	d2822008 	addle	r2, r2, #8
    28f0:	dafffff4 	ble	28c8 <_vfprintf_r+0xc6c>
    28f4:	e1a00004 	mov	r0, r4
    28f8:	e1a01005 	mov	r1, r5
    28fc:	e28d2094 	add	r2, sp, #148	; 0x94
    2900:	eb002ce9 	bl	dcac <__sprint_r>
    2904:	e3500000 	cmp	r0, #0
    2908:	1afffdc0 	bne	2010 <_vfprintf_r+0x3b4>
    290c:	e24aa010 	sub	r10, r10, #16
    2910:	e35a0010 	cmp	r10, #16
    2914:	e59d109c 	ldr	r1, [sp, #156]	; 0x9c
    2918:	e59d3098 	ldr	r3, [sp, #152]	; 0x98
    291c:	e28d20c8 	add	r2, sp, #200	; 0xc8
    2920:	caffffeb 	bgt	28d4 <_vfprintf_r+0xc78>
    2924:	e1a05007 	mov	r5, r7
    2928:	e1a04001 	mov	r4, r1
    292c:	e1a07002 	mov	r7, r2
    2930:	e2833001 	add	r3, r3, #1
    2934:	e3530007 	cmp	r3, #7
    2938:	e084400a 	add	r4, r4, r10
    293c:	e8870420 	stm	r7, {r5, r10}
    2940:	e58d3098 	str	r3, [sp, #152]	; 0x98
    2944:	e58d409c 	str	r4, [sp, #156]	; 0x9c
    2948:	d2877008 	addle	r7, r7, #8
    294c:	da000007 	ble	2970 <_vfprintf_r+0xd14>
    2950:	e59d0034 	ldr	r0, [sp, #52]	; 0x34
    2954:	e59d1028 	ldr	r1, [sp, #40]	; 0x28
    2958:	e28d2094 	add	r2, sp, #148	; 0x94
    295c:	eb002cd2 	bl	dcac <__sprint_r>
    2960:	e3500000 	cmp	r0, #0
    2964:	1afffda9 	bne	2010 <_vfprintf_r+0x3b4>
    2968:	e59d409c 	ldr	r4, [sp, #156]	; 0x9c
    296c:	e28d70c8 	add	r7, sp, #200	; 0xc8
    2970:	e59d5020 	ldr	r5, [sp, #32]
    2974:	e3150c01 	tst	r5, #256	; 0x100
    2978:	1a00004d 	bne	2ab4 <_vfprintf_r+0xe58>
    297c:	e59d3098 	ldr	r3, [sp, #152]	; 0x98
    2980:	e59dc038 	ldr	r12, [sp, #56]	; 0x38
    2984:	e2833001 	add	r3, r3, #1
    2988:	e084400c 	add	r4, r4, r12
    298c:	e3530007 	cmp	r3, #7
    2990:	e58d409c 	str	r4, [sp, #156]	; 0x9c
    2994:	e8871040 	stm	r7, {r6, r12}
    2998:	e58d3098 	str	r3, [sp, #152]	; 0x98
    299c:	ca000118 	bgt	2e04 <_vfprintf_r+0x11a8>
    29a0:	e2877008 	add	r7, r7, #8
    29a4:	e59dc020 	ldr	r12, [sp, #32]
    29a8:	e31c0004 	tst	r12, #4
    29ac:	0a000033 	beq	2a80 <_vfprintf_r+0xe24>
    29b0:	e59dc040 	ldr	r12, [sp, #64]	; 0x40
    29b4:	e59d0030 	ldr	r0, [sp, #48]	; 0x30
    29b8:	e060500c 	rsb	r5, r0, r12
    29bc:	e3550000 	cmp	r5, #0
    29c0:	da00002e 	ble	2a80 <_vfprintf_r+0xe24>
    29c4:	e3550010 	cmp	r5, #16
    29c8:	e59d3098 	ldr	r3, [sp, #152]	; 0x98
    29cc:	e59fa284 	ldr	r10, [pc, #644]	; 2c58 <_vfprintf_r+0xffc>
    29d0:	da00001b 	ble	2a44 <_vfprintf_r+0xde8>
    29d4:	e3a06010 	mov	r6, #16
    29d8:	e59d8034 	ldr	r8, [sp, #52]	; 0x34
    29dc:	e59db028 	ldr	r11, [sp, #40]	; 0x28
    29e0:	ea000002 	b	29f0 <_vfprintf_r+0xd94>
    29e4:	e2455010 	sub	r5, r5, #16
    29e8:	e3550010 	cmp	r5, #16
    29ec:	da000014 	ble	2a44 <_vfprintf_r+0xde8>
    29f0:	e2833001 	add	r3, r3, #1
    29f4:	e59f125c 	ldr	r1, [pc, #604]	; 2c58 <_vfprintf_r+0xffc>
    29f8:	e3530007 	cmp	r3, #7
    29fc:	e2844010 	add	r4, r4, #16
    2a00:	e8870042 	stm	r7, {r1, r6}
    2a04:	e58d3098 	str	r3, [sp, #152]	; 0x98
    2a08:	e58d409c 	str	r4, [sp, #156]	; 0x9c
    2a0c:	d2877008 	addle	r7, r7, #8
    2a10:	dafffff3 	ble	29e4 <_vfprintf_r+0xd88>
    2a14:	e1a00008 	mov	r0, r8
    2a18:	e1a0100b 	mov	r1, r11
    2a1c:	e28d2094 	add	r2, sp, #148	; 0x94
    2a20:	eb002ca1 	bl	dcac <__sprint_r>
    2a24:	e3500000 	cmp	r0, #0
    2a28:	1afffd78 	bne	2010 <_vfprintf_r+0x3b4>
    2a2c:	e2455010 	sub	r5, r5, #16
    2a30:	e28d3098 	add	r3, sp, #152	; 0x98
    2a34:	e3550010 	cmp	r5, #16
    2a38:	e8930018 	ldm	r3, {r3, r4}
    2a3c:	e28d70c8 	add	r7, sp, #200	; 0xc8
    2a40:	caffffea 	bgt	29f0 <_vfprintf_r+0xd94>
    2a44:	e2833001 	add	r3, r3, #1
    2a48:	e0844005 	add	r4, r4, r5
    2a4c:	e3530007 	cmp	r3, #7
    2a50:	e58d3098 	str	r3, [sp, #152]	; 0x98
    2a54:	e58d409c 	str	r4, [sp, #156]	; 0x9c
    2a58:	e587a000 	str	r10, [r7]
    2a5c:	e5875004 	str	r5, [r7, #4]
    2a60:	da000006 	ble	2a80 <_vfprintf_r+0xe24>
    2a64:	e59d0034 	ldr	r0, [sp, #52]	; 0x34
    2a68:	e59d1028 	ldr	r1, [sp, #40]	; 0x28
    2a6c:	e28d2094 	add	r2, sp, #148	; 0x94
    2a70:	eb002c8d 	bl	dcac <__sprint_r>
    2a74:	e3500000 	cmp	r0, #0
    2a78:	1afffd64 	bne	2010 <_vfprintf_r+0x3b4>
    2a7c:	e59d409c 	ldr	r4, [sp, #156]	; 0x9c
    2a80:	e59d5048 	ldr	r5, [sp, #72]	; 0x48
    2a84:	e59dc030 	ldr	r12, [sp, #48]	; 0x30
    2a88:	e59d0040 	ldr	r0, [sp, #64]	; 0x40
    2a8c:	e15c0000 	cmp	r12, r0
    2a90:	a085500c 	addge	r5, r5, r12
    2a94:	b0855000 	addlt	r5, r5, r0
    2a98:	e3540000 	cmp	r4, #0
    2a9c:	e58d5048 	str	r5, [sp, #72]	; 0x48
    2aa0:	1a0000e0 	bne	2e28 <_vfprintf_r+0x11cc>
    2aa4:	e3a03000 	mov	r3, #0
    2aa8:	e58d3098 	str	r3, [sp, #152]	; 0x98
    2aac:	e28d70c8 	add	r7, sp, #200	; 0xc8
    2ab0:	eafffc9c 	b	1d28 <_vfprintf_r+0xcc>
    2ab4:	e3580065 	cmp	r8, #101	; 0x65
    2ab8:	da00009c 	ble	2d30 <_vfprintf_r+0x10d4>
    2abc:	e59d0058 	ldr	r0, [sp, #88]	; 0x58
    2ac0:	e59d1060 	ldr	r1, [sp, #96]	; 0x60
    2ac4:	e3a02000 	mov	r2, #0
    2ac8:	e3a03000 	mov	r3, #0
    2acc:	eb003d34 	bl	11fa4 <__aeabi_dcmpeq>
    2ad0:	e3500000 	cmp	r0, #0
    2ad4:	0a0000ee 	beq	2e94 <_vfprintf_r+0x1238>
    2ad8:	e59d3098 	ldr	r3, [sp, #152]	; 0x98
    2adc:	e59f0188 	ldr	r0, [pc, #392]	; 2c6c <_vfprintf_r+0x1010>
    2ae0:	e2833001 	add	r3, r3, #1
    2ae4:	e2844001 	add	r4, r4, #1
    2ae8:	e3530007 	cmp	r3, #7
    2aec:	e3a02001 	mov	r2, #1
    2af0:	e5870000 	str	r0, [r7]
    2af4:	e5872004 	str	r2, [r7, #4]
    2af8:	e58d409c 	str	r4, [sp, #156]	; 0x9c
    2afc:	e58d3098 	str	r3, [sp, #152]	; 0x98
    2b00:	d2877008 	addle	r7, r7, #8
    2b04:	ca0002a2 	bgt	3594 <_vfprintf_r+0x1938>
    2b08:	e59d307c 	ldr	r3, [sp, #124]	; 0x7c
    2b0c:	e59d503c 	ldr	r5, [sp, #60]	; 0x3c
    2b10:	e1530005 	cmp	r3, r5
    2b14:	ba000002 	blt	2b24 <_vfprintf_r+0xec8>
    2b18:	e59dc020 	ldr	r12, [sp, #32]
    2b1c:	e31c0001 	tst	r12, #1
    2b20:	0affff9f 	beq	29a4 <_vfprintf_r+0xd48>
    2b24:	e59d3098 	ldr	r3, [sp, #152]	; 0x98
    2b28:	e59d505c 	ldr	r5, [sp, #92]	; 0x5c
    2b2c:	e2833001 	add	r3, r3, #1
    2b30:	e59dc054 	ldr	r12, [sp, #84]	; 0x54
    2b34:	e0844005 	add	r4, r4, r5
    2b38:	e3530007 	cmp	r3, #7
    2b3c:	e587c000 	str	r12, [r7]
    2b40:	e5875004 	str	r5, [r7, #4]
    2b44:	e58d409c 	str	r4, [sp, #156]	; 0x9c
    2b48:	e58d3098 	str	r3, [sp, #152]	; 0x98
    2b4c:	d2877008 	addle	r7, r7, #8
    2b50:	ca0002f8 	bgt	3738 <_vfprintf_r+0x1adc>
    2b54:	e59d503c 	ldr	r5, [sp, #60]	; 0x3c
    2b58:	e2456001 	sub	r6, r5, #1
    2b5c:	e3560000 	cmp	r6, #0
    2b60:	daffff8f 	ble	29a4 <_vfprintf_r+0xd48>
    2b64:	e3560010 	cmp	r6, #16
    2b68:	e59d3098 	ldr	r3, [sp, #152]	; 0x98
    2b6c:	e59f50fc 	ldr	r5, [pc, #252]	; 2c70 <_vfprintf_r+0x1014>
    2b70:	da000143 	ble	3084 <_vfprintf_r+0x1428>
    2b74:	e3a08010 	mov	r8, #16
    2b78:	e59da034 	ldr	r10, [sp, #52]	; 0x34
    2b7c:	e59db028 	ldr	r11, [sp, #40]	; 0x28
    2b80:	ea000002 	b	2b90 <_vfprintf_r+0xf34>
    2b84:	e2466010 	sub	r6, r6, #16
    2b88:	e3560010 	cmp	r6, #16
    2b8c:	da00013c 	ble	3084 <_vfprintf_r+0x1428>
    2b90:	e2833001 	add	r3, r3, #1
    2b94:	e3530007 	cmp	r3, #7
    2b98:	e2844010 	add	r4, r4, #16
    2b9c:	e5879000 	str	r9, [r7]
    2ba0:	e5878004 	str	r8, [r7, #4]
    2ba4:	e58d3098 	str	r3, [sp, #152]	; 0x98
    2ba8:	e58d409c 	str	r4, [sp, #156]	; 0x9c
    2bac:	d2877008 	addle	r7, r7, #8
    2bb0:	dafffff3 	ble	2b84 <_vfprintf_r+0xf28>
    2bb4:	e1a0000a 	mov	r0, r10
    2bb8:	e1a0100b 	mov	r1, r11
    2bbc:	e28d2094 	add	r2, sp, #148	; 0x94
    2bc0:	eb002c39 	bl	dcac <__sprint_r>
    2bc4:	e3500000 	cmp	r0, #0
    2bc8:	1afffd10 	bne	2010 <_vfprintf_r+0x3b4>
    2bcc:	e28d3098 	add	r3, sp, #152	; 0x98
    2bd0:	e8930018 	ldm	r3, {r3, r4}
    2bd4:	e28d70c8 	add	r7, sp, #200	; 0xc8
    2bd8:	eaffffe9 	b	2b84 <_vfprintf_r+0xf28>
    2bdc:	e3530000 	cmp	r3, #0
    2be0:	158d2038 	strne	r2, [sp, #56]	; 0x38
    2be4:	128d60c8 	addne	r6, sp, #200	; 0xc8
    2be8:	1afffd44 	bne	2100 <_vfprintf_r+0x4a4>
    2bec:	e59d4020 	ldr	r4, [sp, #32]
    2bf0:	e3140001 	tst	r4, #1
    2bf4:	128d6f42 	addne	r6, sp, #264	; 0x108
    2bf8:	13a03030 	movne	r3, #48	; 0x30
    2bfc:	159d501c 	ldrne	r5, [sp, #28]
    2c00:	15663041 	strbne	r3, [r6, #-65]!	; 0xffffffbf
    2c04:	10665005 	rsbne	r5, r6, r5
    2c08:	158d5038 	strne	r5, [sp, #56]	; 0x38
    2c0c:	058d3038 	streq	r3, [sp, #56]	; 0x38
    2c10:	028d60c8 	addeq	r6, sp, #200	; 0xc8
    2c14:	eafffd39 	b	2100 <_vfprintf_r+0x4a4>
    2c18:	e59dc040 	ldr	r12, [sp, #64]	; 0x40
    2c1c:	e59d5030 	ldr	r5, [sp, #48]	; 0x30
    2c20:	e065a00c 	rsb	r10, r5, r12
    2c24:	e35a0000 	cmp	r10, #0
    2c28:	daffff16 	ble	2888 <_vfprintf_r+0xc2c>
    2c2c:	e35a0010 	cmp	r10, #16
    2c30:	e59d3098 	ldr	r3, [sp, #152]	; 0x98
    2c34:	e59f5034 	ldr	r5, [pc, #52]	; 2c70 <_vfprintf_r+0x1014>
    2c38:	da00002b 	ble	2cec <_vfprintf_r+0x1090>
    2c3c:	e1a02007 	mov	r2, r7
    2c40:	e1a01004 	mov	r1, r4
    2c44:	e1a07005 	mov	r7, r5
    2c48:	e3a0b010 	mov	r11, #16
    2c4c:	e59d4034 	ldr	r4, [sp, #52]	; 0x34
    2c50:	e59d5028 	ldr	r5, [sp, #40]	; 0x28
    2c54:	ea00000d 	b	2c90 <_vfprintf_r+0x1034>
    2c58:	000135ac 	.word	0x000135ac
    2c5c:	000135cc 	.word	0x000135cc
    2c60:	000135d0 	.word	0x000135d0
    2c64:	000135f0 	.word	0x000135f0
    2c68:	000135dc 	.word	0x000135dc
    2c6c:	0001360c 	.word	0x0001360c
    2c70:	000135bc 	.word	0x000135bc
    2c74:	000135d4 	.word	0x000135d4
    2c78:	000135d8 	.word	0x000135d8
    2c7c:	00013604 	.word	0x00013604
    2c80:	66666667 	.word	0x66666667
    2c84:	e24aa010 	sub	r10, r10, #16
    2c88:	e35a0010 	cmp	r10, #16
    2c8c:	da000013 	ble	2ce0 <_vfprintf_r+0x1084>
    2c90:	e2833001 	add	r3, r3, #1
    2c94:	e3530007 	cmp	r3, #7
    2c98:	e2811010 	add	r1, r1, #16
    2c9c:	e8820a00 	stm	r2, {r9, r11}
    2ca0:	e58d3098 	str	r3, [sp, #152]	; 0x98
    2ca4:	e58d109c 	str	r1, [sp, #156]	; 0x9c
    2ca8:	d2822008 	addle	r2, r2, #8
    2cac:	dafffff4 	ble	2c84 <_vfprintf_r+0x1028>
    2cb0:	e1a00004 	mov	r0, r4
    2cb4:	e1a01005 	mov	r1, r5
    2cb8:	e28d2094 	add	r2, sp, #148	; 0x94
    2cbc:	eb002bfa 	bl	dcac <__sprint_r>
    2cc0:	e3500000 	cmp	r0, #0
    2cc4:	1afffcd1 	bne	2010 <_vfprintf_r+0x3b4>
    2cc8:	e24aa010 	sub	r10, r10, #16
    2ccc:	e35a0010 	cmp	r10, #16
    2cd0:	e59d109c 	ldr	r1, [sp, #156]	; 0x9c
    2cd4:	e59d3098 	ldr	r3, [sp, #152]	; 0x98
    2cd8:	e28d20c8 	add	r2, sp, #200	; 0xc8
    2cdc:	caffffeb 	bgt	2c90 <_vfprintf_r+0x1034>
    2ce0:	e1a05007 	mov	r5, r7
    2ce4:	e1a04001 	mov	r4, r1
    2ce8:	e1a07002 	mov	r7, r2
    2cec:	e2833001 	add	r3, r3, #1
    2cf0:	e3530007 	cmp	r3, #7
    2cf4:	e084400a 	add	r4, r4, r10
    2cf8:	e8870420 	stm	r7, {r5, r10}
    2cfc:	e58d3098 	str	r3, [sp, #152]	; 0x98
    2d00:	e58d409c 	str	r4, [sp, #156]	; 0x9c
    2d04:	d2877008 	addle	r7, r7, #8
    2d08:	dafffede 	ble	2888 <_vfprintf_r+0xc2c>
    2d0c:	e59d0034 	ldr	r0, [sp, #52]	; 0x34
    2d10:	e59d1028 	ldr	r1, [sp, #40]	; 0x28
    2d14:	e28d2094 	add	r2, sp, #148	; 0x94
    2d18:	eb002be3 	bl	dcac <__sprint_r>
    2d1c:	e3500000 	cmp	r0, #0
    2d20:	1afffcba 	bne	2010 <_vfprintf_r+0x3b4>
    2d24:	e59d409c 	ldr	r4, [sp, #156]	; 0x9c
    2d28:	e28d70c8 	add	r7, sp, #200	; 0xc8
    2d2c:	eafffed5 	b	2888 <_vfprintf_r+0xc2c>
    2d30:	e59d503c 	ldr	r5, [sp, #60]	; 0x3c
    2d34:	e59d8098 	ldr	r8, [sp, #152]	; 0x98
    2d38:	e3550001 	cmp	r5, #1
    2d3c:	e2888001 	add	r8, r8, #1
    2d40:	e2844001 	add	r4, r4, #1
    2d44:	da00013a 	ble	3234 <_vfprintf_r+0x15d8>
    2d48:	e3580007 	cmp	r8, #7
    2d4c:	e3a03001 	mov	r3, #1
    2d50:	e58d409c 	str	r4, [sp, #156]	; 0x9c
    2d54:	e5876000 	str	r6, [r7]
    2d58:	e58d8098 	str	r8, [sp, #152]	; 0x98
    2d5c:	e5873004 	str	r3, [r7, #4]
    2d60:	d2877008 	addle	r7, r7, #8
    2d64:	ca000146 	bgt	3284 <_vfprintf_r+0x1628>
    2d68:	e59d505c 	ldr	r5, [sp, #92]	; 0x5c
    2d6c:	e2888001 	add	r8, r8, #1
    2d70:	e59dc054 	ldr	r12, [sp, #84]	; 0x54
    2d74:	e3580007 	cmp	r8, #7
    2d78:	e0844005 	add	r4, r4, r5
    2d7c:	e587c000 	str	r12, [r7]
    2d80:	e5875004 	str	r5, [r7, #4]
    2d84:	e58d8098 	str	r8, [sp, #152]	; 0x98
    2d88:	e58d409c 	str	r4, [sp, #156]	; 0x9c
    2d8c:	d2877008 	addle	r7, r7, #8
    2d90:	ca000145 	bgt	32ac <_vfprintf_r+0x1650>
    2d94:	e59d0058 	ldr	r0, [sp, #88]	; 0x58
    2d98:	e59d1060 	ldr	r1, [sp, #96]	; 0x60
    2d9c:	e3a02000 	mov	r2, #0
    2da0:	e3a03000 	mov	r3, #0
    2da4:	eb003c7e 	bl	11fa4 <__aeabi_dcmpeq>
    2da8:	e3500000 	cmp	r0, #0
    2dac:	1a000086 	bne	2fcc <_vfprintf_r+0x1370>
    2db0:	e59d503c 	ldr	r5, [sp, #60]	; 0x3c
    2db4:	e2888001 	add	r8, r8, #1
    2db8:	e2453001 	sub	r3, r5, #1
    2dbc:	e2866001 	add	r6, r6, #1
    2dc0:	e0844003 	add	r4, r4, r3
    2dc4:	e3580007 	cmp	r8, #7
    2dc8:	e58d8098 	str	r8, [sp, #152]	; 0x98
    2dcc:	e58d409c 	str	r4, [sp, #156]	; 0x9c
    2dd0:	e5876000 	str	r6, [r7]
    2dd4:	e5873004 	str	r3, [r7, #4]
    2dd8:	ca00011f 	bgt	325c <_vfprintf_r+0x1600>
    2ddc:	e2877008 	add	r7, r7, #8
    2de0:	e59d5064 	ldr	r5, [sp, #100]	; 0x64
    2de4:	e2888001 	add	r8, r8, #1
    2de8:	e0854004 	add	r4, r5, r4
    2dec:	e28d3084 	add	r3, sp, #132	; 0x84
    2df0:	e3580007 	cmp	r8, #7
    2df4:	e58d8098 	str	r8, [sp, #152]	; 0x98
    2df8:	e58d409c 	str	r4, [sp, #156]	; 0x9c
    2dfc:	e8870028 	stm	r7, {r3, r5}
    2e00:	dafffee6 	ble	29a0 <_vfprintf_r+0xd44>
    2e04:	e59d0034 	ldr	r0, [sp, #52]	; 0x34
    2e08:	e59d1028 	ldr	r1, [sp, #40]	; 0x28
    2e0c:	e28d2094 	add	r2, sp, #148	; 0x94
    2e10:	eb002ba5 	bl	dcac <__sprint_r>
    2e14:	e3500000 	cmp	r0, #0
    2e18:	1afffc7c 	bne	2010 <_vfprintf_r+0x3b4>
    2e1c:	e59d409c 	ldr	r4, [sp, #156]	; 0x9c
    2e20:	e28d70c8 	add	r7, sp, #200	; 0xc8
    2e24:	eafffede 	b	29a4 <_vfprintf_r+0xd48>
    2e28:	e59d0034 	ldr	r0, [sp, #52]	; 0x34
    2e2c:	e59d1028 	ldr	r1, [sp, #40]	; 0x28
    2e30:	e28d2094 	add	r2, sp, #148	; 0x94
    2e34:	eb002b9c 	bl	dcac <__sprint_r>
    2e38:	e3500000 	cmp	r0, #0
    2e3c:	0affff18 	beq	2aa4 <_vfprintf_r+0xe48>
    2e40:	eafffc72 	b	2010 <_vfprintf_r+0x3b4>
    2e44:	e59d0034 	ldr	r0, [sp, #52]	; 0x34
    2e48:	e59d1028 	ldr	r1, [sp, #40]	; 0x28
    2e4c:	e28d2094 	add	r2, sp, #148	; 0x94
    2e50:	eb002b95 	bl	dcac <__sprint_r>
    2e54:	e3500000 	cmp	r0, #0
    2e58:	1afffc6c 	bne	2010 <_vfprintf_r+0x3b4>
    2e5c:	e59d409c 	ldr	r4, [sp, #156]	; 0x9c
    2e60:	e28d70c8 	add	r7, sp, #200	; 0xc8
    2e64:	eafffe77 	b	2848 <_vfprintf_r+0xbec>
    2e68:	e59d0034 	ldr	r0, [sp, #52]	; 0x34
    2e6c:	e59d1028 	ldr	r1, [sp, #40]	; 0x28
    2e70:	e28d2094 	add	r2, sp, #148	; 0x94
    2e74:	eb002b8c 	bl	dcac <__sprint_r>
    2e78:	e3500000 	cmp	r0, #0
    2e7c:	1afffc63 	bne	2010 <_vfprintf_r+0x3b4>
    2e80:	e59d409c 	ldr	r4, [sp, #156]	; 0x9c
    2e84:	e28d70c8 	add	r7, sp, #200	; 0xc8
    2e88:	eafffe7b 	b	287c <_vfprintf_r+0xc20>
    2e8c:	e3a03002 	mov	r3, #2
    2e90:	eafffc76 	b	2070 <_vfprintf_r+0x414>
    2e94:	e59d307c 	ldr	r3, [sp, #124]	; 0x7c
    2e98:	e3530000 	cmp	r3, #0
    2e9c:	da0001c5 	ble	35b8 <_vfprintf_r+0x195c>
    2ea0:	e59dc050 	ldr	r12, [sp, #80]	; 0x50
    2ea4:	e59d503c 	ldr	r5, [sp, #60]	; 0x3c
    2ea8:	e155000c 	cmp	r5, r12
    2eac:	a1a0500c 	movge	r5, r12
    2eb0:	e59dc03c 	ldr	r12, [sp, #60]	; 0x3c
    2eb4:	e3550000 	cmp	r5, #0
    2eb8:	e086b00c 	add	r11, r6, r12
    2ebc:	da000009 	ble	2ee8 <_vfprintf_r+0x128c>
    2ec0:	e59d3098 	ldr	r3, [sp, #152]	; 0x98
    2ec4:	e2833001 	add	r3, r3, #1
    2ec8:	e0844005 	add	r4, r4, r5
    2ecc:	e3530007 	cmp	r3, #7
    2ed0:	e5876000 	str	r6, [r7]
    2ed4:	e5875004 	str	r5, [r7, #4]
    2ed8:	e58d409c 	str	r4, [sp, #156]	; 0x9c
    2edc:	e58d3098 	str	r3, [sp, #152]	; 0x98
    2ee0:	d2877008 	addle	r7, r7, #8
    2ee4:	ca000242 	bgt	37f4 <_vfprintf_r+0x1b98>
    2ee8:	e59dc050 	ldr	r12, [sp, #80]	; 0x50
    2eec:	e1c55fc5 	bic	r5, r5, r5, asr #31
    2ef0:	e065800c 	rsb	r8, r5, r12
    2ef4:	e3580000 	cmp	r8, #0
    2ef8:	da00007c 	ble	30f0 <_vfprintf_r+0x1494>
    2efc:	e3580010 	cmp	r8, #16
    2f00:	e59d3098 	ldr	r3, [sp, #152]	; 0x98
    2f04:	e51f529c 	ldr	r5, [pc, #-668]	; 2c70 <_vfprintf_r+0x1014>
    2f08:	da000068 	ble	30b0 <_vfprintf_r+0x1454>
    2f0c:	e1a02007 	mov	r2, r7
    2f10:	e1a01004 	mov	r1, r4
    2f14:	e1a07005 	mov	r7, r5
    2f18:	e3a0a010 	mov	r10, #16
    2f1c:	e59d4034 	ldr	r4, [sp, #52]	; 0x34
    2f20:	e59d5028 	ldr	r5, [sp, #40]	; 0x28
    2f24:	ea000002 	b	2f34 <_vfprintf_r+0x12d8>
    2f28:	e2488010 	sub	r8, r8, #16
    2f2c:	e3580010 	cmp	r8, #16
    2f30:	da00005b 	ble	30a4 <_vfprintf_r+0x1448>
    2f34:	e2833001 	add	r3, r3, #1
    2f38:	e3530007 	cmp	r3, #7
    2f3c:	e2811010 	add	r1, r1, #16
    2f40:	e8820600 	stm	r2, {r9, r10}
    2f44:	e58d3098 	str	r3, [sp, #152]	; 0x98
    2f48:	e58d109c 	str	r1, [sp, #156]	; 0x9c
    2f4c:	d2822008 	addle	r2, r2, #8
    2f50:	dafffff4 	ble	2f28 <_vfprintf_r+0x12cc>
    2f54:	e1a00004 	mov	r0, r4
    2f58:	e1a01005 	mov	r1, r5
    2f5c:	e28d2094 	add	r2, sp, #148	; 0x94
    2f60:	eb002b51 	bl	dcac <__sprint_r>
    2f64:	e3500000 	cmp	r0, #0
    2f68:	1afffc28 	bne	2010 <_vfprintf_r+0x3b4>
    2f6c:	e59d109c 	ldr	r1, [sp, #156]	; 0x9c
    2f70:	e59d3098 	ldr	r3, [sp, #152]	; 0x98
    2f74:	e28d20c8 	add	r2, sp, #200	; 0xc8
    2f78:	eaffffea 	b	2f28 <_vfprintf_r+0x12cc>
    2f7c:	e3550000 	cmp	r5, #0
    2f80:	03540009 	cmpeq	r4, #9
    2f84:	8a0000db 	bhi	32f8 <_vfprintf_r+0x169c>
    2f88:	e2844030 	add	r4, r4, #48	; 0x30
    2f8c:	e28d6f42 	add	r6, sp, #264	; 0x108
    2f90:	e5664041 	strb	r4, [r6, #-65]!	; 0xffffffbf
    2f94:	e59d501c 	ldr	r5, [sp, #28]
    2f98:	e0665005 	rsb	r5, r6, r5
    2f9c:	e58d5038 	str	r5, [sp, #56]	; 0x38
    2fa0:	eafffc56 	b	2100 <_vfprintf_r+0x4a4>
    2fa4:	e59d0034 	ldr	r0, [sp, #52]	; 0x34
    2fa8:	e59d1028 	ldr	r1, [sp, #40]	; 0x28
    2fac:	e28d2094 	add	r2, sp, #148	; 0x94
    2fb0:	eb002b3d 	bl	dcac <__sprint_r>
    2fb4:	e3500000 	cmp	r0, #0
    2fb8:	1afffc14 	bne	2010 <_vfprintf_r+0x3b4>
    2fbc:	e5dda077 	ldrb	r10, [sp, #119]	; 0x77
    2fc0:	e59d409c 	ldr	r4, [sp, #156]	; 0x9c
    2fc4:	e28d70c8 	add	r7, sp, #200	; 0xc8
    2fc8:	eafffe11 	b	2814 <_vfprintf_r+0xbb8>
    2fcc:	e59dc03c 	ldr	r12, [sp, #60]	; 0x3c
    2fd0:	e24c6001 	sub	r6, r12, #1
    2fd4:	e3560000 	cmp	r6, #0
    2fd8:	daffff80 	ble	2de0 <_vfprintf_r+0x1184>
    2fdc:	e3560010 	cmp	r6, #16
    2fe0:	e51f5378 	ldr	r5, [pc, #-888]	; 2c70 <_vfprintf_r+0x1014>
    2fe4:	da0000bb 	ble	32d8 <_vfprintf_r+0x167c>
    2fe8:	e58d502c 	str	r5, [sp, #44]	; 0x2c
    2fec:	e3a0a010 	mov	r10, #16
    2ff0:	e59db034 	ldr	r11, [sp, #52]	; 0x34
    2ff4:	e59d5028 	ldr	r5, [sp, #40]	; 0x28
    2ff8:	ea000002 	b	3008 <_vfprintf_r+0x13ac>
    2ffc:	e2466010 	sub	r6, r6, #16
    3000:	e3560010 	cmp	r6, #16
    3004:	da0000b2 	ble	32d4 <_vfprintf_r+0x1678>
    3008:	e2888001 	add	r8, r8, #1
    300c:	e3580007 	cmp	r8, #7
    3010:	e2844010 	add	r4, r4, #16
    3014:	e8870600 	stm	r7, {r9, r10}
    3018:	e58d8098 	str	r8, [sp, #152]	; 0x98
    301c:	e58d409c 	str	r4, [sp, #156]	; 0x9c
    3020:	d2877008 	addle	r7, r7, #8
    3024:	dafffff4 	ble	2ffc <_vfprintf_r+0x13a0>
    3028:	e1a0000b 	mov	r0, r11
    302c:	e1a01005 	mov	r1, r5
    3030:	e28d2094 	add	r2, sp, #148	; 0x94
    3034:	eb002b1c 	bl	dcac <__sprint_r>
    3038:	e3500000 	cmp	r0, #0
    303c:	1afffbf3 	bne	2010 <_vfprintf_r+0x3b4>
    3040:	e59d409c 	ldr	r4, [sp, #156]	; 0x9c
    3044:	e59d8098 	ldr	r8, [sp, #152]	; 0x98
    3048:	e28d70c8 	add	r7, sp, #200	; 0xc8
    304c:	eaffffea 	b	2ffc <_vfprintf_r+0x13a0>
    3050:	e59dc044 	ldr	r12, [sp, #68]	; 0x44
    3054:	e59c4000 	ldr	r4, [r12]
    3058:	e28cc004 	add	r12, r12, #4
    305c:	e3a03001 	mov	r3, #1
    3060:	e58dc044 	str	r12, [sp, #68]	; 0x44
    3064:	e3a05000 	mov	r5, #0
    3068:	eafffc00 	b	2070 <_vfprintf_r+0x414>
    306c:	e59dc044 	ldr	r12, [sp, #68]	; 0x44
    3070:	e59c4000 	ldr	r4, [r12]
    3074:	e28cc004 	add	r12, r12, #4
    3078:	e58dc044 	str	r12, [sp, #68]	; 0x44
    307c:	e3a05000 	mov	r5, #0
    3080:	eafffd48 	b	25a8 <_vfprintf_r+0x94c>
    3084:	e2833001 	add	r3, r3, #1
    3088:	e0844006 	add	r4, r4, r6
    308c:	e3530007 	cmp	r3, #7
    3090:	e58d3098 	str	r3, [sp, #152]	; 0x98
    3094:	e58d409c 	str	r4, [sp, #156]	; 0x9c
    3098:	e8870060 	stm	r7, {r5, r6}
    309c:	dafffe3f 	ble	29a0 <_vfprintf_r+0xd44>
    30a0:	eaffff57 	b	2e04 <_vfprintf_r+0x11a8>
    30a4:	e1a05007 	mov	r5, r7
    30a8:	e1a04001 	mov	r4, r1
    30ac:	e1a07002 	mov	r7, r2
    30b0:	e2833001 	add	r3, r3, #1
    30b4:	e3530007 	cmp	r3, #7
    30b8:	e0844008 	add	r4, r4, r8
    30bc:	e8870120 	stm	r7, {r5, r8}
    30c0:	e58d3098 	str	r3, [sp, #152]	; 0x98
    30c4:	e58d409c 	str	r4, [sp, #156]	; 0x9c
    30c8:	d2877008 	addle	r7, r7, #8
    30cc:	da000007 	ble	30f0 <_vfprintf_r+0x1494>
    30d0:	e59d0034 	ldr	r0, [sp, #52]	; 0x34
    30d4:	e59d1028 	ldr	r1, [sp, #40]	; 0x28
    30d8:	e28d2094 	add	r2, sp, #148	; 0x94
    30dc:	eb002af2 	bl	dcac <__sprint_r>
    30e0:	e3500000 	cmp	r0, #0
    30e4:	1afffbc9 	bne	2010 <_vfprintf_r+0x3b4>
    30e8:	e59d409c 	ldr	r4, [sp, #156]	; 0x9c
    30ec:	e28d70c8 	add	r7, sp, #200	; 0xc8
    30f0:	e59d307c 	ldr	r3, [sp, #124]	; 0x7c
    30f4:	e59d503c 	ldr	r5, [sp, #60]	; 0x3c
    30f8:	e59dc050 	ldr	r12, [sp, #80]	; 0x50
    30fc:	e1530005 	cmp	r3, r5
    3100:	e086600c 	add	r6, r6, r12
    3104:	ba000035 	blt	31e0 <_vfprintf_r+0x1584>
    3108:	e59d5020 	ldr	r5, [sp, #32]
    310c:	e3150001 	tst	r5, #1
    3110:	1a000032 	bne	31e0 <_vfprintf_r+0x1584>
    3114:	e59dc03c 	ldr	r12, [sp, #60]	; 0x3c
    3118:	e066500b 	rsb	r5, r6, r11
    311c:	e063300c 	rsb	r3, r3, r12
    3120:	e1550003 	cmp	r5, r3
    3124:	a1a05003 	movge	r5, r3
    3128:	e3550000 	cmp	r5, #0
    312c:	da000009 	ble	3158 <_vfprintf_r+0x14fc>
    3130:	e59d2098 	ldr	r2, [sp, #152]	; 0x98
    3134:	e2822001 	add	r2, r2, #1
    3138:	e0844005 	add	r4, r4, r5
    313c:	e3520007 	cmp	r2, #7
    3140:	e5876000 	str	r6, [r7]
    3144:	e5875004 	str	r5, [r7, #4]
    3148:	e58d409c 	str	r4, [sp, #156]	; 0x9c
    314c:	e58d2098 	str	r2, [sp, #152]	; 0x98
    3150:	d2877008 	addle	r7, r7, #8
    3154:	ca0001af 	bgt	3818 <_vfprintf_r+0x1bbc>
    3158:	e1c55fc5 	bic	r5, r5, r5, asr #31
    315c:	e0656003 	rsb	r6, r5, r3
    3160:	e3560000 	cmp	r6, #0
    3164:	dafffe0e 	ble	29a4 <_vfprintf_r+0xd48>
    3168:	e3560010 	cmp	r6, #16
    316c:	e59d3098 	ldr	r3, [sp, #152]	; 0x98
    3170:	e51f5508 	ldr	r5, [pc, #-1288]	; 2c70 <_vfprintf_r+0x1014>
    3174:	daffffc2 	ble	3084 <_vfprintf_r+0x1428>
    3178:	e3a08010 	mov	r8, #16
    317c:	e59da034 	ldr	r10, [sp, #52]	; 0x34
    3180:	e59db028 	ldr	r11, [sp, #40]	; 0x28
    3184:	ea000002 	b	3194 <_vfprintf_r+0x1538>
    3188:	e2466010 	sub	r6, r6, #16
    318c:	e3560010 	cmp	r6, #16
    3190:	daffffbb 	ble	3084 <_vfprintf_r+0x1428>
    3194:	e2833001 	add	r3, r3, #1
    3198:	e3530007 	cmp	r3, #7
    319c:	e2844010 	add	r4, r4, #16
    31a0:	e5879000 	str	r9, [r7]
    31a4:	e5878004 	str	r8, [r7, #4]
    31a8:	e58d3098 	str	r3, [sp, #152]	; 0x98
    31ac:	e58d409c 	str	r4, [sp, #156]	; 0x9c
    31b0:	d2877008 	addle	r7, r7, #8
    31b4:	dafffff3 	ble	3188 <_vfprintf_r+0x152c>
    31b8:	e1a0000a 	mov	r0, r10
    31bc:	e1a0100b 	mov	r1, r11
    31c0:	e28d2094 	add	r2, sp, #148	; 0x94
    31c4:	eb002ab8 	bl	dcac <__sprint_r>
    31c8:	e3500000 	cmp	r0, #0
    31cc:	1afffb8f 	bne	2010 <_vfprintf_r+0x3b4>
    31d0:	e28d3098 	add	r3, sp, #152	; 0x98
    31d4:	e8930018 	ldm	r3, {r3, r4}
    31d8:	e28d70c8 	add	r7, sp, #200	; 0xc8
    31dc:	eaffffe9 	b	3188 <_vfprintf_r+0x152c>
    31e0:	e59d2098 	ldr	r2, [sp, #152]	; 0x98
    31e4:	e59dc05c 	ldr	r12, [sp, #92]	; 0x5c
    31e8:	e2822001 	add	r2, r2, #1
    31ec:	e59d5054 	ldr	r5, [sp, #84]	; 0x54
    31f0:	e084400c 	add	r4, r4, r12
    31f4:	e3520007 	cmp	r2, #7
    31f8:	e8871020 	stm	r7, {r5, r12}
    31fc:	e58d409c 	str	r4, [sp, #156]	; 0x9c
    3200:	e58d2098 	str	r2, [sp, #152]	; 0x98
    3204:	d2877008 	addle	r7, r7, #8
    3208:	daffffc1 	ble	3114 <_vfprintf_r+0x14b8>
    320c:	e59d0034 	ldr	r0, [sp, #52]	; 0x34
    3210:	e59d1028 	ldr	r1, [sp, #40]	; 0x28
    3214:	e28d2094 	add	r2, sp, #148	; 0x94
    3218:	eb002aa3 	bl	dcac <__sprint_r>
    321c:	e3500000 	cmp	r0, #0
    3220:	1afffb7a 	bne	2010 <_vfprintf_r+0x3b4>
    3224:	e59d307c 	ldr	r3, [sp, #124]	; 0x7c
    3228:	e59d409c 	ldr	r4, [sp, #156]	; 0x9c
    322c:	e28d70c8 	add	r7, sp, #200	; 0xc8
    3230:	eaffffb7 	b	3114 <_vfprintf_r+0x14b8>
    3234:	e59dc020 	ldr	r12, [sp, #32]
    3238:	e31c0001 	tst	r12, #1
    323c:	1afffec1 	bne	2d48 <_vfprintf_r+0x10ec>
    3240:	e3a03001 	mov	r3, #1
    3244:	e3580007 	cmp	r8, #7
    3248:	e58d409c 	str	r4, [sp, #156]	; 0x9c
    324c:	e58d8098 	str	r8, [sp, #152]	; 0x98
    3250:	e5876000 	str	r6, [r7]
    3254:	e5873004 	str	r3, [r7, #4]
    3258:	dafffedf 	ble	2ddc <_vfprintf_r+0x1180>
    325c:	e59d0034 	ldr	r0, [sp, #52]	; 0x34
    3260:	e59d1028 	ldr	r1, [sp, #40]	; 0x28
    3264:	e28d2094 	add	r2, sp, #148	; 0x94
    3268:	eb002a8f 	bl	dcac <__sprint_r>
    326c:	e3500000 	cmp	r0, #0
    3270:	1afffb66 	bne	2010 <_vfprintf_r+0x3b4>
    3274:	e59d409c 	ldr	r4, [sp, #156]	; 0x9c
    3278:	e59d8098 	ldr	r8, [sp, #152]	; 0x98
    327c:	e28d70c8 	add	r7, sp, #200	; 0xc8
    3280:	eafffed6 	b	2de0 <_vfprintf_r+0x1184>
    3284:	e59d0034 	ldr	r0, [sp, #52]	; 0x34
    3288:	e59d1028 	ldr	r1, [sp, #40]	; 0x28
    328c:	e28d2094 	add	r2, sp, #148	; 0x94
    3290:	eb002a85 	bl	dcac <__sprint_r>
    3294:	e3500000 	cmp	r0, #0
    3298:	1afffb5c 	bne	2010 <_vfprintf_r+0x3b4>
    329c:	e59d409c 	ldr	r4, [sp, #156]	; 0x9c
    32a0:	e59d8098 	ldr	r8, [sp, #152]	; 0x98
    32a4:	e28d70c8 	add	r7, sp, #200	; 0xc8
    32a8:	eafffeae 	b	2d68 <_vfprintf_r+0x110c>
    32ac:	e59d0034 	ldr	r0, [sp, #52]	; 0x34
    32b0:	e59d1028 	ldr	r1, [sp, #40]	; 0x28
    32b4:	e28d2094 	add	r2, sp, #148	; 0x94
    32b8:	eb002a7b 	bl	dcac <__sprint_r>
    32bc:	e3500000 	cmp	r0, #0
    32c0:	1afffb52 	bne	2010 <_vfprintf_r+0x3b4>
    32c4:	e59d409c 	ldr	r4, [sp, #156]	; 0x9c
    32c8:	e59d8098 	ldr	r8, [sp, #152]	; 0x98
    32cc:	e28d70c8 	add	r7, sp, #200	; 0xc8
    32d0:	eafffeaf 	b	2d94 <_vfprintf_r+0x1138>
    32d4:	e59d502c 	ldr	r5, [sp, #44]	; 0x2c
    32d8:	e2888001 	add	r8, r8, #1
    32dc:	e0844006 	add	r4, r4, r6
    32e0:	e3580007 	cmp	r8, #7
    32e4:	e58d8098 	str	r8, [sp, #152]	; 0x98
    32e8:	e58d409c 	str	r4, [sp, #156]	; 0x9c
    32ec:	e8870060 	stm	r7, {r5, r6}
    32f0:	dafffeb9 	ble	2ddc <_vfprintf_r+0x1180>
    32f4:	eaffffd8 	b	325c <_vfprintf_r+0x1600>
    32f8:	e28db0c7 	add	r11, sp, #199	; 0xc7
    32fc:	e1a00004 	mov	r0, r4
    3300:	e1a01005 	mov	r1, r5
    3304:	e3a0200a 	mov	r2, #10
    3308:	e3a03000 	mov	r3, #0
    330c:	eb003bdb 	bl	12280 <__aeabi_uldivmod>
    3310:	e2822030 	add	r2, r2, #48	; 0x30
    3314:	e5cb2000 	strb	r2, [r11]
    3318:	e1a00004 	mov	r0, r4
    331c:	e1a01005 	mov	r1, r5
    3320:	e3a0200a 	mov	r2, #10
    3324:	e3a03000 	mov	r3, #0
    3328:	eb003bd4 	bl	12280 <__aeabi_uldivmod>
    332c:	e1a04000 	mov	r4, r0
    3330:	e1a05001 	mov	r5, r1
    3334:	e194c005 	orrs	r12, r4, r5
    3338:	e1a0600b 	mov	r6, r11
    333c:	e24bb001 	sub	r11, r11, #1
    3340:	1affffed 	bne	32fc <_vfprintf_r+0x16a0>
    3344:	eafffb6a 	b	20f4 <_vfprintf_r+0x498>
    3348:	e3a0a02d 	mov	r10, #45	; 0x2d
    334c:	e2744000 	rsbs	r4, r4, #0
    3350:	e2e55000 	rsc	r5, r5, #0
    3354:	e5cda077 	strb	r10, [sp, #119]	; 0x77
    3358:	e3a03001 	mov	r3, #1
    335c:	eafffb45 	b	2078 <_vfprintf_r+0x41c>
    3360:	eb001890 	bl	95a8 <__fpclassifyd>
    3364:	e3500000 	cmp	r0, #0
    3368:	0a0000da 	beq	36d8 <_vfprintf_r+0x1a7c>
    336c:	e59d402c 	ldr	r4, [sp, #44]	; 0x2c
    3370:	e3740001 	cmn	r4, #1
    3374:	03a0c006 	moveq	r12, #6
    3378:	e3c85020 	bic	r5, r8, #32
    337c:	058dc02c 	streq	r12, [sp, #44]	; 0x2c
    3380:	0a000005 	beq	339c <_vfprintf_r+0x1740>
    3384:	e3550047 	cmp	r5, #71	; 0x47
    3388:	1a000003 	bne	339c <_vfprintf_r+0x1740>
    338c:	e59d402c 	ldr	r4, [sp, #44]	; 0x2c
    3390:	e3540000 	cmp	r4, #0
    3394:	03a04001 	moveq	r4, #1
    3398:	e58d402c 	str	r4, [sp, #44]	; 0x2c
    339c:	e59d3060 	ldr	r3, [sp, #96]	; 0x60
    33a0:	e59d4020 	ldr	r4, [sp, #32]
    33a4:	e3530000 	cmp	r3, #0
    33a8:	e3844c01 	orr	r4, r4, #256	; 0x100
    33ac:	b283a102 	addlt	r10, r3, #-2147483648	; 0x80000000
    33b0:	b3a0b02d 	movlt	r11, #45	; 0x2d
    33b4:	a59da060 	ldrge	r10, [sp, #96]	; 0x60
    33b8:	a3a0b000 	movge	r11, #0
    33bc:	e2553046 	subs	r3, r5, #70	; 0x46
    33c0:	e58d404c 	str	r4, [sp, #76]	; 0x4c
    33c4:	e2734000 	rsbs	r4, r3, #0
    33c8:	e0b44003 	adcs	r4, r4, r3
    33cc:	e3540000 	cmp	r4, #0
    33d0:	1a000142 	bne	38e0 <_vfprintf_r+0x1c84>
    33d4:	e3550045 	cmp	r5, #69	; 0x45
    33d8:	1a00019c 	bne	3a50 <_vfprintf_r+0x1df4>
    33dc:	e59dc02c 	ldr	r12, [sp, #44]	; 0x2c
    33e0:	e3a00002 	mov	r0, #2
    33e4:	e28c4001 	add	r4, r12, #1
    33e8:	e28d107c 	add	r1, sp, #124	; 0x7c
    33ec:	e88d0011 	stm	sp, {r0, r4}
    33f0:	e58d1008 	str	r1, [sp, #8]
    33f4:	e28d0080 	add	r0, sp, #128	; 0x80
    33f8:	e28d108c 	add	r1, sp, #140	; 0x8c
    33fc:	e58d000c 	str	r0, [sp, #12]
    3400:	e59d2058 	ldr	r2, [sp, #88]	; 0x58
    3404:	e1a0300a 	mov	r3, r10
    3408:	e58d1010 	str	r1, [sp, #16]
    340c:	e59d0034 	ldr	r0, [sp, #52]	; 0x34
    3410:	eb000952 	bl	5960 <_dtoa_r>
    3414:	e1a06000 	mov	r6, r0
    3418:	e0804004 	add	r4, r0, r4
    341c:	e3a03000 	mov	r3, #0
    3420:	e59d0058 	ldr	r0, [sp, #88]	; 0x58
    3424:	e1a0100a 	mov	r1, r10
    3428:	e3a02000 	mov	r2, #0
    342c:	eb003adc 	bl	11fa4 <__aeabi_dcmpeq>
    3430:	e3500000 	cmp	r0, #0
    3434:	11a03004 	movne	r3, r4
    3438:	1a000009 	bne	3464 <_vfprintf_r+0x1808>
    343c:	e59d308c 	ldr	r3, [sp, #140]	; 0x8c
    3440:	e1540003 	cmp	r4, r3
    3444:	9a000006 	bls	3464 <_vfprintf_r+0x1808>
    3448:	e3a01030 	mov	r1, #48	; 0x30
    344c:	e2832001 	add	r2, r3, #1
    3450:	e58d208c 	str	r2, [sp, #140]	; 0x8c
    3454:	e5c31000 	strb	r1, [r3]
    3458:	e59d308c 	ldr	r3, [sp, #140]	; 0x8c
    345c:	e1540003 	cmp	r4, r3
    3460:	8afffff9 	bhi	344c <_vfprintf_r+0x17f0>
    3464:	e0663003 	rsb	r3, r6, r3
    3468:	e3550047 	cmp	r5, #71	; 0x47
    346c:	e58d303c 	str	r3, [sp, #60]	; 0x3c
    3470:	0a000112 	beq	38c0 <_vfprintf_r+0x1c64>
    3474:	e3580065 	cmp	r8, #101	; 0x65
    3478:	da0001d3 	ble	3bcc <_vfprintf_r+0x1f70>
    347c:	e3580066 	cmp	r8, #102	; 0x66
    3480:	0a000193 	beq	3ad4 <_vfprintf_r+0x1e78>
    3484:	e59d507c 	ldr	r5, [sp, #124]	; 0x7c
    3488:	e58d5050 	str	r5, [sp, #80]	; 0x50
    348c:	e59d4050 	ldr	r4, [sp, #80]	; 0x50
    3490:	e59d503c 	ldr	r5, [sp, #60]	; 0x3c
    3494:	e1540005 	cmp	r4, r5
    3498:	ba000162 	blt	3a28 <_vfprintf_r+0x1dcc>
    349c:	e59dc020 	ldr	r12, [sp, #32]
    34a0:	e31c0001 	tst	r12, #1
    34a4:	159d3050 	ldrne	r3, [sp, #80]	; 0x50
    34a8:	058d4038 	streq	r4, [sp, #56]	; 0x38
    34ac:	12833001 	addne	r3, r3, #1
    34b0:	158d3038 	strne	r3, [sp, #56]	; 0x38
    34b4:	01c43fc4 	biceq	r3, r4, r4, asr #31
    34b8:	11c33fc3 	bicne	r3, r3, r3, asr #31
    34bc:	e3a08067 	mov	r8, #103	; 0x67
    34c0:	e35b0000 	cmp	r11, #0
    34c4:	1a0000f2 	bne	3894 <_vfprintf_r+0x1c38>
    34c8:	e59dc04c 	ldr	r12, [sp, #76]	; 0x4c
    34cc:	e58d3030 	str	r3, [sp, #48]	; 0x30
    34d0:	e58dc020 	str	r12, [sp, #32]
    34d4:	e58db02c 	str	r11, [sp, #44]	; 0x2c
    34d8:	e5dda077 	ldrb	r10, [sp, #119]	; 0x77
    34dc:	eafffb0e 	b	211c <_vfprintf_r+0x4c0>
    34e0:	e593c000 	ldr	r12, [r3]
    34e4:	e5934004 	ldr	r4, [r3, #4]
    34e8:	e2833008 	add	r3, r3, #8
    34ec:	e58dc058 	str	r12, [sp, #88]	; 0x58
    34f0:	e58d4060 	str	r4, [sp, #96]	; 0x60
    34f4:	e58d3044 	str	r3, [sp, #68]	; 0x44
    34f8:	eafffbc0 	b	2400 <_vfprintf_r+0x7a4>
    34fc:	e59dc020 	ldr	r12, [sp, #32]
    3500:	e31c0010 	tst	r12, #16
    3504:	1a00006c 	bne	36bc <_vfprintf_r+0x1a60>
    3508:	e59dc020 	ldr	r12, [sp, #32]
    350c:	e31c0040 	tst	r12, #64	; 0x40
    3510:	0a0000d8 	beq	3878 <_vfprintf_r+0x1c1c>
    3514:	e59d4044 	ldr	r4, [sp, #68]	; 0x44
    3518:	e59d5048 	ldr	r5, [sp, #72]	; 0x48
    351c:	e5943000 	ldr	r3, [r4]
    3520:	e2844004 	add	r4, r4, #4
    3524:	e58d4044 	str	r4, [sp, #68]	; 0x44
    3528:	e1c350b0 	strh	r5, [r3]
    352c:	eafff9fd 	b	1d28 <_vfprintf_r+0xcc>
    3530:	e59d4020 	ldr	r4, [sp, #32]
    3534:	e59d5044 	ldr	r5, [sp, #68]	; 0x44
    3538:	e3140040 	tst	r4, #64	; 0x40
    353c:	11d540f0 	ldrshne	r4, [r5]
    3540:	05954000 	ldreq	r4, [r5]
    3544:	e59dc044 	ldr	r12, [sp, #68]	; 0x44
    3548:	e1a05fc4 	asr	r5, r4, #31
    354c:	e28cc004 	add	r12, r12, #4
    3550:	e58dc044 	str	r12, [sp, #68]	; 0x44
    3554:	e1a02004 	mov	r2, r4
    3558:	e1a03005 	mov	r3, r5
    355c:	eafffb93 	b	23b0 <_vfprintf_r+0x754>
    3560:	e59dc020 	ldr	r12, [sp, #32]
    3564:	e21c3040 	ands	r3, r12, #64	; 0x40
    3568:	159d5044 	ldrne	r5, [sp, #68]	; 0x44
    356c:	059dc044 	ldreq	r12, [sp, #68]	; 0x44
    3570:	11d540b0 	ldrhne	r4, [r5]
    3574:	059c4000 	ldreq	r4, [r12]
    3578:	12855004 	addne	r5, r5, #4
    357c:	028cc004 	addeq	r12, r12, #4
    3580:	158d5044 	strne	r5, [sp, #68]	; 0x44
    3584:	11a03002 	movne	r3, r2
    3588:	058dc044 	streq	r12, [sp, #68]	; 0x44
    358c:	e3a05000 	mov	r5, #0
    3590:	eafffab6 	b	2070 <_vfprintf_r+0x414>
    3594:	e59d0034 	ldr	r0, [sp, #52]	; 0x34
    3598:	e59d1028 	ldr	r1, [sp, #40]	; 0x28
    359c:	e28d2094 	add	r2, sp, #148	; 0x94
    35a0:	eb0029c1 	bl	dcac <__sprint_r>
    35a4:	e3500000 	cmp	r0, #0
    35a8:	1afffa98 	bne	2010 <_vfprintf_r+0x3b4>
    35ac:	e59d409c 	ldr	r4, [sp, #156]	; 0x9c
    35b0:	e28d70c8 	add	r7, sp, #200	; 0xc8
    35b4:	eafffd53 	b	2b08 <_vfprintf_r+0xeac>
    35b8:	e59d2098 	ldr	r2, [sp, #152]	; 0x98
    35bc:	e51fc958 	ldr	r12, [pc, #-2392]	; 2c6c <_vfprintf_r+0x1010>
    35c0:	e2822001 	add	r2, r2, #1
    35c4:	e2844001 	add	r4, r4, #1
    35c8:	e3a01001 	mov	r1, #1
    35cc:	e3520007 	cmp	r2, #7
    35d0:	e58d409c 	str	r4, [sp, #156]	; 0x9c
    35d4:	e587c000 	str	r12, [r7]
    35d8:	e58d2098 	str	r2, [sp, #152]	; 0x98
    35dc:	e5871004 	str	r1, [r7, #4]
    35e0:	ca00004a 	bgt	3710 <_vfprintf_r+0x1ab4>
    35e4:	e2877008 	add	r7, r7, #8
    35e8:	e1a08003 	mov	r8, r3
    35ec:	e3580000 	cmp	r8, #0
    35f0:	1a000005 	bne	360c <_vfprintf_r+0x19b0>
    35f4:	e59d503c 	ldr	r5, [sp, #60]	; 0x3c
    35f8:	e3550000 	cmp	r5, #0
    35fc:	1a000002 	bne	360c <_vfprintf_r+0x19b0>
    3600:	e59dc020 	ldr	r12, [sp, #32]
    3604:	e31c0001 	tst	r12, #1
    3608:	0afffce5 	beq	29a4 <_vfprintf_r+0xd48>
    360c:	e59d3098 	ldr	r3, [sp, #152]	; 0x98
    3610:	e59d505c 	ldr	r5, [sp, #92]	; 0x5c
    3614:	e2833001 	add	r3, r3, #1
    3618:	e59dc054 	ldr	r12, [sp, #84]	; 0x54
    361c:	e0844005 	add	r4, r4, r5
    3620:	e3530007 	cmp	r3, #7
    3624:	e587c000 	str	r12, [r7]
    3628:	e5875004 	str	r5, [r7, #4]
    362c:	e58d409c 	str	r4, [sp, #156]	; 0x9c
    3630:	e58d3098 	str	r3, [sp, #152]	; 0x98
    3634:	d2877008 	addle	r7, r7, #8
    3638:	ca0000ef 	bgt	39fc <_vfprintf_r+0x1da0>
    363c:	e2688000 	rsb	r8, r8, #0
    3640:	e3580000 	cmp	r8, #0
    3644:	da000056 	ble	37a4 <_vfprintf_r+0x1b48>
    3648:	e3580010 	cmp	r8, #16
    364c:	e51f59e4 	ldr	r5, [pc, #-2532]	; 2c70 <_vfprintf_r+0x1014>
    3650:	da000042 	ble	3760 <_vfprintf_r+0x1b04>
    3654:	e1a02004 	mov	r2, r4
    3658:	e3a0a010 	mov	r10, #16
    365c:	e59db034 	ldr	r11, [sp, #52]	; 0x34
    3660:	e59d4028 	ldr	r4, [sp, #40]	; 0x28
    3664:	ea000002 	b	3674 <_vfprintf_r+0x1a18>
    3668:	e2488010 	sub	r8, r8, #16
    366c:	e3580010 	cmp	r8, #16
    3670:	da000039 	ble	375c <_vfprintf_r+0x1b00>
    3674:	e2833001 	add	r3, r3, #1
    3678:	e3530007 	cmp	r3, #7
    367c:	e2822010 	add	r2, r2, #16
    3680:	e8870600 	stm	r7, {r9, r10}
    3684:	e58d3098 	str	r3, [sp, #152]	; 0x98
    3688:	e58d209c 	str	r2, [sp, #156]	; 0x9c
    368c:	d2877008 	addle	r7, r7, #8
    3690:	dafffff4 	ble	3668 <_vfprintf_r+0x1a0c>
    3694:	e1a0000b 	mov	r0, r11
    3698:	e1a01004 	mov	r1, r4
    369c:	e28d2094 	add	r2, sp, #148	; 0x94
    36a0:	eb002981 	bl	dcac <__sprint_r>
    36a4:	e3500000 	cmp	r0, #0
    36a8:	1afffa58 	bne	2010 <_vfprintf_r+0x3b4>
    36ac:	e59d209c 	ldr	r2, [sp, #156]	; 0x9c
    36b0:	e59d3098 	ldr	r3, [sp, #152]	; 0x98
    36b4:	e28d70c8 	add	r7, sp, #200	; 0xc8
    36b8:	eaffffea 	b	3668 <_vfprintf_r+0x1a0c>
    36bc:	e59d4044 	ldr	r4, [sp, #68]	; 0x44
    36c0:	e59d5048 	ldr	r5, [sp, #72]	; 0x48
    36c4:	e5943000 	ldr	r3, [r4]
    36c8:	e2844004 	add	r4, r4, #4
    36cc:	e58d4044 	str	r4, [sp, #68]	; 0x44
    36d0:	e5835000 	str	r5, [r3]
    36d4:	eafff993 	b	1d28 <_vfprintf_r+0xcc>
    36d8:	e59dc020 	ldr	r12, [sp, #32]
    36dc:	e51f3a70 	ldr	r3, [pc, #-2672]	; 2c74 <_vfprintf_r+0x1018>
    36e0:	e3a05003 	mov	r5, #3
    36e4:	e3ccc080 	bic	r12, r12, #128	; 0x80
    36e8:	e3580047 	cmp	r8, #71	; 0x47
    36ec:	e51f6a7c 	ldr	r6, [pc, #-2684]	; 2c78 <_vfprintf_r+0x101c>
    36f0:	e58d002c 	str	r0, [sp, #44]	; 0x2c
    36f4:	e58d5030 	str	r5, [sp, #48]	; 0x30
    36f8:	e58dc020 	str	r12, [sp, #32]
    36fc:	e58d0050 	str	r0, [sp, #80]	; 0x50
    3700:	d1a06003 	movle	r6, r3
    3704:	e58d5038 	str	r5, [sp, #56]	; 0x38
    3708:	e5dda077 	ldrb	r10, [sp, #119]	; 0x77
    370c:	eafffa82 	b	211c <_vfprintf_r+0x4c0>
    3710:	e59d0034 	ldr	r0, [sp, #52]	; 0x34
    3714:	e59d1028 	ldr	r1, [sp, #40]	; 0x28
    3718:	e28d2094 	add	r2, sp, #148	; 0x94
    371c:	eb002962 	bl	dcac <__sprint_r>
    3720:	e3500000 	cmp	r0, #0
    3724:	1afffa39 	bne	2010 <_vfprintf_r+0x3b4>
    3728:	e59d807c 	ldr	r8, [sp, #124]	; 0x7c
    372c:	e59d409c 	ldr	r4, [sp, #156]	; 0x9c
    3730:	e28d70c8 	add	r7, sp, #200	; 0xc8
    3734:	eaffffac 	b	35ec <_vfprintf_r+0x1990>
    3738:	e59d0034 	ldr	r0, [sp, #52]	; 0x34
    373c:	e59d1028 	ldr	r1, [sp, #40]	; 0x28
    3740:	e28d2094 	add	r2, sp, #148	; 0x94
    3744:	eb002958 	bl	dcac <__sprint_r>
    3748:	e3500000 	cmp	r0, #0
    374c:	1afffa2f 	bne	2010 <_vfprintf_r+0x3b4>
    3750:	e59d409c 	ldr	r4, [sp, #156]	; 0x9c
    3754:	e28d70c8 	add	r7, sp, #200	; 0xc8
    3758:	eafffcfd 	b	2b54 <_vfprintf_r+0xef8>
    375c:	e1a04002 	mov	r4, r2
    3760:	e2833001 	add	r3, r3, #1
    3764:	e3530007 	cmp	r3, #7
    3768:	e0844008 	add	r4, r4, r8
    376c:	e8870120 	stm	r7, {r5, r8}
    3770:	e58d3098 	str	r3, [sp, #152]	; 0x98
    3774:	e58d409c 	str	r4, [sp, #156]	; 0x9c
    3778:	d2877008 	addle	r7, r7, #8
    377c:	da000008 	ble	37a4 <_vfprintf_r+0x1b48>
    3780:	e59d0034 	ldr	r0, [sp, #52]	; 0x34
    3784:	e59d1028 	ldr	r1, [sp, #40]	; 0x28
    3788:	e28d2094 	add	r2, sp, #148	; 0x94
    378c:	eb002946 	bl	dcac <__sprint_r>
    3790:	e3500000 	cmp	r0, #0
    3794:	1afffa1d 	bne	2010 <_vfprintf_r+0x3b4>
    3798:	e28d3098 	add	r3, sp, #152	; 0x98
    379c:	e8930018 	ldm	r3, {r3, r4}
    37a0:	e28d70c8 	add	r7, sp, #200	; 0xc8
    37a4:	e59d503c 	ldr	r5, [sp, #60]	; 0x3c
    37a8:	e2833001 	add	r3, r3, #1
    37ac:	e0854004 	add	r4, r5, r4
    37b0:	e3530007 	cmp	r3, #7
    37b4:	e58d3098 	str	r3, [sp, #152]	; 0x98
    37b8:	e58d409c 	str	r4, [sp, #156]	; 0x9c
    37bc:	e5876000 	str	r6, [r7]
    37c0:	e5875004 	str	r5, [r7, #4]
    37c4:	dafffc75 	ble	29a0 <_vfprintf_r+0xd44>
    37c8:	eafffd8d 	b	2e04 <_vfprintf_r+0x11a8>
    37cc:	e58d502c 	str	r5, [sp, #44]	; 0x2c
    37d0:	ebfff909 	bl	1bfc <strlen>
    37d4:	e59dc02c 	ldr	r12, [sp, #44]	; 0x2c
    37d8:	e1c05fc0 	bic	r5, r0, r0, asr #31
    37dc:	e58d0038 	str	r0, [sp, #56]	; 0x38
    37e0:	e58d4044 	str	r4, [sp, #68]	; 0x44
    37e4:	e58d5030 	str	r5, [sp, #48]	; 0x30
    37e8:	e58dc050 	str	r12, [sp, #80]	; 0x50
    37ec:	e5dda077 	ldrb	r10, [sp, #119]	; 0x77
    37f0:	eafffa49 	b	211c <_vfprintf_r+0x4c0>
    37f4:	e59d0034 	ldr	r0, [sp, #52]	; 0x34
    37f8:	e59d1028 	ldr	r1, [sp, #40]	; 0x28
    37fc:	e28d2094 	add	r2, sp, #148	; 0x94
    3800:	eb002929 	bl	dcac <__sprint_r>
    3804:	e3500000 	cmp	r0, #0
    3808:	1afffa00 	bne	2010 <_vfprintf_r+0x3b4>
    380c:	e59d409c 	ldr	r4, [sp, #156]	; 0x9c
    3810:	e28d70c8 	add	r7, sp, #200	; 0xc8
    3814:	eafffdb3 	b	2ee8 <_vfprintf_r+0x128c>
    3818:	e59d0034 	ldr	r0, [sp, #52]	; 0x34
    381c:	e59d1028 	ldr	r1, [sp, #40]	; 0x28
    3820:	e28d2094 	add	r2, sp, #148	; 0x94
    3824:	eb002920 	bl	dcac <__sprint_r>
    3828:	e3500000 	cmp	r0, #0
    382c:	1afff9f7 	bne	2010 <_vfprintf_r+0x3b4>
    3830:	e59d307c 	ldr	r3, [sp, #124]	; 0x7c
    3834:	e59dc03c 	ldr	r12, [sp, #60]	; 0x3c
    3838:	e59d409c 	ldr	r4, [sp, #156]	; 0x9c
    383c:	e063300c 	rsb	r3, r3, r12
    3840:	e28d70c8 	add	r7, sp, #200	; 0xc8
    3844:	eafffe43 	b	3158 <_vfprintf_r+0x14fc>
    3848:	e59d502c 	ldr	r5, [sp, #44]	; 0x2c
    384c:	e3550006 	cmp	r5, #6
    3850:	23a05006 	movcs	r5, #6
    3854:	e1c5cfc5 	bic	r12, r5, r5, asr #31
    3858:	e1a0a006 	mov	r10, r6
    385c:	e58d602c 	str	r6, [sp, #44]	; 0x2c
    3860:	e58d6050 	str	r6, [sp, #80]	; 0x50
    3864:	e58d5038 	str	r5, [sp, #56]	; 0x38
    3868:	e58d4044 	str	r4, [sp, #68]	; 0x44
    386c:	e58dc030 	str	r12, [sp, #48]	; 0x30
    3870:	e51f6bfc 	ldr	r6, [pc, #-3068]	; 2c7c <_vfprintf_r+0x1020>
    3874:	eafffa28 	b	211c <_vfprintf_r+0x4c0>
    3878:	e59dc044 	ldr	r12, [sp, #68]	; 0x44
    387c:	e59d4048 	ldr	r4, [sp, #72]	; 0x48
    3880:	e59c3000 	ldr	r3, [r12]
    3884:	e28cc004 	add	r12, r12, #4
    3888:	e58dc044 	str	r12, [sp, #68]	; 0x44
    388c:	e5834000 	str	r4, [r3]
    3890:	eafff924 	b	1d28 <_vfprintf_r+0xcc>
    3894:	e59d404c 	ldr	r4, [sp, #76]	; 0x4c
    3898:	e3a0a02d 	mov	r10, #45	; 0x2d
    389c:	e3a05000 	mov	r5, #0
    38a0:	e58d3030 	str	r3, [sp, #48]	; 0x30
    38a4:	e58d4020 	str	r4, [sp, #32]
    38a8:	e5cda077 	strb	r10, [sp, #119]	; 0x77
    38ac:	e58d502c 	str	r5, [sp, #44]	; 0x2c
    38b0:	eafffa1b 	b	2124 <_vfprintf_r+0x4c8>
    38b4:	e59d308c 	ldr	r3, [sp, #140]	; 0x8c
    38b8:	e0603003 	rsb	r3, r0, r3
    38bc:	e58d303c 	str	r3, [sp, #60]	; 0x3c
    38c0:	e59d307c 	ldr	r3, [sp, #124]	; 0x7c
    38c4:	e3730003 	cmn	r3, #3
    38c8:	ba00002c 	blt	3980 <_vfprintf_r+0x1d24>
    38cc:	e59d402c 	ldr	r4, [sp, #44]	; 0x2c
    38d0:	e1540003 	cmp	r4, r3
    38d4:	ba000029 	blt	3980 <_vfprintf_r+0x1d24>
    38d8:	e58d3050 	str	r3, [sp, #80]	; 0x50
    38dc:	eafffeea 	b	348c <_vfprintf_r+0x1830>
    38e0:	e3a01003 	mov	r1, #3
    38e4:	e28d007c 	add	r0, sp, #124	; 0x7c
    38e8:	e59dc02c 	ldr	r12, [sp, #44]	; 0x2c
    38ec:	e58d1000 	str	r1, [sp]
    38f0:	e58d0008 	str	r0, [sp, #8]
    38f4:	e28d1080 	add	r1, sp, #128	; 0x80
    38f8:	e28d008c 	add	r0, sp, #140	; 0x8c
    38fc:	e58d0010 	str	r0, [sp, #16]
    3900:	e59d2058 	ldr	r2, [sp, #88]	; 0x58
    3904:	e1a0300a 	mov	r3, r10
    3908:	e58dc004 	str	r12, [sp, #4]
    390c:	e58d100c 	str	r1, [sp, #12]
    3910:	e59d0034 	ldr	r0, [sp, #52]	; 0x34
    3914:	eb000811 	bl	5960 <_dtoa_r>
    3918:	e3550047 	cmp	r5, #71	; 0x47
    391c:	e1a06000 	mov	r6, r0
    3920:	1a000002 	bne	3930 <_vfprintf_r+0x1cd4>
    3924:	e59dc020 	ldr	r12, [sp, #32]
    3928:	e31c0001 	tst	r12, #1
    392c:	0affffe0 	beq	38b4 <_vfprintf_r+0x1c58>
    3930:	e59dc02c 	ldr	r12, [sp, #44]	; 0x2c
    3934:	e3540000 	cmp	r4, #0
    3938:	e086400c 	add	r4, r6, r12
    393c:	0afffeb6 	beq	341c <_vfprintf_r+0x17c0>
    3940:	e5d63000 	ldrb	r3, [r6]
    3944:	e3530030 	cmp	r3, #48	; 0x30
    3948:	0a00006e 	beq	3b08 <_vfprintf_r+0x1eac>
    394c:	e59d307c 	ldr	r3, [sp, #124]	; 0x7c
    3950:	e0844003 	add	r4, r4, r3
    3954:	eafffeb0 	b	341c <_vfprintf_r+0x17c0>
    3958:	e59d502c 	ldr	r5, [sp, #44]	; 0x2c
    395c:	e59dc02c 	ldr	r12, [sp, #44]	; 0x2c
    3960:	e1c55fc5 	bic	r5, r5, r5, asr #31
    3964:	e58d5030 	str	r5, [sp, #48]	; 0x30
    3968:	e58dc038 	str	r12, [sp, #56]	; 0x38
    396c:	e58d002c 	str	r0, [sp, #44]	; 0x2c
    3970:	e58d4044 	str	r4, [sp, #68]	; 0x44
    3974:	e58d0050 	str	r0, [sp, #80]	; 0x50
    3978:	e5dda077 	ldrb	r10, [sp, #119]	; 0x77
    397c:	eafff9e6 	b	211c <_vfprintf_r+0x4c0>
    3980:	e2488002 	sub	r8, r8, #2
    3984:	e2431001 	sub	r1, r3, #1
    3988:	e3510000 	cmp	r1, #0
    398c:	e58d107c 	str	r1, [sp, #124]	; 0x7c
    3990:	b2611000 	rsblt	r1, r1, #0
    3994:	b3a0302d 	movlt	r3, #45	; 0x2d
    3998:	a3a0302b 	movge	r3, #43	; 0x2b
    399c:	e3510009 	cmp	r1, #9
    39a0:	e5cd8084 	strb	r8, [sp, #132]	; 0x84
    39a4:	e5cd3085 	strb	r3, [sp, #133]	; 0x85
    39a8:	ca00002a 	bgt	3a58 <_vfprintf_r+0x1dfc>
    39ac:	e2811030 	add	r1, r1, #48	; 0x30
    39b0:	e3a03030 	mov	r3, #48	; 0x30
    39b4:	e5cd1087 	strb	r1, [sp, #135]	; 0x87
    39b8:	e5cd3086 	strb	r3, [sp, #134]	; 0x86
    39bc:	e28d3088 	add	r3, sp, #136	; 0x88
    39c0:	e59d403c 	ldr	r4, [sp, #60]	; 0x3c
    39c4:	e28d2084 	add	r2, sp, #132	; 0x84
    39c8:	e0622003 	rsb	r2, r2, r3
    39cc:	e0845002 	add	r5, r4, r2
    39d0:	e3540001 	cmp	r4, #1
    39d4:	e58d2064 	str	r2, [sp, #100]	; 0x64
    39d8:	e58d5038 	str	r5, [sp, #56]	; 0x38
    39dc:	da000074 	ble	3bb4 <_vfprintf_r+0x1f58>
    39e0:	e59d3038 	ldr	r3, [sp, #56]	; 0x38
    39e4:	e3a04000 	mov	r4, #0
    39e8:	e2833001 	add	r3, r3, #1
    39ec:	e58d3038 	str	r3, [sp, #56]	; 0x38
    39f0:	e58d4050 	str	r4, [sp, #80]	; 0x50
    39f4:	e1c33fc3 	bic	r3, r3, r3, asr #31
    39f8:	eafffeb0 	b	34c0 <_vfprintf_r+0x1864>
    39fc:	e59d0034 	ldr	r0, [sp, #52]	; 0x34
    3a00:	e59d1028 	ldr	r1, [sp, #40]	; 0x28
    3a04:	e28d2094 	add	r2, sp, #148	; 0x94
    3a08:	eb0028a7 	bl	dcac <__sprint_r>
    3a0c:	e3500000 	cmp	r0, #0
    3a10:	1afff97e 	bne	2010 <_vfprintf_r+0x3b4>
    3a14:	e28d3098 	add	r3, sp, #152	; 0x98
    3a18:	e59d807c 	ldr	r8, [sp, #124]	; 0x7c
    3a1c:	e8930018 	ldm	r3, {r3, r4}
    3a20:	e28d70c8 	add	r7, sp, #200	; 0xc8
    3a24:	eaffff04 	b	363c <_vfprintf_r+0x19e0>
    3a28:	e59d4050 	ldr	r4, [sp, #80]	; 0x50
    3a2c:	e59d503c 	ldr	r5, [sp, #60]	; 0x3c
    3a30:	e3540000 	cmp	r4, #0
    3a34:	d2643002 	rsble	r3, r4, #2
    3a38:	c3a03001 	movgt	r3, #1
    3a3c:	e0833005 	add	r3, r3, r5
    3a40:	e58d3038 	str	r3, [sp, #56]	; 0x38
    3a44:	e3a08067 	mov	r8, #103	; 0x67
    3a48:	e1c33fc3 	bic	r3, r3, r3, asr #31
    3a4c:	eafffe9b 	b	34c0 <_vfprintf_r+0x1864>
    3a50:	e3a01002 	mov	r1, #2
    3a54:	eaffffa2 	b	38e4 <_vfprintf_r+0x1c88>
    3a58:	e28d2092 	add	r2, sp, #146	; 0x92
    3a5c:	e51f0de4 	ldr	r0, [pc, #-3556]	; 2c80 <_vfprintf_r+0x1024>
    3a60:	e0c05091 	smull	r5, r0, r1, r0
    3a64:	e1a03fc1 	asr	r3, r1, #31
    3a68:	e0633140 	rsb	r3, r3, r0, asr #2
    3a6c:	e0830103 	add	r0, r3, r3, lsl #2
    3a70:	e0410080 	sub	r0, r1, r0, lsl #1
    3a74:	e1a01003 	mov	r1, r3
    3a78:	e3510009 	cmp	r1, #9
    3a7c:	e1a03002 	mov	r3, r2
    3a80:	e2802030 	add	r2, r0, #48	; 0x30
    3a84:	e5c32000 	strb	r2, [r3]
    3a88:	e2432001 	sub	r2, r3, #1
    3a8c:	cafffff2 	bgt	3a5c <_vfprintf_r+0x1e00>
    3a90:	e2811030 	add	r1, r1, #48	; 0x30
    3a94:	e28dc093 	add	r12, sp, #147	; 0x93
    3a98:	e20110ff 	and	r1, r1, #255	; 0xff
    3a9c:	e15c0002 	cmp	r12, r2
    3aa0:	e5431001 	strb	r1, [r3, #-1]
    3aa4:	9a00004a 	bls	3bd4 <_vfprintf_r+0x1f78>
    3aa8:	e28d0085 	add	r0, sp, #133	; 0x85
    3aac:	e1a02003 	mov	r2, r3
    3ab0:	ea000000 	b	3ab8 <_vfprintf_r+0x1e5c>
    3ab4:	e4d21001 	ldrb	r1, [r2], #1
    3ab8:	e152000c 	cmp	r2, r12
    3abc:	e5e01001 	strb	r1, [r0, #1]!
    3ac0:	1afffffb 	bne	3ab4 <_vfprintf_r+0x1e58>
    3ac4:	e28dcf42 	add	r12, sp, #264	; 0x108
    3ac8:	e063308c 	rsb	r3, r3, r12, lsl #1
    3acc:	e24330f6 	sub	r3, r3, #246	; 0xf6
    3ad0:	eaffffba 	b	39c0 <_vfprintf_r+0x1d64>
    3ad4:	e59dc07c 	ldr	r12, [sp, #124]	; 0x7c
    3ad8:	e35c0000 	cmp	r12, #0
    3adc:	e58dc050 	str	r12, [sp, #80]	; 0x50
    3ae0:	da00001a 	ble	3b50 <_vfprintf_r+0x1ef4>
    3ae4:	e59d402c 	ldr	r4, [sp, #44]	; 0x2c
    3ae8:	e3540000 	cmp	r4, #0
    3aec:	1a000010 	bne	3b34 <_vfprintf_r+0x1ed8>
    3af0:	e59d5020 	ldr	r5, [sp, #32]
    3af4:	e3150001 	tst	r5, #1
    3af8:	1a00000d 	bne	3b34 <_vfprintf_r+0x1ed8>
    3afc:	e1cc3fcc 	bic	r3, r12, r12, asr #31
    3b00:	e58dc038 	str	r12, [sp, #56]	; 0x38
    3b04:	eafffe6d 	b	34c0 <_vfprintf_r+0x1864>
    3b08:	e59d0058 	ldr	r0, [sp, #88]	; 0x58
    3b0c:	e1a0100a 	mov	r1, r10
    3b10:	e3a02000 	mov	r2, #0
    3b14:	e3a03000 	mov	r3, #0
    3b18:	eb003921 	bl	11fa4 <__aeabi_dcmpeq>
    3b1c:	e3500000 	cmp	r0, #0
    3b20:	1affff89 	bne	394c <_vfprintf_r+0x1cf0>
    3b24:	e59dc02c 	ldr	r12, [sp, #44]	; 0x2c
    3b28:	e26c3001 	rsb	r3, r12, #1
    3b2c:	e58d307c 	str	r3, [sp, #124]	; 0x7c
    3b30:	eaffff86 	b	3950 <_vfprintf_r+0x1cf4>
    3b34:	e59dc02c 	ldr	r12, [sp, #44]	; 0x2c
    3b38:	e59d4050 	ldr	r4, [sp, #80]	; 0x50
    3b3c:	e28c3001 	add	r3, r12, #1
    3b40:	e0843003 	add	r3, r4, r3
    3b44:	e58d3038 	str	r3, [sp, #56]	; 0x38
    3b48:	e1c33fc3 	bic	r3, r3, r3, asr #31
    3b4c:	eafffe5b 	b	34c0 <_vfprintf_r+0x1864>
    3b50:	e59d502c 	ldr	r5, [sp, #44]	; 0x2c
    3b54:	e3550000 	cmp	r5, #0
    3b58:	1a000004 	bne	3b70 <_vfprintf_r+0x1f14>
    3b5c:	e59dc020 	ldr	r12, [sp, #32]
    3b60:	e31c0001 	tst	r12, #1
    3b64:	03a03001 	moveq	r3, #1
    3b68:	058d3038 	streq	r3, [sp, #56]	; 0x38
    3b6c:	0afffe53 	beq	34c0 <_vfprintf_r+0x1864>
    3b70:	e59d302c 	ldr	r3, [sp, #44]	; 0x2c
    3b74:	e2833002 	add	r3, r3, #2
    3b78:	e58d3038 	str	r3, [sp, #56]	; 0x38
    3b7c:	e1c33fc3 	bic	r3, r3, r3, asr #31
    3b80:	eafffe4e 	b	34c0 <_vfprintf_r+0x1864>
    3b84:	e59d5044 	ldr	r5, [sp, #68]	; 0x44
    3b88:	e5955000 	ldr	r5, [r5]
    3b8c:	e59dc044 	ldr	r12, [sp, #68]	; 0x44
    3b90:	e3550000 	cmp	r5, #0
    3b94:	e28c1004 	add	r1, r12, #4
    3b98:	b3e04000 	mvnlt	r4, #0
    3b9c:	e58d502c 	str	r5, [sp, #44]	; 0x2c
    3ba0:	e5d38001 	ldrb	r8, [r3, #1]
    3ba4:	e58d1044 	str	r1, [sp, #68]	; 0x44
    3ba8:	e1a03000 	mov	r3, r0
    3bac:	b58d402c 	strlt	r4, [sp, #44]	; 0x2c
    3bb0:	eafff887 	b	1dd4 <_vfprintf_r+0x178>
    3bb4:	e59dc020 	ldr	r12, [sp, #32]
    3bb8:	e21c3001 	ands	r3, r12, #1
    3bbc:	1affff87 	bne	39e0 <_vfprintf_r+0x1d84>
    3bc0:	e58d3050 	str	r3, [sp, #80]	; 0x50
    3bc4:	e1c53fc5 	bic	r3, r5, r5, asr #31
    3bc8:	eafffe3c 	b	34c0 <_vfprintf_r+0x1864>
    3bcc:	e59d307c 	ldr	r3, [sp, #124]	; 0x7c
    3bd0:	eaffff6b 	b	3984 <_vfprintf_r+0x1d28>
    3bd4:	e28d3086 	add	r3, sp, #134	; 0x86
    3bd8:	eaffff78 	b	39c0 <_vfprintf_r+0x1d64>

00003bdc <vfprintf>:
    3bdc:	e59fc01c 	ldr	r12, [pc, #28]	; 3c00 <vfprintf+0x24>
    3be0:	e52d4004 	push	{r4}		; (str r4, [sp, #-4]!)
    3be4:	e1a04001 	mov	r4, r1
    3be8:	e1a03002 	mov	r3, r2
    3bec:	e1a01000 	mov	r1, r0
    3bf0:	e1a02004 	mov	r2, r4
    3bf4:	e59c0000 	ldr	r0, [r12]
    3bf8:	e49d4004 	pop	{r4}		; (ldr r4, [sp], #4)
    3bfc:	eafff816 	b	1c5c <_vfprintf_r>
    3c00:	00013aa8 	.word	0x00013aa8

00003c04 <__sbprintf>:
    3c04:	e92d4ff0 	push	{r4, r5, r6, r7, r8, r9, r10, r11, lr}
    3c08:	e24dde46 	sub	sp, sp, #1120	; 0x460
    3c0c:	e24dd00c 	sub	sp, sp, #12
    3c10:	e1d150bc 	ldrh	r5, [r1, #12]
    3c14:	e59fc0b0 	ldr	r12, [pc, #176]	; 3ccc <__sbprintf+0xc8>
    3c18:	e28dbe46 	add	r11, sp, #1120	; 0x460
    3c1c:	e5916024 	ldr	r6, [r1, #36]	; 0x24
    3c20:	e591a064 	ldr	r10, [r1, #100]	; 0x64
    3c24:	e1d190be 	ldrh	r9, [r1, #14]
    3c28:	e591701c 	ldr	r7, [r1, #28]
    3c2c:	e3c55002 	bic	r5, r5, #2
    3c30:	e28bb008 	add	r11, r11, #8
    3c34:	e59f8094 	ldr	r8, [pc, #148]	; 3cd0 <__sbprintf+0xcc>
    3c38:	e28de068 	add	lr, sp, #104	; 0x68
    3c3c:	e18b50bc 	strh	r5, [r11, r12]
    3c40:	e1a04001 	mov	r4, r1
    3c44:	e3a0cb01 	mov	r12, #1024	; 0x400
    3c48:	e3a05000 	mov	r5, #0
    3c4c:	e1a0100d 	mov	r1, sp
    3c50:	e58d6024 	str	r6, [sp, #36]	; 0x24
    3c54:	e58d5018 	str	r5, [sp, #24]
    3c58:	e58da064 	str	r10, [sp, #100]	; 0x64
    3c5c:	e18b90b8 	strh	r9, [r11, r8]
    3c60:	e58d701c 	str	r7, [sp, #28]
    3c64:	e58de000 	str	lr, [sp]
    3c68:	e58de010 	str	lr, [sp, #16]
    3c6c:	e58dc008 	str	r12, [sp, #8]
    3c70:	e58dc014 	str	r12, [sp, #20]
    3c74:	e1a06000 	mov	r6, r0
    3c78:	ebfff7f7 	bl	1c5c <_vfprintf_r>
    3c7c:	e2505000 	subs	r5, r0, #0
    3c80:	ba000004 	blt	3c98 <__sbprintf+0x94>
    3c84:	e1a00006 	mov	r0, r6
    3c88:	e1a0100d 	mov	r1, sp
    3c8c:	ebfff2d1 	bl	7d8 <_fflush_r>
    3c90:	e3500000 	cmp	r0, #0
    3c94:	13e05000 	mvnne	r5, #0
    3c98:	e28d2e46 	add	r2, sp, #1120	; 0x460
    3c9c:	e59f3028 	ldr	r3, [pc, #40]	; 3ccc <__sbprintf+0xc8>
    3ca0:	e2822008 	add	r2, r2, #8
    3ca4:	e19230b3 	ldrh	r3, [r2, r3]
    3ca8:	e3130040 	tst	r3, #64	; 0x40
    3cac:	11d430bc 	ldrhne	r3, [r4, #12]
    3cb0:	e1a00005 	mov	r0, r5
    3cb4:	13833040 	orrne	r3, r3, #64	; 0x40
    3cb8:	11c430bc 	strhne	r3, [r4, #12]
    3cbc:	e28dde46 	add	sp, sp, #1120	; 0x460
    3cc0:	e28dd00c 	add	sp, sp, #12
    3cc4:	e8bd4ff0 	pop	{r4, r5, r6, r7, r8, r9, r10, r11, lr}
    3cc8:	e12fff1e 	bx	lr
    3ccc:	fffffba4 	.word	0xfffffba4
    3cd0:	fffffba6 	.word	0xfffffba6

00003cd4 <__svfscanf_r>:
    3cd4:	e92d4ff0 	push	{r4, r5, r6, r7, r8, r9, r10, r11, lr}
    3cd8:	e1a05001 	mov	r5, r1
    3cdc:	e1d110bc 	ldrh	r1, [r1, #12]
    3ce0:	e24ddfad 	sub	sp, sp, #692	; 0x2b4
    3ce4:	e3110a02 	tst	r1, #8192	; 0x2000
    3ce8:	e58d3014 	str	r3, [sp, #20]
    3cec:	05953064 	ldreq	r3, [r5, #100]	; 0x64
    3cf0:	e3a0c000 	mov	r12, #0
    3cf4:	03811a02 	orreq	r1, r1, #8192	; 0x2000
    3cf8:	03c33a02 	biceq	r3, r3, #8192	; 0x2000
    3cfc:	01c510bc 	strheq	r1, [r5, #12]
    3d00:	05853064 	streq	r3, [r5, #100]	; 0x64
    3d04:	e58dc020 	str	r12, [sp, #32]
    3d08:	e58dc028 	str	r12, [sp, #40]	; 0x28
    3d0c:	e58dc024 	str	r12, [sp, #36]	; 0x24
    3d10:	e59f8f8c 	ldr	r8, [pc, #3980]	; 4ca4 <__svfscanf_r+0xfd0>
    3d14:	e1a0b000 	mov	r11, r0
    3d18:	e1a0a00c 	mov	r10, r12
    3d1c:	e1a07002 	mov	r7, r2
    3d20:	e4d70001 	ldrb	r0, [r7], #1
    3d24:	e3500000 	cmp	r0, #0
    3d28:	e58d0044 	str	r0, [sp, #68]	; 0x44
    3d2c:	0a0001f1 	beq	44f8 <__svfscanf_r+0x824>
    3d30:	e5981000 	ldr	r1, [r8]
    3d34:	e0813000 	add	r3, r1, r0
    3d38:	e5d33001 	ldrb	r3, [r3, #1]
    3d3c:	e2133008 	ands	r3, r3, #8
    3d40:	0a000017 	beq	3da4 <__svfscanf_r+0xd0>
    3d44:	e5953004 	ldr	r3, [r5, #4]
    3d48:	ea00000c 	b	3d80 <__svfscanf_r+0xac>
    3d4c:	e5952000 	ldr	r2, [r5]
    3d50:	e5981000 	ldr	r1, [r8]
    3d54:	e5d23000 	ldrb	r3, [r2]
    3d58:	e0813003 	add	r3, r1, r3
    3d5c:	e5d33001 	ldrb	r3, [r3, #1]
    3d60:	e3130008 	tst	r3, #8
    3d64:	0a00000c 	beq	3d9c <__svfscanf_r+0xc8>
    3d68:	e5953004 	ldr	r3, [r5, #4]
    3d6c:	e2822001 	add	r2, r2, #1
    3d70:	e2433001 	sub	r3, r3, #1
    3d74:	e5852000 	str	r2, [r5]
    3d78:	e5853004 	str	r3, [r5, #4]
    3d7c:	e28aa001 	add	r10, r10, #1
    3d80:	e3530000 	cmp	r3, #0
    3d84:	cafffff0 	bgt	3d4c <__svfscanf_r+0x78>
    3d88:	e1a0000b 	mov	r0, r11
    3d8c:	e1a01005 	mov	r1, r5
    3d90:	eb00158c 	bl	93c8 <__srefill_r>
    3d94:	e3500000 	cmp	r0, #0
    3d98:	0affffeb 	beq	3d4c <__svfscanf_r+0x78>
    3d9c:	e1a02007 	mov	r2, r7
    3da0:	eaffffdd 	b	3d1c <__svfscanf_r+0x48>
    3da4:	e3500025 	cmp	r0, #37	; 0x25
    3da8:	1a0001db 	bne	451c <__svfscanf_r+0x848>
    3dac:	e5d22001 	ldrb	r2, [r2, #1]
    3db0:	e1a09003 	mov	r9, r3
    3db4:	e1a04003 	mov	r4, r3
    3db8:	e2876001 	add	r6, r7, #1
    3dbc:	e3520078 	cmp	r2, #120	; 0x78
    3dc0:	979ff102 	ldrls	pc, [pc, r2, lsl #2]
    3dc4:	ea000078 	b	3fac <__svfscanf_r+0x2d8>
    3dc8:	00004508 	.word	0x00004508
    3dcc:	00003fac 	.word	0x00003fac
    3dd0:	00003fac 	.word	0x00003fac
    3dd4:	00003fac 	.word	0x00003fac
    3dd8:	00003fac 	.word	0x00003fac
    3ddc:	00003fac 	.word	0x00003fac
    3de0:	00003fac 	.word	0x00003fac
    3de4:	00003fac 	.word	0x00003fac
    3de8:	00003fac 	.word	0x00003fac
    3dec:	00003fac 	.word	0x00003fac
    3df0:	00003fac 	.word	0x00003fac
    3df4:	00003fac 	.word	0x00003fac
    3df8:	00003fac 	.word	0x00003fac
    3dfc:	00003fac 	.word	0x00003fac
    3e00:	00003fac 	.word	0x00003fac
    3e04:	00003fac 	.word	0x00003fac
    3e08:	00003fac 	.word	0x00003fac
    3e0c:	00003fac 	.word	0x00003fac
    3e10:	00003fac 	.word	0x00003fac
    3e14:	00003fac 	.word	0x00003fac
    3e18:	00003fac 	.word	0x00003fac
    3e1c:	00003fac 	.word	0x00003fac
    3e20:	00003fac 	.word	0x00003fac
    3e24:	00003fac 	.word	0x00003fac
    3e28:	00003fac 	.word	0x00003fac
    3e2c:	00003fac 	.word	0x00003fac
    3e30:	00003fac 	.word	0x00003fac
    3e34:	00003fac 	.word	0x00003fac
    3e38:	00003fac 	.word	0x00003fac
    3e3c:	00003fac 	.word	0x00003fac
    3e40:	00003fac 	.word	0x00003fac
    3e44:	00003fac 	.word	0x00003fac
    3e48:	00003fac 	.word	0x00003fac
    3e4c:	00003fac 	.word	0x00003fac
    3e50:	00003fac 	.word	0x00003fac
    3e54:	00003fac 	.word	0x00003fac
    3e58:	00003fac 	.word	0x00003fac
    3e5c:	00004518 	.word	0x00004518
    3e60:	00003fac 	.word	0x00003fac
    3e64:	00003fac 	.word	0x00003fac
    3e68:	00003fac 	.word	0x00003fac
    3e6c:	00003fac 	.word	0x00003fac
    3e70:	00004b90 	.word	0x00004b90
    3e74:	00003fac 	.word	0x00003fac
    3e78:	00003fac 	.word	0x00003fac
    3e7c:	00003fac 	.word	0x00003fac
    3e80:	00003fac 	.word	0x00003fac
    3e84:	00003fac 	.word	0x00003fac
    3e88:	00004bf8 	.word	0x00004bf8
    3e8c:	00004bf8 	.word	0x00004bf8
    3e90:	00004bf8 	.word	0x00004bf8
    3e94:	00004bf8 	.word	0x00004bf8
    3e98:	00004bf8 	.word	0x00004bf8
    3e9c:	00004bf8 	.word	0x00004bf8
    3ea0:	00004bf8 	.word	0x00004bf8
    3ea4:	00004bf8 	.word	0x00004bf8
    3ea8:	00004bf8 	.word	0x00004bf8
    3eac:	00004bf8 	.word	0x00004bf8
    3eb0:	00003fac 	.word	0x00003fac
    3eb4:	00003fac 	.word	0x00003fac
    3eb8:	00003fac 	.word	0x00003fac
    3ebc:	00003fac 	.word	0x00003fac
    3ec0:	00003fac 	.word	0x00003fac
    3ec4:	00003fac 	.word	0x00003fac
    3ec8:	00003fac 	.word	0x00003fac
    3ecc:	00003fac 	.word	0x00003fac
    3ed0:	00003fac 	.word	0x00003fac
    3ed4:	00003fac 	.word	0x00003fac
    3ed8:	00003fc0 	.word	0x00003fc0
    3edc:	00004bf0 	.word	0x00004bf0
    3ee0:	00003fac 	.word	0x00003fac
    3ee4:	00004bf0 	.word	0x00004bf0
    3ee8:	00003fac 	.word	0x00003fac
    3eec:	00003fac 	.word	0x00003fac
    3ef0:	00003fac 	.word	0x00003fac
    3ef4:	00003fac 	.word	0x00003fac
    3ef8:	00004be0 	.word	0x00004be0
    3efc:	00003fac 	.word	0x00003fac
    3f00:	00003fac 	.word	0x00003fac
    3f04:	000044a8 	.word	0x000044a8
    3f08:	00003fac 	.word	0x00003fac
    3f0c:	00003fac 	.word	0x00003fac
    3f10:	00003fac 	.word	0x00003fac
    3f14:	00003fac 	.word	0x00003fac
    3f18:	00003fac 	.word	0x00003fac
    3f1c:	00003fac 	.word	0x00003fac
    3f20:	00003fac 	.word	0x00003fac
    3f24:	00003fac 	.word	0x00003fac
    3f28:	00004bd8 	.word	0x00004bd8
    3f2c:	00003fac 	.word	0x00003fac
    3f30:	00003fac 	.word	0x00003fac
    3f34:	00004bbc 	.word	0x00004bbc
    3f38:	00003fac 	.word	0x00003fac
    3f3c:	00003fac 	.word	0x00003fac
    3f40:	00003fac 	.word	0x00003fac
    3f44:	00003fac 	.word	0x00003fac
    3f48:	00003fac 	.word	0x00003fac
    3f4c:	00003fac 	.word	0x00003fac
    3f50:	00003fac 	.word	0x00003fac
    3f54:	00004bb0 	.word	0x00004bb0
    3f58:	00003fc4 	.word	0x00003fc4
    3f5c:	00004bf0 	.word	0x00004bf0
    3f60:	00004bf0 	.word	0x00004bf0
    3f64:	00004bf0 	.word	0x00004bf0
    3f68:	00004ba0 	.word	0x00004ba0
    3f6c:	00004a50 	.word	0x00004a50
    3f70:	00003fac 	.word	0x00003fac
    3f74:	00003fac 	.word	0x00003fac
    3f78:	00004b70 	.word	0x00004b70
    3f7c:	00003fac 	.word	0x00003fac
    3f80:	00004b44 	.word	0x00004b44
    3f84:	000044ac 	.word	0x000044ac
    3f88:	00004b28 	.word	0x00004b28
    3f8c:	00003fac 	.word	0x00003fac
    3f90:	00003fac 	.word	0x00003fac
    3f94:	00004b20 	.word	0x00004b20
    3f98:	00003fac 	.word	0x00003fac
    3f9c:	00004b08 	.word	0x00004b08
    3fa0:	00003fac 	.word	0x00003fac
    3fa4:	00003fac 	.word	0x00003fac
    3fa8:	00004bd8 	.word	0x00004bd8
    3fac:	e0812002 	add	r2, r1, r2
    3fb0:	e5d22001 	ldrb	r2, [r2, #1]
    3fb4:	e2022003 	and	r2, r2, #3
    3fb8:	e3520001 	cmp	r2, #1
    3fbc:	1a000000 	bne	3fc4 <__svfscanf_r+0x2f0>
    3fc0:	e3899001 	orr	r9, r9, #1
    3fc4:	e59fccdc 	ldr	r12, [pc, #3292]	; 4ca8 <__svfscanf_r+0xfd4>
    3fc8:	e58dc020 	str	r12, [sp, #32]
    3fcc:	e3a0c00a 	mov	r12, #10
    3fd0:	e58dc028 	str	r12, [sp, #40]	; 0x28
    3fd4:	e3a07003 	mov	r7, #3
    3fd8:	e5952004 	ldr	r2, [r5, #4]
    3fdc:	e3520000 	cmp	r2, #0
    3fe0:	da000139 	ble	44cc <__svfscanf_r+0x7f8>
    3fe4:	e3190040 	tst	r9, #64	; 0x40
    3fe8:	0a00000c 	beq	4020 <__svfscanf_r+0x34c>
    3fec:	e2477001 	sub	r7, r7, #1
    3ff0:	e3570003 	cmp	r7, #3
    3ff4:	979ff107 	ldrls	pc, [pc, r7, lsl #2]
    3ff8:	ea0000a9 	b	42a4 <__svfscanf_r+0x5d0>
    3ffc:	00004310 	.word	0x00004310
    4000:	000041f4 	.word	0x000041f4
    4004:	00004064 	.word	0x00004064
    4008:	0000455c 	.word	0x0000455c
    400c:	e1a0000b 	mov	r0, r11
    4010:	e1a01005 	mov	r1, r5
    4014:	eb0014eb 	bl	93c8 <__srefill_r>
    4018:	e3500000 	cmp	r0, #0
    401c:	1a00012f 	bne	44e0 <__svfscanf_r+0x80c>
    4020:	e5980000 	ldr	r0, [r8]
    4024:	e5952000 	ldr	r2, [r5]
    4028:	ea000001 	b	4034 <__svfscanf_r+0x360>
    402c:	e2822001 	add	r2, r2, #1
    4030:	e5852000 	str	r2, [r5]
    4034:	e5d23000 	ldrb	r3, [r2]
    4038:	e0803003 	add	r3, r0, r3
    403c:	e5d33001 	ldrb	r3, [r3, #1]
    4040:	e3130008 	tst	r3, #8
    4044:	0affffe8 	beq	3fec <__svfscanf_r+0x318>
    4048:	e5953004 	ldr	r3, [r5, #4]
    404c:	e2433001 	sub	r3, r3, #1
    4050:	e3530000 	cmp	r3, #0
    4054:	e28aa001 	add	r10, r10, #1
    4058:	e5853004 	str	r3, [r5, #4]
    405c:	cafffff2 	bgt	402c <__svfscanf_r+0x358>
    4060:	eaffffe9 	b	400c <__svfscanf_r+0x338>
    4064:	e2442001 	sub	r2, r4, #1
    4068:	e3520f57 	cmp	r2, #348	; 0x15c
    406c:	82442f57 	subhi	r2, r4, #348	; 0x15c
    4070:	e28dce15 	add	r12, sp, #336	; 0x150
    4074:	82422001 	subhi	r2, r2, #1
    4078:	93a02000 	movls	r2, #0
    407c:	e58dc018 	str	r12, [sp, #24]
    4080:	e1a0700c 	mov	r7, r12
    4084:	e3a0c000 	mov	r12, #0
    4088:	e58dc01c 	str	r12, [sp, #28]
    408c:	859f4c18 	ldrhi	r4, [pc, #3096]	; 4cac <__svfscanf_r+0xfd8>
    4090:	e1a0c00a 	mov	r12, r10
    4094:	e1a0a002 	mov	r10, r2
    4098:	e1a02006 	mov	r2, r6
    409c:	e59d6028 	ldr	r6, [sp, #40]	; 0x28
    40a0:	e3899d36 	orr	r9, r9, #3456	; 0xd80
    40a4:	e5950000 	ldr	r0, [r5]
    40a8:	e5d01000 	ldrb	r1, [r0]
    40ac:	e241302b 	sub	r3, r1, #43	; 0x2b
    40b0:	e353004d 	cmp	r3, #77	; 0x4d
    40b4:	979ff103 	ldrls	pc, [pc, r3, lsl #2]
    40b8:	ea0000c2 	b	43c8 <__svfscanf_r+0x6f4>
    40bc:	00004498 	.word	0x00004498
    40c0:	000043c8 	.word	0x000043c8
    40c4:	00004498 	.word	0x00004498
    40c8:	000043c8 	.word	0x000043c8
    40cc:	000043c8 	.word	0x000043c8
    40d0:	00004458 	.word	0x00004458
    40d4:	00004444 	.word	0x00004444
    40d8:	00004444 	.word	0x00004444
    40dc:	00004444 	.word	0x00004444
    40e0:	00004444 	.word	0x00004444
    40e4:	00004444 	.word	0x00004444
    40e8:	00004444 	.word	0x00004444
    40ec:	00004444 	.word	0x00004444
    40f0:	0000442c 	.word	0x0000442c
    40f4:	0000442c 	.word	0x0000442c
    40f8:	000043c8 	.word	0x000043c8
    40fc:	000043c8 	.word	0x000043c8
    4100:	000043c8 	.word	0x000043c8
    4104:	000043c8 	.word	0x000043c8
    4108:	000043c8 	.word	0x000043c8
    410c:	000043c8 	.word	0x000043c8
    4110:	000043c8 	.word	0x000043c8
    4114:	0000441c 	.word	0x0000441c
    4118:	0000441c 	.word	0x0000441c
    411c:	0000441c 	.word	0x0000441c
    4120:	0000441c 	.word	0x0000441c
    4124:	0000441c 	.word	0x0000441c
    4128:	0000441c 	.word	0x0000441c
    412c:	000043c8 	.word	0x000043c8
    4130:	000043c8 	.word	0x000043c8
    4134:	000043c8 	.word	0x000043c8
    4138:	000043c8 	.word	0x000043c8
    413c:	000043c8 	.word	0x000043c8
    4140:	000043c8 	.word	0x000043c8
    4144:	000043c8 	.word	0x000043c8
    4148:	000043c8 	.word	0x000043c8
    414c:	000043c8 	.word	0x000043c8
    4150:	000043c8 	.word	0x000043c8
    4154:	000043c8 	.word	0x000043c8
    4158:	000043c8 	.word	0x000043c8
    415c:	000043c8 	.word	0x000043c8
    4160:	000043c8 	.word	0x000043c8
    4164:	000043c8 	.word	0x000043c8
    4168:	000043c8 	.word	0x000043c8
    416c:	000043c8 	.word	0x000043c8
    4170:	00004384 	.word	0x00004384
    4174:	000043c8 	.word	0x000043c8
    4178:	000043c8 	.word	0x000043c8
    417c:	000043c8 	.word	0x000043c8
    4180:	000043c8 	.word	0x000043c8
    4184:	000043c8 	.word	0x000043c8
    4188:	000043c8 	.word	0x000043c8
    418c:	000043c8 	.word	0x000043c8
    4190:	000043c8 	.word	0x000043c8
    4194:	0000441c 	.word	0x0000441c
    4198:	0000441c 	.word	0x0000441c
    419c:	0000441c 	.word	0x0000441c
    41a0:	0000441c 	.word	0x0000441c
    41a4:	0000441c 	.word	0x0000441c
    41a8:	0000441c 	.word	0x0000441c
    41ac:	000043c8 	.word	0x000043c8
    41b0:	000043c8 	.word	0x000043c8
    41b4:	000043c8 	.word	0x000043c8
    41b8:	000043c8 	.word	0x000043c8
    41bc:	000043c8 	.word	0x000043c8
    41c0:	000043c8 	.word	0x000043c8
    41c4:	000043c8 	.word	0x000043c8
    41c8:	000043c8 	.word	0x000043c8
    41cc:	000043c8 	.word	0x000043c8
    41d0:	000043c8 	.word	0x000043c8
    41d4:	000043c8 	.word	0x000043c8
    41d8:	000043c8 	.word	0x000043c8
    41dc:	000043c8 	.word	0x000043c8
    41e0:	000043c8 	.word	0x000043c8
    41e4:	000043c8 	.word	0x000043c8
    41e8:	000043c8 	.word	0x000043c8
    41ec:	000043c8 	.word	0x000043c8
    41f0:	00004384 	.word	0x00004384
    41f4:	e3540000 	cmp	r4, #0
    41f8:	03e04000 	mvneq	r4, #0
    41fc:	e2197001 	ands	r7, r9, #1
    4200:	1a0002e2 	bne	4d90 <__svfscanf_r+0x10bc>
    4204:	e3190010 	tst	r9, #16
    4208:	1a0001fe 	bne	4a08 <__svfscanf_r+0xd34>
    420c:	e59dc014 	ldr	r12, [sp, #20]
    4210:	e59c7000 	ldr	r7, [r12]
    4214:	e28c2004 	add	r2, r12, #4
    4218:	e58d2014 	str	r2, [sp, #20]
    421c:	e1a09007 	mov	r9, r7
    4220:	e5953000 	ldr	r3, [r5]
    4224:	e5980000 	ldr	r0, [r8]
    4228:	e5d32000 	ldrb	r2, [r3]
    422c:	e0802002 	add	r2, r0, r2
    4230:	e5d22001 	ldrb	r2, [r2, #1]
    4234:	e3120008 	tst	r2, #8
    4238:	e2831001 	add	r1, r3, #1
    423c:	1a00000e 	bne	427c <__svfscanf_r+0x5a8>
    4240:	e5952004 	ldr	r2, [r5, #4]
    4244:	e2422001 	sub	r2, r2, #1
    4248:	e8850006 	stm	r5, {r1, r2}
    424c:	e5d33000 	ldrb	r3, [r3]
    4250:	e2544001 	subs	r4, r4, #1
    4254:	e4c93001 	strb	r3, [r9], #1
    4258:	0a000007 	beq	427c <__svfscanf_r+0x5a8>
    425c:	e5953004 	ldr	r3, [r5, #4]
    4260:	e3530000 	cmp	r3, #0
    4264:	caffffed 	bgt	4220 <__svfscanf_r+0x54c>
    4268:	e1a0000b 	mov	r0, r11
    426c:	e1a01005 	mov	r1, r5
    4270:	eb001454 	bl	93c8 <__srefill_r>
    4274:	e3500000 	cmp	r0, #0
    4278:	0affffe8 	beq	4220 <__svfscanf_r+0x54c>
    427c:	e59dc024 	ldr	r12, [sp, #36]	; 0x24
    4280:	e0677009 	rsb	r7, r7, r9
    4284:	e3a03000 	mov	r3, #0
    4288:	e08aa007 	add	r10, r10, r7
    428c:	e28cc001 	add	r12, r12, #1
    4290:	e1a07006 	mov	r7, r6
    4294:	e58dc024 	str	r12, [sp, #36]	; 0x24
    4298:	e5c93000 	strb	r3, [r9]
    429c:	e1a02007 	mov	r2, r7
    42a0:	eafffe9d 	b	3d1c <__svfscanf_r+0x48>
    42a4:	e3540000 	cmp	r4, #0
    42a8:	03a04001 	moveq	r4, #1
    42ac:	e2197001 	ands	r7, r9, #1
    42b0:	1a000269 	bne	4c5c <__svfscanf_r+0xf88>
    42b4:	e3190010 	tst	r9, #16
    42b8:	1a000007 	bne	42dc <__svfscanf_r+0x608>
    42bc:	ea000317 	b	4f20 <__svfscanf_r+0x124c>
    42c0:	e0822003 	add	r2, r2, r3
    42c4:	e5852000 	str	r2, [r5]
    42c8:	e0877003 	add	r7, r7, r3
    42cc:	e0634004 	rsb	r4, r3, r4
    42d0:	eb00143c 	bl	93c8 <__srefill_r>
    42d4:	e3500000 	cmp	r0, #0
    42d8:	1a000306 	bne	4ef8 <__svfscanf_r+0x1224>
    42dc:	e895000c 	ldm	r5, {r2, r3}
    42e0:	e1530004 	cmp	r3, r4
    42e4:	e1a0000b 	mov	r0, r11
    42e8:	e1a01005 	mov	r1, r5
    42ec:	bafffff3 	blt	42c0 <__svfscanf_r+0x5ec>
    42f0:	e0643003 	rsb	r3, r4, r3
    42f4:	e0822004 	add	r2, r2, r4
    42f8:	e885000c 	stm	r5, {r2, r3}
    42fc:	e0877004 	add	r7, r7, r4
    4300:	e08aa007 	add	r10, r10, r7
    4304:	e1a07006 	mov	r7, r6
    4308:	e1a02007 	mov	r2, r7
    430c:	eafffe82 	b	3d1c <__svfscanf_r+0x48>
    4310:	e3540000 	cmp	r4, #0
    4314:	03e04000 	mvneq	r4, #0
    4318:	e3190010 	tst	r9, #16
    431c:	0a0001d1 	beq	4a68 <__svfscanf_r+0xd94>
    4320:	e5953000 	ldr	r3, [r5]
    4324:	e3a07000 	mov	r7, #0
    4328:	e5d32000 	ldrb	r2, [r3]
    432c:	e28d0e2b 	add	r0, sp, #688	; 0x2b0
    4330:	e0802002 	add	r2, r0, r2
    4334:	e5522260 	ldrb	r2, [r2, #-608]	; 0xfffffda0
    4338:	e3520000 	cmp	r2, #0
    433c:	e2833001 	add	r3, r3, #1
    4340:	0a0002f1 	beq	4f0c <__svfscanf_r+0x1238>
    4344:	e5952004 	ldr	r2, [r5, #4]
    4348:	e2877001 	add	r7, r7, #1
    434c:	e2422001 	sub	r2, r2, #1
    4350:	e1540007 	cmp	r4, r7
    4354:	e5853000 	str	r3, [r5]
    4358:	e5852004 	str	r2, [r5, #4]
    435c:	0affffe7 	beq	4300 <__svfscanf_r+0x62c>
    4360:	e3520000 	cmp	r2, #0
    4364:	caffffef 	bgt	4328 <__svfscanf_r+0x654>
    4368:	e1a0000b 	mov	r0, r11
    436c:	e1a01005 	mov	r1, r5
    4370:	eb001414 	bl	93c8 <__srefill_r>
    4374:	e3500000 	cmp	r0, #0
    4378:	1affffe0 	bne	4300 <__svfscanf_r+0x62c>
    437c:	e5953000 	ldr	r3, [r5]
    4380:	eaffffe8 	b	4328 <__svfscanf_r+0x654>
    4384:	e2093c06 	and	r3, r9, #1536	; 0x600
    4388:	e3530c02 	cmp	r3, #512	; 0x200
    438c:	1a00000d 	bne	43c8 <__svfscanf_r+0x6f4>
    4390:	e3c99c02 	bic	r9, r9, #512	; 0x200
    4394:	e3899c05 	orr	r9, r9, #1280	; 0x500
    4398:	e3a06010 	mov	r6, #16
    439c:	e5c71000 	strb	r1, [r7]
    43a0:	e2877001 	add	r7, r7, #1
    43a4:	e5953004 	ldr	r3, [r5, #4]
    43a8:	e2433001 	sub	r3, r3, #1
    43ac:	e3530000 	cmp	r3, #0
    43b0:	e5853004 	str	r3, [r5, #4]
    43b4:	da000296 	ble	4e14 <__svfscanf_r+0x1140>
    43b8:	e2800001 	add	r0, r0, #1
    43bc:	e5850000 	str	r0, [r5]
    43c0:	e2544001 	subs	r4, r4, #1
    43c4:	1affff36 	bne	40a4 <__svfscanf_r+0x3d0>
    43c8:	e3190c01 	tst	r9, #256	; 0x100
    43cc:	e58d6028 	str	r6, [sp, #40]	; 0x28
    43d0:	e1a0a00c 	mov	r10, r12
    43d4:	e1a06002 	mov	r6, r2
    43d8:	0a000005 	beq	43f4 <__svfscanf_r+0x720>
    43dc:	e59dc018 	ldr	r12, [sp, #24]
    43e0:	e157000c 	cmp	r7, r12
    43e4:	8a0002e6 	bhi	4f84 <__svfscanf_r+0x12b0>
    43e8:	e59dc018 	ldr	r12, [sp, #24]
    43ec:	e157000c 	cmp	r7, r12
    43f0:	0a000040 	beq	44f8 <__svfscanf_r+0x824>
    43f4:	e219c010 	ands	r12, r9, #16
    43f8:	0a000204 	beq	4c10 <__svfscanf_r+0xf3c>
    43fc:	e59dc018 	ldr	r12, [sp, #24]
    4400:	e06c3007 	rsb	r3, r12, r7
    4404:	e59dc01c 	ldr	r12, [sp, #28]
    4408:	e1a07006 	mov	r7, r6
    440c:	e083300c 	add	r3, r3, r12
    4410:	e08aa003 	add	r10, r10, r3
    4414:	e1a02007 	mov	r2, r7
    4418:	eafffe3f 	b	3d1c <__svfscanf_r+0x48>
    441c:	e356000a 	cmp	r6, #10
    4420:	daffffe8 	ble	43c8 <__svfscanf_r+0x6f4>
    4424:	e3c99d2e 	bic	r9, r9, #2944	; 0xb80
    4428:	eaffffdb 	b	439c <__svfscanf_r+0x6c8>
    442c:	e59f387c 	ldr	r3, [pc, #2172]	; 4cb0 <__svfscanf_r+0xfdc>
    4430:	e1a06086 	lsl	r6, r6, #1
    4434:	e19360f6 	ldrsh	r6, [r3, r6]
    4438:	e3560008 	cmp	r6, #8
    443c:	cafffff8 	bgt	4424 <__svfscanf_r+0x750>
    4440:	eaffffe0 	b	43c8 <__svfscanf_r+0x6f4>
    4444:	e59f3864 	ldr	r3, [pc, #2148]	; 4cb0 <__svfscanf_r+0xfdc>
    4448:	e1a06086 	lsl	r6, r6, #1
    444c:	e19360f6 	ldrsh	r6, [r3, r6]
    4450:	e3c99d2e 	bic	r9, r9, #2944	; 0xb80
    4454:	eaffffd0 	b	439c <__svfscanf_r+0x6c8>
    4458:	e3190b02 	tst	r9, #2048	; 0x800
    445c:	0affffce 	beq	439c <__svfscanf_r+0x6c8>
    4460:	e3560000 	cmp	r6, #0
    4464:	03899c02 	orreq	r9, r9, #512	; 0x200
    4468:	03a06008 	moveq	r6, #8
    446c:	e3190b01 	tst	r9, #1024	; 0x400
    4470:	13c99d16 	bicne	r9, r9, #1408	; 0x580
    4474:	1affffc8 	bne	439c <__svfscanf_r+0x6c8>
    4478:	e59d101c 	ldr	r1, [sp, #28]
    447c:	e35a0000 	cmp	r10, #0
    4480:	e2811001 	add	r1, r1, #1
    4484:	e3c99d0e 	bic	r9, r9, #896	; 0x380
    4488:	124aa001 	subne	r10, r10, #1
    448c:	12844001 	addne	r4, r4, #1
    4490:	e58d101c 	str	r1, [sp, #28]
    4494:	eaffffc2 	b	43a4 <__svfscanf_r+0x6d0>
    4498:	e3190080 	tst	r9, #128	; 0x80
    449c:	0affffc9 	beq	43c8 <__svfscanf_r+0x6f4>
    44a0:	e3c99080 	bic	r9, r9, #128	; 0x80
    44a4:	eaffffbc 	b	439c <__svfscanf_r+0x6c8>
    44a8:	e3899001 	orr	r9, r9, #1
    44ac:	e59fc804 	ldr	r12, [pc, #2052]	; 4cb8 <__svfscanf_r+0xfe4>
    44b0:	e5952004 	ldr	r2, [r5, #4]
    44b4:	e58dc020 	str	r12, [sp, #32]
    44b8:	e3520000 	cmp	r2, #0
    44bc:	e3a0c008 	mov	r12, #8
    44c0:	e58dc028 	str	r12, [sp, #40]	; 0x28
    44c4:	e3a07003 	mov	r7, #3
    44c8:	cafffec5 	bgt	3fe4 <__svfscanf_r+0x310>
    44cc:	e1a0000b 	mov	r0, r11
    44d0:	e1a01005 	mov	r1, r5
    44d4:	eb0013bb 	bl	93c8 <__srefill_r>
    44d8:	e3500000 	cmp	r0, #0
    44dc:	0afffec0 	beq	3fe4 <__svfscanf_r+0x310>
    44e0:	e59dc024 	ldr	r12, [sp, #36]	; 0x24
    44e4:	e35c0000 	cmp	r12, #0
    44e8:	0a000006 	beq	4508 <__svfscanf_r+0x834>
    44ec:	e1d530bc 	ldrh	r3, [r5, #12]
    44f0:	e3130040 	tst	r3, #64	; 0x40
    44f4:	1a000003 	bne	4508 <__svfscanf_r+0x834>
    44f8:	e59d0024 	ldr	r0, [sp, #36]	; 0x24
    44fc:	e28ddfad 	add	sp, sp, #692	; 0x2b4
    4500:	e8bd4ff0 	pop	{r4, r5, r6, r7, r8, r9, r10, r11, lr}
    4504:	e12fff1e 	bx	lr
    4508:	e3e00000 	mvn	r0, #0
    450c:	e28ddfad 	add	sp, sp, #692	; 0x2b4
    4510:	e8bd4ff0 	pop	{r4, r5, r6, r7, r8, r9, r10, r11, lr}
    4514:	e12fff1e 	bx	lr
    4518:	e1a07006 	mov	r7, r6
    451c:	e5953004 	ldr	r3, [r5, #4]
    4520:	e3530000 	cmp	r3, #0
    4524:	da000290 	ble	4f6c <__svfscanf_r+0x1298>
    4528:	e5953000 	ldr	r3, [r5]
    452c:	e5572001 	ldrb	r2, [r7, #-1]
    4530:	e5d31000 	ldrb	r1, [r3]
    4534:	e1510002 	cmp	r1, r2
    4538:	1affffee 	bne	44f8 <__svfscanf_r+0x824>
    453c:	e5952004 	ldr	r2, [r5, #4]
    4540:	e2833001 	add	r3, r3, #1
    4544:	e2422001 	sub	r2, r2, #1
    4548:	e5852004 	str	r2, [r5, #4]
    454c:	e5853000 	str	r3, [r5]
    4550:	e28aa001 	add	r10, r10, #1
    4554:	e1a02007 	mov	r2, r7
    4558:	eafffdef 	b	3d1c <__svfscanf_r+0x48>
    455c:	e2442001 	sub	r2, r4, #1
    4560:	e3520f57 	cmp	r2, #348	; 0x15c
    4564:	e28dce15 	add	r12, sp, #336	; 0x150
    4568:	93a03000 	movls	r3, #0
    456c:	e58dc018 	str	r12, [sp, #24]
    4570:	e3a01000 	mov	r1, #0
    4574:	82422f57 	subhi	r2, r2, #348	; 0x15c
    4578:	958d3030 	strls	r3, [sp, #48]	; 0x30
    457c:	e59d3018 	ldr	r3, [sp, #24]
    4580:	858d2030 	strhi	r2, [sp, #48]	; 0x30
    4584:	859f4720 	ldrhi	r4, [pc, #1824]	; 4cac <__svfscanf_r+0xfd8>
    4588:	e58d103c 	str	r1, [sp, #60]	; 0x3c
    458c:	e58d1038 	str	r1, [sp, #56]	; 0x38
    4590:	e58d101c 	str	r1, [sp, #28]
    4594:	e58d1034 	str	r1, [sp, #52]	; 0x34
    4598:	e3897d1e 	orr	r7, r9, #1920	; 0x780
    459c:	e58d602c 	str	r6, [sp, #44]	; 0x2c
    45a0:	e1a09003 	mov	r9, r3
    45a4:	e1a0c001 	mov	r12, r1
    45a8:	e1a0300b 	mov	r3, r11
    45ac:	e1a06001 	mov	r6, r1
    45b0:	e1a0b001 	mov	r11, r1
    45b4:	e5950000 	ldr	r0, [r5]
    45b8:	e5d01000 	ldrb	r1, [r0]
    45bc:	e241202b 	sub	r2, r1, #43	; 0x2b
    45c0:	e352004e 	cmp	r2, #78	; 0x4e
    45c4:	979ff102 	ldrls	pc, [pc, r2, lsl #2]
    45c8:	ea00005f 	b	474c <__svfscanf_r+0xa78>
    45cc:	000049a4 	.word	0x000049a4
    45d0:	0000474c 	.word	0x0000474c
    45d4:	000049a4 	.word	0x000049a4
    45d8:	00004990 	.word	0x00004990
    45dc:	0000474c 	.word	0x0000474c
    45e0:	00004968 	.word	0x00004968
    45e4:	00004708 	.word	0x00004708
    45e8:	00004708 	.word	0x00004708
    45ec:	00004708 	.word	0x00004708
    45f0:	00004708 	.word	0x00004708
    45f4:	00004708 	.word	0x00004708
    45f8:	00004708 	.word	0x00004708
    45fc:	00004708 	.word	0x00004708
    4600:	00004708 	.word	0x00004708
    4604:	00004708 	.word	0x00004708
    4608:	0000474c 	.word	0x0000474c
    460c:	0000474c 	.word	0x0000474c
    4610:	0000474c 	.word	0x0000474c
    4614:	0000474c 	.word	0x0000474c
    4618:	0000474c 	.word	0x0000474c
    461c:	0000474c 	.word	0x0000474c
    4620:	0000474c 	.word	0x0000474c
    4624:	00004958 	.word	0x00004958
    4628:	0000474c 	.word	0x0000474c
    462c:	0000474c 	.word	0x0000474c
    4630:	0000474c 	.word	0x0000474c
    4634:	000049b4 	.word	0x000049b4
    4638:	00004948 	.word	0x00004948
    463c:	0000474c 	.word	0x0000474c
    4640:	0000474c 	.word	0x0000474c
    4644:	0000490c 	.word	0x0000490c
    4648:	0000474c 	.word	0x0000474c
    464c:	0000474c 	.word	0x0000474c
    4650:	0000474c 	.word	0x0000474c
    4654:	0000474c 	.word	0x0000474c
    4658:	000048d8 	.word	0x000048d8
    465c:	0000474c 	.word	0x0000474c
    4660:	0000474c 	.word	0x0000474c
    4664:	0000474c 	.word	0x0000474c
    4668:	0000474c 	.word	0x0000474c
    466c:	0000474c 	.word	0x0000474c
    4670:	000048c8 	.word	0x000048c8
    4674:	0000474c 	.word	0x0000474c
    4678:	0000474c 	.word	0x0000474c
    467c:	0000474c 	.word	0x0000474c
    4680:	0000474c 	.word	0x0000474c
    4684:	000048b8 	.word	0x000048b8
    4688:	0000474c 	.word	0x0000474c
    468c:	0000474c 	.word	0x0000474c
    4690:	0000474c 	.word	0x0000474c
    4694:	0000474c 	.word	0x0000474c
    4698:	0000474c 	.word	0x0000474c
    469c:	0000474c 	.word	0x0000474c
    46a0:	0000474c 	.word	0x0000474c
    46a4:	00004958 	.word	0x00004958
    46a8:	0000474c 	.word	0x0000474c
    46ac:	0000474c 	.word	0x0000474c
    46b0:	0000474c 	.word	0x0000474c
    46b4:	000049b4 	.word	0x000049b4
    46b8:	00004948 	.word	0x00004948
    46bc:	0000474c 	.word	0x0000474c
    46c0:	0000474c 	.word	0x0000474c
    46c4:	0000490c 	.word	0x0000490c
    46c8:	0000474c 	.word	0x0000474c
    46cc:	0000474c 	.word	0x0000474c
    46d0:	0000474c 	.word	0x0000474c
    46d4:	0000474c 	.word	0x0000474c
    46d8:	000048d8 	.word	0x000048d8
    46dc:	0000474c 	.word	0x0000474c
    46e0:	0000474c 	.word	0x0000474c
    46e4:	0000474c 	.word	0x0000474c
    46e8:	0000474c 	.word	0x0000474c
    46ec:	0000474c 	.word	0x0000474c
    46f0:	000048c8 	.word	0x000048c8
    46f4:	0000474c 	.word	0x0000474c
    46f8:	0000474c 	.word	0x0000474c
    46fc:	0000474c 	.word	0x0000474c
    4700:	0000474c 	.word	0x0000474c
    4704:	000048b8 	.word	0x000048b8
    4708:	e08c200b 	add	r2, r12, r11
    470c:	e3520000 	cmp	r2, #0
    4710:	1a00000d 	bne	474c <__svfscanf_r+0xa78>
    4714:	e3c77d06 	bic	r7, r7, #384	; 0x180
    4718:	e5c91000 	strb	r1, [r9]
    471c:	e2899001 	add	r9, r9, #1
    4720:	e5952004 	ldr	r2, [r5, #4]
    4724:	e2422001 	sub	r2, r2, #1
    4728:	e3520000 	cmp	r2, #0
    472c:	e2444001 	sub	r4, r4, #1
    4730:	e28aa001 	add	r10, r10, #1
    4734:	e5852004 	str	r2, [r5, #4]
    4738:	da000054 	ble	4890 <__svfscanf_r+0xbbc>
    473c:	e2800001 	add	r0, r0, #1
    4740:	e5850000 	str	r0, [r5]
    4744:	e3540000 	cmp	r4, #0
    4748:	1affff99 	bne	45b4 <__svfscanf_r+0x8e0>
    474c:	e58d601c 	str	r6, [sp, #28]
    4750:	e59d001c 	ldr	r0, [sp, #28]
    4754:	e59d602c 	ldr	r6, [sp, #44]	; 0x2c
    4758:	e3500000 	cmp	r0, #0
    475c:	e1a0100b 	mov	r1, r11
    4760:	13c77c01 	bicne	r7, r7, #256	; 0x100
    4764:	e1a0b003 	mov	r11, r3
    4768:	e1a03009 	mov	r3, r9
    476c:	e24cc001 	sub	r12, r12, #1
    4770:	e35c0001 	cmp	r12, #1
    4774:	9a000289 	bls	51a0 <__svfscanf_r+0x14cc>
    4778:	e2412001 	sub	r2, r1, #1
    477c:	e3520006 	cmp	r2, #6
    4780:	8a000017 	bhi	47e4 <__svfscanf_r+0xb10>
    4784:	e3510002 	cmp	r1, #2
    4788:	9a00028f 	bls	51cc <__svfscanf_r+0x14f8>
    478c:	e3510003 	cmp	r1, #3
    4790:	0a000013 	beq	47e4 <__svfscanf_r+0xb10>
    4794:	e2419004 	sub	r9, r1, #4
    4798:	e20990ff 	and	r9, r9, #255	; 0xff
    479c:	e2434001 	sub	r4, r3, #1
    47a0:	e58d902c 	str	r9, [sp, #44]	; 0x2c
    47a4:	e0694004 	rsb	r4, r9, r4
    47a8:	e58d6030 	str	r6, [sp, #48]	; 0x30
    47ac:	e1a09003 	mov	r9, r3
    47b0:	e1a06003 	mov	r6, r3
    47b4:	e5761001 	ldrb	r1, [r6, #-1]!
    47b8:	e1a0000b 	mov	r0, r11
    47bc:	e1a02005 	mov	r2, r5
    47c0:	eb0024a9 	bl	da6c <_ungetc_r>
    47c4:	e1560004 	cmp	r6, r4
    47c8:	1afffff9 	bne	47b4 <__svfscanf_r+0xae0>
    47cc:	e59dc02c 	ldr	r12, [sp, #44]	; 0x2c
    47d0:	e24aa001 	sub	r10, r10, #1
    47d4:	e1e0200c 	mvn	r2, r12
    47d8:	e59d6030 	ldr	r6, [sp, #48]	; 0x30
    47dc:	e06ca00a 	rsb	r10, r12, r10
    47e0:	e0893002 	add	r3, r9, r2
    47e4:	e3170c01 	tst	r7, #256	; 0x100
    47e8:	0a00000c 	beq	4820 <__svfscanf_r+0xb4c>
    47ec:	e3170b01 	tst	r7, #1024	; 0x400
    47f0:	1a000280 	bne	51f8 <__svfscanf_r+0x1524>
    47f4:	e5531001 	ldrb	r1, [r3, #-1]
    47f8:	e20120df 	and	r2, r1, #223	; 0xdf
    47fc:	e3520045 	cmp	r2, #69	; 0x45
    4800:	1a0001e5 	bne	4f9c <__svfscanf_r+0x12c8>
    4804:	e2433001 	sub	r3, r3, #1
    4808:	e24aa001 	sub	r10, r10, #1
    480c:	e1a0000b 	mov	r0, r11
    4810:	e1a02005 	mov	r2, r5
    4814:	e58d3008 	str	r3, [sp, #8]
    4818:	eb002493 	bl	da6c <_ungetc_r>
    481c:	e59d3008 	ldr	r3, [sp, #8]
    4820:	e2172010 	ands	r2, r7, #16
    4824:	1a000177 	bne	4e08 <__svfscanf_r+0x1134>
    4828:	e2071c06 	and	r1, r7, #1536	; 0x600
    482c:	e3510b01 	cmp	r1, #1024	; 0x400
    4830:	e5c32000 	strb	r2, [r3]
    4834:	0a0001e1 	beq	4fc0 <__svfscanf_r+0x12ec>
    4838:	e59dc038 	ldr	r12, [sp, #56]	; 0x38
    483c:	e35c0000 	cmp	r12, #0
    4840:	1a00019b 	bne	4eb4 <__svfscanf_r+0x11e0>
    4844:	e3a02000 	mov	r2, #0
    4848:	e59d1018 	ldr	r1, [sp, #24]
    484c:	e1a0000b 	mov	r0, r11
    4850:	eb00146a 	bl	9a00 <_strtod_r>
    4854:	e3170001 	tst	r7, #1
    4858:	e1a02000 	mov	r2, r0
    485c:	e1a03001 	mov	r3, r1
    4860:	e59dc014 	ldr	r12, [sp, #20]
    4864:	0a000178 	beq	4e4c <__svfscanf_r+0x1178>
    4868:	e59c1000 	ldr	r1, [r12]
    486c:	e28cc004 	add	r12, r12, #4
    4870:	e58dc014 	str	r12, [sp, #20]
    4874:	e881000c 	stm	r1, {r2, r3}
    4878:	e59dc024 	ldr	r12, [sp, #36]	; 0x24
    487c:	e1a07006 	mov	r7, r6
    4880:	e28cc001 	add	r12, r12, #1
    4884:	e58dc024 	str	r12, [sp, #36]	; 0x24
    4888:	e1a02007 	mov	r2, r7
    488c:	eafffd22 	b	3d1c <__svfscanf_r+0x48>
    4890:	e1a00003 	mov	r0, r3
    4894:	e1a01005 	mov	r1, r5
    4898:	e58d3008 	str	r3, [sp, #8]
    489c:	e58dc00c 	str	r12, [sp, #12]
    48a0:	eb0012c8 	bl	93c8 <__srefill_r>
    48a4:	e28d3008 	add	r3, sp, #8
    48a8:	e3500000 	cmp	r0, #0
    48ac:	e8931008 	ldm	r3, {r3, r12}
    48b0:	0affffa3 	beq	4744 <__svfscanf_r+0xa70>
    48b4:	eaffffa4 	b	474c <__svfscanf_r+0xa78>
    48b8:	e35b0007 	cmp	r11, #7
    48bc:	1affffa2 	bne	474c <__svfscanf_r+0xa78>
    48c0:	e3a0b008 	mov	r11, #8
    48c4:	eaffff93 	b	4718 <__svfscanf_r+0xa44>
    48c8:	e35b0006 	cmp	r11, #6
    48cc:	1affff9e 	bne	474c <__svfscanf_r+0xa78>
    48d0:	e3a0b007 	mov	r11, #7
    48d4:	eaffff8f 	b	4718 <__svfscanf_r+0xa44>
    48d8:	e3560000 	cmp	r6, #0
    48dc:	035c0000 	cmpeq	r12, #0
    48e0:	1a000155 	bne	4e3c <__svfscanf_r+0x1168>
    48e4:	e2072c07 	and	r2, r7, #1792	; 0x700
    48e8:	e3520c07 	cmp	r2, #1792	; 0x700
    48ec:	03c77d1e 	biceq	r7, r7, #1920	; 0x780
    48f0:	03a0c001 	moveq	r12, #1
    48f4:	03a06000 	moveq	r6, #0
    48f8:	0affff86 	beq	4718 <__svfscanf_r+0xa44>
    48fc:	e35b0001 	cmp	r11, #1
    4900:	135b0004 	cmpne	r11, #4
    4904:	0a00000c 	beq	493c <__svfscanf_r+0xc68>
    4908:	eaffff8f 	b	474c <__svfscanf_r+0xa78>
    490c:	e35b0000 	cmp	r11, #0
    4910:	03560000 	cmpeq	r6, #0
    4914:	1a000005 	bne	4930 <__svfscanf_r+0xc5c>
    4918:	e2072c07 	and	r2, r7, #1792	; 0x700
    491c:	e3520c07 	cmp	r2, #1792	; 0x700
    4920:	03c77d1e 	biceq	r7, r7, #1920	; 0x780
    4924:	03a0b001 	moveq	r11, #1
    4928:	03a06000 	moveq	r6, #0
    492c:	0affff79 	beq	4718 <__svfscanf_r+0xa44>
    4930:	e35b0003 	cmp	r11, #3
    4934:	135b0005 	cmpne	r11, #5
    4938:	1affff83 	bne	474c <__svfscanf_r+0xa78>
    493c:	e28bb001 	add	r11, r11, #1
    4940:	e20bb0ff 	and	r11, r11, #255	; 0xff
    4944:	eaffff73 	b	4718 <__svfscanf_r+0xa44>
    4948:	e35b0002 	cmp	r11, #2
    494c:	1affff7e 	bne	474c <__svfscanf_r+0xa78>
    4950:	e3a0b003 	mov	r11, #3
    4954:	eaffff6f 	b	4718 <__svfscanf_r+0xa44>
    4958:	e35c0001 	cmp	r12, #1
    495c:	1affff7a 	bne	474c <__svfscanf_r+0xa78>
    4960:	e3a0c002 	mov	r12, #2
    4964:	eaffff6b 	b	4718 <__svfscanf_r+0xa44>
    4968:	e3170c01 	tst	r7, #256	; 0x100
    496c:	0affff65 	beq	4708 <__svfscanf_r+0xa34>
    4970:	e59d2030 	ldr	r2, [sp, #48]	; 0x30
    4974:	e3520000 	cmp	r2, #0
    4978:	e3c77080 	bic	r7, r7, #128	; 0x80
    497c:	e2866001 	add	r6, r6, #1
    4980:	12422001 	subne	r2, r2, #1
    4984:	158d2030 	strne	r2, [sp, #48]	; 0x30
    4988:	12844001 	addne	r4, r4, #1
    498c:	eaffff63 	b	4720 <__svfscanf_r+0xa4c>
    4990:	e3170c02 	tst	r7, #512	; 0x200
    4994:	0affff6c 	beq	474c <__svfscanf_r+0xa78>
    4998:	e3c77d0a 	bic	r7, r7, #640	; 0x280
    499c:	e58d6034 	str	r6, [sp, #52]	; 0x34
    49a0:	eaffff5c 	b	4718 <__svfscanf_r+0xa44>
    49a4:	e3170080 	tst	r7, #128	; 0x80
    49a8:	0affff67 	beq	474c <__svfscanf_r+0xa78>
    49ac:	e3c77080 	bic	r7, r7, #128	; 0x80
    49b0:	eaffff58 	b	4718 <__svfscanf_r+0xa44>
    49b4:	e2072c05 	and	r2, r7, #1280	; 0x500
    49b8:	e3520b01 	cmp	r2, #1024	; 0x400
    49bc:	0a000003 	beq	49d0 <__svfscanf_r+0xcfc>
    49c0:	e3170b01 	tst	r7, #1024	; 0x400
    49c4:	0affff60 	beq	474c <__svfscanf_r+0xa78>
    49c8:	e3560000 	cmp	r6, #0
    49cc:	0a000214 	beq	5224 <__svfscanf_r+0x1550>
    49d0:	e3170c02 	tst	r7, #512	; 0x200
    49d4:	059d2034 	ldreq	r2, [sp, #52]	; 0x34
    49d8:	e3c77d1e 	bic	r7, r7, #1920	; 0x780
    49dc:	00626006 	rsbeq	r6, r2, r6
    49e0:	058d6038 	streq	r6, [sp, #56]	; 0x38
    49e4:	058d903c 	streq	r9, [sp, #60]	; 0x3c
    49e8:	e3877d06 	orr	r7, r7, #384	; 0x180
    49ec:	e3a06000 	mov	r6, #0
    49f0:	eaffff48 	b	4718 <__svfscanf_r+0xa44>
    49f4:	e1a0000b 	mov	r0, r11
    49f8:	e1a01005 	mov	r1, r5
    49fc:	eb001271 	bl	93c8 <__srefill_r>
    4a00:	e3500000 	cmp	r0, #0
    4a04:	1afffe3d 	bne	4300 <__svfscanf_r+0x62c>
    4a08:	e5981000 	ldr	r1, [r8]
    4a0c:	e5953000 	ldr	r3, [r5]
    4a10:	e5d32000 	ldrb	r2, [r3]
    4a14:	e0812002 	add	r2, r1, r2
    4a18:	e5d22001 	ldrb	r2, [r2, #1]
    4a1c:	e3120008 	tst	r2, #8
    4a20:	e2833001 	add	r3, r3, #1
    4a24:	1afffe35 	bne	4300 <__svfscanf_r+0x62c>
    4a28:	e5952004 	ldr	r2, [r5, #4]
    4a2c:	e2877001 	add	r7, r7, #1
    4a30:	e2422001 	sub	r2, r2, #1
    4a34:	e1540007 	cmp	r4, r7
    4a38:	e5853000 	str	r3, [r5]
    4a3c:	e5852004 	str	r2, [r5, #4]
    4a40:	0afffe2e 	beq	4300 <__svfscanf_r+0x62c>
    4a44:	e3520000 	cmp	r2, #0
    4a48:	cafffff0 	bgt	4a10 <__svfscanf_r+0xd3c>
    4a4c:	eaffffe8 	b	49f4 <__svfscanf_r+0xd20>
    4a50:	e59fc250 	ldr	r12, [pc, #592]	; 4ca8 <__svfscanf_r+0xfd4>
    4a54:	e58dc020 	str	r12, [sp, #32]
    4a58:	e3a0c000 	mov	r12, #0
    4a5c:	e58dc028 	str	r12, [sp, #40]	; 0x28
    4a60:	e3a07003 	mov	r7, #3
    4a64:	eafffd5b 	b	3fd8 <__svfscanf_r+0x304>
    4a68:	e59dc014 	ldr	r12, [sp, #20]
    4a6c:	e59c7000 	ldr	r7, [r12]
    4a70:	e28c2004 	add	r2, r12, #4
    4a74:	e58d2014 	str	r2, [sp, #20]
    4a78:	e1a09007 	mov	r9, r7
    4a7c:	e5953000 	ldr	r3, [r5]
    4a80:	e5d32000 	ldrb	r2, [r3]
    4a84:	e28dce2b 	add	r12, sp, #688	; 0x2b0
    4a88:	e08c2002 	add	r2, r12, r2
    4a8c:	e5522260 	ldrb	r2, [r2, #-608]	; 0xfffffda0
    4a90:	e3520000 	cmp	r2, #0
    4a94:	e2831001 	add	r1, r3, #1
    4a98:	0a000010 	beq	4ae0 <__svfscanf_r+0xe0c>
    4a9c:	e5952004 	ldr	r2, [r5, #4]
    4aa0:	e2422001 	sub	r2, r2, #1
    4aa4:	e8850006 	stm	r5, {r1, r2}
    4aa8:	e5d33000 	ldrb	r3, [r3]
    4aac:	e2544001 	subs	r4, r4, #1
    4ab0:	e4c93001 	strb	r3, [r9], #1
    4ab4:	0a000009 	beq	4ae0 <__svfscanf_r+0xe0c>
    4ab8:	e5953004 	ldr	r3, [r5, #4]
    4abc:	e3530000 	cmp	r3, #0
    4ac0:	caffffed 	bgt	4a7c <__svfscanf_r+0xda8>
    4ac4:	e1a0000b 	mov	r0, r11
    4ac8:	e1a01005 	mov	r1, r5
    4acc:	eb00123d 	bl	93c8 <__srefill_r>
    4ad0:	e3500000 	cmp	r0, #0
    4ad4:	0affffe8 	beq	4a7c <__svfscanf_r+0xda8>
    4ad8:	e1570009 	cmp	r7, r9
    4adc:	0afffe7f 	beq	44e0 <__svfscanf_r+0x80c>
    4ae0:	e0597007 	subs	r7, r9, r7
    4ae4:	0afffe83 	beq	44f8 <__svfscanf_r+0x824>
    4ae8:	e59dc024 	ldr	r12, [sp, #36]	; 0x24
    4aec:	e3a02000 	mov	r2, #0
    4af0:	e28cc001 	add	r12, r12, #1
    4af4:	e08aa007 	add	r10, r10, r7
    4af8:	e5c92000 	strb	r2, [r9]
    4afc:	e58dc024 	str	r12, [sp, #36]	; 0x24
    4b00:	e1a07006 	mov	r7, r6
    4b04:	eafffdff 	b	4308 <__svfscanf_r+0x634>
    4b08:	e59fc1a8 	ldr	r12, [pc, #424]	; 4cb8 <__svfscanf_r+0xfe4>
    4b0c:	e58dc020 	str	r12, [sp, #32]
    4b10:	e3a0c00a 	mov	r12, #10
    4b14:	e58dc028 	str	r12, [sp, #40]	; 0x28
    4b18:	e3a07003 	mov	r7, #3
    4b1c:	eafffd2d 	b	3fd8 <__svfscanf_r+0x304>
    4b20:	e3a07002 	mov	r7, #2
    4b24:	eafffd2b 	b	3fd8 <__svfscanf_r+0x304>
    4b28:	e3899e22 	orr	r9, r9, #544	; 0x220
    4b2c:	e59fc184 	ldr	r12, [pc, #388]	; 4cb8 <__svfscanf_r+0xfe4>
    4b30:	e58dc020 	str	r12, [sp, #32]
    4b34:	e3a0c010 	mov	r12, #16
    4b38:	e58dc028 	str	r12, [sp, #40]	; 0x28
    4b3c:	e3a07003 	mov	r7, #3
    4b40:	eafffd24 	b	3fd8 <__svfscanf_r+0x304>
    4b44:	e3190010 	tst	r9, #16
    4b48:	1a0000ae 	bne	4e08 <__svfscanf_r+0x1134>
    4b4c:	e3190004 	tst	r9, #4
    4b50:	0a000121 	beq	4fdc <__svfscanf_r+0x1308>
    4b54:	e59dc014 	ldr	r12, [sp, #20]
    4b58:	e59c3000 	ldr	r3, [r12]
    4b5c:	e28cc004 	add	r12, r12, #4
    4b60:	e1a07006 	mov	r7, r6
    4b64:	e1c3a0b0 	strh	r10, [r3]
    4b68:	e58dc014 	str	r12, [sp, #20]
    4b6c:	eafffc8a 	b	3d9c <__svfscanf_r+0xc8>
    4b70:	e5d72001 	ldrb	r2, [r7, #1]
    4b74:	e352006c 	cmp	r2, #108	; 0x6c
    4b78:	05d72002 	ldrbeq	r2, [r7, #2]
    4b7c:	03899002 	orreq	r9, r9, #2
    4b80:	02877002 	addeq	r7, r7, #2
    4b84:	13899001 	orrne	r9, r9, #1
    4b88:	11a07006 	movne	r7, r6
    4b8c:	eafffc89 	b	3db8 <__svfscanf_r+0xe4>
    4b90:	e5d72001 	ldrb	r2, [r7, #1]
    4b94:	e3899010 	orr	r9, r9, #16
    4b98:	e1a07006 	mov	r7, r6
    4b9c:	eafffc85 	b	3db8 <__svfscanf_r+0xe4>
    4ba0:	e5d72001 	ldrb	r2, [r7, #1]
    4ba4:	e3899004 	orr	r9, r9, #4
    4ba8:	e1a07006 	mov	r7, r6
    4bac:	eafffc81 	b	3db8 <__svfscanf_r+0xe4>
    4bb0:	e3899040 	orr	r9, r9, #64	; 0x40
    4bb4:	e3a07000 	mov	r7, #0
    4bb8:	eafffd06 	b	3fd8 <__svfscanf_r+0x304>
    4bbc:	e1a01006 	mov	r1, r6
    4bc0:	e28d0050 	add	r0, sp, #80	; 0x50
    4bc4:	eb001292 	bl	9614 <__sccl>
    4bc8:	e3899040 	orr	r9, r9, #64	; 0x40
    4bcc:	e1a06000 	mov	r6, r0
    4bd0:	e3a07001 	mov	r7, #1
    4bd4:	eafffcff 	b	3fd8 <__svfscanf_r+0x304>
    4bd8:	e3899c02 	orr	r9, r9, #512	; 0x200
    4bdc:	eaffffd2 	b	4b2c <__svfscanf_r+0xe58>
    4be0:	e5d72001 	ldrb	r2, [r7, #1]
    4be4:	e3899002 	orr	r9, r9, #2
    4be8:	e1a07006 	mov	r7, r6
    4bec:	eafffc71 	b	3db8 <__svfscanf_r+0xe4>
    4bf0:	e3a07004 	mov	r7, #4
    4bf4:	eafffcf7 	b	3fd8 <__svfscanf_r+0x304>
    4bf8:	e0844104 	add	r4, r4, r4, lsl #2
    4bfc:	e0822084 	add	r2, r2, r4, lsl #1
    4c00:	e2424030 	sub	r4, r2, #48	; 0x30
    4c04:	e5d72001 	ldrb	r2, [r7, #1]
    4c08:	e1a07006 	mov	r7, r6
    4c0c:	eafffc69 	b	3db8 <__svfscanf_r+0xe4>
    4c10:	e1a0200c 	mov	r2, r12
    4c14:	e5c7c000 	strb	r12, [r7]
    4c18:	e1a0000b 	mov	r0, r11
    4c1c:	e59d1018 	ldr	r1, [sp, #24]
    4c20:	e59d3028 	ldr	r3, [sp, #40]	; 0x28
    4c24:	e59dc020 	ldr	r12, [sp, #32]
    4c28:	e1a0e00f 	mov	lr, pc
    4c2c:	e12fff1c 	bx	r12
    4c30:	e3190020 	tst	r9, #32
    4c34:	0a000096 	beq	4e94 <__svfscanf_r+0x11c0>
    4c38:	e59dc014 	ldr	r12, [sp, #20]
    4c3c:	e59c3000 	ldr	r3, [r12]
    4c40:	e28cc004 	add	r12, r12, #4
    4c44:	e58dc014 	str	r12, [sp, #20]
    4c48:	e5830000 	str	r0, [r3]
    4c4c:	e59dc024 	ldr	r12, [sp, #36]	; 0x24
    4c50:	e28cc001 	add	r12, r12, #1
    4c54:	e58dc024 	str	r12, [sp, #36]	; 0x24
    4c58:	eafffde7 	b	43fc <__svfscanf_r+0x728>
    4c5c:	e28dc048 	add	r12, sp, #72	; 0x48
    4c60:	e1a0000c 	mov	r0, r12
    4c64:	e3a01000 	mov	r1, #0
    4c68:	e3a02008 	mov	r2, #8
    4c6c:	e58dc01c 	str	r12, [sp, #28]
    4c70:	ebfff2f7 	bl	1854 <memset>
    4c74:	e2199010 	ands	r9, r9, #16
    4c78:	059dc014 	ldreq	r12, [sp, #20]
    4c7c:	e58d902c 	str	r9, [sp, #44]	; 0x2c
    4c80:	059c7000 	ldreq	r7, [r12]
    4c84:	028cc004 	addeq	r12, r12, #4
    4c88:	e58d6030 	str	r6, [sp, #48]	; 0x30
    4c8c:	058dc014 	streq	r12, [sp, #20]
    4c90:	13a07000 	movne	r7, #0
    4c94:	e3a09000 	mov	r9, #0
    4c98:	e59d602c 	ldr	r6, [sp, #44]	; 0x2c
    4c9c:	e58db018 	str	r11, [sp, #24]
    4ca0:	ea000012 	b	4cf0 <__svfscanf_r+0x101c>
    4ca4:	000142e8 	.word	0x000142e8
    4ca8:	0000b16c 	.word	0x0000b16c
    4cac:	0000015d 	.word	0x0000015d
    4cb0:	00013610 	.word	0x00013610
    4cb4:	00013634 	.word	0x00013634
    4cb8:	0000b610 	.word	0x0000b610
    4cbc:	e3560000 	cmp	r6, #0
    4cc0:	05876000 	streq	r6, [r7]
    4cc4:	e5952004 	ldr	r2, [r5, #4]
    4cc8:	e3560000 	cmp	r6, #0
    4ccc:	02877004 	addeq	r7, r7, #4
    4cd0:	01a09006 	moveq	r9, r6
    4cd4:	13a09000 	movne	r9, #0
    4cd8:	e3520000 	cmp	r2, #0
    4cdc:	e08aa00b 	add	r10, r10, r11
    4ce0:	e2444001 	sub	r4, r4, #1
    4ce4:	da00001f 	ble	4d68 <__svfscanf_r+0x1094>
    4ce8:	e3540000 	cmp	r4, #0
    4cec:	0a0000ce 	beq	502c <__svfscanf_r+0x1358>
    4cf0:	eb000b1a 	bl	7960 <__locale_mb_cur_max>
    4cf4:	e1500009 	cmp	r0, r9
    4cf8:	0afffdf8 	beq	44e0 <__svfscanf_r+0x80c>
    4cfc:	e5951000 	ldr	r1, [r5]
    4d00:	e4d12001 	ldrb	r2, [r1], #1
    4d04:	e5950004 	ldr	r0, [r5, #4]
    4d08:	e5851000 	str	r1, [r5]
    4d0c:	e59dc01c 	ldr	r12, [sp, #28]
    4d10:	e28d1e2b 	add	r1, sp, #688	; 0x2b0
    4d14:	e081e009 	add	lr, r1, r9
    4d18:	e2400001 	sub	r0, r0, #1
    4d1c:	e289b001 	add	r11, r9, #1
    4d20:	e58dc000 	str	r12, [sp]
    4d24:	e1a0300b 	mov	r3, r11
    4d28:	e5850004 	str	r0, [r5, #4]
    4d2c:	e54e2160 	strb	r2, [lr, #-352]	; 0xfffffea0
    4d30:	e59d0018 	ldr	r0, [sp, #24]
    4d34:	e1a01007 	mov	r1, r7
    4d38:	e28d2e15 	add	r2, sp, #336	; 0x150
    4d3c:	eb000b8a 	bl	7b6c <_mbrtowc_r>
    4d40:	e3700001 	cmn	r0, #1
    4d44:	0afffde5 	beq	44e0 <__svfscanf_r+0x80c>
    4d48:	e3500000 	cmp	r0, #0
    4d4c:	0affffda 	beq	4cbc <__svfscanf_r+0xfe8>
    4d50:	e3700002 	cmn	r0, #2
    4d54:	01a0900b 	moveq	r9, r11
    4d58:	1affffd9 	bne	4cc4 <__svfscanf_r+0xff0>
    4d5c:	e5952004 	ldr	r2, [r5, #4]
    4d60:	e3520000 	cmp	r2, #0
    4d64:	caffffdf 	bgt	4ce8 <__svfscanf_r+0x1014>
    4d68:	e59d0018 	ldr	r0, [sp, #24]
    4d6c:	e1a01005 	mov	r1, r5
    4d70:	eb001194 	bl	93c8 <__srefill_r>
    4d74:	e3500000 	cmp	r0, #0
    4d78:	0affffda 	beq	4ce8 <__svfscanf_r+0x1014>
    4d7c:	e3590000 	cmp	r9, #0
    4d80:	e59d6030 	ldr	r6, [sp, #48]	; 0x30
    4d84:	e59db018 	ldr	r11, [sp, #24]
    4d88:	0a0000a9 	beq	5034 <__svfscanf_r+0x1360>
    4d8c:	eafffdd3 	b	44e0 <__svfscanf_r+0x80c>
    4d90:	e28dc048 	add	r12, sp, #72	; 0x48
    4d94:	e1a0000c 	mov	r0, r12
    4d98:	e3a01000 	mov	r1, #0
    4d9c:	e3a02008 	mov	r2, #8
    4da0:	e58dc01c 	str	r12, [sp, #28]
    4da4:	ebfff2aa 	bl	1854 <memset>
    4da8:	e2199010 	ands	r9, r9, #16
    4dac:	059dc014 	ldreq	r12, [sp, #20]
    4db0:	e58d9018 	str	r9, [sp, #24]
    4db4:	059c9000 	ldreq	r9, [r12]
    4db8:	028cc004 	addeq	r12, r12, #4
    4dbc:	058dc014 	streq	r12, [sp, #20]
    4dc0:	128d9044 	addne	r9, sp, #68	; 0x44
    4dc4:	e3a03000 	mov	r3, #0
    4dc8:	e5952000 	ldr	r2, [r5]
    4dcc:	e5981000 	ldr	r1, [r8]
    4dd0:	e5d22000 	ldrb	r2, [r2]
    4dd4:	e0812002 	add	r2, r1, r2
    4dd8:	e5d22001 	ldrb	r2, [r2, #1]
    4ddc:	e3120008 	tst	r2, #8
    4de0:	1a000001 	bne	4dec <__svfscanf_r+0x1118>
    4de4:	e3540000 	cmp	r4, #0
    4de8:	1a0000a7 	bne	508c <__svfscanf_r+0x13b8>
    4dec:	e59dc018 	ldr	r12, [sp, #24]
    4df0:	e35c0000 	cmp	r12, #0
    4df4:	1a000003 	bne	4e08 <__svfscanf_r+0x1134>
    4df8:	e589c000 	str	r12, [r9]
    4dfc:	e59dc024 	ldr	r12, [sp, #36]	; 0x24
    4e00:	e28cc001 	add	r12, r12, #1
    4e04:	e58dc024 	str	r12, [sp, #36]	; 0x24
    4e08:	e1a07006 	mov	r7, r6
    4e0c:	e1a02007 	mov	r2, r7
    4e10:	eafffbc1 	b	3d1c <__svfscanf_r+0x48>
    4e14:	e1a0000b 	mov	r0, r11
    4e18:	e1a01005 	mov	r1, r5
    4e1c:	e58d2010 	str	r2, [sp, #16]
    4e20:	e58dc00c 	str	r12, [sp, #12]
    4e24:	eb001167 	bl	93c8 <__srefill_r>
    4e28:	e3500000 	cmp	r0, #0
    4e2c:	e59d2010 	ldr	r2, [sp, #16]
    4e30:	e59dc00c 	ldr	r12, [sp, #12]
    4e34:	0afffd61 	beq	43c0 <__svfscanf_r+0x6ec>
    4e38:	eafffd62 	b	43c8 <__svfscanf_r+0x6f4>
    4e3c:	e35c0002 	cmp	r12, #2
    4e40:	1afffead 	bne	48fc <__svfscanf_r+0xc28>
    4e44:	e3a0c003 	mov	r12, #3
    4e48:	eafffe32 	b	4718 <__svfscanf_r+0xa44>
    4e4c:	e3170002 	tst	r7, #2
    4e50:	1afffe84 	bne	4868 <__svfscanf_r+0xb94>
    4e54:	e59c4000 	ldr	r4, [r12]
    4e58:	e58d0010 	str	r0, [sp, #16]
    4e5c:	e58d1008 	str	r1, [sp, #8]
    4e60:	eb0011d0 	bl	95a8 <__fpclassifyd>
    4e64:	e59dc014 	ldr	r12, [sp, #20]
    4e68:	e3500000 	cmp	r0, #0
    4e6c:	e28c7004 	add	r7, r12, #4
    4e70:	e59d2010 	ldr	r2, [sp, #16]
    4e74:	e59d3008 	ldr	r3, [sp, #8]
    4e78:	0a0000ad 	beq	5134 <__svfscanf_r+0x1460>
    4e7c:	e1a00002 	mov	r0, r2
    4e80:	e1a01003 	mov	r1, r3
    4e84:	eb003490 	bl	120cc <__aeabi_d2f>
    4e88:	e58d7014 	str	r7, [sp, #20]
    4e8c:	e5840000 	str	r0, [r4]
    4e90:	eafffe78 	b	4878 <__svfscanf_r+0xba4>
    4e94:	e3190004 	tst	r9, #4
    4e98:	0a000069 	beq	5044 <__svfscanf_r+0x1370>
    4e9c:	e59dc014 	ldr	r12, [sp, #20]
    4ea0:	e59c3000 	ldr	r3, [r12]
    4ea4:	e28cc004 	add	r12, r12, #4
    4ea8:	e58dc014 	str	r12, [sp, #20]
    4eac:	e1c300b0 	strh	r0, [r3]
    4eb0:	eaffff65 	b	4c4c <__svfscanf_r+0xf78>
    4eb4:	e59dc03c 	ldr	r12, [sp, #60]	; 0x3c
    4eb8:	e3a0300a 	mov	r3, #10
    4ebc:	e28c1001 	add	r1, r12, #1
    4ec0:	e1a0000b 	mov	r0, r11
    4ec4:	eb0018a8 	bl	b16c <_strtol_r>
    4ec8:	e59dc038 	ldr	r12, [sp, #56]	; 0x38
    4ecc:	e59d303c 	ldr	r3, [sp, #60]	; 0x3c
    4ed0:	e06c2000 	rsb	r2, r12, r0
    4ed4:	e28d1e2a 	add	r1, sp, #672	; 0x2a0
    4ed8:	e2811003 	add	r1, r1, #3
    4edc:	e1530001 	cmp	r3, r1
    4ee0:	228d3e2a 	addcs	r3, sp, #672	; 0x2a0
    4ee4:	22833002 	addcs	r3, r3, #2
    4ee8:	e1a00003 	mov	r0, r3
    4eec:	e51f1240 	ldr	r1, [pc, #-576]	; 4cb4 <__svfscanf_r+0xfe0>
    4ef0:	eb001219 	bl	975c <sprintf>
    4ef4:	eafffe52 	b	4844 <__svfscanf_r+0xb70>
    4ef8:	e3570000 	cmp	r7, #0
    4efc:	0afffd77 	beq	44e0 <__svfscanf_r+0x80c>
    4f00:	e08aa007 	add	r10, r10, r7
    4f04:	e1a07006 	mov	r7, r6
    4f08:	eafffcfe 	b	4308 <__svfscanf_r+0x634>
    4f0c:	e3570000 	cmp	r7, #0
    4f10:	0afffd78 	beq	44f8 <__svfscanf_r+0x824>
    4f14:	e08aa007 	add	r10, r10, r7
    4f18:	e1a07006 	mov	r7, r6
    4f1c:	eafffcf9 	b	4308 <__svfscanf_r+0x634>
    4f20:	e59dc014 	ldr	r12, [sp, #20]
    4f24:	e1a03004 	mov	r3, r4
    4f28:	e59c1000 	ldr	r1, [r12]
    4f2c:	e1a0000b 	mov	r0, r11
    4f30:	e58d5000 	str	r5, [sp]
    4f34:	e3a02001 	mov	r2, #1
    4f38:	eb000899 	bl	71a4 <_fread_r>
    4f3c:	e59dc014 	ldr	r12, [sp, #20]
    4f40:	e3500000 	cmp	r0, #0
    4f44:	e28c3004 	add	r3, r12, #4
    4f48:	0afffd64 	beq	44e0 <__svfscanf_r+0x80c>
    4f4c:	e59dc024 	ldr	r12, [sp, #36]	; 0x24
    4f50:	e1a07006 	mov	r7, r6
    4f54:	e28cc001 	add	r12, r12, #1
    4f58:	e080a00a 	add	r10, r0, r10
    4f5c:	e58dc024 	str	r12, [sp, #36]	; 0x24
    4f60:	e58d3014 	str	r3, [sp, #20]
    4f64:	e1a02007 	mov	r2, r7
    4f68:	eafffb6b 	b	3d1c <__svfscanf_r+0x48>
    4f6c:	e1a0000b 	mov	r0, r11
    4f70:	e1a01005 	mov	r1, r5
    4f74:	eb001113 	bl	93c8 <__srefill_r>
    4f78:	e3500000 	cmp	r0, #0
    4f7c:	0afffd69 	beq	4528 <__svfscanf_r+0x854>
    4f80:	eafffd56 	b	44e0 <__svfscanf_r+0x80c>
    4f84:	e5571001 	ldrb	r1, [r7, #-1]
    4f88:	e1a0000b 	mov	r0, r11
    4f8c:	e1a02005 	mov	r2, r5
    4f90:	eb0022b5 	bl	da6c <_ungetc_r>
    4f94:	e2477001 	sub	r7, r7, #1
    4f98:	eafffd12 	b	43e8 <__svfscanf_r+0x714>
    4f9c:	e1a0000b 	mov	r0, r11
    4fa0:	e1a02005 	mov	r2, r5
    4fa4:	e58d3008 	str	r3, [sp, #8]
    4fa8:	eb0022af 	bl	da6c <_ungetc_r>
    4fac:	e59d3008 	ldr	r3, [sp, #8]
    4fb0:	e24aa002 	sub	r10, r10, #2
    4fb4:	e5531002 	ldrb	r1, [r3, #-2]
    4fb8:	e2433002 	sub	r3, r3, #2
    4fbc:	eafffe12 	b	480c <__svfscanf_r+0xb38>
    4fc0:	e59dc01c 	ldr	r12, [sp, #28]
    4fc4:	e59d0034 	ldr	r0, [sp, #52]	; 0x34
    4fc8:	e060200c 	rsb	r2, r0, r12
    4fcc:	e3520000 	cmp	r2, #0
    4fd0:	e2622000 	rsb	r2, r2, #0
    4fd4:	1affffbe 	bne	4ed4 <__svfscanf_r+0x1200>
    4fd8:	eafffe19 	b	4844 <__svfscanf_r+0xb70>
    4fdc:	e3190001 	tst	r9, #1
    4fe0:	1a00000a 	bne	5010 <__svfscanf_r+0x133c>
    4fe4:	e3190002 	tst	r9, #2
    4fe8:	0a000008 	beq	5010 <__svfscanf_r+0x133c>
    4fec:	e59dc014 	ldr	r12, [sp, #20]
    4ff0:	e59c1000 	ldr	r1, [r12]
    4ff4:	e1a0200a 	mov	r2, r10
    4ff8:	e1a03fca 	asr	r3, r10, #31
    4ffc:	e28cc004 	add	r12, r12, #4
    5000:	e1a07006 	mov	r7, r6
    5004:	e58dc014 	str	r12, [sp, #20]
    5008:	e881000c 	stm	r1, {r2, r3}
    500c:	eafffb62 	b	3d9c <__svfscanf_r+0xc8>
    5010:	e59dc014 	ldr	r12, [sp, #20]
    5014:	e59c3000 	ldr	r3, [r12]
    5018:	e28cc004 	add	r12, r12, #4
    501c:	e583a000 	str	r10, [r3]
    5020:	e1a07006 	mov	r7, r6
    5024:	e58dc014 	str	r12, [sp, #20]
    5028:	eafffb5b 	b	3d9c <__svfscanf_r+0xc8>
    502c:	e59d6030 	ldr	r6, [sp, #48]	; 0x30
    5030:	e59db018 	ldr	r11, [sp, #24]
    5034:	e59dc02c 	ldr	r12, [sp, #44]	; 0x2c
    5038:	e35c0000 	cmp	r12, #0
    503c:	0affff6e 	beq	4dfc <__svfscanf_r+0x1128>
    5040:	eaffff70 	b	4e08 <__svfscanf_r+0x1134>
    5044:	e2192001 	ands	r2, r9, #1
    5048:	1afffefa 	bne	4c38 <__svfscanf_r+0xf64>
    504c:	e3190002 	tst	r9, #2
    5050:	0a00004c 	beq	5188 <__svfscanf_r+0x14b4>
    5054:	e51f03a4 	ldr	r0, [pc, #-932]	; 4cb8 <__svfscanf_r+0xfe4>
    5058:	e59dc020 	ldr	r12, [sp, #32]
    505c:	e15c0000 	cmp	r12, r0
    5060:	e59d1018 	ldr	r1, [sp, #24]
    5064:	e1a0000b 	mov	r0, r11
    5068:	e59d3028 	ldr	r3, [sp, #40]	; 0x28
    506c:	0a00007a 	beq	525c <__svfscanf_r+0x1588>
    5070:	eb0018bb 	bl	b364 <_strtoll_r>
    5074:	e59dc014 	ldr	r12, [sp, #20]
    5078:	e59c3000 	ldr	r3, [r12]
    507c:	e28cc004 	add	r12, r12, #4
    5080:	e58dc014 	str	r12, [sp, #20]
    5084:	e8830003 	stm	r3, {r0, r1}
    5088:	eafffeef 	b	4c4c <__svfscanf_r+0xf78>
    508c:	e58d3008 	str	r3, [sp, #8]
    5090:	eb000a32 	bl	7960 <__locale_mb_cur_max>
    5094:	e59d3008 	ldr	r3, [sp, #8]
    5098:	e1500003 	cmp	r0, r3
    509c:	0afffd0f 	beq	44e0 <__svfscanf_r+0x80c>
    50a0:	e5951000 	ldr	r1, [r5]
    50a4:	e4d12001 	ldrb	r2, [r1], #1
    50a8:	e5950004 	ldr	r0, [r5, #4]
    50ac:	e59dc01c 	ldr	r12, [sp, #28]
    50b0:	e5851000 	str	r1, [r5]
    50b4:	e28d1e2b 	add	r1, sp, #688	; 0x2b0
    50b8:	e58dc000 	str	r12, [sp]
    50bc:	e2400001 	sub	r0, r0, #1
    50c0:	e081c003 	add	r12, r1, r3
    50c4:	e2837001 	add	r7, r3, #1
    50c8:	e5850004 	str	r0, [r5, #4]
    50cc:	e54c2160 	strb	r2, [r12, #-352]	; 0xfffffea0
    50d0:	e1a03007 	mov	r3, r7
    50d4:	e1a0000b 	mov	r0, r11
    50d8:	e1a01009 	mov	r1, r9
    50dc:	e28d2e15 	add	r2, sp, #336	; 0x150
    50e0:	eb000aa1 	bl	7b6c <_mbrtowc_r>
    50e4:	e3700001 	cmn	r0, #1
    50e8:	0afffcfc 	beq	44e0 <__svfscanf_r+0x80c>
    50ec:	e3500000 	cmp	r0, #0
    50f0:	05890000 	streq	r0, [r9]
    50f4:	1a000012 	bne	5144 <__svfscanf_r+0x1470>
    50f8:	eb0009f0 	bl	78c0 <iswspace>
    50fc:	e3500000 	cmp	r0, #0
    5100:	0a000016 	beq	5160 <__svfscanf_r+0x148c>
    5104:	e3570000 	cmp	r7, #0
    5108:	0affff37 	beq	4dec <__svfscanf_r+0x1118>
    510c:	e28d2e15 	add	r2, sp, #336	; 0x150
    5110:	e0824007 	add	r4, r2, r7
    5114:	e2477001 	sub	r7, r7, #1
    5118:	e1a0000b 	mov	r0, r11
    511c:	e5741001 	ldrb	r1, [r4, #-1]!
    5120:	e1a02005 	mov	r2, r5
    5124:	eb002250 	bl	da6c <_ungetc_r>
    5128:	e3570000 	cmp	r7, #0
    512c:	1afffff8 	bne	5114 <__svfscanf_r+0x1440>
    5130:	eaffff2d 	b	4dec <__svfscanf_r+0x1118>
    5134:	eb00116b 	bl	96e8 <nanf>
    5138:	e58d7014 	str	r7, [sp, #20]
    513c:	e5840000 	str	r0, [r4]
    5140:	eafffdcc 	b	4878 <__svfscanf_r+0xba4>
    5144:	e3700002 	cmn	r0, #2
    5148:	1a00000c 	bne	5180 <__svfscanf_r+0x14ac>
    514c:	e5953004 	ldr	r3, [r5, #4]
    5150:	e3530000 	cmp	r3, #0
    5154:	da000038 	ble	523c <__svfscanf_r+0x1568>
    5158:	e1a03007 	mov	r3, r7
    515c:	eaffff19 	b	4dc8 <__svfscanf_r+0x10f4>
    5160:	e59dc018 	ldr	r12, [sp, #24]
    5164:	e35c0000 	cmp	r12, #0
    5168:	e08aa007 	add	r10, r10, r7
    516c:	e2444001 	sub	r4, r4, #1
    5170:	02899004 	addeq	r9, r9, #4
    5174:	01a0700c 	moveq	r7, r12
    5178:	11a07000 	movne	r7, r0
    517c:	eafffff2 	b	514c <__svfscanf_r+0x1478>
    5180:	e5990000 	ldr	r0, [r9]
    5184:	eaffffdb 	b	50f8 <__svfscanf_r+0x1424>
    5188:	e59dc014 	ldr	r12, [sp, #20]
    518c:	e59c3000 	ldr	r3, [r12]
    5190:	e28cc004 	add	r12, r12, #4
    5194:	e5830000 	str	r0, [r3]
    5198:	e58dc014 	str	r12, [sp, #20]
    519c:	eafffeaa 	b	4c4c <__svfscanf_r+0xf78>
    51a0:	e59d9018 	ldr	r9, [sp, #24]
    51a4:	e1530009 	cmp	r3, r9
    51a8:	9afffcd2 	bls	44f8 <__svfscanf_r+0x824>
    51ac:	e1a04003 	mov	r4, r3
    51b0:	e5741001 	ldrb	r1, [r4, #-1]!
    51b4:	e1a0000b 	mov	r0, r11
    51b8:	e1a02005 	mov	r2, r5
    51bc:	eb00222a 	bl	da6c <_ungetc_r>
    51c0:	e1540009 	cmp	r4, r9
    51c4:	1afffff9 	bne	51b0 <__svfscanf_r+0x14dc>
    51c8:	eafffcca 	b	44f8 <__svfscanf_r+0x824>
    51cc:	e59d9018 	ldr	r9, [sp, #24]
    51d0:	e1530009 	cmp	r3, r9
    51d4:	81a04003 	movhi	r4, r3
    51d8:	9afffcc6 	bls	44f8 <__svfscanf_r+0x824>
    51dc:	e5741001 	ldrb	r1, [r4, #-1]!
    51e0:	e1a0000b 	mov	r0, r11
    51e4:	e1a02005 	mov	r2, r5
    51e8:	eb00221f 	bl	da6c <_ungetc_r>
    51ec:	e1540009 	cmp	r4, r9
    51f0:	1afffff9 	bne	51dc <__svfscanf_r+0x1508>
    51f4:	eafffcbf 	b	44f8 <__svfscanf_r+0x824>
    51f8:	e59d9018 	ldr	r9, [sp, #24]
    51fc:	e1530009 	cmp	r3, r9
    5200:	9afffcbc 	bls	44f8 <__svfscanf_r+0x824>
    5204:	e1a04003 	mov	r4, r3
    5208:	e5741001 	ldrb	r1, [r4, #-1]!
    520c:	e1a0000b 	mov	r0, r11
    5210:	e1a02005 	mov	r2, r5
    5214:	eb002214 	bl	da6c <_ungetc_r>
    5218:	e1540009 	cmp	r4, r9
    521c:	1afffff9 	bne	5208 <__svfscanf_r+0x1534>
    5220:	eafffcb4 	b	44f8 <__svfscanf_r+0x824>
    5224:	e58d601c 	str	r6, [sp, #28]
    5228:	e1a0100b 	mov	r1, r11
    522c:	e59d602c 	ldr	r6, [sp, #44]	; 0x2c
    5230:	e1a0b003 	mov	r11, r3
    5234:	e1a03009 	mov	r3, r9
    5238:	eafffd4b 	b	476c <__svfscanf_r+0xa98>
    523c:	e1a0000b 	mov	r0, r11
    5240:	e1a01005 	mov	r1, r5
    5244:	eb00105f 	bl	93c8 <__srefill_r>
    5248:	e3500000 	cmp	r0, #0
    524c:	0affffc1 	beq	5158 <__svfscanf_r+0x1484>
    5250:	e3570000 	cmp	r7, #0
    5254:	1afffca1 	bne	44e0 <__svfscanf_r+0x80c>
    5258:	eafffee3 	b	4dec <__svfscanf_r+0x1118>
    525c:	eb00196f 	bl	b820 <_strtoull_r>
    5260:	eaffff83 	b	5074 <__svfscanf_r+0x13a0>

00005264 <vfscanf>:
    5264:	e59f3040 	ldr	r3, [pc, #64]	; 52ac <vfscanf+0x48>
    5268:	e92d41f0 	push	{r4, r5, r6, r7, r8, lr}
    526c:	e5934000 	ldr	r4, [r3]
    5270:	e3540000 	cmp	r4, #0
    5274:	e1a07000 	mov	r7, r0
    5278:	e1a06001 	mov	r6, r1
    527c:	e1a05002 	mov	r5, r2
    5280:	0a000003 	beq	5294 <vfscanf+0x30>
    5284:	e5943038 	ldr	r3, [r4, #56]	; 0x38
    5288:	e3530000 	cmp	r3, #0
    528c:	01a00004 	moveq	r0, r4
    5290:	0bffed9b 	bleq	904 <__sinit>
    5294:	e1a00004 	mov	r0, r4
    5298:	e1a01007 	mov	r1, r7
    529c:	e1a02006 	mov	r2, r6
    52a0:	e1a03005 	mov	r3, r5
    52a4:	e8bd41f0 	pop	{r4, r5, r6, r7, r8, lr}
    52a8:	eafffa89 	b	3cd4 <__svfscanf_r>
    52ac:	00013aa8 	.word	0x00013aa8

000052b0 <__svfscanf>:
    52b0:	e59fc01c 	ldr	r12, [pc, #28]	; 52d4 <__svfscanf+0x24>
    52b4:	e52d4004 	push	{r4}		; (str r4, [sp, #-4]!)
    52b8:	e1a04001 	mov	r4, r1
    52bc:	e1a03002 	mov	r3, r2
    52c0:	e1a01000 	mov	r1, r0
    52c4:	e1a02004 	mov	r2, r4
    52c8:	e59c0000 	ldr	r0, [r12]
    52cc:	e49d4004 	pop	{r4}		; (ldr r4, [sp], #4)
    52d0:	eafffa7f 	b	3cd4 <__svfscanf_r>
    52d4:	00013aa8 	.word	0x00013aa8

000052d8 <_vfscanf_r>:
    52d8:	e92d4010 	push	{r4, lr}
    52dc:	e2504000 	subs	r4, r0, #0
    52e0:	e24dd010 	sub	sp, sp, #16
    52e4:	0a000009 	beq	5310 <_vfscanf_r+0x38>
    52e8:	e594c038 	ldr	r12, [r4, #56]	; 0x38
    52ec:	e35c0000 	cmp	r12, #0
    52f0:	1a000006 	bne	5310 <_vfscanf_r+0x38>
    52f4:	e58d100c 	str	r1, [sp, #12]
    52f8:	e58d2008 	str	r2, [sp, #8]
    52fc:	e58d3004 	str	r3, [sp, #4]
    5300:	ebffed7f 	bl	904 <__sinit>
    5304:	e59d3004 	ldr	r3, [sp, #4]
    5308:	e59d2008 	ldr	r2, [sp, #8]
    530c:	e59d100c 	ldr	r1, [sp, #12]
    5310:	e1a00004 	mov	r0, r4
    5314:	e28dd010 	add	sp, sp, #16
    5318:	e8bd4010 	pop	{r4, lr}
    531c:	eafffa6c 	b	3cd4 <__svfscanf_r>

00005320 <_write_r>:
    5320:	e92d4038 	push	{r3, r4, r5, lr}
    5324:	e59f4034 	ldr	r4, [pc, #52]	; 5360 <_write_r+0x40>
    5328:	e3a0c000 	mov	r12, #0
    532c:	e1a05000 	mov	r5, r0
    5330:	e1a00001 	mov	r0, r1
    5334:	e1a01002 	mov	r1, r2
    5338:	e1a02003 	mov	r2, r3
    533c:	e584c000 	str	r12, [r4]
    5340:	eb0036ff 	bl	12f44 <_write>
    5344:	e3700001 	cmn	r0, #1
    5348:	1a000002 	bne	5358 <_write_r+0x38>
    534c:	e5943000 	ldr	r3, [r4]
    5350:	e3530000 	cmp	r3, #0
    5354:	15853000 	strne	r3, [r5]
    5358:	e8bd4038 	pop	{r3, r4, r5, lr}
    535c:	e12fff1e 	bx	lr
    5360:	000143d4 	.word	0x000143d4

00005364 <__swsetup_r>:
    5364:	e92d4038 	push	{r3, r4, r5, lr}
    5368:	e59f314c 	ldr	r3, [pc, #332]	; 54bc <__swsetup_r+0x158>
    536c:	e5933000 	ldr	r3, [r3]
    5370:	e3530000 	cmp	r3, #0
    5374:	e1a05000 	mov	r5, r0
    5378:	e1a04001 	mov	r4, r1
    537c:	0a000002 	beq	538c <__swsetup_r+0x28>
    5380:	e5932038 	ldr	r2, [r3, #56]	; 0x38
    5384:	e3520000 	cmp	r2, #0
    5388:	0a000032 	beq	5458 <__swsetup_r+0xf4>
    538c:	e1d4c0bc 	ldrh	r12, [r4, #12]
    5390:	e31c0008 	tst	r12, #8
    5394:	e1a0300c 	mov	r3, r12
    5398:	0a00000c 	beq	53d0 <__swsetup_r+0x6c>
    539c:	e5942010 	ldr	r2, [r4, #16]
    53a0:	e3520000 	cmp	r2, #0
    53a4:	0a000012 	beq	53f4 <__swsetup_r+0x90>
    53a8:	e2131001 	ands	r1, r3, #1
    53ac:	1a000019 	bne	5418 <__swsetup_r+0xb4>
    53b0:	e3130002 	tst	r3, #2
    53b4:	05941014 	ldreq	r1, [r4, #20]
    53b8:	e3520000 	cmp	r2, #0
    53bc:	e5841008 	str	r1, [r4, #8]
    53c0:	13a00000 	movne	r0, #0
    53c4:	0a00001b 	beq	5438 <__swsetup_r+0xd4>
    53c8:	e8bd4038 	pop	{r3, r4, r5, lr}
    53cc:	e12fff1e 	bx	lr
    53d0:	e31c0010 	tst	r12, #16
    53d4:	0a000032 	beq	54a4 <__swsetup_r+0x140>
    53d8:	e31c0004 	tst	r12, #4
    53dc:	1a000020 	bne	5464 <__swsetup_r+0x100>
    53e0:	e5942010 	ldr	r2, [r4, #16]
    53e4:	e38c3008 	orr	r3, r12, #8
    53e8:	e3520000 	cmp	r2, #0
    53ec:	e1c430bc 	strh	r3, [r4, #12]
    53f0:	1affffec 	bne	53a8 <__swsetup_r+0x44>
    53f4:	e2031d0a 	and	r1, r3, #640	; 0x280
    53f8:	e3510c02 	cmp	r1, #512	; 0x200
    53fc:	0affffe9 	beq	53a8 <__swsetup_r+0x44>
    5400:	e1a00005 	mov	r0, r5
    5404:	e1a01004 	mov	r1, r4
    5408:	eb00097a 	bl	79f8 <__smakebuf_r>
    540c:	e1d430bc 	ldrh	r3, [r4, #12]
    5410:	e5942010 	ldr	r2, [r4, #16]
    5414:	eaffffe3 	b	53a8 <__swsetup_r+0x44>
    5418:	e5941014 	ldr	r1, [r4, #20]
    541c:	e3a03000 	mov	r3, #0
    5420:	e2611000 	rsb	r1, r1, #0
    5424:	e3520000 	cmp	r2, #0
    5428:	e5841018 	str	r1, [r4, #24]
    542c:	e5843008 	str	r3, [r4, #8]
    5430:	13a00000 	movne	r0, #0
    5434:	1affffe3 	bne	53c8 <__swsetup_r+0x64>
    5438:	e1d430bc 	ldrh	r3, [r4, #12]
    543c:	e3130080 	tst	r3, #128	; 0x80
    5440:	13833040 	orrne	r3, r3, #64	; 0x40
    5444:	11c430bc 	strhne	r3, [r4, #12]
    5448:	13e00000 	mvnne	r0, #0
    544c:	01a00002 	moveq	r0, r2
    5450:	e8bd4038 	pop	{r3, r4, r5, lr}
    5454:	e12fff1e 	bx	lr
    5458:	e1a00003 	mov	r0, r3
    545c:	ebffed28 	bl	904 <__sinit>
    5460:	eaffffc9 	b	538c <__swsetup_r+0x28>
    5464:	e5941030 	ldr	r1, [r4, #48]	; 0x30
    5468:	e3510000 	cmp	r1, #0
    546c:	0a000007 	beq	5490 <__swsetup_r+0x12c>
    5470:	e2843040 	add	r3, r4, #64	; 0x40
    5474:	e1510003 	cmp	r1, r3
    5478:	0a000002 	beq	5488 <__swsetup_r+0x124>
    547c:	e1a00005 	mov	r0, r5
    5480:	ebffee0d 	bl	cbc <_free_r>
    5484:	e1d4c0bc 	ldrh	r12, [r4, #12]
    5488:	e3a03000 	mov	r3, #0
    548c:	e5843030 	str	r3, [r4, #48]	; 0x30
    5490:	e5942010 	ldr	r2, [r4, #16]
    5494:	e3a03000 	mov	r3, #0
    5498:	e3ccc024 	bic	r12, r12, #36	; 0x24
    549c:	e884000c 	stm	r4, {r2, r3}
    54a0:	eaffffcf 	b	53e4 <__swsetup_r+0x80>
    54a4:	e38cc040 	orr	r12, r12, #64	; 0x40
    54a8:	e3a03009 	mov	r3, #9
    54ac:	e5853000 	str	r3, [r5]
    54b0:	e3e00000 	mvn	r0, #0
    54b4:	e1c4c0bc 	strh	r12, [r4, #12]
    54b8:	eaffffc2 	b	53c8 <__swsetup_r+0x64>
    54bc:	00013aa8 	.word	0x00013aa8

000054c0 <__register_exitproc>:
    54c0:	e59fc0e0 	ldr	r12, [pc, #224]	; 55a8 <__register_exitproc+0xe8>
    54c4:	e92d4070 	push	{r4, r5, r6, lr}
    54c8:	e59c5000 	ldr	r5, [r12]
    54cc:	e595c148 	ldr	r12, [r5, #328]	; 0x148
    54d0:	e35c0000 	cmp	r12, #0
    54d4:	0285cf53 	addeq	r12, r5, #332	; 0x14c
    54d8:	e59c4004 	ldr	r4, [r12, #4]
    54dc:	0585c148 	streq	r12, [r5, #328]	; 0x148
    54e0:	e354001f 	cmp	r4, #31
    54e4:	e24dd010 	sub	sp, sp, #16
    54e8:	e1a06000 	mov	r6, r0
    54ec:	da000016 	ble	554c <__register_exitproc+0x8c>
    54f0:	e59f00b4 	ldr	r0, [pc, #180]	; 55ac <__register_exitproc+0xec>
    54f4:	e3500000 	cmp	r0, #0
    54f8:	1a000003 	bne	550c <__register_exitproc+0x4c>
    54fc:	e3e00000 	mvn	r0, #0
    5500:	e28dd010 	add	sp, sp, #16
    5504:	e8bd4070 	pop	{r4, r5, r6, lr}
    5508:	e12fff1e 	bx	lr
    550c:	e3a00e19 	mov	r0, #400	; 0x190
    5510:	e58d100c 	str	r1, [sp, #12]
    5514:	e58d2008 	str	r2, [sp, #8]
    5518:	e58d3004 	str	r3, [sp, #4]
    551c:	e320f000 	nop	{0}
    5520:	e250c000 	subs	r12, r0, #0
    5524:	e59d100c 	ldr	r1, [sp, #12]
    5528:	e59d2008 	ldr	r2, [sp, #8]
    552c:	e59d3004 	ldr	r3, [sp, #4]
    5530:	0afffff1 	beq	54fc <__register_exitproc+0x3c>
    5534:	e5950148 	ldr	r0, [r5, #328]	; 0x148
    5538:	e3a04000 	mov	r4, #0
    553c:	e88c0011 	stm	r12, {r0, r4}
    5540:	e585c148 	str	r12, [r5, #328]	; 0x148
    5544:	e58c4188 	str	r4, [r12, #392]	; 0x188
    5548:	e58c418c 	str	r4, [r12, #396]	; 0x18c
    554c:	e3560000 	cmp	r6, #0
    5550:	1a000007 	bne	5574 <__register_exitproc+0xb4>
    5554:	e2843001 	add	r3, r4, #1
    5558:	e3a00000 	mov	r0, #0
    555c:	e2844002 	add	r4, r4, #2
    5560:	e58c3004 	str	r3, [r12, #4]
    5564:	e78c1104 	str	r1, [r12, r4, lsl #2]
    5568:	e28dd010 	add	sp, sp, #16
    556c:	e8bd4070 	pop	{r4, r5, r6, lr}
    5570:	e12fff1e 	bx	lr
    5574:	e3a05001 	mov	r5, #1
    5578:	e1a05415 	lsl	r5, r5, r4
    557c:	e08c0104 	add	r0, r12, r4, lsl #2
    5580:	e5802088 	str	r2, [r0, #136]	; 0x88
    5584:	e59c2188 	ldr	r2, [r12, #392]	; 0x188
    5588:	e1822005 	orr	r2, r2, r5
    558c:	e58c2188 	str	r2, [r12, #392]	; 0x188
    5590:	e5803108 	str	r3, [r0, #264]	; 0x108
    5594:	e3560002 	cmp	r6, #2
    5598:	059c318c 	ldreq	r3, [r12, #396]	; 0x18c
    559c:	01835005 	orreq	r5, r3, r5
    55a0:	058c518c 	streq	r5, [r12, #396]	; 0x18c
    55a4:	eaffffea 	b	5554 <__register_exitproc+0x94>
    55a8:	000135a4 	.word	0x000135a4
    55ac:	00000000 	.word	0x00000000

000055b0 <__call_exitprocs>:
    55b0:	e92d4ff0 	push	{r4, r5, r6, r7, r8, r9, r10, r11, lr}
    55b4:	e59f315c 	ldr	r3, [pc, #348]	; 5718 <__call_exitprocs+0x168>
    55b8:	e5933000 	ldr	r3, [r3]
    55bc:	e24dd014 	sub	sp, sp, #20
    55c0:	e2832f52 	add	r2, r3, #328	; 0x148
    55c4:	e58d3004 	str	r3, [sp, #4]
    55c8:	e58d0008 	str	r0, [sp, #8]
    55cc:	e58d200c 	str	r2, [sp, #12]
    55d0:	e1a07001 	mov	r7, r1
    55d4:	e3a09001 	mov	r9, #1
    55d8:	e59d3004 	ldr	r3, [sp, #4]
    55dc:	e5938148 	ldr	r8, [r3, #328]	; 0x148
    55e0:	e3580000 	cmp	r8, #0
    55e4:	0a000038 	beq	56cc <__call_exitprocs+0x11c>
    55e8:	e59db00c 	ldr	r11, [sp, #12]
    55ec:	e5986004 	ldr	r6, [r8, #4]
    55f0:	e2564001 	subs	r4, r6, #1
    55f4:	50885106 	addpl	r5, r8, r6, lsl #2
    55f8:	52866002 	addpl	r6, r6, #2
    55fc:	52855f42 	addpl	r5, r5, #264	; 0x108
    5600:	50886106 	addpl	r6, r8, r6, lsl #2
    5604:	5a000008 	bpl	562c <__call_exitprocs+0x7c>
    5608:	ea00002c 	b	56c0 <__call_exitprocs+0x110>
    560c:	e5153004 	ldr	r3, [r5, #-4]
    5610:	e1530007 	cmp	r3, r7
    5614:	0a000006 	beq	5634 <__call_exitprocs+0x84>
    5618:	e2444001 	sub	r4, r4, #1
    561c:	e3740001 	cmn	r4, #1
    5620:	e2455004 	sub	r5, r5, #4
    5624:	e2466004 	sub	r6, r6, #4
    5628:	0a000024 	beq	56c0 <__call_exitprocs+0x110>
    562c:	e3570000 	cmp	r7, #0
    5630:	1afffff5 	bne	560c <__call_exitprocs+0x5c>
    5634:	e5983004 	ldr	r3, [r8, #4]
    5638:	e2433001 	sub	r3, r3, #1
    563c:	e1530004 	cmp	r3, r4
    5640:	e5163004 	ldr	r3, [r6, #-4]
    5644:	13a02000 	movne	r2, #0
    5648:	05884004 	streq	r4, [r8, #4]
    564c:	15062004 	strne	r2, [r6, #-4]
    5650:	e3530000 	cmp	r3, #0
    5654:	0affffef 	beq	5618 <__call_exitprocs+0x68>
    5658:	e1a02419 	lsl	r2, r9, r4
    565c:	e5981188 	ldr	r1, [r8, #392]	; 0x188
    5660:	e1120001 	tst	r2, r1
    5664:	e598a004 	ldr	r10, [r8, #4]
    5668:	0a00000d 	beq	56a4 <__call_exitprocs+0xf4>
    566c:	e598118c 	ldr	r1, [r8, #396]	; 0x18c
    5670:	e1120001 	tst	r2, r1
    5674:	1a00000d 	bne	56b0 <__call_exitprocs+0x100>
    5678:	e59d0008 	ldr	r0, [sp, #8]
    567c:	e5151084 	ldr	r1, [r5, #-132]	; 0xffffff7c
    5680:	e1a0e00f 	mov	lr, pc
    5684:	e12fff13 	bx	r3
    5688:	e5983004 	ldr	r3, [r8, #4]
    568c:	e153000a 	cmp	r3, r10
    5690:	1affffd0 	bne	55d8 <__call_exitprocs+0x28>
    5694:	e59b3000 	ldr	r3, [r11]
    5698:	e1530008 	cmp	r3, r8
    569c:	0affffdd 	beq	5618 <__call_exitprocs+0x68>
    56a0:	eaffffcc 	b	55d8 <__call_exitprocs+0x28>
    56a4:	e1a0e00f 	mov	lr, pc
    56a8:	e12fff13 	bx	r3
    56ac:	eafffff5 	b	5688 <__call_exitprocs+0xd8>
    56b0:	e5150084 	ldr	r0, [r5, #-132]	; 0xffffff7c
    56b4:	e1a0e00f 	mov	lr, pc
    56b8:	e12fff13 	bx	r3
    56bc:	eafffff1 	b	5688 <__call_exitprocs+0xd8>
    56c0:	e59f2054 	ldr	r2, [pc, #84]	; 571c <__call_exitprocs+0x16c>
    56c4:	e3520000 	cmp	r2, #0
    56c8:	1a000002 	bne	56d8 <__call_exitprocs+0x128>
    56cc:	e28dd014 	add	sp, sp, #20
    56d0:	e8bd4ff0 	pop	{r4, r5, r6, r7, r8, r9, r10, r11, lr}
    56d4:	e12fff1e 	bx	lr
    56d8:	e5983004 	ldr	r3, [r8, #4]
    56dc:	e3530000 	cmp	r3, #0
    56e0:	e5983000 	ldr	r3, [r8]
    56e4:	1a000008 	bne	570c <__call_exitprocs+0x15c>
    56e8:	e3530000 	cmp	r3, #0
    56ec:	0a000006 	beq	570c <__call_exitprocs+0x15c>
    56f0:	e1a00008 	mov	r0, r8
    56f4:	e58b3000 	str	r3, [r11]
    56f8:	e320f000 	nop	{0}
    56fc:	e59b8000 	ldr	r8, [r11]
    5700:	e3580000 	cmp	r8, #0
    5704:	1affffb8 	bne	55ec <__call_exitprocs+0x3c>
    5708:	eaffffef 	b	56cc <__call_exitprocs+0x11c>
    570c:	e1a0b008 	mov	r11, r8
    5710:	e1a08003 	mov	r8, r3
    5714:	eafffff9 	b	5700 <__call_exitprocs+0x150>
    5718:	000135a4 	.word	0x000135a4
    571c:	00000000 	.word	0x00000000

00005720 <register_fini>:
    5720:	e92d4008 	push	{r3, lr}
    5724:	e59f3010 	ldr	r3, [pc, #16]	; 573c <register_fini+0x1c>
    5728:	e3530000 	cmp	r3, #0
    572c:	159f000c 	ldrne	r0, [pc, #12]	; 5740 <register_fini+0x20>
    5730:	1bffeb82 	blne	540 <atexit>
    5734:	e8bd4008 	pop	{r3, lr}
    5738:	e12fff1e 	bx	lr
    573c:	00013a70 	.word	0x00013a70
    5740:	0000715c 	.word	0x0000715c

00005744 <_close_r>:
    5744:	e92d4038 	push	{r3, r4, r5, lr}
    5748:	e59f402c 	ldr	r4, [pc, #44]	; 577c <_close_r+0x38>
    574c:	e3a03000 	mov	r3, #0
    5750:	e1a05000 	mov	r5, r0
    5754:	e1a00001 	mov	r0, r1
    5758:	e5843000 	str	r3, [r4]
    575c:	eb00356c 	bl	12d14 <_close>
    5760:	e3700001 	cmn	r0, #1
    5764:	1a000002 	bne	5774 <_close_r+0x30>
    5768:	e5943000 	ldr	r3, [r4]
    576c:	e3530000 	cmp	r3, #0
    5770:	15853000 	strne	r3, [r5]
    5774:	e8bd4038 	pop	{r3, r4, r5, lr}
    5778:	e12fff1e 	bx	lr
    577c:	000143d4 	.word	0x000143d4

00005780 <quorem>:
    5780:	e92d4ff0 	push	{r4, r5, r6, r7, r8, r9, r10, r11, lr}
    5784:	e5903010 	ldr	r3, [r0, #16]
    5788:	e5915010 	ldr	r5, [r1, #16]
    578c:	e1550003 	cmp	r5, r3
    5790:	e1a09000 	mov	r9, r0
    5794:	e24dd00c 	sub	sp, sp, #12
    5798:	e1a0a001 	mov	r10, r1
    579c:	c3a00000 	movgt	r0, #0
    57a0:	ca00006b 	bgt	5954 <quorem+0x1d4>
    57a4:	e2455001 	sub	r5, r5, #1
    57a8:	e2814014 	add	r4, r1, #20
    57ac:	e7941105 	ldr	r1, [r4, r5, lsl #2]
    57b0:	e2898014 	add	r8, r9, #20
    57b4:	e2811001 	add	r1, r1, #1
    57b8:	e7980105 	ldr	r0, [r8, r5, lsl #2]
    57bc:	eb002f51 	bl	11508 <__aeabi_uidiv>
    57c0:	e1a02105 	lsl	r2, r5, #2
    57c4:	e0883002 	add	r3, r8, r2
    57c8:	e2507000 	subs	r7, r0, #0
    57cc:	e58d2000 	str	r2, [sp]
    57d0:	e0846002 	add	r6, r4, r2
    57d4:	e58d3004 	str	r3, [sp, #4]
    57d8:	0a000030 	beq	58a0 <quorem+0x120>
    57dc:	e3a0c000 	mov	r12, #0
    57e0:	e1a0000c 	mov	r0, r12
    57e4:	e1a02004 	mov	r2, r4
    57e8:	e1a03008 	mov	r3, r8
    57ec:	e492e004 	ldr	lr, [r2], #4
    57f0:	e1a0b80e 	lsl	r11, lr, #16
    57f4:	e1a0182e 	lsr	r1, lr, #16
    57f8:	e1a0b82b 	lsr	r11, r11, #16
    57fc:	e02bcb97 	mla	r11, r7, r11, r12
    5800:	e0010197 	mul	r1, r7, r1
    5804:	e593e000 	ldr	lr, [r3]
    5808:	e081182b 	add	r1, r1, r11, lsr #16
    580c:	e1a0b80b 	lsl	r11, r11, #16
    5810:	e040082b 	sub	r0, r0, r11, lsr #16
    5814:	e1a0c80e 	lsl	r12, lr, #16
    5818:	e1a0b801 	lsl	r11, r1, #16
    581c:	e080c82c 	add	r12, r0, r12, lsr #16
    5820:	e1a0082b 	lsr	r0, r11, #16
    5824:	e060082e 	rsb	r0, r0, lr, lsr #16
    5828:	e1a0b80c 	lsl	r11, r12, #16
    582c:	e080084c 	add	r0, r0, r12, asr #16
    5830:	e1a0c82b 	lsr	r12, r11, #16
    5834:	e18cc800 	orr	r12, r12, r0, lsl #16
    5838:	e1560002 	cmp	r6, r2
    583c:	e483c004 	str	r12, [r3], #4
    5840:	e1a00840 	asr	r0, r0, #16
    5844:	e1a0c821 	lsr	r12, r1, #16
    5848:	2affffe7 	bcs	57ec <quorem+0x6c>
    584c:	e59d2000 	ldr	r2, [sp]
    5850:	e7983002 	ldr	r3, [r8, r2]
    5854:	e3530000 	cmp	r3, #0
    5858:	1a000010 	bne	58a0 <quorem+0x120>
    585c:	e59d2004 	ldr	r2, [sp, #4]
    5860:	e2423004 	sub	r3, r2, #4
    5864:	e1580003 	cmp	r8, r3
    5868:	2a00000b 	bcs	589c <quorem+0x11c>
    586c:	e5123004 	ldr	r3, [r2, #-4]
    5870:	e3530000 	cmp	r3, #0
    5874:	1a000008 	bne	589c <quorem+0x11c>
    5878:	e2423008 	sub	r3, r2, #8
    587c:	ea000003 	b	5890 <quorem+0x110>
    5880:	e5932000 	ldr	r2, [r3]
    5884:	e3520000 	cmp	r2, #0
    5888:	e2433004 	sub	r3, r3, #4
    588c:	1a000002 	bne	589c <quorem+0x11c>
    5890:	e1580003 	cmp	r8, r3
    5894:	e2455001 	sub	r5, r5, #1
    5898:	3afffff8 	bcc	5880 <quorem+0x100>
    589c:	e5895010 	str	r5, [r9, #16]
    58a0:	e1a0100a 	mov	r1, r10
    58a4:	e1a00009 	mov	r0, r9
    58a8:	eb000b95 	bl	8704 <__mcmp>
    58ac:	e3500000 	cmp	r0, #0
    58b0:	ba000026 	blt	5950 <quorem+0x1d0>
    58b4:	e2877001 	add	r7, r7, #1
    58b8:	e1a03008 	mov	r3, r8
    58bc:	e3a02000 	mov	r2, #0
    58c0:	e494c004 	ldr	r12, [r4], #4
    58c4:	e5930000 	ldr	r0, [r3]
    58c8:	e1a0180c 	lsl	r1, r12, #16
    58cc:	e0422821 	sub	r2, r2, r1, lsr #16
    58d0:	e1a01800 	lsl	r1, r0, #16
    58d4:	e0821821 	add	r1, r2, r1, lsr #16
    58d8:	e1a0c82c 	lsr	r12, r12, #16
    58dc:	e06c2820 	rsb	r2, r12, r0, lsr #16
    58e0:	e1a0a801 	lsl	r10, r1, #16
    58e4:	e0822841 	add	r2, r2, r1, asr #16
    58e8:	e1a0182a 	lsr	r1, r10, #16
    58ec:	e1811802 	orr	r1, r1, r2, lsl #16
    58f0:	e1560004 	cmp	r6, r4
    58f4:	e4831004 	str	r1, [r3], #4
    58f8:	e1a02842 	asr	r2, r2, #16
    58fc:	2affffef 	bcs	58c0 <quorem+0x140>
    5900:	e7983105 	ldr	r3, [r8, r5, lsl #2]
    5904:	e3530000 	cmp	r3, #0
    5908:	e0883105 	add	r3, r8, r5, lsl #2
    590c:	1a00000f 	bne	5950 <quorem+0x1d0>
    5910:	e2432004 	sub	r2, r3, #4
    5914:	e1580002 	cmp	r8, r2
    5918:	2a00000b 	bcs	594c <quorem+0x1cc>
    591c:	e5132004 	ldr	r2, [r3, #-4]
    5920:	e3520000 	cmp	r2, #0
    5924:	1a000008 	bne	594c <quorem+0x1cc>
    5928:	e2433008 	sub	r3, r3, #8
    592c:	ea000003 	b	5940 <quorem+0x1c0>
    5930:	e5932000 	ldr	r2, [r3]
    5934:	e3520000 	cmp	r2, #0
    5938:	e2433004 	sub	r3, r3, #4
    593c:	1a000002 	bne	594c <quorem+0x1cc>
    5940:	e1580003 	cmp	r8, r3
    5944:	e2455001 	sub	r5, r5, #1
    5948:	3afffff8 	bcc	5930 <quorem+0x1b0>
    594c:	e5895010 	str	r5, [r9, #16]
    5950:	e1a00007 	mov	r0, r7
    5954:	e28dd00c 	add	sp, sp, #12
    5958:	e8bd4ff0 	pop	{r4, r5, r6, r7, r8, r9, r10, r11, lr}
    595c:	e12fff1e 	bx	lr

00005960 <_dtoa_r>:
    5960:	e92d4ff0 	push	{r4, r5, r6, r7, r8, r9, r10, r11, lr}
    5964:	e5901040 	ldr	r1, [r0, #64]	; 0x40
    5968:	e24dd074 	sub	sp, sp, #116	; 0x74
    596c:	e3510000 	cmp	r1, #0
    5970:	e1a04000 	mov	r4, r0
    5974:	e1a0a002 	mov	r10, r2
    5978:	e1a0b003 	mov	r11, r3
    597c:	e59d50a4 	ldr	r5, [sp, #164]	; 0xa4
    5980:	0a000007 	beq	59a4 <_dtoa_r+0x44>
    5984:	e5903044 	ldr	r3, [r0, #68]	; 0x44
    5988:	e3a02001 	mov	r2, #1
    598c:	e1a02312 	lsl	r2, r2, r3
    5990:	e5813004 	str	r3, [r1, #4]
    5994:	e5812008 	str	r2, [r1, #8]
    5998:	eb00099e 	bl	8018 <_Bfree>
    599c:	e3a03000 	mov	r3, #0
    59a0:	e5843040 	str	r3, [r4, #64]	; 0x40
    59a4:	e35b0000 	cmp	r11, #0
    59a8:	b3a03001 	movlt	r3, #1
    59ac:	a3a03000 	movge	r3, #0
    59b0:	b5853000 	strlt	r3, [r5]
    59b4:	a5853000 	strge	r3, [r5]
    59b8:	e59f3508 	ldr	r3, [pc, #1288]	; 5ec8 <_dtoa_r+0x568>
    59bc:	b3cb9102 	biclt	r9, r11, #-2147483648	; 0x80000000
    59c0:	a1a0900b 	movge	r9, r11
    59c4:	e1a02003 	mov	r2, r3
    59c8:	e0093003 	and	r3, r9, r3
    59cc:	b1a0b009 	movlt	r11, r9
    59d0:	e1530002 	cmp	r3, r2
    59d4:	0a000013 	beq	5a28 <_dtoa_r+0xc8>
    59d8:	e1a0000a 	mov	r0, r10
    59dc:	e1a0100b 	mov	r1, r11
    59e0:	e3a02000 	mov	r2, #0
    59e4:	e3a03000 	mov	r3, #0
    59e8:	eb00316d 	bl	11fa4 <__aeabi_dcmpeq>
    59ec:	e2508000 	subs	r8, r0, #0
    59f0:	0a00001e 	beq	5a70 <_dtoa_r+0x110>
    59f4:	e59dc0a8 	ldr	r12, [sp, #168]	; 0xa8
    59f8:	e35c0000 	cmp	r12, #0
    59fc:	e59dc0a0 	ldr	r12, [sp, #160]	; 0xa0
    5a00:	e3a03001 	mov	r3, #1
    5a04:	e58c3000 	str	r3, [r12]
    5a08:	0a00009c 	beq	5c80 <_dtoa_r+0x320>
    5a0c:	e59f04b8 	ldr	r0, [pc, #1208]	; 5ecc <_dtoa_r+0x56c>
    5a10:	e59dc0a8 	ldr	r12, [sp, #168]	; 0xa8
    5a14:	e58c0000 	str	r0, [r12]
    5a18:	e2400001 	sub	r0, r0, #1
    5a1c:	e28dd074 	add	sp, sp, #116	; 0x74
    5a20:	e8bd4ff0 	pop	{r4, r5, r6, r7, r8, r9, r10, r11, lr}
    5a24:	e12fff1e 	bx	lr
    5a28:	e59f34a0 	ldr	r3, [pc, #1184]	; 5ed0 <_dtoa_r+0x570>
    5a2c:	e59dc0a0 	ldr	r12, [sp, #160]	; 0xa0
    5a30:	e35a0000 	cmp	r10, #0
    5a34:	e58c3000 	str	r3, [r12]
    5a38:	0a00007e 	beq	5c38 <_dtoa_r+0x2d8>
    5a3c:	e59f0490 	ldr	r0, [pc, #1168]	; 5ed4 <_dtoa_r+0x574>
    5a40:	e59dc0a8 	ldr	r12, [sp, #168]	; 0xa8
    5a44:	e35c0000 	cmp	r12, #0
    5a48:	0afffff3 	beq	5a1c <_dtoa_r+0xbc>
    5a4c:	e5d03003 	ldrb	r3, [r0, #3]
    5a50:	e59dc0a8 	ldr	r12, [sp, #168]	; 0xa8
    5a54:	e3530000 	cmp	r3, #0
    5a58:	12803008 	addne	r3, r0, #8
    5a5c:	02803003 	addeq	r3, r0, #3
    5a60:	e58c3000 	str	r3, [r12]
    5a64:	e28dd074 	add	sp, sp, #116	; 0x74
    5a68:	e8bd4ff0 	pop	{r4, r5, r6, r7, r8, r9, r10, r11, lr}
    5a6c:	e12fff1e 	bx	lr
    5a70:	e28d206c 	add	r2, sp, #108	; 0x6c
    5a74:	e28d3068 	add	r3, sp, #104	; 0x68
    5a78:	e88d000c 	stm	sp, {r2, r3}
    5a7c:	e1a00004 	mov	r0, r4
    5a80:	e1a0200a 	mov	r2, r10
    5a84:	e1a0300b 	mov	r3, r11
    5a88:	eb000bd4 	bl	89e0 <__d2b>
    5a8c:	e1b05a29 	lsrs	r5, r9, #20
    5a90:	e58d0030 	str	r0, [sp, #48]	; 0x30
    5a94:	1a00006f 	bne	5c58 <_dtoa_r+0x2f8>
    5a98:	e59d8068 	ldr	r8, [sp, #104]	; 0x68
    5a9c:	e59d506c 	ldr	r5, [sp, #108]	; 0x6c
    5aa0:	e3e03e41 	mvn	r3, #1040	; 0x410
    5aa4:	e0885005 	add	r5, r8, r5
    5aa8:	e1550003 	cmp	r5, r3
    5aac:	a2850e41 	addge	r0, r5, #1040	; 0x410
    5ab0:	a2800002 	addge	r0, r0, #2
    5ab4:	a1a0003a 	lsrge	r0, r10, r0
    5ab8:	b59f0418 	ldrlt	r0, [pc, #1048]	; 5ed8 <_dtoa_r+0x578>
    5abc:	a283301f 	addge	r3, r3, #31
    5ac0:	a0653003 	rsbge	r3, r5, r3
    5ac4:	b0650000 	rsblt	r0, r5, r0
    5ac8:	a1800319 	orrge	r0, r0, r9, lsl r3
    5acc:	b1a0001a 	lsllt	r0, r10, r0
    5ad0:	eb002f99 	bl	1193c <__aeabi_ui2d>
    5ad4:	e3a0c001 	mov	r12, #1
    5ad8:	e58dc05c 	str	r12, [sp, #92]	; 0x5c
    5adc:	e2455001 	sub	r5, r5, #1
    5ae0:	e241161f 	sub	r1, r1, #32505856	; 0x1f00000
    5ae4:	e3a02000 	mov	r2, #0
    5ae8:	e59f33ec 	ldr	r3, [pc, #1004]	; 5edc <_dtoa_r+0x57c>
    5aec:	eb002ecd 	bl	11628 <__aeabi_dsub>
    5af0:	e28f3fee 	add	r3, pc, #952	; 0x3b8
    5af4:	e893000c 	ldm	r3, {r2, r3}
    5af8:	eb002fcf 	bl	11a3c <__aeabi_dmul>
    5afc:	e28f3fed 	add	r3, pc, #948	; 0x3b4
    5b00:	e893000c 	ldm	r3, {r2, r3}
    5b04:	eb002ec8 	bl	1162c <__adddf3>
    5b08:	e1a06000 	mov	r6, r0
    5b0c:	e1a00005 	mov	r0, r5
    5b10:	e1a07001 	mov	r7, r1
    5b14:	eb002f91 	bl	11960 <__aeabi_i2d>
    5b18:	e28f3e3a 	add	r3, pc, #928	; 0x3a0
    5b1c:	e893000c 	ldm	r3, {r2, r3}
    5b20:	eb002fc5 	bl	11a3c <__aeabi_dmul>
    5b24:	e1a02000 	mov	r2, r0
    5b28:	e1a03001 	mov	r3, r1
    5b2c:	e1a00006 	mov	r0, r6
    5b30:	e1a01007 	mov	r1, r7
    5b34:	eb002ebc 	bl	1162c <__adddf3>
    5b38:	e1a06000 	mov	r6, r0
    5b3c:	e1a07001 	mov	r7, r1
    5b40:	eb003135 	bl	1201c <__aeabi_d2iz>
    5b44:	e1a01007 	mov	r1, r7
    5b48:	e58d0018 	str	r0, [sp, #24]
    5b4c:	e3a02000 	mov	r2, #0
    5b50:	e1a00006 	mov	r0, r6
    5b54:	e3a03000 	mov	r3, #0
    5b58:	eb003117 	bl	11fbc <__aeabi_dcmplt>
    5b5c:	e3500000 	cmp	r0, #0
    5b60:	1a00019a 	bne	61d0 <_dtoa_r+0x870>
    5b64:	e59dc018 	ldr	r12, [sp, #24]
    5b68:	e35c0016 	cmp	r12, #22
    5b6c:	83a0c001 	movhi	r12, #1
    5b70:	858dc044 	strhi	r12, [sp, #68]	; 0x44
    5b74:	8a00000c 	bhi	5bac <_dtoa_r+0x24c>
    5b78:	e59f3370 	ldr	r3, [pc, #880]	; 5ef0 <_dtoa_r+0x590>
    5b7c:	e083318c 	add	r3, r3, r12, lsl #3
    5b80:	e8930003 	ldm	r3, {r0, r1}
    5b84:	e1a0200a 	mov	r2, r10
    5b88:	e1a0300b 	mov	r3, r11
    5b8c:	eb00311c 	bl	12004 <__aeabi_dcmpgt>
    5b90:	e3500000 	cmp	r0, #0
    5b94:	159dc018 	ldrne	r12, [sp, #24]
    5b98:	124cc001 	subne	r12, r12, #1
    5b9c:	158dc018 	strne	r12, [sp, #24]
    5ba0:	13a0c000 	movne	r12, #0
    5ba4:	158dc044 	strne	r12, [sp, #68]	; 0x44
    5ba8:	058d0044 	streq	r0, [sp, #68]	; 0x44
    5bac:	e0655008 	rsb	r5, r5, r8
    5bb0:	e2555001 	subs	r5, r5, #1
    5bb4:	4265c000 	rsbmi	r12, r5, #0
    5bb8:	458dc02c 	strmi	r12, [sp, #44]	; 0x2c
    5bbc:	53a0c000 	movpl	r12, #0
    5bc0:	43a0c000 	movmi	r12, #0
    5bc4:	558dc02c 	strpl	r12, [sp, #44]	; 0x2c
    5bc8:	e58d5024 	str	r5, [sp, #36]	; 0x24
    5bcc:	458dc024 	strmi	r12, [sp, #36]	; 0x24
    5bd0:	e59dc018 	ldr	r12, [sp, #24]
    5bd4:	e35c0000 	cmp	r12, #0
    5bd8:	ba000186 	blt	61f8 <_dtoa_r+0x898>
    5bdc:	e59d1024 	ldr	r1, [sp, #36]	; 0x24
    5be0:	e58dc040 	str	r12, [sp, #64]	; 0x40
    5be4:	e081100c 	add	r1, r1, r12
    5be8:	e3a0c000 	mov	r12, #0
    5bec:	e58d1024 	str	r1, [sp, #36]	; 0x24
    5bf0:	e58dc034 	str	r12, [sp, #52]	; 0x34
    5bf4:	e59dc098 	ldr	r12, [sp, #152]	; 0x98
    5bf8:	e35c0009 	cmp	r12, #9
    5bfc:	8a000021 	bhi	5c88 <_dtoa_r+0x328>
    5c00:	e35c0005 	cmp	r12, #5
    5c04:	c24cc004 	subgt	r12, r12, #4
    5c08:	c58dc098 	strgt	r12, [sp, #152]	; 0x98
    5c0c:	e59dc098 	ldr	r12, [sp, #152]	; 0x98
    5c10:	e24c3002 	sub	r3, r12, #2
    5c14:	c3a05000 	movgt	r5, #0
    5c18:	d3a05001 	movle	r5, #1
    5c1c:	e3530003 	cmp	r3, #3
    5c20:	979ff103 	ldrls	pc, [pc, r3, lsl #2]
    5c24:	ea000019 	b	5c90 <_dtoa_r+0x330>
    5c28:	000062a0 	.word	0x000062a0
    5c2c:	000065f8 	.word	0x000065f8
    5c30:	00006634 	.word	0x00006634
    5c34:	00006c8c 	.word	0x00006c8c
    5c38:	e3c904ff 	bic	r0, r9, #-16777216	; 0xff000000
    5c3c:	e3c0060f 	bic	r0, r0, #15728640	; 0xf00000
    5c40:	e59f2298 	ldr	r2, [pc, #664]	; 5ee0 <_dtoa_r+0x580>
    5c44:	e59f3288 	ldr	r3, [pc, #648]	; 5ed4 <_dtoa_r+0x574>
    5c48:	e3500000 	cmp	r0, #0
    5c4c:	01a00002 	moveq	r0, r2
    5c50:	11a00003 	movne	r0, r3
    5c54:	eaffff79 	b	5a40 <_dtoa_r+0xe0>
    5c58:	e3cb34ff 	bic	r3, r11, #-16777216	; 0xff000000
    5c5c:	e3c3360f 	bic	r3, r3, #15728640	; 0xf00000
    5c60:	e2455fff 	sub	r5, r5, #1020	; 0x3fc
    5c64:	e38335ff 	orr	r3, r3, #1069547520	; 0x3fc00000
    5c68:	e58d805c 	str	r8, [sp, #92]	; 0x5c
    5c6c:	e1a0000a 	mov	r0, r10
    5c70:	e2455003 	sub	r5, r5, #3
    5c74:	e3831603 	orr	r1, r3, #3145728	; 0x300000
    5c78:	e59d8068 	ldr	r8, [sp, #104]	; 0x68
    5c7c:	eaffff98 	b	5ae4 <_dtoa_r+0x184>
    5c80:	e59f025c 	ldr	r0, [pc, #604]	; 5ee4 <_dtoa_r+0x584>
    5c84:	eaffff64 	b	5a1c <_dtoa_r+0xbc>
    5c88:	e3a0c000 	mov	r12, #0
    5c8c:	e58dc098 	str	r12, [sp, #152]	; 0x98
    5c90:	e3a05000 	mov	r5, #0
    5c94:	e5845044 	str	r5, [r4, #68]	; 0x44
    5c98:	e1a01005 	mov	r1, r5
    5c9c:	e1a00004 	mov	r0, r4
    5ca0:	eb0008b9 	bl	7f8c <_Balloc>
    5ca4:	e3e0c000 	mvn	r12, #0
    5ca8:	e58dc03c 	str	r12, [sp, #60]	; 0x3c
    5cac:	e58dc028 	str	r12, [sp, #40]	; 0x28
    5cb0:	e3a0c001 	mov	r12, #1
    5cb4:	e58d0020 	str	r0, [sp, #32]
    5cb8:	e58d509c 	str	r5, [sp, #156]	; 0x9c
    5cbc:	e5840040 	str	r0, [r4, #64]	; 0x40
    5cc0:	e58dc038 	str	r12, [sp, #56]	; 0x38
    5cc4:	e59d306c 	ldr	r3, [sp, #108]	; 0x6c
    5cc8:	e3530000 	cmp	r3, #0
    5ccc:	ba00009b 	blt	5f40 <_dtoa_r+0x5e0>
    5cd0:	e59dc018 	ldr	r12, [sp, #24]
    5cd4:	e35c000e 	cmp	r12, #14
    5cd8:	ca000098 	bgt	5f40 <_dtoa_r+0x5e0>
    5cdc:	e59d109c 	ldr	r1, [sp, #156]	; 0x9c
    5ce0:	e59dc028 	ldr	r12, [sp, #40]	; 0x28
    5ce4:	e1a02fa1 	lsr	r2, r1, #31
    5ce8:	e35c0000 	cmp	r12, #0
    5cec:	c3a02000 	movgt	r2, #0
    5cf0:	d2022001 	andle	r2, r2, #1
    5cf4:	e59f31f4 	ldr	r3, [pc, #500]	; 5ef0 <_dtoa_r+0x590>
    5cf8:	e59dc018 	ldr	r12, [sp, #24]
    5cfc:	e083318c 	add	r3, r3, r12, lsl #3
    5d00:	e3520000 	cmp	r2, #0
    5d04:	e8930006 	ldm	r3, {r1, r2}
    5d08:	e58d1010 	str	r1, [sp, #16]
    5d0c:	e58d2014 	str	r2, [sp, #20]
    5d10:	1a000341 	bne	6a1c <_dtoa_r+0x10bc>
    5d14:	e28d3010 	add	r3, sp, #16
    5d18:	e893000c 	ldm	r3, {r2, r3}
    5d1c:	e1a0000a 	mov	r0, r10
    5d20:	e1a0100b 	mov	r1, r11
    5d24:	eb002fe8 	bl	11ccc <__aeabi_ddiv>
    5d28:	eb0030bb 	bl	1201c <__aeabi_d2iz>
    5d2c:	e1a08000 	mov	r8, r0
    5d30:	eb002f0a 	bl	11960 <__aeabi_i2d>
    5d34:	e28d3010 	add	r3, sp, #16
    5d38:	e893000c 	ldm	r3, {r2, r3}
    5d3c:	eb002f3e 	bl	11a3c <__aeabi_dmul>
    5d40:	e1a03001 	mov	r3, r1
    5d44:	e1a02000 	mov	r2, r0
    5d48:	e1a0100b 	mov	r1, r11
    5d4c:	e1a0000a 	mov	r0, r10
    5d50:	eb002e34 	bl	11628 <__aeabi_dsub>
    5d54:	e59dc028 	ldr	r12, [sp, #40]	; 0x28
    5d58:	e35c0001 	cmp	r12, #1
    5d5c:	e59dc020 	ldr	r12, [sp, #32]
    5d60:	e28cc001 	add	r12, r12, #1
    5d64:	e58dc058 	str	r12, [sp, #88]	; 0x58
    5d68:	e59dc020 	ldr	r12, [sp, #32]
    5d6c:	e2883030 	add	r3, r8, #48	; 0x30
    5d70:	e1a06000 	mov	r6, r0
    5d74:	e1a07001 	mov	r7, r1
    5d78:	e5cc3000 	strb	r3, [r12]
    5d7c:	e59d5058 	ldr	r5, [sp, #88]	; 0x58
    5d80:	0a000035 	beq	5e5c <_dtoa_r+0x4fc>
    5d84:	e3a02000 	mov	r2, #0
    5d88:	e59f3168 	ldr	r3, [pc, #360]	; 5ef8 <_dtoa_r+0x598>
    5d8c:	eb002f2a 	bl	11a3c <__aeabi_dmul>
    5d90:	e3a02000 	mov	r2, #0
    5d94:	e3a03000 	mov	r3, #0
    5d98:	e1a06000 	mov	r6, r0
    5d9c:	e1a07001 	mov	r7, r1
    5da0:	eb00307f 	bl	11fa4 <__aeabi_dcmpeq>
    5da4:	e3500000 	cmp	r0, #0
    5da8:	1a00049a 	bne	7018 <_dtoa_r+0x16b8>
    5dac:	e59dc020 	ldr	r12, [sp, #32]
    5db0:	e59d1028 	ldr	r1, [sp, #40]	; 0x28
    5db4:	e58d401c 	str	r4, [sp, #28]
    5db8:	e08c9001 	add	r9, r12, r1
    5dbc:	e28ca002 	add	r10, r12, #2
    5dc0:	e28d5010 	add	r5, sp, #16
    5dc4:	e8950030 	ldm	r5, {r4, r5}
    5dc8:	ea000008 	b	5df0 <_dtoa_r+0x490>
    5dcc:	eb002f1a 	bl	11a3c <__aeabi_dmul>
    5dd0:	e3a02000 	mov	r2, #0
    5dd4:	e3a03000 	mov	r3, #0
    5dd8:	e1a06000 	mov	r6, r0
    5ddc:	e1a07001 	mov	r7, r1
    5de0:	eb00306f 	bl	11fa4 <__aeabi_dcmpeq>
    5de4:	e3500000 	cmp	r0, #0
    5de8:	e28aa001 	add	r10, r10, #1
    5dec:	1a000410 	bne	6e34 <_dtoa_r+0x14d4>
    5df0:	e1a02004 	mov	r2, r4
    5df4:	e1a03005 	mov	r3, r5
    5df8:	e1a00006 	mov	r0, r6
    5dfc:	e1a01007 	mov	r1, r7
    5e00:	eb002fb1 	bl	11ccc <__aeabi_ddiv>
    5e04:	eb003084 	bl	1201c <__aeabi_d2iz>
    5e08:	e1a08000 	mov	r8, r0
    5e0c:	eb002ed3 	bl	11960 <__aeabi_i2d>
    5e10:	e1a02004 	mov	r2, r4
    5e14:	e1a03005 	mov	r3, r5
    5e18:	eb002f07 	bl	11a3c <__aeabi_dmul>
    5e1c:	e1a02000 	mov	r2, r0
    5e20:	e1a03001 	mov	r3, r1
    5e24:	e1a00006 	mov	r0, r6
    5e28:	e1a01007 	mov	r1, r7
    5e2c:	eb002dfd 	bl	11628 <__aeabi_dsub>
    5e30:	e288c030 	add	r12, r8, #48	; 0x30
    5e34:	e15a0009 	cmp	r10, r9
    5e38:	e1a06000 	mov	r6, r0
    5e3c:	e1a07001 	mov	r7, r1
    5e40:	e3a02000 	mov	r2, #0
    5e44:	e59f30ac 	ldr	r3, [pc, #172]	; 5ef8 <_dtoa_r+0x598>
    5e48:	e54ac001 	strb	r12, [r10, #-1]
    5e4c:	e1a0b00a 	mov	r11, r10
    5e50:	1affffdd 	bne	5dcc <_dtoa_r+0x46c>
    5e54:	e59d401c 	ldr	r4, [sp, #28]
    5e58:	e1a0500a 	mov	r5, r10
    5e5c:	e1a02006 	mov	r2, r6
    5e60:	e1a03007 	mov	r3, r7
    5e64:	e1a00006 	mov	r0, r6
    5e68:	e1a01007 	mov	r1, r7
    5e6c:	eb002dee 	bl	1162c <__adddf3>
    5e70:	e1a06000 	mov	r6, r0
    5e74:	e1a07001 	mov	r7, r1
    5e78:	e1a02006 	mov	r2, r6
    5e7c:	e28d1010 	add	r1, sp, #16
    5e80:	e8910003 	ldm	r1, {r0, r1}
    5e84:	e1a03007 	mov	r3, r7
    5e88:	eb00304b 	bl	11fbc <__aeabi_dcmplt>
    5e8c:	e3500000 	cmp	r0, #0
    5e90:	0a000429 	beq	6f3c <_dtoa_r+0x15dc>
    5e94:	e59dc018 	ldr	r12, [sp, #24]
    5e98:	e58dc060 	str	r12, [sp, #96]	; 0x60
    5e9c:	e59d9020 	ldr	r9, [sp, #32]
    5ea0:	e5558001 	ldrb	r8, [r5, #-1]
    5ea4:	e59d1058 	ldr	r1, [sp, #88]	; 0x58
    5ea8:	ea000019 	b	5f14 <_dtoa_r+0x5b4>
    5eac:	e1a00000 	nop			; (mov r0, r0)
    5eb0:	636f4361 	.word	0x636f4361
    5eb4:	3fd287a7 	.word	0x3fd287a7
    5eb8:	8b60c8b3 	.word	0x8b60c8b3
    5ebc:	3fc68a28 	.word	0x3fc68a28
    5ec0:	509f79fb 	.word	0x509f79fb
    5ec4:	3fd34413 	.word	0x3fd34413
    5ec8:	7ff00000 	.word	0x7ff00000
    5ecc:	0001360d 	.word	0x0001360d
    5ed0:	0000270f 	.word	0x0000270f
    5ed4:	0001374c 	.word	0x0001374c
    5ed8:	fffffbee 	.word	0xfffffbee
    5edc:	3ff80000 	.word	0x3ff80000
    5ee0:	00013740 	.word	0x00013740
    5ee4:	0001360c 	.word	0x0001360c
    5ee8:	3ff00000 	.word	0x3ff00000
    5eec:	00013860 	.word	0x00013860
    5ef0:	00013770 	.word	0x00013770
    5ef4:	40140000 	.word	0x40140000
    5ef8:	40240000 	.word	0x40240000
    5efc:	401c0000 	.word	0x401c0000
    5f00:	3fe00000 	.word	0x3fe00000
    5f04:	e1550001 	cmp	r5, r1
    5f08:	0a000392 	beq	6d58 <_dtoa_r+0x13f8>
    5f0c:	e5558002 	ldrb	r8, [r5, #-2]
    5f10:	e1a05003 	mov	r5, r3
    5f14:	e3580039 	cmp	r8, #57	; 0x39
    5f18:	e1a02005 	mov	r2, r5
    5f1c:	e2453001 	sub	r3, r5, #1
    5f20:	0afffff7 	beq	5f04 <_dtoa_r+0x5a4>
    5f24:	e59dc060 	ldr	r12, [sp, #96]	; 0x60
    5f28:	e2882001 	add	r2, r8, #1
    5f2c:	e58d5020 	str	r5, [sp, #32]
    5f30:	e58dc018 	str	r12, [sp, #24]
    5f34:	e20220ff 	and	r2, r2, #255	; 0xff
    5f38:	e5c32000 	strb	r2, [r3]
    5f3c:	ea00008e 	b	617c <_dtoa_r+0x81c>
    5f40:	e59dc038 	ldr	r12, [sp, #56]	; 0x38
    5f44:	e35c0000 	cmp	r12, #0
    5f48:	1a0000b3 	bne	621c <_dtoa_r+0x8bc>
    5f4c:	e59d6034 	ldr	r6, [sp, #52]	; 0x34
    5f50:	e59d502c 	ldr	r5, [sp, #44]	; 0x2c
    5f54:	e59d8038 	ldr	r8, [sp, #56]	; 0x38
    5f58:	e59dc024 	ldr	r12, [sp, #36]	; 0x24
    5f5c:	e35c0000 	cmp	r12, #0
    5f60:	c3550000 	cmpgt	r5, #0
    5f64:	da000009 	ble	5f90 <_dtoa_r+0x630>
    5f68:	e1a0300c 	mov	r3, r12
    5f6c:	e59dc02c 	ldr	r12, [sp, #44]	; 0x2c
    5f70:	e1530005 	cmp	r3, r5
    5f74:	a1a03005 	movge	r3, r5
    5f78:	e063c00c 	rsb	r12, r3, r12
    5f7c:	e58dc02c 	str	r12, [sp, #44]	; 0x2c
    5f80:	e59dc024 	ldr	r12, [sp, #36]	; 0x24
    5f84:	e063c00c 	rsb	r12, r3, r12
    5f88:	e58dc024 	str	r12, [sp, #36]	; 0x24
    5f8c:	e0635005 	rsb	r5, r3, r5
    5f90:	e59dc034 	ldr	r12, [sp, #52]	; 0x34
    5f94:	e35c0000 	cmp	r12, #0
    5f98:	da000015 	ble	5ff4 <_dtoa_r+0x694>
    5f9c:	e59dc038 	ldr	r12, [sp, #56]	; 0x38
    5fa0:	e35c0000 	cmp	r12, #0
    5fa4:	0a000347 	beq	6cc8 <_dtoa_r+0x1368>
    5fa8:	e3560000 	cmp	r6, #0
    5fac:	da00000d 	ble	5fe8 <_dtoa_r+0x688>
    5fb0:	e1a01008 	mov	r1, r8
    5fb4:	e1a02006 	mov	r2, r6
